ARM GAS  C:\Users\Berbardo\AppData\Local\Temp\cc4dOe3x.s 			page 1


   1              		.cpu cortex-m4
   2              		.eabi_attribute 27, 1
   3              		.eabi_attribute 28, 1
   4              		.eabi_attribute 20, 1
   5              		.eabi_attribute 21, 1
   6              		.eabi_attribute 23, 3
   7              		.eabi_attribute 24, 1
   8              		.eabi_attribute 25, 1
   9              		.eabi_attribute 26, 1
  10              		.eabi_attribute 30, 1
  11              		.eabi_attribute 34, 1
  12              		.eabi_attribute 18, 4
  13              		.file	"i2c.c"
  14              		.text
  15              	.Ltext0:
  16              		.cfi_sections	.debug_frame
  17              		.section	.text.MX_I2C2_Init,"ax",%progbits
  18              		.align	1
  19              		.global	MX_I2C2_Init
  20              		.arch armv7e-m
  21              		.syntax unified
  22              		.thumb
  23              		.thumb_func
  24              		.fpu fpv4-sp-d16
  26              	MX_I2C2_Init:
  27              	.LFB126:
  28              		.file 1 "cube/Src/i2c.c"
   1:cube/Src/i2c.c **** /**
   2:cube/Src/i2c.c ****   ******************************************************************************
   3:cube/Src/i2c.c ****   * File Name          : I2C.c
   4:cube/Src/i2c.c ****   * Description        : This file provides code for the configuration
   5:cube/Src/i2c.c ****   *                      of the I2C instances.
   6:cube/Src/i2c.c ****   ******************************************************************************
   7:cube/Src/i2c.c ****   * @attention
   8:cube/Src/i2c.c ****   *
   9:cube/Src/i2c.c ****   * <h2><center>&copy; Copyright (c) 2019 STMicroelectronics.
  10:cube/Src/i2c.c ****   * All rights reserved.</center></h2>
  11:cube/Src/i2c.c ****   *
  12:cube/Src/i2c.c ****   * This software component is licensed by ST under BSD 3-Clause license,
  13:cube/Src/i2c.c ****   * the "License"; You may not use this file except in compliance with the
  14:cube/Src/i2c.c ****   * License. You may obtain a copy of the License at:
  15:cube/Src/i2c.c ****   *                        opensource.org/licenses/BSD-3-Clause
  16:cube/Src/i2c.c ****   *
  17:cube/Src/i2c.c ****   ******************************************************************************
  18:cube/Src/i2c.c ****   */
  19:cube/Src/i2c.c **** 
  20:cube/Src/i2c.c **** /* Includes ------------------------------------------------------------------*/
  21:cube/Src/i2c.c **** #include "i2c.h"
  22:cube/Src/i2c.c **** 
  23:cube/Src/i2c.c **** /* USER CODE BEGIN 0 */
  24:cube/Src/i2c.c **** 
  25:cube/Src/i2c.c **** /* USER CODE END 0 */
  26:cube/Src/i2c.c **** 
  27:cube/Src/i2c.c **** I2C_HandleTypeDef hi2c2;
  28:cube/Src/i2c.c **** 
  29:cube/Src/i2c.c **** /* I2C2 init function */
  30:cube/Src/i2c.c **** void MX_I2C2_Init(void)
ARM GAS  C:\Users\Berbardo\AppData\Local\Temp\cc4dOe3x.s 			page 2


  31:cube/Src/i2c.c **** {
  29              		.loc 1 31 1 view -0
  30              		.cfi_startproc
  31              		@ args = 0, pretend = 0, frame = 0
  32              		@ frame_needed = 0, uses_anonymous_args = 0
  33 0000 08B5     		push	{r3, lr}
  34              		.cfi_def_cfa_offset 8
  35              		.cfi_offset 3, -8
  36              		.cfi_offset 14, -4
  32:cube/Src/i2c.c **** 
  33:cube/Src/i2c.c ****   hi2c2.Instance = I2C2;
  37              		.loc 1 33 3 view .LVU1
  38              		.loc 1 33 18 is_stmt 0 view .LVU2
  39 0002 1248     		ldr	r0, .L9
  40 0004 124B     		ldr	r3, .L9+4
  41 0006 0360     		str	r3, [r0]
  34:cube/Src/i2c.c ****   hi2c2.Init.Timing = 0x2000090E;
  42              		.loc 1 34 3 is_stmt 1 view .LVU3
  43              		.loc 1 34 21 is_stmt 0 view .LVU4
  44 0008 124B     		ldr	r3, .L9+8
  45 000a 4360     		str	r3, [r0, #4]
  35:cube/Src/i2c.c ****   hi2c2.Init.OwnAddress1 = 0;
  46              		.loc 1 35 3 is_stmt 1 view .LVU5
  47              		.loc 1 35 26 is_stmt 0 view .LVU6
  48 000c 0023     		movs	r3, #0
  49 000e 8360     		str	r3, [r0, #8]
  36:cube/Src/i2c.c ****   hi2c2.Init.AddressingMode = I2C_ADDRESSINGMODE_7BIT;
  50              		.loc 1 36 3 is_stmt 1 view .LVU7
  51              		.loc 1 36 29 is_stmt 0 view .LVU8
  52 0010 0122     		movs	r2, #1
  53 0012 C260     		str	r2, [r0, #12]
  37:cube/Src/i2c.c ****   hi2c2.Init.DualAddressMode = I2C_DUALADDRESS_DISABLE;
  54              		.loc 1 37 3 is_stmt 1 view .LVU9
  55              		.loc 1 37 30 is_stmt 0 view .LVU10
  56 0014 0361     		str	r3, [r0, #16]
  38:cube/Src/i2c.c ****   hi2c2.Init.OwnAddress2 = 0;
  57              		.loc 1 38 3 is_stmt 1 view .LVU11
  58              		.loc 1 38 26 is_stmt 0 view .LVU12
  59 0016 4361     		str	r3, [r0, #20]
  39:cube/Src/i2c.c ****   hi2c2.Init.OwnAddress2Masks = I2C_OA2_NOMASK;
  60              		.loc 1 39 3 is_stmt 1 view .LVU13
  61              		.loc 1 39 31 is_stmt 0 view .LVU14
  62 0018 8361     		str	r3, [r0, #24]
  40:cube/Src/i2c.c ****   hi2c2.Init.GeneralCallMode = I2C_GENERALCALL_DISABLE;
  63              		.loc 1 40 3 is_stmt 1 view .LVU15
  64              		.loc 1 40 30 is_stmt 0 view .LVU16
  65 001a C361     		str	r3, [r0, #28]
  41:cube/Src/i2c.c ****   hi2c2.Init.NoStretchMode = I2C_NOSTRETCH_DISABLE;
  66              		.loc 1 41 3 is_stmt 1 view .LVU17
  67              		.loc 1 41 28 is_stmt 0 view .LVU18
  68 001c 0362     		str	r3, [r0, #32]
  42:cube/Src/i2c.c ****   if (HAL_I2C_Init(&hi2c2) != HAL_OK)
  69              		.loc 1 42 3 is_stmt 1 view .LVU19
  70              		.loc 1 42 7 is_stmt 0 view .LVU20
  71 001e FFF7FEFF 		bl	HAL_I2C_Init
  72              	.LVL0:
  73              		.loc 1 42 6 view .LVU21
ARM GAS  C:\Users\Berbardo\AppData\Local\Temp\cc4dOe3x.s 			page 3


  74 0022 50B9     		cbnz	r0, .L6
  75              	.L2:
  43:cube/Src/i2c.c ****   {
  44:cube/Src/i2c.c ****     Error_Handler();
  45:cube/Src/i2c.c ****   }
  46:cube/Src/i2c.c ****   /** Configure Analogue filter 
  47:cube/Src/i2c.c ****   */
  48:cube/Src/i2c.c ****   if (HAL_I2CEx_ConfigAnalogFilter(&hi2c2, I2C_ANALOGFILTER_ENABLE) != HAL_OK)
  76              		.loc 1 48 3 is_stmt 1 view .LVU22
  77              		.loc 1 48 7 is_stmt 0 view .LVU23
  78 0024 0021     		movs	r1, #0
  79 0026 0948     		ldr	r0, .L9
  80 0028 FFF7FEFF 		bl	HAL_I2CEx_ConfigAnalogFilter
  81              	.LVL1:
  82              		.loc 1 48 6 view .LVU24
  83 002c 40B9     		cbnz	r0, .L7
  84              	.L3:
  49:cube/Src/i2c.c ****   {
  50:cube/Src/i2c.c ****     Error_Handler();
  51:cube/Src/i2c.c ****   }
  52:cube/Src/i2c.c ****   /** Configure Digital filter 
  53:cube/Src/i2c.c ****   */
  54:cube/Src/i2c.c ****   if (HAL_I2CEx_ConfigDigitalFilter(&hi2c2, 0) != HAL_OK)
  85              		.loc 1 54 3 is_stmt 1 view .LVU25
  86              		.loc 1 54 7 is_stmt 0 view .LVU26
  87 002e 0021     		movs	r1, #0
  88 0030 0648     		ldr	r0, .L9
  89 0032 FFF7FEFF 		bl	HAL_I2CEx_ConfigDigitalFilter
  90              	.LVL2:
  91              		.loc 1 54 6 view .LVU27
  92 0036 30B9     		cbnz	r0, .L8
  93              	.L1:
  55:cube/Src/i2c.c ****   {
  56:cube/Src/i2c.c ****     Error_Handler();
  57:cube/Src/i2c.c ****   }
  58:cube/Src/i2c.c **** 
  59:cube/Src/i2c.c **** }
  94              		.loc 1 59 1 view .LVU28
  95 0038 08BD     		pop	{r3, pc}
  96              	.L6:
  44:cube/Src/i2c.c ****   }
  97              		.loc 1 44 5 is_stmt 1 view .LVU29
  98 003a FFF7FEFF 		bl	Error_Handler
  99              	.LVL3:
 100 003e F1E7     		b	.L2
 101              	.L7:
  50:cube/Src/i2c.c ****   }
 102              		.loc 1 50 5 view .LVU30
 103 0040 FFF7FEFF 		bl	Error_Handler
 104              	.LVL4:
 105 0044 F3E7     		b	.L3
 106              	.L8:
  56:cube/Src/i2c.c ****   }
 107              		.loc 1 56 5 view .LVU31
 108 0046 FFF7FEFF 		bl	Error_Handler
 109              	.LVL5:
 110              		.loc 1 59 1 is_stmt 0 view .LVU32
ARM GAS  C:\Users\Berbardo\AppData\Local\Temp\cc4dOe3x.s 			page 4


 111 004a F5E7     		b	.L1
 112              	.L10:
 113              		.align	2
 114              	.L9:
 115 004c 00000000 		.word	hi2c2
 116 0050 00580040 		.word	1073764352
 117 0054 0E090020 		.word	536873230
 118              		.cfi_endproc
 119              	.LFE126:
 121              		.section	.text.HAL_I2C_MspInit,"ax",%progbits
 122              		.align	1
 123              		.global	HAL_I2C_MspInit
 124              		.syntax unified
 125              		.thumb
 126              		.thumb_func
 127              		.fpu fpv4-sp-d16
 129              	HAL_I2C_MspInit:
 130              	.LVL6:
 131              	.LFB127:
  60:cube/Src/i2c.c **** 
  61:cube/Src/i2c.c **** void HAL_I2C_MspInit(I2C_HandleTypeDef* i2cHandle)
  62:cube/Src/i2c.c **** {
 132              		.loc 1 62 1 is_stmt 1 view -0
 133              		.cfi_startproc
 134              		@ args = 0, pretend = 0, frame = 32
 135              		@ frame_needed = 0, uses_anonymous_args = 0
 136              		.loc 1 62 1 is_stmt 0 view .LVU34
 137 0000 10B5     		push	{r4, lr}
 138              		.cfi_def_cfa_offset 8
 139              		.cfi_offset 4, -8
 140              		.cfi_offset 14, -4
 141 0002 88B0     		sub	sp, sp, #32
 142              		.cfi_def_cfa_offset 40
  63:cube/Src/i2c.c **** 
  64:cube/Src/i2c.c ****   GPIO_InitTypeDef GPIO_InitStruct = {0};
 143              		.loc 1 64 3 is_stmt 1 view .LVU35
 144              		.loc 1 64 20 is_stmt 0 view .LVU36
 145 0004 0023     		movs	r3, #0
 146 0006 0393     		str	r3, [sp, #12]
 147 0008 0493     		str	r3, [sp, #16]
 148 000a 0593     		str	r3, [sp, #20]
 149 000c 0693     		str	r3, [sp, #24]
 150 000e 0793     		str	r3, [sp, #28]
  65:cube/Src/i2c.c ****   if(i2cHandle->Instance==I2C2)
 151              		.loc 1 65 3 is_stmt 1 view .LVU37
 152              		.loc 1 65 15 is_stmt 0 view .LVU38
 153 0010 0268     		ldr	r2, [r0]
 154              		.loc 1 65 5 view .LVU39
 155 0012 134B     		ldr	r3, .L15
 156 0014 9A42     		cmp	r2, r3
 157 0016 01D0     		beq	.L14
 158              	.LVL7:
 159              	.L11:
  66:cube/Src/i2c.c ****   {
  67:cube/Src/i2c.c ****   /* USER CODE BEGIN I2C2_MspInit 0 */
  68:cube/Src/i2c.c **** 
  69:cube/Src/i2c.c ****   /* USER CODE END I2C2_MspInit 0 */
ARM GAS  C:\Users\Berbardo\AppData\Local\Temp\cc4dOe3x.s 			page 5


  70:cube/Src/i2c.c ****   
  71:cube/Src/i2c.c ****     __HAL_RCC_GPIOF_CLK_ENABLE();
  72:cube/Src/i2c.c ****     /**I2C2 GPIO Configuration    
  73:cube/Src/i2c.c ****     PF0-OSC_IN     ------> I2C2_SDA
  74:cube/Src/i2c.c ****     PF1-OSC_OUT     ------> I2C2_SCL 
  75:cube/Src/i2c.c ****     */
  76:cube/Src/i2c.c ****     GPIO_InitStruct.Pin = GPIO_PIN_0|GPIO_PIN_1;
  77:cube/Src/i2c.c ****     GPIO_InitStruct.Mode = GPIO_MODE_AF_OD;
  78:cube/Src/i2c.c ****     GPIO_InitStruct.Pull = GPIO_PULLUP;
  79:cube/Src/i2c.c ****     GPIO_InitStruct.Speed = GPIO_SPEED_FREQ_HIGH;
  80:cube/Src/i2c.c ****     GPIO_InitStruct.Alternate = GPIO_AF4_I2C2;
  81:cube/Src/i2c.c ****     HAL_GPIO_Init(GPIOF, &GPIO_InitStruct);
  82:cube/Src/i2c.c **** 
  83:cube/Src/i2c.c ****     /* I2C2 clock enable */
  84:cube/Src/i2c.c ****     __HAL_RCC_I2C2_CLK_ENABLE();
  85:cube/Src/i2c.c ****   /* USER CODE BEGIN I2C2_MspInit 1 */
  86:cube/Src/i2c.c **** 
  87:cube/Src/i2c.c ****   /* USER CODE END I2C2_MspInit 1 */
  88:cube/Src/i2c.c ****   }
  89:cube/Src/i2c.c **** }
 160              		.loc 1 89 1 view .LVU40
 161 0018 08B0     		add	sp, sp, #32
 162              		.cfi_remember_state
 163              		.cfi_def_cfa_offset 8
 164              		@ sp needed
 165 001a 10BD     		pop	{r4, pc}
 166              	.LVL8:
 167              	.L14:
 168              		.cfi_restore_state
  71:cube/Src/i2c.c ****     /**I2C2 GPIO Configuration    
 169              		.loc 1 71 5 is_stmt 1 view .LVU41
 170              	.LBB2:
  71:cube/Src/i2c.c ****     /**I2C2 GPIO Configuration    
 171              		.loc 1 71 5 view .LVU42
  71:cube/Src/i2c.c ****     /**I2C2 GPIO Configuration    
 172              		.loc 1 71 5 view .LVU43
 173 001c 114C     		ldr	r4, .L15+4
 174 001e 6369     		ldr	r3, [r4, #20]
 175 0020 43F48003 		orr	r3, r3, #4194304
 176 0024 6361     		str	r3, [r4, #20]
  71:cube/Src/i2c.c ****     /**I2C2 GPIO Configuration    
 177              		.loc 1 71 5 view .LVU44
 178 0026 6369     		ldr	r3, [r4, #20]
 179 0028 03F48003 		and	r3, r3, #4194304
 180 002c 0193     		str	r3, [sp, #4]
  71:cube/Src/i2c.c ****     /**I2C2 GPIO Configuration    
 181              		.loc 1 71 5 view .LVU45
 182 002e 019B     		ldr	r3, [sp, #4]
 183              	.LBE2:
  76:cube/Src/i2c.c ****     GPIO_InitStruct.Mode = GPIO_MODE_AF_OD;
 184              		.loc 1 76 5 view .LVU46
  76:cube/Src/i2c.c ****     GPIO_InitStruct.Mode = GPIO_MODE_AF_OD;
 185              		.loc 1 76 25 is_stmt 0 view .LVU47
 186 0030 0323     		movs	r3, #3
 187 0032 0393     		str	r3, [sp, #12]
  77:cube/Src/i2c.c ****     GPIO_InitStruct.Pull = GPIO_PULLUP;
 188              		.loc 1 77 5 is_stmt 1 view .LVU48
ARM GAS  C:\Users\Berbardo\AppData\Local\Temp\cc4dOe3x.s 			page 6


  77:cube/Src/i2c.c ****     GPIO_InitStruct.Pull = GPIO_PULLUP;
 189              		.loc 1 77 26 is_stmt 0 view .LVU49
 190 0034 1222     		movs	r2, #18
 191 0036 0492     		str	r2, [sp, #16]
  78:cube/Src/i2c.c ****     GPIO_InitStruct.Speed = GPIO_SPEED_FREQ_HIGH;
 192              		.loc 1 78 5 is_stmt 1 view .LVU50
  78:cube/Src/i2c.c ****     GPIO_InitStruct.Speed = GPIO_SPEED_FREQ_HIGH;
 193              		.loc 1 78 26 is_stmt 0 view .LVU51
 194 0038 0122     		movs	r2, #1
 195 003a 0592     		str	r2, [sp, #20]
  79:cube/Src/i2c.c ****     GPIO_InitStruct.Alternate = GPIO_AF4_I2C2;
 196              		.loc 1 79 5 is_stmt 1 view .LVU52
  79:cube/Src/i2c.c ****     GPIO_InitStruct.Alternate = GPIO_AF4_I2C2;
 197              		.loc 1 79 27 is_stmt 0 view .LVU53
 198 003c 0693     		str	r3, [sp, #24]
  80:cube/Src/i2c.c ****     HAL_GPIO_Init(GPIOF, &GPIO_InitStruct);
 199              		.loc 1 80 5 is_stmt 1 view .LVU54
  80:cube/Src/i2c.c ****     HAL_GPIO_Init(GPIOF, &GPIO_InitStruct);
 200              		.loc 1 80 31 is_stmt 0 view .LVU55
 201 003e 0423     		movs	r3, #4
 202 0040 0793     		str	r3, [sp, #28]
  81:cube/Src/i2c.c **** 
 203              		.loc 1 81 5 is_stmt 1 view .LVU56
 204 0042 03A9     		add	r1, sp, #12
 205 0044 0848     		ldr	r0, .L15+8
 206              	.LVL9:
  81:cube/Src/i2c.c **** 
 207              		.loc 1 81 5 is_stmt 0 view .LVU57
 208 0046 FFF7FEFF 		bl	HAL_GPIO_Init
 209              	.LVL10:
  84:cube/Src/i2c.c ****   /* USER CODE BEGIN I2C2_MspInit 1 */
 210              		.loc 1 84 5 is_stmt 1 view .LVU58
 211              	.LBB3:
  84:cube/Src/i2c.c ****   /* USER CODE BEGIN I2C2_MspInit 1 */
 212              		.loc 1 84 5 view .LVU59
  84:cube/Src/i2c.c ****   /* USER CODE BEGIN I2C2_MspInit 1 */
 213              		.loc 1 84 5 view .LVU60
 214 004a E369     		ldr	r3, [r4, #28]
 215 004c 43F48003 		orr	r3, r3, #4194304
 216 0050 E361     		str	r3, [r4, #28]
  84:cube/Src/i2c.c ****   /* USER CODE BEGIN I2C2_MspInit 1 */
 217              		.loc 1 84 5 view .LVU61
 218 0052 E369     		ldr	r3, [r4, #28]
 219 0054 03F48003 		and	r3, r3, #4194304
 220 0058 0293     		str	r3, [sp, #8]
  84:cube/Src/i2c.c ****   /* USER CODE BEGIN I2C2_MspInit 1 */
 221              		.loc 1 84 5 view .LVU62
 222 005a 029B     		ldr	r3, [sp, #8]
 223              	.LBE3:
 224              		.loc 1 89 1 is_stmt 0 view .LVU63
 225 005c DCE7     		b	.L11
 226              	.L16:
 227 005e 00BF     		.align	2
 228              	.L15:
 229 0060 00580040 		.word	1073764352
 230 0064 00100240 		.word	1073876992
 231 0068 00140048 		.word	1207964672
ARM GAS  C:\Users\Berbardo\AppData\Local\Temp\cc4dOe3x.s 			page 7


 232              		.cfi_endproc
 233              	.LFE127:
 235              		.section	.text.HAL_I2C_MspDeInit,"ax",%progbits
 236              		.align	1
 237              		.global	HAL_I2C_MspDeInit
 238              		.syntax unified
 239              		.thumb
 240              		.thumb_func
 241              		.fpu fpv4-sp-d16
 243              	HAL_I2C_MspDeInit:
 244              	.LVL11:
 245              	.LFB128:
  90:cube/Src/i2c.c **** 
  91:cube/Src/i2c.c **** void HAL_I2C_MspDeInit(I2C_HandleTypeDef* i2cHandle)
  92:cube/Src/i2c.c **** {
 246              		.loc 1 92 1 is_stmt 1 view -0
 247              		.cfi_startproc
 248              		@ args = 0, pretend = 0, frame = 0
 249              		@ frame_needed = 0, uses_anonymous_args = 0
 250              		.loc 1 92 1 is_stmt 0 view .LVU65
 251 0000 08B5     		push	{r3, lr}
 252              		.cfi_def_cfa_offset 8
 253              		.cfi_offset 3, -8
 254              		.cfi_offset 14, -4
  93:cube/Src/i2c.c **** 
  94:cube/Src/i2c.c ****   if(i2cHandle->Instance==I2C2)
 255              		.loc 1 94 3 is_stmt 1 view .LVU66
 256              		.loc 1 94 15 is_stmt 0 view .LVU67
 257 0002 0268     		ldr	r2, [r0]
 258              		.loc 1 94 5 view .LVU68
 259 0004 064B     		ldr	r3, .L21
 260 0006 9A42     		cmp	r2, r3
 261 0008 00D0     		beq	.L20
 262              	.LVL12:
 263              	.L17:
  95:cube/Src/i2c.c ****   {
  96:cube/Src/i2c.c ****   /* USER CODE BEGIN I2C2_MspDeInit 0 */
  97:cube/Src/i2c.c **** 
  98:cube/Src/i2c.c ****   /* USER CODE END I2C2_MspDeInit 0 */
  99:cube/Src/i2c.c ****     /* Peripheral clock disable */
 100:cube/Src/i2c.c ****     __HAL_RCC_I2C2_CLK_DISABLE();
 101:cube/Src/i2c.c ****   
 102:cube/Src/i2c.c ****     /**I2C2 GPIO Configuration    
 103:cube/Src/i2c.c ****     PF0-OSC_IN     ------> I2C2_SDA
 104:cube/Src/i2c.c ****     PF1-OSC_OUT     ------> I2C2_SCL 
 105:cube/Src/i2c.c ****     */
 106:cube/Src/i2c.c ****     HAL_GPIO_DeInit(GPIOF, GPIO_PIN_0|GPIO_PIN_1);
 107:cube/Src/i2c.c **** 
 108:cube/Src/i2c.c ****   /* USER CODE BEGIN I2C2_MspDeInit 1 */
 109:cube/Src/i2c.c **** 
 110:cube/Src/i2c.c ****   /* USER CODE END I2C2_MspDeInit 1 */
 111:cube/Src/i2c.c ****   }
 112:cube/Src/i2c.c **** } 
 264              		.loc 1 112 1 view .LVU69
 265 000a 08BD     		pop	{r3, pc}
 266              	.LVL13:
 267              	.L20:
ARM GAS  C:\Users\Berbardo\AppData\Local\Temp\cc4dOe3x.s 			page 8


 100:cube/Src/i2c.c ****   
 268              		.loc 1 100 5 is_stmt 1 view .LVU70
 269 000c 054A     		ldr	r2, .L21+4
 270 000e D369     		ldr	r3, [r2, #28]
 271 0010 23F48003 		bic	r3, r3, #4194304
 272 0014 D361     		str	r3, [r2, #28]
 106:cube/Src/i2c.c **** 
 273              		.loc 1 106 5 view .LVU71
 274 0016 0321     		movs	r1, #3
 275 0018 0348     		ldr	r0, .L21+8
 276              	.LVL14:
 106:cube/Src/i2c.c **** 
 277              		.loc 1 106 5 is_stmt 0 view .LVU72
 278 001a FFF7FEFF 		bl	HAL_GPIO_DeInit
 279              	.LVL15:
 280              		.loc 1 112 1 view .LVU73
 281 001e F4E7     		b	.L17
 282              	.L22:
 283              		.align	2
 284              	.L21:
 285 0020 00580040 		.word	1073764352
 286 0024 00100240 		.word	1073876992
 287 0028 00140048 		.word	1207964672
 288              		.cfi_endproc
 289              	.LFE128:
 291              		.comm	hi2c2,76,4
 292              		.text
 293              	.Letext0:
 294              		.file 2 "c:\\program files (x86)\\gnu tools arm embedded\\8 2019-q3-update\\arm-none-eabi\\include
 295              		.file 3 "c:\\program files (x86)\\gnu tools arm embedded\\8 2019-q3-update\\arm-none-eabi\\include
 296              		.file 4 "cube/Drivers/CMSIS/Include/core_cm4.h"
 297              		.file 5 "cube/Drivers/CMSIS/Device/ST/STM32F3xx/Include/system_stm32f3xx.h"
 298              		.file 6 "cube/Drivers/CMSIS/Device/ST/STM32F3xx/Include/stm32f303xc.h"
 299              		.file 7 "c:\\program files (x86)\\gnu tools arm embedded\\8 2019-q3-update\\lib\\gcc\\arm-none-eab
 300              		.file 8 "c:\\program files (x86)\\gnu tools arm embedded\\8 2019-q3-update\\arm-none-eabi\\include
 301              		.file 9 "c:\\program files (x86)\\gnu tools arm embedded\\8 2019-q3-update\\arm-none-eabi\\include
 302              		.file 10 "c:\\program files (x86)\\gnu tools arm embedded\\8 2019-q3-update\\arm-none-eabi\\includ
 303              		.file 11 "cube/Drivers/STM32F3xx_HAL_Driver/Inc/stm32f3xx_hal_def.h"
 304              		.file 12 "cube/Drivers/STM32F3xx_HAL_Driver/Inc/stm32f3xx_hal_gpio.h"
 305              		.file 13 "cube/Drivers/STM32F3xx_HAL_Driver/Inc/stm32f3xx_hal_dma.h"
 306              		.file 14 "cube/Drivers/STM32F3xx_HAL_Driver/Inc/stm32f3xx_hal_i2c.h"
 307              		.file 15 "cube/Drivers/STM32F3xx_HAL_Driver/Inc/stm32f3xx_hal.h"
 308              		.file 16 "cube/Inc/i2c.h"
 309              		.file 17 "cube/Drivers/STM32F3xx_HAL_Driver/Inc/stm32f3xx_hal_i2c_ex.h"
 310              		.file 18 "cube/Inc/main.h"
ARM GAS  C:\Users\Berbardo\AppData\Local\Temp\cc4dOe3x.s 			page 9

