ARM GAS  C:\Users\Berbardo\AppData\Local\Temp\ccJ3NdKC.s 			page 1


   1              		.cpu cortex-m4
   2              		.eabi_attribute 27, 1
   3              		.eabi_attribute 28, 1
   4              		.eabi_attribute 20, 1
   5              		.eabi_attribute 21, 1
   6              		.eabi_attribute 23, 3
   7              		.eabi_attribute 24, 1
   8              		.eabi_attribute 25, 1
   9              		.eabi_attribute 26, 1
  10              		.eabi_attribute 30, 1
  11              		.eabi_attribute 34, 1
  12              		.eabi_attribute 18, 4
  13              		.file	"stm32f3xx_hal_flash_ex.c"
  14              		.text
  15              	.Ltext0:
  16              		.cfi_sections	.debug_frame
  17              		.section	.text.FLASH_MassErase,"ax",%progbits
  18              		.align	1
  19              		.arch armv7e-m
  20              		.syntax unified
  21              		.thumb
  22              		.thumb_func
  23              		.fpu fpv4-sp-d16
  25              	FLASH_MassErase:
  26              	.LFB132:
  27              		.file 1 "cube/Drivers/STM32F3xx_HAL_Driver/Src/stm32f3xx_hal_flash_ex.c"
   1:cube/Drivers/STM32F3xx_HAL_Driver/Src/stm32f3xx_hal_flash_ex.c **** /**
   2:cube/Drivers/STM32F3xx_HAL_Driver/Src/stm32f3xx_hal_flash_ex.c ****   ******************************************************************************
   3:cube/Drivers/STM32F3xx_HAL_Driver/Src/stm32f3xx_hal_flash_ex.c ****   * @file    stm32f3xx_hal_flash_ex.c
   4:cube/Drivers/STM32F3xx_HAL_Driver/Src/stm32f3xx_hal_flash_ex.c ****   * @author  MCD Application Team
   5:cube/Drivers/STM32F3xx_HAL_Driver/Src/stm32f3xx_hal_flash_ex.c ****   * @brief   Extended FLASH HAL module driver.
   6:cube/Drivers/STM32F3xx_HAL_Driver/Src/stm32f3xx_hal_flash_ex.c ****   *    
   7:cube/Drivers/STM32F3xx_HAL_Driver/Src/stm32f3xx_hal_flash_ex.c ****   *          This file provides firmware functions to manage the following 
   8:cube/Drivers/STM32F3xx_HAL_Driver/Src/stm32f3xx_hal_flash_ex.c ****   *          functionalities of the FLASH peripheral:
   9:cube/Drivers/STM32F3xx_HAL_Driver/Src/stm32f3xx_hal_flash_ex.c ****   *           + Extended Initialization/de-initialization functions
  10:cube/Drivers/STM32F3xx_HAL_Driver/Src/stm32f3xx_hal_flash_ex.c ****   *           + Extended I/O operation functions
  11:cube/Drivers/STM32F3xx_HAL_Driver/Src/stm32f3xx_hal_flash_ex.c ****   *           + Extended Peripheral Control functions 
  12:cube/Drivers/STM32F3xx_HAL_Driver/Src/stm32f3xx_hal_flash_ex.c ****   *         
  13:cube/Drivers/STM32F3xx_HAL_Driver/Src/stm32f3xx_hal_flash_ex.c ****   @verbatim
  14:cube/Drivers/STM32F3xx_HAL_Driver/Src/stm32f3xx_hal_flash_ex.c ****   ==============================================================================
  15:cube/Drivers/STM32F3xx_HAL_Driver/Src/stm32f3xx_hal_flash_ex.c ****                ##### Flash peripheral extended features  #####
  16:cube/Drivers/STM32F3xx_HAL_Driver/Src/stm32f3xx_hal_flash_ex.c ****   ==============================================================================
  17:cube/Drivers/STM32F3xx_HAL_Driver/Src/stm32f3xx_hal_flash_ex.c ****            
  18:cube/Drivers/STM32F3xx_HAL_Driver/Src/stm32f3xx_hal_flash_ex.c ****                       ##### How to use this driver #####
  19:cube/Drivers/STM32F3xx_HAL_Driver/Src/stm32f3xx_hal_flash_ex.c ****   ==============================================================================
  20:cube/Drivers/STM32F3xx_HAL_Driver/Src/stm32f3xx_hal_flash_ex.c ****   [..] This driver provides functions to configure and program the FLASH memory 
  21:cube/Drivers/STM32F3xx_HAL_Driver/Src/stm32f3xx_hal_flash_ex.c ****        of all STM32F3xxx devices. It includes
  22:cube/Drivers/STM32F3xx_HAL_Driver/Src/stm32f3xx_hal_flash_ex.c ****        
  23:cube/Drivers/STM32F3xx_HAL_Driver/Src/stm32f3xx_hal_flash_ex.c ****         (++) Set/Reset the write protection
  24:cube/Drivers/STM32F3xx_HAL_Driver/Src/stm32f3xx_hal_flash_ex.c ****         (++) Program the user Option Bytes
  25:cube/Drivers/STM32F3xx_HAL_Driver/Src/stm32f3xx_hal_flash_ex.c ****         (++) Get the Read protection Level
  26:cube/Drivers/STM32F3xx_HAL_Driver/Src/stm32f3xx_hal_flash_ex.c ****   
  27:cube/Drivers/STM32F3xx_HAL_Driver/Src/stm32f3xx_hal_flash_ex.c ****   @endverbatim
  28:cube/Drivers/STM32F3xx_HAL_Driver/Src/stm32f3xx_hal_flash_ex.c ****   ******************************************************************************
  29:cube/Drivers/STM32F3xx_HAL_Driver/Src/stm32f3xx_hal_flash_ex.c ****   * @attention
  30:cube/Drivers/STM32F3xx_HAL_Driver/Src/stm32f3xx_hal_flash_ex.c ****   *
  31:cube/Drivers/STM32F3xx_HAL_Driver/Src/stm32f3xx_hal_flash_ex.c ****   * <h2><center>&copy; COPYRIGHT(c) 2016 STMicroelectronics</center></h2>
ARM GAS  C:\Users\Berbardo\AppData\Local\Temp\ccJ3NdKC.s 			page 2


  32:cube/Drivers/STM32F3xx_HAL_Driver/Src/stm32f3xx_hal_flash_ex.c ****   *
  33:cube/Drivers/STM32F3xx_HAL_Driver/Src/stm32f3xx_hal_flash_ex.c ****   * Redistribution and use in source and binary forms, with or without modification,
  34:cube/Drivers/STM32F3xx_HAL_Driver/Src/stm32f3xx_hal_flash_ex.c ****   * are permitted provided that the following conditions are met:
  35:cube/Drivers/STM32F3xx_HAL_Driver/Src/stm32f3xx_hal_flash_ex.c ****   *   1. Redistributions of source code must retain the above copyright notice,
  36:cube/Drivers/STM32F3xx_HAL_Driver/Src/stm32f3xx_hal_flash_ex.c ****   *      this list of conditions and the following disclaimer.
  37:cube/Drivers/STM32F3xx_HAL_Driver/Src/stm32f3xx_hal_flash_ex.c ****   *   2. Redistributions in binary form must reproduce the above copyright notice,
  38:cube/Drivers/STM32F3xx_HAL_Driver/Src/stm32f3xx_hal_flash_ex.c ****   *      this list of conditions and the following disclaimer in the documentation
  39:cube/Drivers/STM32F3xx_HAL_Driver/Src/stm32f3xx_hal_flash_ex.c ****   *      and/or other materials provided with the distribution.
  40:cube/Drivers/STM32F3xx_HAL_Driver/Src/stm32f3xx_hal_flash_ex.c ****   *   3. Neither the name of STMicroelectronics nor the names of its contributors
  41:cube/Drivers/STM32F3xx_HAL_Driver/Src/stm32f3xx_hal_flash_ex.c ****   *      may be used to endorse or promote products derived from this software
  42:cube/Drivers/STM32F3xx_HAL_Driver/Src/stm32f3xx_hal_flash_ex.c ****   *      without specific prior written permission.
  43:cube/Drivers/STM32F3xx_HAL_Driver/Src/stm32f3xx_hal_flash_ex.c ****   *
  44:cube/Drivers/STM32F3xx_HAL_Driver/Src/stm32f3xx_hal_flash_ex.c ****   * THIS SOFTWARE IS PROVIDED BY THE COPYRIGHT HOLDERS AND CONTRIBUTORS "AS IS"
  45:cube/Drivers/STM32F3xx_HAL_Driver/Src/stm32f3xx_hal_flash_ex.c ****   * AND ANY EXPRESS OR IMPLIED WARRANTIES, INCLUDING, BUT NOT LIMITED TO, THE
  46:cube/Drivers/STM32F3xx_HAL_Driver/Src/stm32f3xx_hal_flash_ex.c ****   * IMPLIED WARRANTIES OF MERCHANTABILITY AND FITNESS FOR A PARTICULAR PURPOSE ARE
  47:cube/Drivers/STM32F3xx_HAL_Driver/Src/stm32f3xx_hal_flash_ex.c ****   * DISCLAIMED. IN NO EVENT SHALL THE COPYRIGHT HOLDER OR CONTRIBUTORS BE LIABLE
  48:cube/Drivers/STM32F3xx_HAL_Driver/Src/stm32f3xx_hal_flash_ex.c ****   * FOR ANY DIRECT, INDIRECT, INCIDENTAL, SPECIAL, EXEMPLARY, OR CONSEQUENTIAL
  49:cube/Drivers/STM32F3xx_HAL_Driver/Src/stm32f3xx_hal_flash_ex.c ****   * DAMAGES (INCLUDING, BUT NOT LIMITED TO, PROCUREMENT OF SUBSTITUTE GOODS OR
  50:cube/Drivers/STM32F3xx_HAL_Driver/Src/stm32f3xx_hal_flash_ex.c ****   * SERVICES; LOSS OF USE, DATA, OR PROFITS; OR BUSINESS INTERRUPTION) HOWEVER
  51:cube/Drivers/STM32F3xx_HAL_Driver/Src/stm32f3xx_hal_flash_ex.c ****   * CAUSED AND ON ANY THEORY OF LIABILITY, WHETHER IN CONTRACT, STRICT LIABILITY,
  52:cube/Drivers/STM32F3xx_HAL_Driver/Src/stm32f3xx_hal_flash_ex.c ****   * OR TORT (INCLUDING NEGLIGENCE OR OTHERWISE) ARISING IN ANY WAY OUT OF THE USE
  53:cube/Drivers/STM32F3xx_HAL_Driver/Src/stm32f3xx_hal_flash_ex.c ****   * OF THIS SOFTWARE, EVEN IF ADVISED OF THE POSSIBILITY OF SUCH DAMAGE.
  54:cube/Drivers/STM32F3xx_HAL_Driver/Src/stm32f3xx_hal_flash_ex.c ****   *
  55:cube/Drivers/STM32F3xx_HAL_Driver/Src/stm32f3xx_hal_flash_ex.c ****   ******************************************************************************  
  56:cube/Drivers/STM32F3xx_HAL_Driver/Src/stm32f3xx_hal_flash_ex.c ****   */
  57:cube/Drivers/STM32F3xx_HAL_Driver/Src/stm32f3xx_hal_flash_ex.c **** 
  58:cube/Drivers/STM32F3xx_HAL_Driver/Src/stm32f3xx_hal_flash_ex.c **** /* Includes ------------------------------------------------------------------*/
  59:cube/Drivers/STM32F3xx_HAL_Driver/Src/stm32f3xx_hal_flash_ex.c **** #include "stm32f3xx_hal.h"
  60:cube/Drivers/STM32F3xx_HAL_Driver/Src/stm32f3xx_hal_flash_ex.c **** 
  61:cube/Drivers/STM32F3xx_HAL_Driver/Src/stm32f3xx_hal_flash_ex.c **** /** @addtogroup STM32F3xx_HAL_Driver
  62:cube/Drivers/STM32F3xx_HAL_Driver/Src/stm32f3xx_hal_flash_ex.c ****   * @{
  63:cube/Drivers/STM32F3xx_HAL_Driver/Src/stm32f3xx_hal_flash_ex.c ****   */
  64:cube/Drivers/STM32F3xx_HAL_Driver/Src/stm32f3xx_hal_flash_ex.c **** #ifdef HAL_FLASH_MODULE_ENABLED
  65:cube/Drivers/STM32F3xx_HAL_Driver/Src/stm32f3xx_hal_flash_ex.c **** 
  66:cube/Drivers/STM32F3xx_HAL_Driver/Src/stm32f3xx_hal_flash_ex.c **** /** @addtogroup FLASH
  67:cube/Drivers/STM32F3xx_HAL_Driver/Src/stm32f3xx_hal_flash_ex.c ****   * @{
  68:cube/Drivers/STM32F3xx_HAL_Driver/Src/stm32f3xx_hal_flash_ex.c ****   */
  69:cube/Drivers/STM32F3xx_HAL_Driver/Src/stm32f3xx_hal_flash_ex.c **** /** @addtogroup FLASH_Private_Variables
  70:cube/Drivers/STM32F3xx_HAL_Driver/Src/stm32f3xx_hal_flash_ex.c ****  * @{
  71:cube/Drivers/STM32F3xx_HAL_Driver/Src/stm32f3xx_hal_flash_ex.c ****  */
  72:cube/Drivers/STM32F3xx_HAL_Driver/Src/stm32f3xx_hal_flash_ex.c **** /* Variables used for Erase pages under interruption*/
  73:cube/Drivers/STM32F3xx_HAL_Driver/Src/stm32f3xx_hal_flash_ex.c **** extern FLASH_ProcessTypeDef pFlash;
  74:cube/Drivers/STM32F3xx_HAL_Driver/Src/stm32f3xx_hal_flash_ex.c **** /**
  75:cube/Drivers/STM32F3xx_HAL_Driver/Src/stm32f3xx_hal_flash_ex.c ****   * @}
  76:cube/Drivers/STM32F3xx_HAL_Driver/Src/stm32f3xx_hal_flash_ex.c ****   */
  77:cube/Drivers/STM32F3xx_HAL_Driver/Src/stm32f3xx_hal_flash_ex.c **** 
  78:cube/Drivers/STM32F3xx_HAL_Driver/Src/stm32f3xx_hal_flash_ex.c **** /**
  79:cube/Drivers/STM32F3xx_HAL_Driver/Src/stm32f3xx_hal_flash_ex.c ****   * @}
  80:cube/Drivers/STM32F3xx_HAL_Driver/Src/stm32f3xx_hal_flash_ex.c ****   */
  81:cube/Drivers/STM32F3xx_HAL_Driver/Src/stm32f3xx_hal_flash_ex.c ****   
  82:cube/Drivers/STM32F3xx_HAL_Driver/Src/stm32f3xx_hal_flash_ex.c **** /** @defgroup FLASHEx FLASHEx
  83:cube/Drivers/STM32F3xx_HAL_Driver/Src/stm32f3xx_hal_flash_ex.c ****   * @brief FLASH HAL Extension module driver
  84:cube/Drivers/STM32F3xx_HAL_Driver/Src/stm32f3xx_hal_flash_ex.c ****   * @{
  85:cube/Drivers/STM32F3xx_HAL_Driver/Src/stm32f3xx_hal_flash_ex.c ****   */
  86:cube/Drivers/STM32F3xx_HAL_Driver/Src/stm32f3xx_hal_flash_ex.c **** 
  87:cube/Drivers/STM32F3xx_HAL_Driver/Src/stm32f3xx_hal_flash_ex.c **** /* Private typedef -----------------------------------------------------------*/
  88:cube/Drivers/STM32F3xx_HAL_Driver/Src/stm32f3xx_hal_flash_ex.c **** /* Private define ------------------------------------------------------------*/
ARM GAS  C:\Users\Berbardo\AppData\Local\Temp\ccJ3NdKC.s 			page 3


  89:cube/Drivers/STM32F3xx_HAL_Driver/Src/stm32f3xx_hal_flash_ex.c **** /** @defgroup FLASHEx_Private_Constants FLASHEx Private Constants
  90:cube/Drivers/STM32F3xx_HAL_Driver/Src/stm32f3xx_hal_flash_ex.c ****  * @{
  91:cube/Drivers/STM32F3xx_HAL_Driver/Src/stm32f3xx_hal_flash_ex.c ****  */
  92:cube/Drivers/STM32F3xx_HAL_Driver/Src/stm32f3xx_hal_flash_ex.c **** #define FLASH_POSITION_IWDGSW_BIT        (uint32_t)POSITION_VAL(FLASH_OBR_IWDG_SW)
  93:cube/Drivers/STM32F3xx_HAL_Driver/Src/stm32f3xx_hal_flash_ex.c **** #define FLASH_POSITION_OB_USERDATA0_BIT  (uint32_t)POSITION_VAL(FLASH_OBR_DATA0)
  94:cube/Drivers/STM32F3xx_HAL_Driver/Src/stm32f3xx_hal_flash_ex.c **** #define FLASH_POSITION_OB_USERDATA1_BIT  (uint32_t)POSITION_VAL(FLASH_OBR_DATA1)
  95:cube/Drivers/STM32F3xx_HAL_Driver/Src/stm32f3xx_hal_flash_ex.c **** /**
  96:cube/Drivers/STM32F3xx_HAL_Driver/Src/stm32f3xx_hal_flash_ex.c ****   * @}
  97:cube/Drivers/STM32F3xx_HAL_Driver/Src/stm32f3xx_hal_flash_ex.c ****   */
  98:cube/Drivers/STM32F3xx_HAL_Driver/Src/stm32f3xx_hal_flash_ex.c **** 
  99:cube/Drivers/STM32F3xx_HAL_Driver/Src/stm32f3xx_hal_flash_ex.c **** /* Private macro -------------------------------------------------------------*/
 100:cube/Drivers/STM32F3xx_HAL_Driver/Src/stm32f3xx_hal_flash_ex.c **** /** @defgroup FLASHEx_Private_Macros FLASHEx Private Macros
 101:cube/Drivers/STM32F3xx_HAL_Driver/Src/stm32f3xx_hal_flash_ex.c ****   * @{
 102:cube/Drivers/STM32F3xx_HAL_Driver/Src/stm32f3xx_hal_flash_ex.c ****   */
 103:cube/Drivers/STM32F3xx_HAL_Driver/Src/stm32f3xx_hal_flash_ex.c **** /**
 104:cube/Drivers/STM32F3xx_HAL_Driver/Src/stm32f3xx_hal_flash_ex.c ****   * @}
 105:cube/Drivers/STM32F3xx_HAL_Driver/Src/stm32f3xx_hal_flash_ex.c ****   */ 
 106:cube/Drivers/STM32F3xx_HAL_Driver/Src/stm32f3xx_hal_flash_ex.c **** 
 107:cube/Drivers/STM32F3xx_HAL_Driver/Src/stm32f3xx_hal_flash_ex.c **** /* Private variables ---------------------------------------------------------*/
 108:cube/Drivers/STM32F3xx_HAL_Driver/Src/stm32f3xx_hal_flash_ex.c **** /* Private function prototypes -----------------------------------------------*/
 109:cube/Drivers/STM32F3xx_HAL_Driver/Src/stm32f3xx_hal_flash_ex.c **** /** @defgroup FLASHEx_Private_Functions FLASHEx Private Functions
 110:cube/Drivers/STM32F3xx_HAL_Driver/Src/stm32f3xx_hal_flash_ex.c ****  * @{
 111:cube/Drivers/STM32F3xx_HAL_Driver/Src/stm32f3xx_hal_flash_ex.c ****  */
 112:cube/Drivers/STM32F3xx_HAL_Driver/Src/stm32f3xx_hal_flash_ex.c **** /* Erase operations */
 113:cube/Drivers/STM32F3xx_HAL_Driver/Src/stm32f3xx_hal_flash_ex.c **** static void              FLASH_MassErase(void);
 114:cube/Drivers/STM32F3xx_HAL_Driver/Src/stm32f3xx_hal_flash_ex.c **** void    FLASH_PageErase(uint32_t PageAddress);
 115:cube/Drivers/STM32F3xx_HAL_Driver/Src/stm32f3xx_hal_flash_ex.c **** 
 116:cube/Drivers/STM32F3xx_HAL_Driver/Src/stm32f3xx_hal_flash_ex.c **** /* Option bytes control */
 117:cube/Drivers/STM32F3xx_HAL_Driver/Src/stm32f3xx_hal_flash_ex.c **** static HAL_StatusTypeDef FLASH_OB_EnableWRP(uint32_t WriteProtectPage);
 118:cube/Drivers/STM32F3xx_HAL_Driver/Src/stm32f3xx_hal_flash_ex.c **** static HAL_StatusTypeDef FLASH_OB_DisableWRP(uint32_t WriteProtectPage);
 119:cube/Drivers/STM32F3xx_HAL_Driver/Src/stm32f3xx_hal_flash_ex.c **** static HAL_StatusTypeDef FLASH_OB_RDP_LevelConfig(uint8_t ReadProtectLevel);
 120:cube/Drivers/STM32F3xx_HAL_Driver/Src/stm32f3xx_hal_flash_ex.c **** static HAL_StatusTypeDef FLASH_OB_UserConfig(uint8_t UserConfig);
 121:cube/Drivers/STM32F3xx_HAL_Driver/Src/stm32f3xx_hal_flash_ex.c **** static HAL_StatusTypeDef FLASH_OB_ProgramData(uint32_t Address, uint8_t Data);
 122:cube/Drivers/STM32F3xx_HAL_Driver/Src/stm32f3xx_hal_flash_ex.c **** static uint32_t          FLASH_OB_GetWRP(void);
 123:cube/Drivers/STM32F3xx_HAL_Driver/Src/stm32f3xx_hal_flash_ex.c **** static uint32_t          FLASH_OB_GetRDP(void);
 124:cube/Drivers/STM32F3xx_HAL_Driver/Src/stm32f3xx_hal_flash_ex.c **** static uint8_t           FLASH_OB_GetUser(void);
 125:cube/Drivers/STM32F3xx_HAL_Driver/Src/stm32f3xx_hal_flash_ex.c **** 
 126:cube/Drivers/STM32F3xx_HAL_Driver/Src/stm32f3xx_hal_flash_ex.c **** /**
 127:cube/Drivers/STM32F3xx_HAL_Driver/Src/stm32f3xx_hal_flash_ex.c ****   * @}
 128:cube/Drivers/STM32F3xx_HAL_Driver/Src/stm32f3xx_hal_flash_ex.c ****   */
 129:cube/Drivers/STM32F3xx_HAL_Driver/Src/stm32f3xx_hal_flash_ex.c **** 
 130:cube/Drivers/STM32F3xx_HAL_Driver/Src/stm32f3xx_hal_flash_ex.c **** /* Exported functions ---------------------------------------------------------*/
 131:cube/Drivers/STM32F3xx_HAL_Driver/Src/stm32f3xx_hal_flash_ex.c **** /** @defgroup FLASHEx_Exported_Functions FLASHEx Exported Functions
 132:cube/Drivers/STM32F3xx_HAL_Driver/Src/stm32f3xx_hal_flash_ex.c ****   * @{
 133:cube/Drivers/STM32F3xx_HAL_Driver/Src/stm32f3xx_hal_flash_ex.c ****   */
 134:cube/Drivers/STM32F3xx_HAL_Driver/Src/stm32f3xx_hal_flash_ex.c ****   
 135:cube/Drivers/STM32F3xx_HAL_Driver/Src/stm32f3xx_hal_flash_ex.c **** /** @defgroup FLASHEx_Exported_Functions_Group1 FLASHEx Memory Erasing functions
 136:cube/Drivers/STM32F3xx_HAL_Driver/Src/stm32f3xx_hal_flash_ex.c ****  *  @brief   FLASH Memory Erasing functions
 137:cube/Drivers/STM32F3xx_HAL_Driver/Src/stm32f3xx_hal_flash_ex.c ****   *
 138:cube/Drivers/STM32F3xx_HAL_Driver/Src/stm32f3xx_hal_flash_ex.c **** @verbatim   
 139:cube/Drivers/STM32F3xx_HAL_Driver/Src/stm32f3xx_hal_flash_ex.c ****   ==============================================================================
 140:cube/Drivers/STM32F3xx_HAL_Driver/Src/stm32f3xx_hal_flash_ex.c ****                 ##### FLASH Erasing Programming functions ##### 
 141:cube/Drivers/STM32F3xx_HAL_Driver/Src/stm32f3xx_hal_flash_ex.c ****   ==============================================================================
 142:cube/Drivers/STM32F3xx_HAL_Driver/Src/stm32f3xx_hal_flash_ex.c **** 
 143:cube/Drivers/STM32F3xx_HAL_Driver/Src/stm32f3xx_hal_flash_ex.c ****     [..] The FLASH Memory Erasing functions, includes the following functions:
 144:cube/Drivers/STM32F3xx_HAL_Driver/Src/stm32f3xx_hal_flash_ex.c ****     (+) @ref HAL_FLASHEx_Erase: return only when erase has been done
 145:cube/Drivers/STM32F3xx_HAL_Driver/Src/stm32f3xx_hal_flash_ex.c ****     (+) @ref HAL_FLASHEx_Erase_IT: end of erase is done when @ref HAL_FLASH_EndOfOperationCallback 
ARM GAS  C:\Users\Berbardo\AppData\Local\Temp\ccJ3NdKC.s 			page 4


 146:cube/Drivers/STM32F3xx_HAL_Driver/Src/stm32f3xx_hal_flash_ex.c ****         is called with parameter 0xFFFFFFFF
 147:cube/Drivers/STM32F3xx_HAL_Driver/Src/stm32f3xx_hal_flash_ex.c **** 
 148:cube/Drivers/STM32F3xx_HAL_Driver/Src/stm32f3xx_hal_flash_ex.c ****     [..] Any operation of erase should follow these steps:
 149:cube/Drivers/STM32F3xx_HAL_Driver/Src/stm32f3xx_hal_flash_ex.c ****     (#) Call the @ref HAL_FLASH_Unlock() function to enable the flash control register and 
 150:cube/Drivers/STM32F3xx_HAL_Driver/Src/stm32f3xx_hal_flash_ex.c ****         program memory access.
 151:cube/Drivers/STM32F3xx_HAL_Driver/Src/stm32f3xx_hal_flash_ex.c ****     (#) Call the desired function to erase page.
 152:cube/Drivers/STM32F3xx_HAL_Driver/Src/stm32f3xx_hal_flash_ex.c ****     (#) Call the @ref HAL_FLASH_Lock() to disable the flash program memory access 
 153:cube/Drivers/STM32F3xx_HAL_Driver/Src/stm32f3xx_hal_flash_ex.c ****        (recommended to protect the FLASH memory against possible unwanted operation).
 154:cube/Drivers/STM32F3xx_HAL_Driver/Src/stm32f3xx_hal_flash_ex.c **** 
 155:cube/Drivers/STM32F3xx_HAL_Driver/Src/stm32f3xx_hal_flash_ex.c **** @endverbatim
 156:cube/Drivers/STM32F3xx_HAL_Driver/Src/stm32f3xx_hal_flash_ex.c ****   * @{
 157:cube/Drivers/STM32F3xx_HAL_Driver/Src/stm32f3xx_hal_flash_ex.c ****   */
 158:cube/Drivers/STM32F3xx_HAL_Driver/Src/stm32f3xx_hal_flash_ex.c ****   
 159:cube/Drivers/STM32F3xx_HAL_Driver/Src/stm32f3xx_hal_flash_ex.c **** 
 160:cube/Drivers/STM32F3xx_HAL_Driver/Src/stm32f3xx_hal_flash_ex.c **** /**
 161:cube/Drivers/STM32F3xx_HAL_Driver/Src/stm32f3xx_hal_flash_ex.c ****   * @brief  Perform a mass erase or erase the specified FLASH memory pages
 162:cube/Drivers/STM32F3xx_HAL_Driver/Src/stm32f3xx_hal_flash_ex.c ****   * @note   To correctly run this function, the @ref HAL_FLASH_Unlock() function
 163:cube/Drivers/STM32F3xx_HAL_Driver/Src/stm32f3xx_hal_flash_ex.c ****   *         must be called before.
 164:cube/Drivers/STM32F3xx_HAL_Driver/Src/stm32f3xx_hal_flash_ex.c ****   *         Call the @ref HAL_FLASH_Lock() to disable the flash memory access 
 165:cube/Drivers/STM32F3xx_HAL_Driver/Src/stm32f3xx_hal_flash_ex.c ****   *         (recommended to protect the FLASH memory against possible unwanted operation)
 166:cube/Drivers/STM32F3xx_HAL_Driver/Src/stm32f3xx_hal_flash_ex.c ****   * @param[in]  pEraseInit pointer to an FLASH_EraseInitTypeDef structure that
 167:cube/Drivers/STM32F3xx_HAL_Driver/Src/stm32f3xx_hal_flash_ex.c ****   *         contains the configuration information for the erasing.
 168:cube/Drivers/STM32F3xx_HAL_Driver/Src/stm32f3xx_hal_flash_ex.c ****   *
 169:cube/Drivers/STM32F3xx_HAL_Driver/Src/stm32f3xx_hal_flash_ex.c ****   * @param[out]  PageError pointer to variable  that
 170:cube/Drivers/STM32F3xx_HAL_Driver/Src/stm32f3xx_hal_flash_ex.c ****   *         contains the configuration information on faulty page in case of error
 171:cube/Drivers/STM32F3xx_HAL_Driver/Src/stm32f3xx_hal_flash_ex.c ****   *         (0xFFFFFFFF means that all the pages have been correctly erased)
 172:cube/Drivers/STM32F3xx_HAL_Driver/Src/stm32f3xx_hal_flash_ex.c ****   *
 173:cube/Drivers/STM32F3xx_HAL_Driver/Src/stm32f3xx_hal_flash_ex.c ****   * @retval HAL_StatusTypeDef HAL Status
 174:cube/Drivers/STM32F3xx_HAL_Driver/Src/stm32f3xx_hal_flash_ex.c ****   */
 175:cube/Drivers/STM32F3xx_HAL_Driver/Src/stm32f3xx_hal_flash_ex.c **** HAL_StatusTypeDef HAL_FLASHEx_Erase(FLASH_EraseInitTypeDef *pEraseInit, uint32_t *PageError)
 176:cube/Drivers/STM32F3xx_HAL_Driver/Src/stm32f3xx_hal_flash_ex.c **** {
 177:cube/Drivers/STM32F3xx_HAL_Driver/Src/stm32f3xx_hal_flash_ex.c ****   HAL_StatusTypeDef status = HAL_ERROR;
 178:cube/Drivers/STM32F3xx_HAL_Driver/Src/stm32f3xx_hal_flash_ex.c ****   uint32_t address = 0U;
 179:cube/Drivers/STM32F3xx_HAL_Driver/Src/stm32f3xx_hal_flash_ex.c **** 
 180:cube/Drivers/STM32F3xx_HAL_Driver/Src/stm32f3xx_hal_flash_ex.c ****   /* Process Locked */
 181:cube/Drivers/STM32F3xx_HAL_Driver/Src/stm32f3xx_hal_flash_ex.c ****   __HAL_LOCK(&pFlash);
 182:cube/Drivers/STM32F3xx_HAL_Driver/Src/stm32f3xx_hal_flash_ex.c **** 
 183:cube/Drivers/STM32F3xx_HAL_Driver/Src/stm32f3xx_hal_flash_ex.c ****   /* Check the parameters */
 184:cube/Drivers/STM32F3xx_HAL_Driver/Src/stm32f3xx_hal_flash_ex.c ****   assert_param(IS_FLASH_TYPEERASE(pEraseInit->TypeErase));
 185:cube/Drivers/STM32F3xx_HAL_Driver/Src/stm32f3xx_hal_flash_ex.c **** 
 186:cube/Drivers/STM32F3xx_HAL_Driver/Src/stm32f3xx_hal_flash_ex.c ****   if (pEraseInit->TypeErase == FLASH_TYPEERASE_MASSERASE)
 187:cube/Drivers/STM32F3xx_HAL_Driver/Src/stm32f3xx_hal_flash_ex.c ****   {
 188:cube/Drivers/STM32F3xx_HAL_Driver/Src/stm32f3xx_hal_flash_ex.c ****       /* Mass Erase requested for Bank1 */
 189:cube/Drivers/STM32F3xx_HAL_Driver/Src/stm32f3xx_hal_flash_ex.c ****       /* Wait for last operation to be completed */
 190:cube/Drivers/STM32F3xx_HAL_Driver/Src/stm32f3xx_hal_flash_ex.c ****       if (FLASH_WaitForLastOperation((uint32_t)FLASH_TIMEOUT_VALUE) == HAL_OK)
 191:cube/Drivers/STM32F3xx_HAL_Driver/Src/stm32f3xx_hal_flash_ex.c ****       {
 192:cube/Drivers/STM32F3xx_HAL_Driver/Src/stm32f3xx_hal_flash_ex.c ****         /*Mass erase to be done*/
 193:cube/Drivers/STM32F3xx_HAL_Driver/Src/stm32f3xx_hal_flash_ex.c ****         FLASH_MassErase();
 194:cube/Drivers/STM32F3xx_HAL_Driver/Src/stm32f3xx_hal_flash_ex.c ****         
 195:cube/Drivers/STM32F3xx_HAL_Driver/Src/stm32f3xx_hal_flash_ex.c ****         /* Wait for last operation to be completed */
 196:cube/Drivers/STM32F3xx_HAL_Driver/Src/stm32f3xx_hal_flash_ex.c ****         status = FLASH_WaitForLastOperation((uint32_t)FLASH_TIMEOUT_VALUE);
 197:cube/Drivers/STM32F3xx_HAL_Driver/Src/stm32f3xx_hal_flash_ex.c ****         
 198:cube/Drivers/STM32F3xx_HAL_Driver/Src/stm32f3xx_hal_flash_ex.c ****         /* If the erase operation is completed, disable the MER Bit */
 199:cube/Drivers/STM32F3xx_HAL_Driver/Src/stm32f3xx_hal_flash_ex.c ****         CLEAR_BIT(FLASH->CR, FLASH_CR_MER);
 200:cube/Drivers/STM32F3xx_HAL_Driver/Src/stm32f3xx_hal_flash_ex.c ****       }
 201:cube/Drivers/STM32F3xx_HAL_Driver/Src/stm32f3xx_hal_flash_ex.c ****   }
 202:cube/Drivers/STM32F3xx_HAL_Driver/Src/stm32f3xx_hal_flash_ex.c ****   else
ARM GAS  C:\Users\Berbardo\AppData\Local\Temp\ccJ3NdKC.s 			page 5


 203:cube/Drivers/STM32F3xx_HAL_Driver/Src/stm32f3xx_hal_flash_ex.c ****   {
 204:cube/Drivers/STM32F3xx_HAL_Driver/Src/stm32f3xx_hal_flash_ex.c ****     /* Page Erase is requested */
 205:cube/Drivers/STM32F3xx_HAL_Driver/Src/stm32f3xx_hal_flash_ex.c ****     /* Check the parameters */
 206:cube/Drivers/STM32F3xx_HAL_Driver/Src/stm32f3xx_hal_flash_ex.c ****     assert_param(IS_FLASH_PROGRAM_ADDRESS(pEraseInit->PageAddress));
 207:cube/Drivers/STM32F3xx_HAL_Driver/Src/stm32f3xx_hal_flash_ex.c ****     assert_param(IS_FLASH_NB_PAGES(pEraseInit->PageAddress, pEraseInit->NbPages));
 208:cube/Drivers/STM32F3xx_HAL_Driver/Src/stm32f3xx_hal_flash_ex.c ****     
 209:cube/Drivers/STM32F3xx_HAL_Driver/Src/stm32f3xx_hal_flash_ex.c ****       /* Page Erase requested on address located on bank1 */
 210:cube/Drivers/STM32F3xx_HAL_Driver/Src/stm32f3xx_hal_flash_ex.c ****       /* Wait for last operation to be completed */
 211:cube/Drivers/STM32F3xx_HAL_Driver/Src/stm32f3xx_hal_flash_ex.c ****       if (FLASH_WaitForLastOperation((uint32_t)FLASH_TIMEOUT_VALUE) == HAL_OK)
 212:cube/Drivers/STM32F3xx_HAL_Driver/Src/stm32f3xx_hal_flash_ex.c ****       {
 213:cube/Drivers/STM32F3xx_HAL_Driver/Src/stm32f3xx_hal_flash_ex.c ****         /*Initialization of PageError variable*/
 214:cube/Drivers/STM32F3xx_HAL_Driver/Src/stm32f3xx_hal_flash_ex.c ****         *PageError = 0xFFFFFFFFU;
 215:cube/Drivers/STM32F3xx_HAL_Driver/Src/stm32f3xx_hal_flash_ex.c ****         
 216:cube/Drivers/STM32F3xx_HAL_Driver/Src/stm32f3xx_hal_flash_ex.c ****         /* Erase page by page to be done*/
 217:cube/Drivers/STM32F3xx_HAL_Driver/Src/stm32f3xx_hal_flash_ex.c ****         for(address = pEraseInit->PageAddress;
 218:cube/Drivers/STM32F3xx_HAL_Driver/Src/stm32f3xx_hal_flash_ex.c ****             address < ((pEraseInit->NbPages * FLASH_PAGE_SIZE) + pEraseInit->PageAddress);
 219:cube/Drivers/STM32F3xx_HAL_Driver/Src/stm32f3xx_hal_flash_ex.c ****             address += FLASH_PAGE_SIZE)
 220:cube/Drivers/STM32F3xx_HAL_Driver/Src/stm32f3xx_hal_flash_ex.c ****         {
 221:cube/Drivers/STM32F3xx_HAL_Driver/Src/stm32f3xx_hal_flash_ex.c ****           FLASH_PageErase(address);
 222:cube/Drivers/STM32F3xx_HAL_Driver/Src/stm32f3xx_hal_flash_ex.c ****           
 223:cube/Drivers/STM32F3xx_HAL_Driver/Src/stm32f3xx_hal_flash_ex.c ****           /* Wait for last operation to be completed */
 224:cube/Drivers/STM32F3xx_HAL_Driver/Src/stm32f3xx_hal_flash_ex.c ****           status = FLASH_WaitForLastOperation((uint32_t)FLASH_TIMEOUT_VALUE);
 225:cube/Drivers/STM32F3xx_HAL_Driver/Src/stm32f3xx_hal_flash_ex.c ****           
 226:cube/Drivers/STM32F3xx_HAL_Driver/Src/stm32f3xx_hal_flash_ex.c ****           /* If the erase operation is completed, disable the PER Bit */
 227:cube/Drivers/STM32F3xx_HAL_Driver/Src/stm32f3xx_hal_flash_ex.c ****           CLEAR_BIT(FLASH->CR, FLASH_CR_PER);
 228:cube/Drivers/STM32F3xx_HAL_Driver/Src/stm32f3xx_hal_flash_ex.c ****           
 229:cube/Drivers/STM32F3xx_HAL_Driver/Src/stm32f3xx_hal_flash_ex.c ****           if (status != HAL_OK)
 230:cube/Drivers/STM32F3xx_HAL_Driver/Src/stm32f3xx_hal_flash_ex.c ****           {
 231:cube/Drivers/STM32F3xx_HAL_Driver/Src/stm32f3xx_hal_flash_ex.c ****             /* In case of error, stop erase procedure and return the faulty address */
 232:cube/Drivers/STM32F3xx_HAL_Driver/Src/stm32f3xx_hal_flash_ex.c ****             *PageError = address;
 233:cube/Drivers/STM32F3xx_HAL_Driver/Src/stm32f3xx_hal_flash_ex.c ****             break;
 234:cube/Drivers/STM32F3xx_HAL_Driver/Src/stm32f3xx_hal_flash_ex.c ****           }
 235:cube/Drivers/STM32F3xx_HAL_Driver/Src/stm32f3xx_hal_flash_ex.c ****         }
 236:cube/Drivers/STM32F3xx_HAL_Driver/Src/stm32f3xx_hal_flash_ex.c ****       }
 237:cube/Drivers/STM32F3xx_HAL_Driver/Src/stm32f3xx_hal_flash_ex.c ****   }
 238:cube/Drivers/STM32F3xx_HAL_Driver/Src/stm32f3xx_hal_flash_ex.c **** 
 239:cube/Drivers/STM32F3xx_HAL_Driver/Src/stm32f3xx_hal_flash_ex.c ****   /* Process Unlocked */
 240:cube/Drivers/STM32F3xx_HAL_Driver/Src/stm32f3xx_hal_flash_ex.c ****   __HAL_UNLOCK(&pFlash);
 241:cube/Drivers/STM32F3xx_HAL_Driver/Src/stm32f3xx_hal_flash_ex.c **** 
 242:cube/Drivers/STM32F3xx_HAL_Driver/Src/stm32f3xx_hal_flash_ex.c ****   return status;
 243:cube/Drivers/STM32F3xx_HAL_Driver/Src/stm32f3xx_hal_flash_ex.c **** }
 244:cube/Drivers/STM32F3xx_HAL_Driver/Src/stm32f3xx_hal_flash_ex.c **** 
 245:cube/Drivers/STM32F3xx_HAL_Driver/Src/stm32f3xx_hal_flash_ex.c **** /**
 246:cube/Drivers/STM32F3xx_HAL_Driver/Src/stm32f3xx_hal_flash_ex.c ****   * @brief  Perform a mass erase or erase the specified FLASH memory pages with interrupt enabled
 247:cube/Drivers/STM32F3xx_HAL_Driver/Src/stm32f3xx_hal_flash_ex.c ****   * @note   To correctly run this function, the @ref HAL_FLASH_Unlock() function
 248:cube/Drivers/STM32F3xx_HAL_Driver/Src/stm32f3xx_hal_flash_ex.c ****   *         must be called before.
 249:cube/Drivers/STM32F3xx_HAL_Driver/Src/stm32f3xx_hal_flash_ex.c ****   *         Call the @ref HAL_FLASH_Lock() to disable the flash memory access 
 250:cube/Drivers/STM32F3xx_HAL_Driver/Src/stm32f3xx_hal_flash_ex.c ****   *         (recommended to protect the FLASH memory against possible unwanted operation)
 251:cube/Drivers/STM32F3xx_HAL_Driver/Src/stm32f3xx_hal_flash_ex.c ****   * @param  pEraseInit pointer to an FLASH_EraseInitTypeDef structure that
 252:cube/Drivers/STM32F3xx_HAL_Driver/Src/stm32f3xx_hal_flash_ex.c ****   *         contains the configuration information for the erasing.
 253:cube/Drivers/STM32F3xx_HAL_Driver/Src/stm32f3xx_hal_flash_ex.c ****   *
 254:cube/Drivers/STM32F3xx_HAL_Driver/Src/stm32f3xx_hal_flash_ex.c ****   * @retval HAL_StatusTypeDef HAL Status
 255:cube/Drivers/STM32F3xx_HAL_Driver/Src/stm32f3xx_hal_flash_ex.c ****   */
 256:cube/Drivers/STM32F3xx_HAL_Driver/Src/stm32f3xx_hal_flash_ex.c **** HAL_StatusTypeDef HAL_FLASHEx_Erase_IT(FLASH_EraseInitTypeDef *pEraseInit)
 257:cube/Drivers/STM32F3xx_HAL_Driver/Src/stm32f3xx_hal_flash_ex.c **** {
 258:cube/Drivers/STM32F3xx_HAL_Driver/Src/stm32f3xx_hal_flash_ex.c ****   HAL_StatusTypeDef status = HAL_OK;
 259:cube/Drivers/STM32F3xx_HAL_Driver/Src/stm32f3xx_hal_flash_ex.c **** 
ARM GAS  C:\Users\Berbardo\AppData\Local\Temp\ccJ3NdKC.s 			page 6


 260:cube/Drivers/STM32F3xx_HAL_Driver/Src/stm32f3xx_hal_flash_ex.c ****   /* Process Locked */
 261:cube/Drivers/STM32F3xx_HAL_Driver/Src/stm32f3xx_hal_flash_ex.c ****   __HAL_LOCK(&pFlash);
 262:cube/Drivers/STM32F3xx_HAL_Driver/Src/stm32f3xx_hal_flash_ex.c **** 
 263:cube/Drivers/STM32F3xx_HAL_Driver/Src/stm32f3xx_hal_flash_ex.c ****   /* If procedure already ongoing, reject the next one */
 264:cube/Drivers/STM32F3xx_HAL_Driver/Src/stm32f3xx_hal_flash_ex.c ****   if (pFlash.ProcedureOnGoing != FLASH_PROC_NONE)
 265:cube/Drivers/STM32F3xx_HAL_Driver/Src/stm32f3xx_hal_flash_ex.c ****   {
 266:cube/Drivers/STM32F3xx_HAL_Driver/Src/stm32f3xx_hal_flash_ex.c ****     return HAL_ERROR;
 267:cube/Drivers/STM32F3xx_HAL_Driver/Src/stm32f3xx_hal_flash_ex.c ****   }
 268:cube/Drivers/STM32F3xx_HAL_Driver/Src/stm32f3xx_hal_flash_ex.c ****   
 269:cube/Drivers/STM32F3xx_HAL_Driver/Src/stm32f3xx_hal_flash_ex.c ****   /* Check the parameters */
 270:cube/Drivers/STM32F3xx_HAL_Driver/Src/stm32f3xx_hal_flash_ex.c ****   assert_param(IS_FLASH_TYPEERASE(pEraseInit->TypeErase));
 271:cube/Drivers/STM32F3xx_HAL_Driver/Src/stm32f3xx_hal_flash_ex.c **** 
 272:cube/Drivers/STM32F3xx_HAL_Driver/Src/stm32f3xx_hal_flash_ex.c ****   /* Enable End of FLASH Operation and Error source interrupts */
 273:cube/Drivers/STM32F3xx_HAL_Driver/Src/stm32f3xx_hal_flash_ex.c ****   __HAL_FLASH_ENABLE_IT(FLASH_IT_EOP | FLASH_IT_ERR);
 274:cube/Drivers/STM32F3xx_HAL_Driver/Src/stm32f3xx_hal_flash_ex.c **** 
 275:cube/Drivers/STM32F3xx_HAL_Driver/Src/stm32f3xx_hal_flash_ex.c ****   if (pEraseInit->TypeErase == FLASH_TYPEERASE_MASSERASE)
 276:cube/Drivers/STM32F3xx_HAL_Driver/Src/stm32f3xx_hal_flash_ex.c ****   {
 277:cube/Drivers/STM32F3xx_HAL_Driver/Src/stm32f3xx_hal_flash_ex.c ****     /*Mass erase to be done*/
 278:cube/Drivers/STM32F3xx_HAL_Driver/Src/stm32f3xx_hal_flash_ex.c ****     pFlash.ProcedureOnGoing = FLASH_PROC_MASSERASE;
 279:cube/Drivers/STM32F3xx_HAL_Driver/Src/stm32f3xx_hal_flash_ex.c ****         FLASH_MassErase();
 280:cube/Drivers/STM32F3xx_HAL_Driver/Src/stm32f3xx_hal_flash_ex.c ****   }
 281:cube/Drivers/STM32F3xx_HAL_Driver/Src/stm32f3xx_hal_flash_ex.c ****   else
 282:cube/Drivers/STM32F3xx_HAL_Driver/Src/stm32f3xx_hal_flash_ex.c ****   {
 283:cube/Drivers/STM32F3xx_HAL_Driver/Src/stm32f3xx_hal_flash_ex.c ****     /* Erase by page to be done*/
 284:cube/Drivers/STM32F3xx_HAL_Driver/Src/stm32f3xx_hal_flash_ex.c **** 
 285:cube/Drivers/STM32F3xx_HAL_Driver/Src/stm32f3xx_hal_flash_ex.c ****     /* Check the parameters */
 286:cube/Drivers/STM32F3xx_HAL_Driver/Src/stm32f3xx_hal_flash_ex.c ****     assert_param(IS_FLASH_PROGRAM_ADDRESS(pEraseInit->PageAddress));
 287:cube/Drivers/STM32F3xx_HAL_Driver/Src/stm32f3xx_hal_flash_ex.c ****     assert_param(IS_FLASH_NB_PAGES(pEraseInit->PageAddress, pEraseInit->NbPages));
 288:cube/Drivers/STM32F3xx_HAL_Driver/Src/stm32f3xx_hal_flash_ex.c **** 
 289:cube/Drivers/STM32F3xx_HAL_Driver/Src/stm32f3xx_hal_flash_ex.c ****     pFlash.ProcedureOnGoing = FLASH_PROC_PAGEERASE;
 290:cube/Drivers/STM32F3xx_HAL_Driver/Src/stm32f3xx_hal_flash_ex.c ****     pFlash.DataRemaining = pEraseInit->NbPages;
 291:cube/Drivers/STM32F3xx_HAL_Driver/Src/stm32f3xx_hal_flash_ex.c ****     pFlash.Address = pEraseInit->PageAddress;
 292:cube/Drivers/STM32F3xx_HAL_Driver/Src/stm32f3xx_hal_flash_ex.c **** 
 293:cube/Drivers/STM32F3xx_HAL_Driver/Src/stm32f3xx_hal_flash_ex.c ****     /*Erase 1st page and wait for IT*/
 294:cube/Drivers/STM32F3xx_HAL_Driver/Src/stm32f3xx_hal_flash_ex.c ****     FLASH_PageErase(pEraseInit->PageAddress);
 295:cube/Drivers/STM32F3xx_HAL_Driver/Src/stm32f3xx_hal_flash_ex.c ****   }
 296:cube/Drivers/STM32F3xx_HAL_Driver/Src/stm32f3xx_hal_flash_ex.c **** 
 297:cube/Drivers/STM32F3xx_HAL_Driver/Src/stm32f3xx_hal_flash_ex.c ****   return status;
 298:cube/Drivers/STM32F3xx_HAL_Driver/Src/stm32f3xx_hal_flash_ex.c **** }
 299:cube/Drivers/STM32F3xx_HAL_Driver/Src/stm32f3xx_hal_flash_ex.c **** 
 300:cube/Drivers/STM32F3xx_HAL_Driver/Src/stm32f3xx_hal_flash_ex.c **** /**
 301:cube/Drivers/STM32F3xx_HAL_Driver/Src/stm32f3xx_hal_flash_ex.c ****   * @}
 302:cube/Drivers/STM32F3xx_HAL_Driver/Src/stm32f3xx_hal_flash_ex.c ****   */
 303:cube/Drivers/STM32F3xx_HAL_Driver/Src/stm32f3xx_hal_flash_ex.c **** 
 304:cube/Drivers/STM32F3xx_HAL_Driver/Src/stm32f3xx_hal_flash_ex.c **** /** @defgroup FLASHEx_Exported_Functions_Group2 Option Bytes Programming functions
 305:cube/Drivers/STM32F3xx_HAL_Driver/Src/stm32f3xx_hal_flash_ex.c ****  *  @brief   Option Bytes Programming functions
 306:cube/Drivers/STM32F3xx_HAL_Driver/Src/stm32f3xx_hal_flash_ex.c ****   *
 307:cube/Drivers/STM32F3xx_HAL_Driver/Src/stm32f3xx_hal_flash_ex.c **** @verbatim   
 308:cube/Drivers/STM32F3xx_HAL_Driver/Src/stm32f3xx_hal_flash_ex.c ****   ==============================================================================
 309:cube/Drivers/STM32F3xx_HAL_Driver/Src/stm32f3xx_hal_flash_ex.c ****                 ##### Option Bytes Programming functions ##### 
 310:cube/Drivers/STM32F3xx_HAL_Driver/Src/stm32f3xx_hal_flash_ex.c ****   ==============================================================================  
 311:cube/Drivers/STM32F3xx_HAL_Driver/Src/stm32f3xx_hal_flash_ex.c ****     [..]
 312:cube/Drivers/STM32F3xx_HAL_Driver/Src/stm32f3xx_hal_flash_ex.c ****     This subsection provides a set of functions allowing to control the FLASH 
 313:cube/Drivers/STM32F3xx_HAL_Driver/Src/stm32f3xx_hal_flash_ex.c ****     option bytes operations.
 314:cube/Drivers/STM32F3xx_HAL_Driver/Src/stm32f3xx_hal_flash_ex.c **** 
 315:cube/Drivers/STM32F3xx_HAL_Driver/Src/stm32f3xx_hal_flash_ex.c **** @endverbatim
 316:cube/Drivers/STM32F3xx_HAL_Driver/Src/stm32f3xx_hal_flash_ex.c ****   * @{
ARM GAS  C:\Users\Berbardo\AppData\Local\Temp\ccJ3NdKC.s 			page 7


 317:cube/Drivers/STM32F3xx_HAL_Driver/Src/stm32f3xx_hal_flash_ex.c ****   */
 318:cube/Drivers/STM32F3xx_HAL_Driver/Src/stm32f3xx_hal_flash_ex.c **** 
 319:cube/Drivers/STM32F3xx_HAL_Driver/Src/stm32f3xx_hal_flash_ex.c **** /**
 320:cube/Drivers/STM32F3xx_HAL_Driver/Src/stm32f3xx_hal_flash_ex.c ****   * @brief  Erases the FLASH option bytes.
 321:cube/Drivers/STM32F3xx_HAL_Driver/Src/stm32f3xx_hal_flash_ex.c ****   * @note   This functions erases all option bytes except the Read protection (RDP).
 322:cube/Drivers/STM32F3xx_HAL_Driver/Src/stm32f3xx_hal_flash_ex.c ****   *         The function @ref HAL_FLASH_Unlock() should be called before to unlock the FLASH interf
 323:cube/Drivers/STM32F3xx_HAL_Driver/Src/stm32f3xx_hal_flash_ex.c ****   *         The function @ref HAL_FLASH_OB_Unlock() should be called before to unlock the options b
 324:cube/Drivers/STM32F3xx_HAL_Driver/Src/stm32f3xx_hal_flash_ex.c ****   *         The function @ref HAL_FLASH_OB_Launch() should be called after to force the reload of t
 325:cube/Drivers/STM32F3xx_HAL_Driver/Src/stm32f3xx_hal_flash_ex.c ****   *         (system reset will occur)
 326:cube/Drivers/STM32F3xx_HAL_Driver/Src/stm32f3xx_hal_flash_ex.c ****   * @retval HAL status
 327:cube/Drivers/STM32F3xx_HAL_Driver/Src/stm32f3xx_hal_flash_ex.c ****   */
 328:cube/Drivers/STM32F3xx_HAL_Driver/Src/stm32f3xx_hal_flash_ex.c **** 
 329:cube/Drivers/STM32F3xx_HAL_Driver/Src/stm32f3xx_hal_flash_ex.c **** HAL_StatusTypeDef HAL_FLASHEx_OBErase(void)
 330:cube/Drivers/STM32F3xx_HAL_Driver/Src/stm32f3xx_hal_flash_ex.c **** {
 331:cube/Drivers/STM32F3xx_HAL_Driver/Src/stm32f3xx_hal_flash_ex.c ****   uint8_t rdptmp = OB_RDP_LEVEL_0;
 332:cube/Drivers/STM32F3xx_HAL_Driver/Src/stm32f3xx_hal_flash_ex.c ****   HAL_StatusTypeDef status = HAL_ERROR;
 333:cube/Drivers/STM32F3xx_HAL_Driver/Src/stm32f3xx_hal_flash_ex.c **** 
 334:cube/Drivers/STM32F3xx_HAL_Driver/Src/stm32f3xx_hal_flash_ex.c ****   /* Get the actual read protection Option Byte value */
 335:cube/Drivers/STM32F3xx_HAL_Driver/Src/stm32f3xx_hal_flash_ex.c ****   rdptmp = FLASH_OB_GetRDP();
 336:cube/Drivers/STM32F3xx_HAL_Driver/Src/stm32f3xx_hal_flash_ex.c **** 
 337:cube/Drivers/STM32F3xx_HAL_Driver/Src/stm32f3xx_hal_flash_ex.c ****   /* Wait for last operation to be completed */
 338:cube/Drivers/STM32F3xx_HAL_Driver/Src/stm32f3xx_hal_flash_ex.c ****   status = FLASH_WaitForLastOperation((uint32_t)FLASH_TIMEOUT_VALUE);
 339:cube/Drivers/STM32F3xx_HAL_Driver/Src/stm32f3xx_hal_flash_ex.c **** 
 340:cube/Drivers/STM32F3xx_HAL_Driver/Src/stm32f3xx_hal_flash_ex.c ****   if(status == HAL_OK)
 341:cube/Drivers/STM32F3xx_HAL_Driver/Src/stm32f3xx_hal_flash_ex.c ****   {
 342:cube/Drivers/STM32F3xx_HAL_Driver/Src/stm32f3xx_hal_flash_ex.c ****     /* Clean the error context */
 343:cube/Drivers/STM32F3xx_HAL_Driver/Src/stm32f3xx_hal_flash_ex.c ****     pFlash.ErrorCode = HAL_FLASH_ERROR_NONE;
 344:cube/Drivers/STM32F3xx_HAL_Driver/Src/stm32f3xx_hal_flash_ex.c **** 
 345:cube/Drivers/STM32F3xx_HAL_Driver/Src/stm32f3xx_hal_flash_ex.c ****     /* If the previous operation is completed, proceed to erase the option bytes */
 346:cube/Drivers/STM32F3xx_HAL_Driver/Src/stm32f3xx_hal_flash_ex.c ****     SET_BIT(FLASH->CR, FLASH_CR_OPTER);
 347:cube/Drivers/STM32F3xx_HAL_Driver/Src/stm32f3xx_hal_flash_ex.c ****     SET_BIT(FLASH->CR, FLASH_CR_STRT);
 348:cube/Drivers/STM32F3xx_HAL_Driver/Src/stm32f3xx_hal_flash_ex.c **** 
 349:cube/Drivers/STM32F3xx_HAL_Driver/Src/stm32f3xx_hal_flash_ex.c ****     /* Wait for last operation to be completed */
 350:cube/Drivers/STM32F3xx_HAL_Driver/Src/stm32f3xx_hal_flash_ex.c ****     status = FLASH_WaitForLastOperation((uint32_t)FLASH_TIMEOUT_VALUE);
 351:cube/Drivers/STM32F3xx_HAL_Driver/Src/stm32f3xx_hal_flash_ex.c **** 
 352:cube/Drivers/STM32F3xx_HAL_Driver/Src/stm32f3xx_hal_flash_ex.c ****     /* If the erase operation is completed, disable the OPTER Bit */
 353:cube/Drivers/STM32F3xx_HAL_Driver/Src/stm32f3xx_hal_flash_ex.c ****     CLEAR_BIT(FLASH->CR, FLASH_CR_OPTER);
 354:cube/Drivers/STM32F3xx_HAL_Driver/Src/stm32f3xx_hal_flash_ex.c **** 
 355:cube/Drivers/STM32F3xx_HAL_Driver/Src/stm32f3xx_hal_flash_ex.c ****     if(status == HAL_OK)
 356:cube/Drivers/STM32F3xx_HAL_Driver/Src/stm32f3xx_hal_flash_ex.c ****     {
 357:cube/Drivers/STM32F3xx_HAL_Driver/Src/stm32f3xx_hal_flash_ex.c ****       /* Restore the last read protection Option Byte value */
 358:cube/Drivers/STM32F3xx_HAL_Driver/Src/stm32f3xx_hal_flash_ex.c ****       status = FLASH_OB_RDP_LevelConfig(rdptmp);
 359:cube/Drivers/STM32F3xx_HAL_Driver/Src/stm32f3xx_hal_flash_ex.c ****     }
 360:cube/Drivers/STM32F3xx_HAL_Driver/Src/stm32f3xx_hal_flash_ex.c ****   }
 361:cube/Drivers/STM32F3xx_HAL_Driver/Src/stm32f3xx_hal_flash_ex.c **** 
 362:cube/Drivers/STM32F3xx_HAL_Driver/Src/stm32f3xx_hal_flash_ex.c ****   /* Return the erase status */
 363:cube/Drivers/STM32F3xx_HAL_Driver/Src/stm32f3xx_hal_flash_ex.c ****   return status;
 364:cube/Drivers/STM32F3xx_HAL_Driver/Src/stm32f3xx_hal_flash_ex.c **** }
 365:cube/Drivers/STM32F3xx_HAL_Driver/Src/stm32f3xx_hal_flash_ex.c **** 
 366:cube/Drivers/STM32F3xx_HAL_Driver/Src/stm32f3xx_hal_flash_ex.c **** /**
 367:cube/Drivers/STM32F3xx_HAL_Driver/Src/stm32f3xx_hal_flash_ex.c ****   * @brief  Program option bytes
 368:cube/Drivers/STM32F3xx_HAL_Driver/Src/stm32f3xx_hal_flash_ex.c ****   * @note   The function @ref HAL_FLASH_Unlock() should be called before to unlock the FLASH interf
 369:cube/Drivers/STM32F3xx_HAL_Driver/Src/stm32f3xx_hal_flash_ex.c ****   *         The function @ref HAL_FLASH_OB_Unlock() should be called before to unlock the options b
 370:cube/Drivers/STM32F3xx_HAL_Driver/Src/stm32f3xx_hal_flash_ex.c ****   *         The function @ref HAL_FLASH_OB_Launch() should be called after to force the reload of t
 371:cube/Drivers/STM32F3xx_HAL_Driver/Src/stm32f3xx_hal_flash_ex.c ****   *         (system reset will occur)
 372:cube/Drivers/STM32F3xx_HAL_Driver/Src/stm32f3xx_hal_flash_ex.c ****   *
 373:cube/Drivers/STM32F3xx_HAL_Driver/Src/stm32f3xx_hal_flash_ex.c ****   * @param  pOBInit pointer to an FLASH_OBInitStruct structure that
ARM GAS  C:\Users\Berbardo\AppData\Local\Temp\ccJ3NdKC.s 			page 8


 374:cube/Drivers/STM32F3xx_HAL_Driver/Src/stm32f3xx_hal_flash_ex.c ****   *         contains the configuration information for the programming.
 375:cube/Drivers/STM32F3xx_HAL_Driver/Src/stm32f3xx_hal_flash_ex.c ****   *
 376:cube/Drivers/STM32F3xx_HAL_Driver/Src/stm32f3xx_hal_flash_ex.c ****   * @retval HAL_StatusTypeDef HAL Status
 377:cube/Drivers/STM32F3xx_HAL_Driver/Src/stm32f3xx_hal_flash_ex.c ****   */
 378:cube/Drivers/STM32F3xx_HAL_Driver/Src/stm32f3xx_hal_flash_ex.c **** HAL_StatusTypeDef HAL_FLASHEx_OBProgram(FLASH_OBProgramInitTypeDef *pOBInit)
 379:cube/Drivers/STM32F3xx_HAL_Driver/Src/stm32f3xx_hal_flash_ex.c **** {
 380:cube/Drivers/STM32F3xx_HAL_Driver/Src/stm32f3xx_hal_flash_ex.c ****   HAL_StatusTypeDef status = HAL_ERROR;
 381:cube/Drivers/STM32F3xx_HAL_Driver/Src/stm32f3xx_hal_flash_ex.c **** 
 382:cube/Drivers/STM32F3xx_HAL_Driver/Src/stm32f3xx_hal_flash_ex.c ****   /* Process Locked */
 383:cube/Drivers/STM32F3xx_HAL_Driver/Src/stm32f3xx_hal_flash_ex.c ****   __HAL_LOCK(&pFlash);
 384:cube/Drivers/STM32F3xx_HAL_Driver/Src/stm32f3xx_hal_flash_ex.c **** 
 385:cube/Drivers/STM32F3xx_HAL_Driver/Src/stm32f3xx_hal_flash_ex.c ****   /* Check the parameters */
 386:cube/Drivers/STM32F3xx_HAL_Driver/Src/stm32f3xx_hal_flash_ex.c ****   assert_param(IS_OPTIONBYTE(pOBInit->OptionType));
 387:cube/Drivers/STM32F3xx_HAL_Driver/Src/stm32f3xx_hal_flash_ex.c **** 
 388:cube/Drivers/STM32F3xx_HAL_Driver/Src/stm32f3xx_hal_flash_ex.c ****   /* Write protection configuration */
 389:cube/Drivers/STM32F3xx_HAL_Driver/Src/stm32f3xx_hal_flash_ex.c ****   if((pOBInit->OptionType & OPTIONBYTE_WRP) == OPTIONBYTE_WRP)
 390:cube/Drivers/STM32F3xx_HAL_Driver/Src/stm32f3xx_hal_flash_ex.c ****   {
 391:cube/Drivers/STM32F3xx_HAL_Driver/Src/stm32f3xx_hal_flash_ex.c ****     assert_param(IS_WRPSTATE(pOBInit->WRPState));
 392:cube/Drivers/STM32F3xx_HAL_Driver/Src/stm32f3xx_hal_flash_ex.c ****     if (pOBInit->WRPState == OB_WRPSTATE_ENABLE)
 393:cube/Drivers/STM32F3xx_HAL_Driver/Src/stm32f3xx_hal_flash_ex.c ****     {
 394:cube/Drivers/STM32F3xx_HAL_Driver/Src/stm32f3xx_hal_flash_ex.c ****       /* Enable of Write protection on the selected page */
 395:cube/Drivers/STM32F3xx_HAL_Driver/Src/stm32f3xx_hal_flash_ex.c ****       status = FLASH_OB_EnableWRP(pOBInit->WRPPage);
 396:cube/Drivers/STM32F3xx_HAL_Driver/Src/stm32f3xx_hal_flash_ex.c ****     }
 397:cube/Drivers/STM32F3xx_HAL_Driver/Src/stm32f3xx_hal_flash_ex.c ****     else
 398:cube/Drivers/STM32F3xx_HAL_Driver/Src/stm32f3xx_hal_flash_ex.c ****     {
 399:cube/Drivers/STM32F3xx_HAL_Driver/Src/stm32f3xx_hal_flash_ex.c ****       /* Disable of Write protection on the selected page */
 400:cube/Drivers/STM32F3xx_HAL_Driver/Src/stm32f3xx_hal_flash_ex.c ****       status = FLASH_OB_DisableWRP(pOBInit->WRPPage);
 401:cube/Drivers/STM32F3xx_HAL_Driver/Src/stm32f3xx_hal_flash_ex.c ****     }
 402:cube/Drivers/STM32F3xx_HAL_Driver/Src/stm32f3xx_hal_flash_ex.c ****     if (status != HAL_OK)
 403:cube/Drivers/STM32F3xx_HAL_Driver/Src/stm32f3xx_hal_flash_ex.c ****     {
 404:cube/Drivers/STM32F3xx_HAL_Driver/Src/stm32f3xx_hal_flash_ex.c ****       /* Process Unlocked */
 405:cube/Drivers/STM32F3xx_HAL_Driver/Src/stm32f3xx_hal_flash_ex.c ****       __HAL_UNLOCK(&pFlash);
 406:cube/Drivers/STM32F3xx_HAL_Driver/Src/stm32f3xx_hal_flash_ex.c ****       return status;
 407:cube/Drivers/STM32F3xx_HAL_Driver/Src/stm32f3xx_hal_flash_ex.c ****     }
 408:cube/Drivers/STM32F3xx_HAL_Driver/Src/stm32f3xx_hal_flash_ex.c ****   }
 409:cube/Drivers/STM32F3xx_HAL_Driver/Src/stm32f3xx_hal_flash_ex.c **** 
 410:cube/Drivers/STM32F3xx_HAL_Driver/Src/stm32f3xx_hal_flash_ex.c ****   /* Read protection configuration */
 411:cube/Drivers/STM32F3xx_HAL_Driver/Src/stm32f3xx_hal_flash_ex.c ****   if((pOBInit->OptionType & OPTIONBYTE_RDP) == OPTIONBYTE_RDP)
 412:cube/Drivers/STM32F3xx_HAL_Driver/Src/stm32f3xx_hal_flash_ex.c ****   {
 413:cube/Drivers/STM32F3xx_HAL_Driver/Src/stm32f3xx_hal_flash_ex.c ****     status = FLASH_OB_RDP_LevelConfig(pOBInit->RDPLevel);
 414:cube/Drivers/STM32F3xx_HAL_Driver/Src/stm32f3xx_hal_flash_ex.c ****     if (status != HAL_OK)
 415:cube/Drivers/STM32F3xx_HAL_Driver/Src/stm32f3xx_hal_flash_ex.c ****     {
 416:cube/Drivers/STM32F3xx_HAL_Driver/Src/stm32f3xx_hal_flash_ex.c ****       /* Process Unlocked */
 417:cube/Drivers/STM32F3xx_HAL_Driver/Src/stm32f3xx_hal_flash_ex.c ****       __HAL_UNLOCK(&pFlash);
 418:cube/Drivers/STM32F3xx_HAL_Driver/Src/stm32f3xx_hal_flash_ex.c ****       return status;
 419:cube/Drivers/STM32F3xx_HAL_Driver/Src/stm32f3xx_hal_flash_ex.c ****     }
 420:cube/Drivers/STM32F3xx_HAL_Driver/Src/stm32f3xx_hal_flash_ex.c ****   }
 421:cube/Drivers/STM32F3xx_HAL_Driver/Src/stm32f3xx_hal_flash_ex.c **** 
 422:cube/Drivers/STM32F3xx_HAL_Driver/Src/stm32f3xx_hal_flash_ex.c ****   /* USER configuration */
 423:cube/Drivers/STM32F3xx_HAL_Driver/Src/stm32f3xx_hal_flash_ex.c ****   if((pOBInit->OptionType & OPTIONBYTE_USER) == OPTIONBYTE_USER)
 424:cube/Drivers/STM32F3xx_HAL_Driver/Src/stm32f3xx_hal_flash_ex.c ****   {
 425:cube/Drivers/STM32F3xx_HAL_Driver/Src/stm32f3xx_hal_flash_ex.c ****     status = FLASH_OB_UserConfig(pOBInit->USERConfig);
 426:cube/Drivers/STM32F3xx_HAL_Driver/Src/stm32f3xx_hal_flash_ex.c ****     if (status != HAL_OK)
 427:cube/Drivers/STM32F3xx_HAL_Driver/Src/stm32f3xx_hal_flash_ex.c ****     {
 428:cube/Drivers/STM32F3xx_HAL_Driver/Src/stm32f3xx_hal_flash_ex.c ****       /* Process Unlocked */
 429:cube/Drivers/STM32F3xx_HAL_Driver/Src/stm32f3xx_hal_flash_ex.c ****       __HAL_UNLOCK(&pFlash);
 430:cube/Drivers/STM32F3xx_HAL_Driver/Src/stm32f3xx_hal_flash_ex.c ****       return status;
ARM GAS  C:\Users\Berbardo\AppData\Local\Temp\ccJ3NdKC.s 			page 9


 431:cube/Drivers/STM32F3xx_HAL_Driver/Src/stm32f3xx_hal_flash_ex.c ****     }
 432:cube/Drivers/STM32F3xx_HAL_Driver/Src/stm32f3xx_hal_flash_ex.c ****   }
 433:cube/Drivers/STM32F3xx_HAL_Driver/Src/stm32f3xx_hal_flash_ex.c **** 
 434:cube/Drivers/STM32F3xx_HAL_Driver/Src/stm32f3xx_hal_flash_ex.c ****   /* DATA configuration*/
 435:cube/Drivers/STM32F3xx_HAL_Driver/Src/stm32f3xx_hal_flash_ex.c ****   if((pOBInit->OptionType & OPTIONBYTE_DATA) == OPTIONBYTE_DATA)
 436:cube/Drivers/STM32F3xx_HAL_Driver/Src/stm32f3xx_hal_flash_ex.c ****   {
 437:cube/Drivers/STM32F3xx_HAL_Driver/Src/stm32f3xx_hal_flash_ex.c ****     status = FLASH_OB_ProgramData(pOBInit->DATAAddress, pOBInit->DATAData);
 438:cube/Drivers/STM32F3xx_HAL_Driver/Src/stm32f3xx_hal_flash_ex.c ****     if (status != HAL_OK)
 439:cube/Drivers/STM32F3xx_HAL_Driver/Src/stm32f3xx_hal_flash_ex.c ****     {
 440:cube/Drivers/STM32F3xx_HAL_Driver/Src/stm32f3xx_hal_flash_ex.c ****       /* Process Unlocked */
 441:cube/Drivers/STM32F3xx_HAL_Driver/Src/stm32f3xx_hal_flash_ex.c ****       __HAL_UNLOCK(&pFlash);
 442:cube/Drivers/STM32F3xx_HAL_Driver/Src/stm32f3xx_hal_flash_ex.c ****       return status;
 443:cube/Drivers/STM32F3xx_HAL_Driver/Src/stm32f3xx_hal_flash_ex.c ****     }
 444:cube/Drivers/STM32F3xx_HAL_Driver/Src/stm32f3xx_hal_flash_ex.c ****   }
 445:cube/Drivers/STM32F3xx_HAL_Driver/Src/stm32f3xx_hal_flash_ex.c **** 
 446:cube/Drivers/STM32F3xx_HAL_Driver/Src/stm32f3xx_hal_flash_ex.c ****   /* Process Unlocked */
 447:cube/Drivers/STM32F3xx_HAL_Driver/Src/stm32f3xx_hal_flash_ex.c ****   __HAL_UNLOCK(&pFlash);
 448:cube/Drivers/STM32F3xx_HAL_Driver/Src/stm32f3xx_hal_flash_ex.c **** 
 449:cube/Drivers/STM32F3xx_HAL_Driver/Src/stm32f3xx_hal_flash_ex.c ****   return status;
 450:cube/Drivers/STM32F3xx_HAL_Driver/Src/stm32f3xx_hal_flash_ex.c **** }
 451:cube/Drivers/STM32F3xx_HAL_Driver/Src/stm32f3xx_hal_flash_ex.c **** 
 452:cube/Drivers/STM32F3xx_HAL_Driver/Src/stm32f3xx_hal_flash_ex.c **** /**
 453:cube/Drivers/STM32F3xx_HAL_Driver/Src/stm32f3xx_hal_flash_ex.c ****   * @brief  Get the Option byte configuration
 454:cube/Drivers/STM32F3xx_HAL_Driver/Src/stm32f3xx_hal_flash_ex.c ****   * @param  pOBInit pointer to an FLASH_OBInitStruct structure that
 455:cube/Drivers/STM32F3xx_HAL_Driver/Src/stm32f3xx_hal_flash_ex.c ****   *         contains the configuration information for the programming.
 456:cube/Drivers/STM32F3xx_HAL_Driver/Src/stm32f3xx_hal_flash_ex.c ****   *
 457:cube/Drivers/STM32F3xx_HAL_Driver/Src/stm32f3xx_hal_flash_ex.c ****   * @retval None
 458:cube/Drivers/STM32F3xx_HAL_Driver/Src/stm32f3xx_hal_flash_ex.c ****   */
 459:cube/Drivers/STM32F3xx_HAL_Driver/Src/stm32f3xx_hal_flash_ex.c **** void HAL_FLASHEx_OBGetConfig(FLASH_OBProgramInitTypeDef *pOBInit)
 460:cube/Drivers/STM32F3xx_HAL_Driver/Src/stm32f3xx_hal_flash_ex.c **** {
 461:cube/Drivers/STM32F3xx_HAL_Driver/Src/stm32f3xx_hal_flash_ex.c ****   pOBInit->OptionType = OPTIONBYTE_WRP | OPTIONBYTE_RDP | OPTIONBYTE_USER;
 462:cube/Drivers/STM32F3xx_HAL_Driver/Src/stm32f3xx_hal_flash_ex.c **** 
 463:cube/Drivers/STM32F3xx_HAL_Driver/Src/stm32f3xx_hal_flash_ex.c ****   /*Get WRP*/
 464:cube/Drivers/STM32F3xx_HAL_Driver/Src/stm32f3xx_hal_flash_ex.c ****   pOBInit->WRPPage = FLASH_OB_GetWRP();
 465:cube/Drivers/STM32F3xx_HAL_Driver/Src/stm32f3xx_hal_flash_ex.c **** 
 466:cube/Drivers/STM32F3xx_HAL_Driver/Src/stm32f3xx_hal_flash_ex.c ****   /*Get RDP Level*/
 467:cube/Drivers/STM32F3xx_HAL_Driver/Src/stm32f3xx_hal_flash_ex.c ****   pOBInit->RDPLevel = FLASH_OB_GetRDP();
 468:cube/Drivers/STM32F3xx_HAL_Driver/Src/stm32f3xx_hal_flash_ex.c **** 
 469:cube/Drivers/STM32F3xx_HAL_Driver/Src/stm32f3xx_hal_flash_ex.c ****   /*Get USER*/
 470:cube/Drivers/STM32F3xx_HAL_Driver/Src/stm32f3xx_hal_flash_ex.c ****   pOBInit->USERConfig = FLASH_OB_GetUser();
 471:cube/Drivers/STM32F3xx_HAL_Driver/Src/stm32f3xx_hal_flash_ex.c **** }
 472:cube/Drivers/STM32F3xx_HAL_Driver/Src/stm32f3xx_hal_flash_ex.c **** 
 473:cube/Drivers/STM32F3xx_HAL_Driver/Src/stm32f3xx_hal_flash_ex.c **** /**
 474:cube/Drivers/STM32F3xx_HAL_Driver/Src/stm32f3xx_hal_flash_ex.c ****   * @brief  Get the Option byte user data
 475:cube/Drivers/STM32F3xx_HAL_Driver/Src/stm32f3xx_hal_flash_ex.c ****   * @param  DATAAdress Address of the option byte DATA
 476:cube/Drivers/STM32F3xx_HAL_Driver/Src/stm32f3xx_hal_flash_ex.c ****   *          This parameter can be one of the following values:
 477:cube/Drivers/STM32F3xx_HAL_Driver/Src/stm32f3xx_hal_flash_ex.c ****   *            @arg @ref OB_DATA_ADDRESS_DATA0
 478:cube/Drivers/STM32F3xx_HAL_Driver/Src/stm32f3xx_hal_flash_ex.c ****   *            @arg @ref OB_DATA_ADDRESS_DATA1
 479:cube/Drivers/STM32F3xx_HAL_Driver/Src/stm32f3xx_hal_flash_ex.c ****   * @retval Value programmed in USER data
 480:cube/Drivers/STM32F3xx_HAL_Driver/Src/stm32f3xx_hal_flash_ex.c ****   */
 481:cube/Drivers/STM32F3xx_HAL_Driver/Src/stm32f3xx_hal_flash_ex.c **** uint32_t HAL_FLASHEx_OBGetUserData(uint32_t DATAAdress)
 482:cube/Drivers/STM32F3xx_HAL_Driver/Src/stm32f3xx_hal_flash_ex.c **** {
 483:cube/Drivers/STM32F3xx_HAL_Driver/Src/stm32f3xx_hal_flash_ex.c ****   uint32_t value = 0U;
 484:cube/Drivers/STM32F3xx_HAL_Driver/Src/stm32f3xx_hal_flash_ex.c ****   
 485:cube/Drivers/STM32F3xx_HAL_Driver/Src/stm32f3xx_hal_flash_ex.c ****   if (DATAAdress == OB_DATA_ADDRESS_DATA0)
 486:cube/Drivers/STM32F3xx_HAL_Driver/Src/stm32f3xx_hal_flash_ex.c ****   {
 487:cube/Drivers/STM32F3xx_HAL_Driver/Src/stm32f3xx_hal_flash_ex.c ****     /* Get value programmed in OB USER Data0 */
ARM GAS  C:\Users\Berbardo\AppData\Local\Temp\ccJ3NdKC.s 			page 10


 488:cube/Drivers/STM32F3xx_HAL_Driver/Src/stm32f3xx_hal_flash_ex.c ****     value = READ_BIT(FLASH->OBR, FLASH_OBR_DATA0) >> FLASH_POSITION_OB_USERDATA0_BIT;
 489:cube/Drivers/STM32F3xx_HAL_Driver/Src/stm32f3xx_hal_flash_ex.c ****   }
 490:cube/Drivers/STM32F3xx_HAL_Driver/Src/stm32f3xx_hal_flash_ex.c ****   else
 491:cube/Drivers/STM32F3xx_HAL_Driver/Src/stm32f3xx_hal_flash_ex.c ****   {
 492:cube/Drivers/STM32F3xx_HAL_Driver/Src/stm32f3xx_hal_flash_ex.c ****     /* Get value programmed in OB USER Data1 */
 493:cube/Drivers/STM32F3xx_HAL_Driver/Src/stm32f3xx_hal_flash_ex.c ****     value = READ_BIT(FLASH->OBR, FLASH_OBR_DATA1) >> FLASH_POSITION_OB_USERDATA1_BIT;
 494:cube/Drivers/STM32F3xx_HAL_Driver/Src/stm32f3xx_hal_flash_ex.c ****   }
 495:cube/Drivers/STM32F3xx_HAL_Driver/Src/stm32f3xx_hal_flash_ex.c ****   
 496:cube/Drivers/STM32F3xx_HAL_Driver/Src/stm32f3xx_hal_flash_ex.c ****   return value;
 497:cube/Drivers/STM32F3xx_HAL_Driver/Src/stm32f3xx_hal_flash_ex.c **** }
 498:cube/Drivers/STM32F3xx_HAL_Driver/Src/stm32f3xx_hal_flash_ex.c **** 
 499:cube/Drivers/STM32F3xx_HAL_Driver/Src/stm32f3xx_hal_flash_ex.c **** /**
 500:cube/Drivers/STM32F3xx_HAL_Driver/Src/stm32f3xx_hal_flash_ex.c ****   * @}
 501:cube/Drivers/STM32F3xx_HAL_Driver/Src/stm32f3xx_hal_flash_ex.c ****   */
 502:cube/Drivers/STM32F3xx_HAL_Driver/Src/stm32f3xx_hal_flash_ex.c **** 
 503:cube/Drivers/STM32F3xx_HAL_Driver/Src/stm32f3xx_hal_flash_ex.c **** /**
 504:cube/Drivers/STM32F3xx_HAL_Driver/Src/stm32f3xx_hal_flash_ex.c ****   * @}
 505:cube/Drivers/STM32F3xx_HAL_Driver/Src/stm32f3xx_hal_flash_ex.c ****   */
 506:cube/Drivers/STM32F3xx_HAL_Driver/Src/stm32f3xx_hal_flash_ex.c **** 
 507:cube/Drivers/STM32F3xx_HAL_Driver/Src/stm32f3xx_hal_flash_ex.c **** /** @addtogroup FLASHEx_Private_Functions
 508:cube/Drivers/STM32F3xx_HAL_Driver/Src/stm32f3xx_hal_flash_ex.c ****  * @{
 509:cube/Drivers/STM32F3xx_HAL_Driver/Src/stm32f3xx_hal_flash_ex.c ****  */
 510:cube/Drivers/STM32F3xx_HAL_Driver/Src/stm32f3xx_hal_flash_ex.c **** 
 511:cube/Drivers/STM32F3xx_HAL_Driver/Src/stm32f3xx_hal_flash_ex.c **** /**
 512:cube/Drivers/STM32F3xx_HAL_Driver/Src/stm32f3xx_hal_flash_ex.c ****   * @brief  Full erase of FLASH memory Bank 
 513:cube/Drivers/STM32F3xx_HAL_Driver/Src/stm32f3xx_hal_flash_ex.c ****   *
 514:cube/Drivers/STM32F3xx_HAL_Driver/Src/stm32f3xx_hal_flash_ex.c ****   * @retval None
 515:cube/Drivers/STM32F3xx_HAL_Driver/Src/stm32f3xx_hal_flash_ex.c ****   */
 516:cube/Drivers/STM32F3xx_HAL_Driver/Src/stm32f3xx_hal_flash_ex.c **** static void FLASH_MassErase(void)
 517:cube/Drivers/STM32F3xx_HAL_Driver/Src/stm32f3xx_hal_flash_ex.c **** {
  28              		.loc 1 517 1 view -0
  29              		.cfi_startproc
  30              		@ args = 0, pretend = 0, frame = 0
  31              		@ frame_needed = 0, uses_anonymous_args = 0
  32              		@ link register save eliminated.
 518:cube/Drivers/STM32F3xx_HAL_Driver/Src/stm32f3xx_hal_flash_ex.c ****   /* Clean the error context */
 519:cube/Drivers/STM32F3xx_HAL_Driver/Src/stm32f3xx_hal_flash_ex.c ****   pFlash.ErrorCode = HAL_FLASH_ERROR_NONE;
  33              		.loc 1 519 3 view .LVU1
  34              		.loc 1 519 20 is_stmt 0 view .LVU2
  35 0000 064B     		ldr	r3, .L2
  36 0002 0022     		movs	r2, #0
  37 0004 DA61     		str	r2, [r3, #28]
 520:cube/Drivers/STM32F3xx_HAL_Driver/Src/stm32f3xx_hal_flash_ex.c **** 
 521:cube/Drivers/STM32F3xx_HAL_Driver/Src/stm32f3xx_hal_flash_ex.c ****     /* Only bank1 will be erased*/
 522:cube/Drivers/STM32F3xx_HAL_Driver/Src/stm32f3xx_hal_flash_ex.c ****     SET_BIT(FLASH->CR, FLASH_CR_MER);
  38              		.loc 1 522 5 is_stmt 1 view .LVU3
  39 0006 064B     		ldr	r3, .L2+4
  40 0008 1A69     		ldr	r2, [r3, #16]
  41 000a 42F00402 		orr	r2, r2, #4
  42 000e 1A61     		str	r2, [r3, #16]
 523:cube/Drivers/STM32F3xx_HAL_Driver/Src/stm32f3xx_hal_flash_ex.c ****     SET_BIT(FLASH->CR, FLASH_CR_STRT);
  43              		.loc 1 523 5 view .LVU4
  44 0010 1A69     		ldr	r2, [r3, #16]
  45 0012 42F04002 		orr	r2, r2, #64
  46 0016 1A61     		str	r2, [r3, #16]
 524:cube/Drivers/STM32F3xx_HAL_Driver/Src/stm32f3xx_hal_flash_ex.c **** }
  47              		.loc 1 524 1 is_stmt 0 view .LVU5
ARM GAS  C:\Users\Berbardo\AppData\Local\Temp\ccJ3NdKC.s 			page 11


  48 0018 7047     		bx	lr
  49              	.L3:
  50 001a 00BF     		.align	2
  51              	.L2:
  52 001c 00000000 		.word	pFlash
  53 0020 00200240 		.word	1073881088
  54              		.cfi_endproc
  55              	.LFE132:
  57              		.section	.text.FLASH_OB_GetWRP,"ax",%progbits
  58              		.align	1
  59              		.syntax unified
  60              		.thumb
  61              		.thumb_func
  62              		.fpu fpv4-sp-d16
  64              	FLASH_OB_GetWRP:
  65              	.LFB138:
 525:cube/Drivers/STM32F3xx_HAL_Driver/Src/stm32f3xx_hal_flash_ex.c **** 
 526:cube/Drivers/STM32F3xx_HAL_Driver/Src/stm32f3xx_hal_flash_ex.c **** /**
 527:cube/Drivers/STM32F3xx_HAL_Driver/Src/stm32f3xx_hal_flash_ex.c ****   * @brief  Enable the write protection of the desired pages
 528:cube/Drivers/STM32F3xx_HAL_Driver/Src/stm32f3xx_hal_flash_ex.c ****   * @note   An option byte erase is done automatically in this function. 
 529:cube/Drivers/STM32F3xx_HAL_Driver/Src/stm32f3xx_hal_flash_ex.c ****   * @note   When the memory read protection level is selected (RDP level = 1), 
 530:cube/Drivers/STM32F3xx_HAL_Driver/Src/stm32f3xx_hal_flash_ex.c ****   *         it is not possible to program or erase the flash page i if
 531:cube/Drivers/STM32F3xx_HAL_Driver/Src/stm32f3xx_hal_flash_ex.c ****   *         debug features are connected or boot code is executed in RAM, even if nWRPi = 1 
 532:cube/Drivers/STM32F3xx_HAL_Driver/Src/stm32f3xx_hal_flash_ex.c ****   * 
 533:cube/Drivers/STM32F3xx_HAL_Driver/Src/stm32f3xx_hal_flash_ex.c ****   * @param  WriteProtectPage specifies the page(s) to be write protected.
 534:cube/Drivers/STM32F3xx_HAL_Driver/Src/stm32f3xx_hal_flash_ex.c ****   *         The value of this parameter depend on device used within the same series 
 535:cube/Drivers/STM32F3xx_HAL_Driver/Src/stm32f3xx_hal_flash_ex.c ****   * @retval HAL status 
 536:cube/Drivers/STM32F3xx_HAL_Driver/Src/stm32f3xx_hal_flash_ex.c ****   */
 537:cube/Drivers/STM32F3xx_HAL_Driver/Src/stm32f3xx_hal_flash_ex.c **** static HAL_StatusTypeDef FLASH_OB_EnableWRP(uint32_t WriteProtectPage)
 538:cube/Drivers/STM32F3xx_HAL_Driver/Src/stm32f3xx_hal_flash_ex.c **** {
 539:cube/Drivers/STM32F3xx_HAL_Driver/Src/stm32f3xx_hal_flash_ex.c ****   HAL_StatusTypeDef status = HAL_OK;
 540:cube/Drivers/STM32F3xx_HAL_Driver/Src/stm32f3xx_hal_flash_ex.c ****   uint16_t WRP0_Data = 0xFFFFU;
 541:cube/Drivers/STM32F3xx_HAL_Driver/Src/stm32f3xx_hal_flash_ex.c **** #if defined(OB_WRP1_WRP1)
 542:cube/Drivers/STM32F3xx_HAL_Driver/Src/stm32f3xx_hal_flash_ex.c ****   uint16_t WRP1_Data = 0xFFFFU;
 543:cube/Drivers/STM32F3xx_HAL_Driver/Src/stm32f3xx_hal_flash_ex.c **** #endif /* OB_WRP1_WRP1 */
 544:cube/Drivers/STM32F3xx_HAL_Driver/Src/stm32f3xx_hal_flash_ex.c **** #if defined(OB_WRP2_WRP2)
 545:cube/Drivers/STM32F3xx_HAL_Driver/Src/stm32f3xx_hal_flash_ex.c ****   uint16_t WRP2_Data = 0xFFFFU;
 546:cube/Drivers/STM32F3xx_HAL_Driver/Src/stm32f3xx_hal_flash_ex.c **** #endif /* OB_WRP2_WRP2 */
 547:cube/Drivers/STM32F3xx_HAL_Driver/Src/stm32f3xx_hal_flash_ex.c **** #if defined(OB_WRP3_WRP3)
 548:cube/Drivers/STM32F3xx_HAL_Driver/Src/stm32f3xx_hal_flash_ex.c ****   uint16_t WRP3_Data = 0xFFFFU;
 549:cube/Drivers/STM32F3xx_HAL_Driver/Src/stm32f3xx_hal_flash_ex.c **** #endif /* OB_WRP3_WRP3 */
 550:cube/Drivers/STM32F3xx_HAL_Driver/Src/stm32f3xx_hal_flash_ex.c ****   
 551:cube/Drivers/STM32F3xx_HAL_Driver/Src/stm32f3xx_hal_flash_ex.c ****   /* Check the parameters */
 552:cube/Drivers/STM32F3xx_HAL_Driver/Src/stm32f3xx_hal_flash_ex.c ****   assert_param(IS_OB_WRP(WriteProtectPage));
 553:cube/Drivers/STM32F3xx_HAL_Driver/Src/stm32f3xx_hal_flash_ex.c ****     
 554:cube/Drivers/STM32F3xx_HAL_Driver/Src/stm32f3xx_hal_flash_ex.c ****   /* Get current write protected pages and the new pages to be protected ******/
 555:cube/Drivers/STM32F3xx_HAL_Driver/Src/stm32f3xx_hal_flash_ex.c ****   WriteProtectPage = (uint32_t)(~((~FLASH_OB_GetWRP()) | WriteProtectPage));
 556:cube/Drivers/STM32F3xx_HAL_Driver/Src/stm32f3xx_hal_flash_ex.c ****   
 557:cube/Drivers/STM32F3xx_HAL_Driver/Src/stm32f3xx_hal_flash_ex.c **** #if defined(OB_WRP_PAGES0TO15MASK)
 558:cube/Drivers/STM32F3xx_HAL_Driver/Src/stm32f3xx_hal_flash_ex.c ****   WRP0_Data = (uint16_t)(WriteProtectPage & OB_WRP_PAGES0TO15MASK);
 559:cube/Drivers/STM32F3xx_HAL_Driver/Src/stm32f3xx_hal_flash_ex.c **** #endif /* OB_WRP_PAGES0TO31MASK */
 560:cube/Drivers/STM32F3xx_HAL_Driver/Src/stm32f3xx_hal_flash_ex.c ****   
 561:cube/Drivers/STM32F3xx_HAL_Driver/Src/stm32f3xx_hal_flash_ex.c **** #if defined(OB_WRP_PAGES16TO31MASK)
 562:cube/Drivers/STM32F3xx_HAL_Driver/Src/stm32f3xx_hal_flash_ex.c ****   WRP1_Data = (uint16_t)((WriteProtectPage & OB_WRP_PAGES16TO31MASK) >> 8U);
 563:cube/Drivers/STM32F3xx_HAL_Driver/Src/stm32f3xx_hal_flash_ex.c **** #endif /* OB_WRP_PAGES32TO63MASK */
 564:cube/Drivers/STM32F3xx_HAL_Driver/Src/stm32f3xx_hal_flash_ex.c ****  
 565:cube/Drivers/STM32F3xx_HAL_Driver/Src/stm32f3xx_hal_flash_ex.c **** #if defined(OB_WRP_PAGES32TO47MASK)
ARM GAS  C:\Users\Berbardo\AppData\Local\Temp\ccJ3NdKC.s 			page 12


 566:cube/Drivers/STM32F3xx_HAL_Driver/Src/stm32f3xx_hal_flash_ex.c ****   WRP2_Data = (uint16_t)((WriteProtectPage & OB_WRP_PAGES32TO47MASK) >> 16U);
 567:cube/Drivers/STM32F3xx_HAL_Driver/Src/stm32f3xx_hal_flash_ex.c **** #endif /* OB_WRP_PAGES32TO47MASK */
 568:cube/Drivers/STM32F3xx_HAL_Driver/Src/stm32f3xx_hal_flash_ex.c **** 
 569:cube/Drivers/STM32F3xx_HAL_Driver/Src/stm32f3xx_hal_flash_ex.c **** #if defined(OB_WRP_PAGES48TO127MASK)
 570:cube/Drivers/STM32F3xx_HAL_Driver/Src/stm32f3xx_hal_flash_ex.c ****   WRP3_Data = (uint16_t)((WriteProtectPage & OB_WRP_PAGES48TO127MASK) >> 24U); 
 571:cube/Drivers/STM32F3xx_HAL_Driver/Src/stm32f3xx_hal_flash_ex.c **** #elif defined(OB_WRP_PAGES48TO255MASK)
 572:cube/Drivers/STM32F3xx_HAL_Driver/Src/stm32f3xx_hal_flash_ex.c ****   WRP3_Data = (uint16_t)((WriteProtectPage & OB_WRP_PAGES48TO255MASK) >> 24U); 
 573:cube/Drivers/STM32F3xx_HAL_Driver/Src/stm32f3xx_hal_flash_ex.c **** #endif /* OB_WRP_PAGES48TO63MASK */
 574:cube/Drivers/STM32F3xx_HAL_Driver/Src/stm32f3xx_hal_flash_ex.c ****   
 575:cube/Drivers/STM32F3xx_HAL_Driver/Src/stm32f3xx_hal_flash_ex.c ****   /* Wait for last operation to be completed */
 576:cube/Drivers/STM32F3xx_HAL_Driver/Src/stm32f3xx_hal_flash_ex.c ****   status = FLASH_WaitForLastOperation((uint32_t)FLASH_TIMEOUT_VALUE);
 577:cube/Drivers/STM32F3xx_HAL_Driver/Src/stm32f3xx_hal_flash_ex.c **** 
 578:cube/Drivers/STM32F3xx_HAL_Driver/Src/stm32f3xx_hal_flash_ex.c ****   if(status == HAL_OK)
 579:cube/Drivers/STM32F3xx_HAL_Driver/Src/stm32f3xx_hal_flash_ex.c ****   { 
 580:cube/Drivers/STM32F3xx_HAL_Driver/Src/stm32f3xx_hal_flash_ex.c ****     /* Clean the error context */
 581:cube/Drivers/STM32F3xx_HAL_Driver/Src/stm32f3xx_hal_flash_ex.c ****     pFlash.ErrorCode = HAL_FLASH_ERROR_NONE;
 582:cube/Drivers/STM32F3xx_HAL_Driver/Src/stm32f3xx_hal_flash_ex.c **** 
 583:cube/Drivers/STM32F3xx_HAL_Driver/Src/stm32f3xx_hal_flash_ex.c ****     /* To be able to write again option byte, need to perform a option byte erase */
 584:cube/Drivers/STM32F3xx_HAL_Driver/Src/stm32f3xx_hal_flash_ex.c ****     status = HAL_FLASHEx_OBErase();
 585:cube/Drivers/STM32F3xx_HAL_Driver/Src/stm32f3xx_hal_flash_ex.c ****     if (status == HAL_OK)  
 586:cube/Drivers/STM32F3xx_HAL_Driver/Src/stm32f3xx_hal_flash_ex.c ****     {
 587:cube/Drivers/STM32F3xx_HAL_Driver/Src/stm32f3xx_hal_flash_ex.c ****       /* Enable write protection */
 588:cube/Drivers/STM32F3xx_HAL_Driver/Src/stm32f3xx_hal_flash_ex.c ****       SET_BIT(FLASH->CR, FLASH_CR_OPTPG);
 589:cube/Drivers/STM32F3xx_HAL_Driver/Src/stm32f3xx_hal_flash_ex.c **** 
 590:cube/Drivers/STM32F3xx_HAL_Driver/Src/stm32f3xx_hal_flash_ex.c **** #if defined(OB_WRP0_WRP0)
 591:cube/Drivers/STM32F3xx_HAL_Driver/Src/stm32f3xx_hal_flash_ex.c ****       if(WRP0_Data != 0xFFU)
 592:cube/Drivers/STM32F3xx_HAL_Driver/Src/stm32f3xx_hal_flash_ex.c ****       {
 593:cube/Drivers/STM32F3xx_HAL_Driver/Src/stm32f3xx_hal_flash_ex.c ****         OB->WRP0 &= WRP0_Data;
 594:cube/Drivers/STM32F3xx_HAL_Driver/Src/stm32f3xx_hal_flash_ex.c ****         
 595:cube/Drivers/STM32F3xx_HAL_Driver/Src/stm32f3xx_hal_flash_ex.c ****         /* Wait for last operation to be completed */
 596:cube/Drivers/STM32F3xx_HAL_Driver/Src/stm32f3xx_hal_flash_ex.c ****         status = FLASH_WaitForLastOperation((uint32_t)FLASH_TIMEOUT_VALUE);
 597:cube/Drivers/STM32F3xx_HAL_Driver/Src/stm32f3xx_hal_flash_ex.c ****       }
 598:cube/Drivers/STM32F3xx_HAL_Driver/Src/stm32f3xx_hal_flash_ex.c **** #endif /* OB_WRP0_WRP0 */
 599:cube/Drivers/STM32F3xx_HAL_Driver/Src/stm32f3xx_hal_flash_ex.c **** 
 600:cube/Drivers/STM32F3xx_HAL_Driver/Src/stm32f3xx_hal_flash_ex.c **** #if defined(OB_WRP1_WRP1)
 601:cube/Drivers/STM32F3xx_HAL_Driver/Src/stm32f3xx_hal_flash_ex.c ****       if((status == HAL_OK) && (WRP1_Data != 0xFFU))
 602:cube/Drivers/STM32F3xx_HAL_Driver/Src/stm32f3xx_hal_flash_ex.c ****       {
 603:cube/Drivers/STM32F3xx_HAL_Driver/Src/stm32f3xx_hal_flash_ex.c ****         OB->WRP1 &= WRP1_Data;
 604:cube/Drivers/STM32F3xx_HAL_Driver/Src/stm32f3xx_hal_flash_ex.c ****         
 605:cube/Drivers/STM32F3xx_HAL_Driver/Src/stm32f3xx_hal_flash_ex.c ****         /* Wait for last operation to be completed */
 606:cube/Drivers/STM32F3xx_HAL_Driver/Src/stm32f3xx_hal_flash_ex.c ****         status = FLASH_WaitForLastOperation((uint32_t)FLASH_TIMEOUT_VALUE);
 607:cube/Drivers/STM32F3xx_HAL_Driver/Src/stm32f3xx_hal_flash_ex.c ****       }
 608:cube/Drivers/STM32F3xx_HAL_Driver/Src/stm32f3xx_hal_flash_ex.c **** #endif /* OB_WRP1_WRP1 */
 609:cube/Drivers/STM32F3xx_HAL_Driver/Src/stm32f3xx_hal_flash_ex.c **** 
 610:cube/Drivers/STM32F3xx_HAL_Driver/Src/stm32f3xx_hal_flash_ex.c **** #if defined(OB_WRP2_WRP2)
 611:cube/Drivers/STM32F3xx_HAL_Driver/Src/stm32f3xx_hal_flash_ex.c ****       if((status == HAL_OK) && (WRP2_Data != 0xFFU))
 612:cube/Drivers/STM32F3xx_HAL_Driver/Src/stm32f3xx_hal_flash_ex.c ****       {
 613:cube/Drivers/STM32F3xx_HAL_Driver/Src/stm32f3xx_hal_flash_ex.c ****         OB->WRP2 &= WRP2_Data;
 614:cube/Drivers/STM32F3xx_HAL_Driver/Src/stm32f3xx_hal_flash_ex.c ****         
 615:cube/Drivers/STM32F3xx_HAL_Driver/Src/stm32f3xx_hal_flash_ex.c ****         /* Wait for last operation to be completed */
 616:cube/Drivers/STM32F3xx_HAL_Driver/Src/stm32f3xx_hal_flash_ex.c ****         status = FLASH_WaitForLastOperation((uint32_t)FLASH_TIMEOUT_VALUE);
 617:cube/Drivers/STM32F3xx_HAL_Driver/Src/stm32f3xx_hal_flash_ex.c ****       }
 618:cube/Drivers/STM32F3xx_HAL_Driver/Src/stm32f3xx_hal_flash_ex.c **** #endif /* OB_WRP2_WRP2 */
 619:cube/Drivers/STM32F3xx_HAL_Driver/Src/stm32f3xx_hal_flash_ex.c **** 
 620:cube/Drivers/STM32F3xx_HAL_Driver/Src/stm32f3xx_hal_flash_ex.c **** #if defined(OB_WRP3_WRP3)
 621:cube/Drivers/STM32F3xx_HAL_Driver/Src/stm32f3xx_hal_flash_ex.c ****       if((status == HAL_OK) && (WRP3_Data != 0xFFU))
 622:cube/Drivers/STM32F3xx_HAL_Driver/Src/stm32f3xx_hal_flash_ex.c ****       {
ARM GAS  C:\Users\Berbardo\AppData\Local\Temp\ccJ3NdKC.s 			page 13


 623:cube/Drivers/STM32F3xx_HAL_Driver/Src/stm32f3xx_hal_flash_ex.c ****         OB->WRP3 &= WRP3_Data;
 624:cube/Drivers/STM32F3xx_HAL_Driver/Src/stm32f3xx_hal_flash_ex.c ****         
 625:cube/Drivers/STM32F3xx_HAL_Driver/Src/stm32f3xx_hal_flash_ex.c ****         /* Wait for last operation to be completed */
 626:cube/Drivers/STM32F3xx_HAL_Driver/Src/stm32f3xx_hal_flash_ex.c ****         status = FLASH_WaitForLastOperation((uint32_t)FLASH_TIMEOUT_VALUE);
 627:cube/Drivers/STM32F3xx_HAL_Driver/Src/stm32f3xx_hal_flash_ex.c ****       }
 628:cube/Drivers/STM32F3xx_HAL_Driver/Src/stm32f3xx_hal_flash_ex.c **** #endif /* OB_WRP3_WRP3 */
 629:cube/Drivers/STM32F3xx_HAL_Driver/Src/stm32f3xx_hal_flash_ex.c **** 
 630:cube/Drivers/STM32F3xx_HAL_Driver/Src/stm32f3xx_hal_flash_ex.c ****       /* if the program operation is completed, disable the OPTPG Bit */
 631:cube/Drivers/STM32F3xx_HAL_Driver/Src/stm32f3xx_hal_flash_ex.c ****       CLEAR_BIT(FLASH->CR, FLASH_CR_OPTPG);
 632:cube/Drivers/STM32F3xx_HAL_Driver/Src/stm32f3xx_hal_flash_ex.c ****     }
 633:cube/Drivers/STM32F3xx_HAL_Driver/Src/stm32f3xx_hal_flash_ex.c ****   }
 634:cube/Drivers/STM32F3xx_HAL_Driver/Src/stm32f3xx_hal_flash_ex.c ****   
 635:cube/Drivers/STM32F3xx_HAL_Driver/Src/stm32f3xx_hal_flash_ex.c ****   return status;
 636:cube/Drivers/STM32F3xx_HAL_Driver/Src/stm32f3xx_hal_flash_ex.c **** }
 637:cube/Drivers/STM32F3xx_HAL_Driver/Src/stm32f3xx_hal_flash_ex.c **** 
 638:cube/Drivers/STM32F3xx_HAL_Driver/Src/stm32f3xx_hal_flash_ex.c **** /**
 639:cube/Drivers/STM32F3xx_HAL_Driver/Src/stm32f3xx_hal_flash_ex.c ****   * @brief  Disable the write protection of the desired pages
 640:cube/Drivers/STM32F3xx_HAL_Driver/Src/stm32f3xx_hal_flash_ex.c ****   * @note   An option byte erase is done automatically in this function. 
 641:cube/Drivers/STM32F3xx_HAL_Driver/Src/stm32f3xx_hal_flash_ex.c ****   * @note   When the memory read protection level is selected (RDP level = 1), 
 642:cube/Drivers/STM32F3xx_HAL_Driver/Src/stm32f3xx_hal_flash_ex.c ****   *         it is not possible to program or erase the flash page i if   
 643:cube/Drivers/STM32F3xx_HAL_Driver/Src/stm32f3xx_hal_flash_ex.c ****   *         debug features are connected or boot code is executed in RAM, even if nWRPi = 1 
 644:cube/Drivers/STM32F3xx_HAL_Driver/Src/stm32f3xx_hal_flash_ex.c ****   * 
 645:cube/Drivers/STM32F3xx_HAL_Driver/Src/stm32f3xx_hal_flash_ex.c ****   * @param  WriteProtectPage specifies the page(s) to be write unprotected.
 646:cube/Drivers/STM32F3xx_HAL_Driver/Src/stm32f3xx_hal_flash_ex.c ****   *         The value of this parameter depend on device used within the same series 
 647:cube/Drivers/STM32F3xx_HAL_Driver/Src/stm32f3xx_hal_flash_ex.c ****   * @retval HAL status 
 648:cube/Drivers/STM32F3xx_HAL_Driver/Src/stm32f3xx_hal_flash_ex.c ****   */
 649:cube/Drivers/STM32F3xx_HAL_Driver/Src/stm32f3xx_hal_flash_ex.c **** static HAL_StatusTypeDef FLASH_OB_DisableWRP(uint32_t WriteProtectPage)
 650:cube/Drivers/STM32F3xx_HAL_Driver/Src/stm32f3xx_hal_flash_ex.c **** {
 651:cube/Drivers/STM32F3xx_HAL_Driver/Src/stm32f3xx_hal_flash_ex.c ****   HAL_StatusTypeDef status = HAL_OK;
 652:cube/Drivers/STM32F3xx_HAL_Driver/Src/stm32f3xx_hal_flash_ex.c ****   uint16_t WRP0_Data = 0xFFFFU;
 653:cube/Drivers/STM32F3xx_HAL_Driver/Src/stm32f3xx_hal_flash_ex.c **** #if defined(OB_WRP1_WRP1)
 654:cube/Drivers/STM32F3xx_HAL_Driver/Src/stm32f3xx_hal_flash_ex.c ****   uint16_t WRP1_Data = 0xFFFFU;
 655:cube/Drivers/STM32F3xx_HAL_Driver/Src/stm32f3xx_hal_flash_ex.c **** #endif /* OB_WRP1_WRP1 */
 656:cube/Drivers/STM32F3xx_HAL_Driver/Src/stm32f3xx_hal_flash_ex.c **** #if defined(OB_WRP2_WRP2)
 657:cube/Drivers/STM32F3xx_HAL_Driver/Src/stm32f3xx_hal_flash_ex.c ****   uint16_t WRP2_Data = 0xFFFFU;
 658:cube/Drivers/STM32F3xx_HAL_Driver/Src/stm32f3xx_hal_flash_ex.c **** #endif /* OB_WRP2_WRP2 */
 659:cube/Drivers/STM32F3xx_HAL_Driver/Src/stm32f3xx_hal_flash_ex.c **** #if defined(OB_WRP3_WRP3)
 660:cube/Drivers/STM32F3xx_HAL_Driver/Src/stm32f3xx_hal_flash_ex.c ****   uint16_t WRP3_Data = 0xFFFFU;
 661:cube/Drivers/STM32F3xx_HAL_Driver/Src/stm32f3xx_hal_flash_ex.c **** #endif /* OB_WRP3_WRP3 */
 662:cube/Drivers/STM32F3xx_HAL_Driver/Src/stm32f3xx_hal_flash_ex.c ****   
 663:cube/Drivers/STM32F3xx_HAL_Driver/Src/stm32f3xx_hal_flash_ex.c ****   /* Check the parameters */
 664:cube/Drivers/STM32F3xx_HAL_Driver/Src/stm32f3xx_hal_flash_ex.c ****   assert_param(IS_OB_WRP(WriteProtectPage));
 665:cube/Drivers/STM32F3xx_HAL_Driver/Src/stm32f3xx_hal_flash_ex.c **** 
 666:cube/Drivers/STM32F3xx_HAL_Driver/Src/stm32f3xx_hal_flash_ex.c ****   /* Get current write protected pages and the new pages to be unprotected ******/
 667:cube/Drivers/STM32F3xx_HAL_Driver/Src/stm32f3xx_hal_flash_ex.c ****   WriteProtectPage = (FLASH_OB_GetWRP() | WriteProtectPage);
 668:cube/Drivers/STM32F3xx_HAL_Driver/Src/stm32f3xx_hal_flash_ex.c **** 
 669:cube/Drivers/STM32F3xx_HAL_Driver/Src/stm32f3xx_hal_flash_ex.c **** #if defined(OB_WRP_PAGES0TO15MASK)
 670:cube/Drivers/STM32F3xx_HAL_Driver/Src/stm32f3xx_hal_flash_ex.c ****   WRP0_Data = (uint16_t)(WriteProtectPage & OB_WRP_PAGES0TO15MASK);
 671:cube/Drivers/STM32F3xx_HAL_Driver/Src/stm32f3xx_hal_flash_ex.c **** #endif /* OB_WRP_PAGES0TO31MASK */
 672:cube/Drivers/STM32F3xx_HAL_Driver/Src/stm32f3xx_hal_flash_ex.c ****   
 673:cube/Drivers/STM32F3xx_HAL_Driver/Src/stm32f3xx_hal_flash_ex.c **** #if defined(OB_WRP_PAGES16TO31MASK)
 674:cube/Drivers/STM32F3xx_HAL_Driver/Src/stm32f3xx_hal_flash_ex.c ****   WRP1_Data = (uint16_t)((WriteProtectPage & OB_WRP_PAGES16TO31MASK) >> 8U);
 675:cube/Drivers/STM32F3xx_HAL_Driver/Src/stm32f3xx_hal_flash_ex.c **** #endif /* OB_WRP_PAGES32TO63MASK */
 676:cube/Drivers/STM32F3xx_HAL_Driver/Src/stm32f3xx_hal_flash_ex.c ****  
 677:cube/Drivers/STM32F3xx_HAL_Driver/Src/stm32f3xx_hal_flash_ex.c **** #if defined(OB_WRP_PAGES32TO47MASK)
 678:cube/Drivers/STM32F3xx_HAL_Driver/Src/stm32f3xx_hal_flash_ex.c ****   WRP2_Data = (uint16_t)((WriteProtectPage & OB_WRP_PAGES32TO47MASK) >> 16U);
 679:cube/Drivers/STM32F3xx_HAL_Driver/Src/stm32f3xx_hal_flash_ex.c **** #endif /* OB_WRP_PAGES32TO47MASK */
ARM GAS  C:\Users\Berbardo\AppData\Local\Temp\ccJ3NdKC.s 			page 14


 680:cube/Drivers/STM32F3xx_HAL_Driver/Src/stm32f3xx_hal_flash_ex.c **** 
 681:cube/Drivers/STM32F3xx_HAL_Driver/Src/stm32f3xx_hal_flash_ex.c **** #if defined(OB_WRP_PAGES48TO127MASK)
 682:cube/Drivers/STM32F3xx_HAL_Driver/Src/stm32f3xx_hal_flash_ex.c ****   WRP3_Data = (uint16_t)((WriteProtectPage & OB_WRP_PAGES48TO127MASK) >> 24U); 
 683:cube/Drivers/STM32F3xx_HAL_Driver/Src/stm32f3xx_hal_flash_ex.c **** #elif defined(OB_WRP_PAGES48TO255MASK)
 684:cube/Drivers/STM32F3xx_HAL_Driver/Src/stm32f3xx_hal_flash_ex.c ****   WRP3_Data = (uint16_t)((WriteProtectPage & OB_WRP_PAGES48TO255MASK) >> 24U); 
 685:cube/Drivers/STM32F3xx_HAL_Driver/Src/stm32f3xx_hal_flash_ex.c **** #endif /* OB_WRP_PAGES48TO63MASK */
 686:cube/Drivers/STM32F3xx_HAL_Driver/Src/stm32f3xx_hal_flash_ex.c **** 
 687:cube/Drivers/STM32F3xx_HAL_Driver/Src/stm32f3xx_hal_flash_ex.c ****     
 688:cube/Drivers/STM32F3xx_HAL_Driver/Src/stm32f3xx_hal_flash_ex.c ****   /* Wait for last operation to be completed */
 689:cube/Drivers/STM32F3xx_HAL_Driver/Src/stm32f3xx_hal_flash_ex.c ****   status = FLASH_WaitForLastOperation((uint32_t)FLASH_TIMEOUT_VALUE);
 690:cube/Drivers/STM32F3xx_HAL_Driver/Src/stm32f3xx_hal_flash_ex.c **** 
 691:cube/Drivers/STM32F3xx_HAL_Driver/Src/stm32f3xx_hal_flash_ex.c ****   if(status == HAL_OK)
 692:cube/Drivers/STM32F3xx_HAL_Driver/Src/stm32f3xx_hal_flash_ex.c ****   { 
 693:cube/Drivers/STM32F3xx_HAL_Driver/Src/stm32f3xx_hal_flash_ex.c ****     /* Clean the error context */
 694:cube/Drivers/STM32F3xx_HAL_Driver/Src/stm32f3xx_hal_flash_ex.c ****     pFlash.ErrorCode = HAL_FLASH_ERROR_NONE;
 695:cube/Drivers/STM32F3xx_HAL_Driver/Src/stm32f3xx_hal_flash_ex.c **** 
 696:cube/Drivers/STM32F3xx_HAL_Driver/Src/stm32f3xx_hal_flash_ex.c ****     /* To be able to write again option byte, need to perform a option byte erase */
 697:cube/Drivers/STM32F3xx_HAL_Driver/Src/stm32f3xx_hal_flash_ex.c ****     status = HAL_FLASHEx_OBErase();
 698:cube/Drivers/STM32F3xx_HAL_Driver/Src/stm32f3xx_hal_flash_ex.c ****     if (status == HAL_OK)  
 699:cube/Drivers/STM32F3xx_HAL_Driver/Src/stm32f3xx_hal_flash_ex.c ****     {
 700:cube/Drivers/STM32F3xx_HAL_Driver/Src/stm32f3xx_hal_flash_ex.c ****       SET_BIT(FLASH->CR, FLASH_CR_OPTPG);
 701:cube/Drivers/STM32F3xx_HAL_Driver/Src/stm32f3xx_hal_flash_ex.c **** 
 702:cube/Drivers/STM32F3xx_HAL_Driver/Src/stm32f3xx_hal_flash_ex.c **** #if defined(OB_WRP0_WRP0)
 703:cube/Drivers/STM32F3xx_HAL_Driver/Src/stm32f3xx_hal_flash_ex.c ****       if(WRP0_Data != 0xFFU)
 704:cube/Drivers/STM32F3xx_HAL_Driver/Src/stm32f3xx_hal_flash_ex.c ****       {
 705:cube/Drivers/STM32F3xx_HAL_Driver/Src/stm32f3xx_hal_flash_ex.c ****         OB->WRP0 |= WRP0_Data;
 706:cube/Drivers/STM32F3xx_HAL_Driver/Src/stm32f3xx_hal_flash_ex.c ****         
 707:cube/Drivers/STM32F3xx_HAL_Driver/Src/stm32f3xx_hal_flash_ex.c ****         /* Wait for last operation to be completed */
 708:cube/Drivers/STM32F3xx_HAL_Driver/Src/stm32f3xx_hal_flash_ex.c ****         status = FLASH_WaitForLastOperation((uint32_t)FLASH_TIMEOUT_VALUE);
 709:cube/Drivers/STM32F3xx_HAL_Driver/Src/stm32f3xx_hal_flash_ex.c ****       }
 710:cube/Drivers/STM32F3xx_HAL_Driver/Src/stm32f3xx_hal_flash_ex.c **** #endif /* OB_WRP0_WRP0 */
 711:cube/Drivers/STM32F3xx_HAL_Driver/Src/stm32f3xx_hal_flash_ex.c **** 
 712:cube/Drivers/STM32F3xx_HAL_Driver/Src/stm32f3xx_hal_flash_ex.c **** #if defined(OB_WRP1_WRP1)
 713:cube/Drivers/STM32F3xx_HAL_Driver/Src/stm32f3xx_hal_flash_ex.c ****       if((status == HAL_OK) && (WRP1_Data != 0xFFU))
 714:cube/Drivers/STM32F3xx_HAL_Driver/Src/stm32f3xx_hal_flash_ex.c ****       {
 715:cube/Drivers/STM32F3xx_HAL_Driver/Src/stm32f3xx_hal_flash_ex.c ****         OB->WRP1 |= WRP1_Data;
 716:cube/Drivers/STM32F3xx_HAL_Driver/Src/stm32f3xx_hal_flash_ex.c ****         
 717:cube/Drivers/STM32F3xx_HAL_Driver/Src/stm32f3xx_hal_flash_ex.c ****         /* Wait for last operation to be completed */
 718:cube/Drivers/STM32F3xx_HAL_Driver/Src/stm32f3xx_hal_flash_ex.c ****         status = FLASH_WaitForLastOperation((uint32_t)FLASH_TIMEOUT_VALUE);
 719:cube/Drivers/STM32F3xx_HAL_Driver/Src/stm32f3xx_hal_flash_ex.c ****       }
 720:cube/Drivers/STM32F3xx_HAL_Driver/Src/stm32f3xx_hal_flash_ex.c **** #endif /* OB_WRP1_WRP1 */
 721:cube/Drivers/STM32F3xx_HAL_Driver/Src/stm32f3xx_hal_flash_ex.c **** 
 722:cube/Drivers/STM32F3xx_HAL_Driver/Src/stm32f3xx_hal_flash_ex.c **** #if defined(OB_WRP2_WRP2)
 723:cube/Drivers/STM32F3xx_HAL_Driver/Src/stm32f3xx_hal_flash_ex.c ****       if((status == HAL_OK) && (WRP2_Data != 0xFFU))
 724:cube/Drivers/STM32F3xx_HAL_Driver/Src/stm32f3xx_hal_flash_ex.c ****       {
 725:cube/Drivers/STM32F3xx_HAL_Driver/Src/stm32f3xx_hal_flash_ex.c ****         OB->WRP2 |= WRP2_Data;
 726:cube/Drivers/STM32F3xx_HAL_Driver/Src/stm32f3xx_hal_flash_ex.c ****         
 727:cube/Drivers/STM32F3xx_HAL_Driver/Src/stm32f3xx_hal_flash_ex.c ****         /* Wait for last operation to be completed */
 728:cube/Drivers/STM32F3xx_HAL_Driver/Src/stm32f3xx_hal_flash_ex.c ****         status = FLASH_WaitForLastOperation((uint32_t)FLASH_TIMEOUT_VALUE);
 729:cube/Drivers/STM32F3xx_HAL_Driver/Src/stm32f3xx_hal_flash_ex.c ****       }
 730:cube/Drivers/STM32F3xx_HAL_Driver/Src/stm32f3xx_hal_flash_ex.c **** #endif /* OB_WRP2_WRP2 */
 731:cube/Drivers/STM32F3xx_HAL_Driver/Src/stm32f3xx_hal_flash_ex.c **** 
 732:cube/Drivers/STM32F3xx_HAL_Driver/Src/stm32f3xx_hal_flash_ex.c **** #if defined(OB_WRP3_WRP3)
 733:cube/Drivers/STM32F3xx_HAL_Driver/Src/stm32f3xx_hal_flash_ex.c ****       if((status == HAL_OK) && (WRP3_Data != 0xFFU))
 734:cube/Drivers/STM32F3xx_HAL_Driver/Src/stm32f3xx_hal_flash_ex.c ****       {
 735:cube/Drivers/STM32F3xx_HAL_Driver/Src/stm32f3xx_hal_flash_ex.c ****         OB->WRP3 |= WRP3_Data;
 736:cube/Drivers/STM32F3xx_HAL_Driver/Src/stm32f3xx_hal_flash_ex.c ****         
ARM GAS  C:\Users\Berbardo\AppData\Local\Temp\ccJ3NdKC.s 			page 15


 737:cube/Drivers/STM32F3xx_HAL_Driver/Src/stm32f3xx_hal_flash_ex.c ****         /* Wait for last operation to be completed */
 738:cube/Drivers/STM32F3xx_HAL_Driver/Src/stm32f3xx_hal_flash_ex.c ****         status = FLASH_WaitForLastOperation((uint32_t)FLASH_TIMEOUT_VALUE);
 739:cube/Drivers/STM32F3xx_HAL_Driver/Src/stm32f3xx_hal_flash_ex.c ****       }
 740:cube/Drivers/STM32F3xx_HAL_Driver/Src/stm32f3xx_hal_flash_ex.c **** #endif /* OB_WRP3_WRP3 */
 741:cube/Drivers/STM32F3xx_HAL_Driver/Src/stm32f3xx_hal_flash_ex.c **** 
 742:cube/Drivers/STM32F3xx_HAL_Driver/Src/stm32f3xx_hal_flash_ex.c ****       /* if the program operation is completed, disable the OPTPG Bit */
 743:cube/Drivers/STM32F3xx_HAL_Driver/Src/stm32f3xx_hal_flash_ex.c ****       CLEAR_BIT(FLASH->CR, FLASH_CR_OPTPG);
 744:cube/Drivers/STM32F3xx_HAL_Driver/Src/stm32f3xx_hal_flash_ex.c ****     }
 745:cube/Drivers/STM32F3xx_HAL_Driver/Src/stm32f3xx_hal_flash_ex.c ****   }
 746:cube/Drivers/STM32F3xx_HAL_Driver/Src/stm32f3xx_hal_flash_ex.c ****   return status;
 747:cube/Drivers/STM32F3xx_HAL_Driver/Src/stm32f3xx_hal_flash_ex.c **** }
 748:cube/Drivers/STM32F3xx_HAL_Driver/Src/stm32f3xx_hal_flash_ex.c **** 
 749:cube/Drivers/STM32F3xx_HAL_Driver/Src/stm32f3xx_hal_flash_ex.c **** /**
 750:cube/Drivers/STM32F3xx_HAL_Driver/Src/stm32f3xx_hal_flash_ex.c ****   * @brief  Set the read protection level.
 751:cube/Drivers/STM32F3xx_HAL_Driver/Src/stm32f3xx_hal_flash_ex.c ****   * @param  ReadProtectLevel specifies the read protection level.
 752:cube/Drivers/STM32F3xx_HAL_Driver/Src/stm32f3xx_hal_flash_ex.c ****   *         This parameter can be one of the following values:
 753:cube/Drivers/STM32F3xx_HAL_Driver/Src/stm32f3xx_hal_flash_ex.c ****   *            @arg @ref OB_RDP_LEVEL_0 No protection
 754:cube/Drivers/STM32F3xx_HAL_Driver/Src/stm32f3xx_hal_flash_ex.c ****   *            @arg @ref OB_RDP_LEVEL_1 Read protection of the memory
 755:cube/Drivers/STM32F3xx_HAL_Driver/Src/stm32f3xx_hal_flash_ex.c ****   *            @arg @ref OB_RDP_LEVEL_2 Full chip protection
 756:cube/Drivers/STM32F3xx_HAL_Driver/Src/stm32f3xx_hal_flash_ex.c ****   * @note   Warning: When enabling OB_RDP level 2 it's no more possible to go back to level 1 or 0
 757:cube/Drivers/STM32F3xx_HAL_Driver/Src/stm32f3xx_hal_flash_ex.c ****   * @retval HAL status
 758:cube/Drivers/STM32F3xx_HAL_Driver/Src/stm32f3xx_hal_flash_ex.c ****   */
 759:cube/Drivers/STM32F3xx_HAL_Driver/Src/stm32f3xx_hal_flash_ex.c **** static HAL_StatusTypeDef FLASH_OB_RDP_LevelConfig(uint8_t ReadProtectLevel)
 760:cube/Drivers/STM32F3xx_HAL_Driver/Src/stm32f3xx_hal_flash_ex.c **** {
 761:cube/Drivers/STM32F3xx_HAL_Driver/Src/stm32f3xx_hal_flash_ex.c ****   HAL_StatusTypeDef status = HAL_OK;
 762:cube/Drivers/STM32F3xx_HAL_Driver/Src/stm32f3xx_hal_flash_ex.c ****   
 763:cube/Drivers/STM32F3xx_HAL_Driver/Src/stm32f3xx_hal_flash_ex.c ****   /* Check the parameters */
 764:cube/Drivers/STM32F3xx_HAL_Driver/Src/stm32f3xx_hal_flash_ex.c ****   assert_param(IS_OB_RDP_LEVEL(ReadProtectLevel));
 765:cube/Drivers/STM32F3xx_HAL_Driver/Src/stm32f3xx_hal_flash_ex.c ****   
 766:cube/Drivers/STM32F3xx_HAL_Driver/Src/stm32f3xx_hal_flash_ex.c ****   /* Wait for last operation to be completed */
 767:cube/Drivers/STM32F3xx_HAL_Driver/Src/stm32f3xx_hal_flash_ex.c ****   status = FLASH_WaitForLastOperation((uint32_t)FLASH_TIMEOUT_VALUE);
 768:cube/Drivers/STM32F3xx_HAL_Driver/Src/stm32f3xx_hal_flash_ex.c ****   
 769:cube/Drivers/STM32F3xx_HAL_Driver/Src/stm32f3xx_hal_flash_ex.c ****   if(status == HAL_OK)
 770:cube/Drivers/STM32F3xx_HAL_Driver/Src/stm32f3xx_hal_flash_ex.c ****   { 
 771:cube/Drivers/STM32F3xx_HAL_Driver/Src/stm32f3xx_hal_flash_ex.c ****     /* Clean the error context */
 772:cube/Drivers/STM32F3xx_HAL_Driver/Src/stm32f3xx_hal_flash_ex.c ****     pFlash.ErrorCode = HAL_FLASH_ERROR_NONE;
 773:cube/Drivers/STM32F3xx_HAL_Driver/Src/stm32f3xx_hal_flash_ex.c ****     
 774:cube/Drivers/STM32F3xx_HAL_Driver/Src/stm32f3xx_hal_flash_ex.c ****     /* If the previous operation is completed, proceed to erase the option bytes */
 775:cube/Drivers/STM32F3xx_HAL_Driver/Src/stm32f3xx_hal_flash_ex.c ****     SET_BIT(FLASH->CR, FLASH_CR_OPTER);
 776:cube/Drivers/STM32F3xx_HAL_Driver/Src/stm32f3xx_hal_flash_ex.c ****     SET_BIT(FLASH->CR, FLASH_CR_STRT);
 777:cube/Drivers/STM32F3xx_HAL_Driver/Src/stm32f3xx_hal_flash_ex.c **** 
 778:cube/Drivers/STM32F3xx_HAL_Driver/Src/stm32f3xx_hal_flash_ex.c ****     /* Wait for last operation to be completed */
 779:cube/Drivers/STM32F3xx_HAL_Driver/Src/stm32f3xx_hal_flash_ex.c ****     status = FLASH_WaitForLastOperation((uint32_t)FLASH_TIMEOUT_VALUE);
 780:cube/Drivers/STM32F3xx_HAL_Driver/Src/stm32f3xx_hal_flash_ex.c **** 
 781:cube/Drivers/STM32F3xx_HAL_Driver/Src/stm32f3xx_hal_flash_ex.c ****     /* If the erase operation is completed, disable the OPTER Bit */
 782:cube/Drivers/STM32F3xx_HAL_Driver/Src/stm32f3xx_hal_flash_ex.c ****     CLEAR_BIT(FLASH->CR, FLASH_CR_OPTER);
 783:cube/Drivers/STM32F3xx_HAL_Driver/Src/stm32f3xx_hal_flash_ex.c **** 
 784:cube/Drivers/STM32F3xx_HAL_Driver/Src/stm32f3xx_hal_flash_ex.c ****     if(status == HAL_OK)
 785:cube/Drivers/STM32F3xx_HAL_Driver/Src/stm32f3xx_hal_flash_ex.c ****     {
 786:cube/Drivers/STM32F3xx_HAL_Driver/Src/stm32f3xx_hal_flash_ex.c ****       /* Enable the Option Bytes Programming operation */
 787:cube/Drivers/STM32F3xx_HAL_Driver/Src/stm32f3xx_hal_flash_ex.c ****       SET_BIT(FLASH->CR, FLASH_CR_OPTPG);
 788:cube/Drivers/STM32F3xx_HAL_Driver/Src/stm32f3xx_hal_flash_ex.c ****       
 789:cube/Drivers/STM32F3xx_HAL_Driver/Src/stm32f3xx_hal_flash_ex.c ****       WRITE_REG(OB->RDP, ReadProtectLevel);
 790:cube/Drivers/STM32F3xx_HAL_Driver/Src/stm32f3xx_hal_flash_ex.c ****       
 791:cube/Drivers/STM32F3xx_HAL_Driver/Src/stm32f3xx_hal_flash_ex.c ****       /* Wait for last operation to be completed */
 792:cube/Drivers/STM32F3xx_HAL_Driver/Src/stm32f3xx_hal_flash_ex.c ****       status = FLASH_WaitForLastOperation((uint32_t)FLASH_TIMEOUT_VALUE); 
 793:cube/Drivers/STM32F3xx_HAL_Driver/Src/stm32f3xx_hal_flash_ex.c ****       
ARM GAS  C:\Users\Berbardo\AppData\Local\Temp\ccJ3NdKC.s 			page 16


 794:cube/Drivers/STM32F3xx_HAL_Driver/Src/stm32f3xx_hal_flash_ex.c ****       /* if the program operation is completed, disable the OPTPG Bit */
 795:cube/Drivers/STM32F3xx_HAL_Driver/Src/stm32f3xx_hal_flash_ex.c ****       CLEAR_BIT(FLASH->CR, FLASH_CR_OPTPG);
 796:cube/Drivers/STM32F3xx_HAL_Driver/Src/stm32f3xx_hal_flash_ex.c ****     }
 797:cube/Drivers/STM32F3xx_HAL_Driver/Src/stm32f3xx_hal_flash_ex.c ****   }
 798:cube/Drivers/STM32F3xx_HAL_Driver/Src/stm32f3xx_hal_flash_ex.c ****   
 799:cube/Drivers/STM32F3xx_HAL_Driver/Src/stm32f3xx_hal_flash_ex.c ****   return status;
 800:cube/Drivers/STM32F3xx_HAL_Driver/Src/stm32f3xx_hal_flash_ex.c **** }
 801:cube/Drivers/STM32F3xx_HAL_Driver/Src/stm32f3xx_hal_flash_ex.c **** 
 802:cube/Drivers/STM32F3xx_HAL_Driver/Src/stm32f3xx_hal_flash_ex.c **** /**
 803:cube/Drivers/STM32F3xx_HAL_Driver/Src/stm32f3xx_hal_flash_ex.c ****   * @brief  Program the FLASH User Option Byte.    
 804:cube/Drivers/STM32F3xx_HAL_Driver/Src/stm32f3xx_hal_flash_ex.c ****   * @note   Programming of the OB should be performed only after an erase (otherwise PGERR occurs)
 805:cube/Drivers/STM32F3xx_HAL_Driver/Src/stm32f3xx_hal_flash_ex.c ****   * @param  UserConfig The FLASH User Option Bytes values: IWDG_SW(Bit0), RST_STOP(Bit1), RST_STDBY
 806:cube/Drivers/STM32F3xx_HAL_Driver/Src/stm32f3xx_hal_flash_ex.c ****   *         VDDA_Analog_Monitoring(Bit5) and SRAM_Parity_Enable(Bit6). 
 807:cube/Drivers/STM32F3xx_HAL_Driver/Src/stm32f3xx_hal_flash_ex.c ****   *         And SDADC12_VDD_MONITOR(Bit7) for STM32F373 or STM32F378 . 
 808:cube/Drivers/STM32F3xx_HAL_Driver/Src/stm32f3xx_hal_flash_ex.c ****   * @retval HAL status
 809:cube/Drivers/STM32F3xx_HAL_Driver/Src/stm32f3xx_hal_flash_ex.c ****   */
 810:cube/Drivers/STM32F3xx_HAL_Driver/Src/stm32f3xx_hal_flash_ex.c **** static HAL_StatusTypeDef FLASH_OB_UserConfig(uint8_t UserConfig)
 811:cube/Drivers/STM32F3xx_HAL_Driver/Src/stm32f3xx_hal_flash_ex.c **** {
 812:cube/Drivers/STM32F3xx_HAL_Driver/Src/stm32f3xx_hal_flash_ex.c ****   HAL_StatusTypeDef status = HAL_OK;
 813:cube/Drivers/STM32F3xx_HAL_Driver/Src/stm32f3xx_hal_flash_ex.c **** 
 814:cube/Drivers/STM32F3xx_HAL_Driver/Src/stm32f3xx_hal_flash_ex.c ****   /* Check the parameters */
 815:cube/Drivers/STM32F3xx_HAL_Driver/Src/stm32f3xx_hal_flash_ex.c ****   assert_param(IS_OB_IWDG_SOURCE((UserConfig&OB_IWDG_SW)));
 816:cube/Drivers/STM32F3xx_HAL_Driver/Src/stm32f3xx_hal_flash_ex.c ****   assert_param(IS_OB_STOP_SOURCE((UserConfig&OB_STOP_NO_RST)));
 817:cube/Drivers/STM32F3xx_HAL_Driver/Src/stm32f3xx_hal_flash_ex.c ****   assert_param(IS_OB_STDBY_SOURCE((UserConfig&OB_STDBY_NO_RST)));
 818:cube/Drivers/STM32F3xx_HAL_Driver/Src/stm32f3xx_hal_flash_ex.c ****   assert_param(IS_OB_BOOT1((UserConfig&OB_BOOT1_SET)));
 819:cube/Drivers/STM32F3xx_HAL_Driver/Src/stm32f3xx_hal_flash_ex.c ****   assert_param(IS_OB_VDDA_ANALOG((UserConfig&OB_VDDA_ANALOG_ON)));
 820:cube/Drivers/STM32F3xx_HAL_Driver/Src/stm32f3xx_hal_flash_ex.c ****   assert_param(IS_OB_SRAM_PARITY((UserConfig&OB_SRAM_PARITY_RESET)));
 821:cube/Drivers/STM32F3xx_HAL_Driver/Src/stm32f3xx_hal_flash_ex.c **** #if defined(FLASH_OBR_SDADC12_VDD_MONITOR)
 822:cube/Drivers/STM32F3xx_HAL_Driver/Src/stm32f3xx_hal_flash_ex.c ****   assert_param(IS_OB_SDACD_VDD_MONITOR((UserConfig&OB_SDACD_VDD_MONITOR_SET)));
 823:cube/Drivers/STM32F3xx_HAL_Driver/Src/stm32f3xx_hal_flash_ex.c **** #endif /* FLASH_OBR_SDADC12_VDD_MONITOR */
 824:cube/Drivers/STM32F3xx_HAL_Driver/Src/stm32f3xx_hal_flash_ex.c **** 
 825:cube/Drivers/STM32F3xx_HAL_Driver/Src/stm32f3xx_hal_flash_ex.c ****   /* Wait for last operation to be completed */
 826:cube/Drivers/STM32F3xx_HAL_Driver/Src/stm32f3xx_hal_flash_ex.c ****   status = FLASH_WaitForLastOperation((uint32_t)FLASH_TIMEOUT_VALUE);
 827:cube/Drivers/STM32F3xx_HAL_Driver/Src/stm32f3xx_hal_flash_ex.c ****   
 828:cube/Drivers/STM32F3xx_HAL_Driver/Src/stm32f3xx_hal_flash_ex.c ****   if(status == HAL_OK)
 829:cube/Drivers/STM32F3xx_HAL_Driver/Src/stm32f3xx_hal_flash_ex.c ****   {     
 830:cube/Drivers/STM32F3xx_HAL_Driver/Src/stm32f3xx_hal_flash_ex.c ****     /* Clean the error context */
 831:cube/Drivers/STM32F3xx_HAL_Driver/Src/stm32f3xx_hal_flash_ex.c ****     pFlash.ErrorCode = HAL_FLASH_ERROR_NONE;
 832:cube/Drivers/STM32F3xx_HAL_Driver/Src/stm32f3xx_hal_flash_ex.c **** 
 833:cube/Drivers/STM32F3xx_HAL_Driver/Src/stm32f3xx_hal_flash_ex.c ****     /* Enable the Option Bytes Programming operation */
 834:cube/Drivers/STM32F3xx_HAL_Driver/Src/stm32f3xx_hal_flash_ex.c ****     SET_BIT(FLASH->CR, FLASH_CR_OPTPG); 
 835:cube/Drivers/STM32F3xx_HAL_Driver/Src/stm32f3xx_hal_flash_ex.c ****  
 836:cube/Drivers/STM32F3xx_HAL_Driver/Src/stm32f3xx_hal_flash_ex.c **** #if   defined(FLASH_OBR_SDADC12_VDD_MONITOR)
 837:cube/Drivers/STM32F3xx_HAL_Driver/Src/stm32f3xx_hal_flash_ex.c ****     OB->USER = (UserConfig | 0x08U);
 838:cube/Drivers/STM32F3xx_HAL_Driver/Src/stm32f3xx_hal_flash_ex.c **** #else
 839:cube/Drivers/STM32F3xx_HAL_Driver/Src/stm32f3xx_hal_flash_ex.c ****     OB->USER = (UserConfig | 0x88U);
 840:cube/Drivers/STM32F3xx_HAL_Driver/Src/stm32f3xx_hal_flash_ex.c **** #endif
 841:cube/Drivers/STM32F3xx_HAL_Driver/Src/stm32f3xx_hal_flash_ex.c **** 
 842:cube/Drivers/STM32F3xx_HAL_Driver/Src/stm32f3xx_hal_flash_ex.c ****     /* Wait for last operation to be completed */
 843:cube/Drivers/STM32F3xx_HAL_Driver/Src/stm32f3xx_hal_flash_ex.c ****     status = FLASH_WaitForLastOperation((uint32_t)FLASH_TIMEOUT_VALUE);
 844:cube/Drivers/STM32F3xx_HAL_Driver/Src/stm32f3xx_hal_flash_ex.c **** 
 845:cube/Drivers/STM32F3xx_HAL_Driver/Src/stm32f3xx_hal_flash_ex.c ****     /* if the program operation is completed, disable the OPTPG Bit */
 846:cube/Drivers/STM32F3xx_HAL_Driver/Src/stm32f3xx_hal_flash_ex.c ****     CLEAR_BIT(FLASH->CR, FLASH_CR_OPTPG);
 847:cube/Drivers/STM32F3xx_HAL_Driver/Src/stm32f3xx_hal_flash_ex.c ****   }
 848:cube/Drivers/STM32F3xx_HAL_Driver/Src/stm32f3xx_hal_flash_ex.c ****   
 849:cube/Drivers/STM32F3xx_HAL_Driver/Src/stm32f3xx_hal_flash_ex.c ****   return status; 
 850:cube/Drivers/STM32F3xx_HAL_Driver/Src/stm32f3xx_hal_flash_ex.c **** }
ARM GAS  C:\Users\Berbardo\AppData\Local\Temp\ccJ3NdKC.s 			page 17


 851:cube/Drivers/STM32F3xx_HAL_Driver/Src/stm32f3xx_hal_flash_ex.c **** 
 852:cube/Drivers/STM32F3xx_HAL_Driver/Src/stm32f3xx_hal_flash_ex.c **** /**
 853:cube/Drivers/STM32F3xx_HAL_Driver/Src/stm32f3xx_hal_flash_ex.c ****   * @brief  Programs a half word at a specified Option Byte Data address.
 854:cube/Drivers/STM32F3xx_HAL_Driver/Src/stm32f3xx_hal_flash_ex.c ****   * @note   The function @ref HAL_FLASH_Unlock() should be called before to unlock the FLASH interf
 855:cube/Drivers/STM32F3xx_HAL_Driver/Src/stm32f3xx_hal_flash_ex.c ****   *         The function @ref HAL_FLASH_OB_Unlock() should be called before to unlock the options b
 856:cube/Drivers/STM32F3xx_HAL_Driver/Src/stm32f3xx_hal_flash_ex.c ****   *         The function @ref HAL_FLASH_OB_Launch() should be called after to force the reload of t
 857:cube/Drivers/STM32F3xx_HAL_Driver/Src/stm32f3xx_hal_flash_ex.c ****   *         (system reset will occur)
 858:cube/Drivers/STM32F3xx_HAL_Driver/Src/stm32f3xx_hal_flash_ex.c ****   *         Programming of the OB should be performed only after an erase (otherwise PGERR occurs)
 859:cube/Drivers/STM32F3xx_HAL_Driver/Src/stm32f3xx_hal_flash_ex.c ****   * @param  Address specifies the address to be programmed.
 860:cube/Drivers/STM32F3xx_HAL_Driver/Src/stm32f3xx_hal_flash_ex.c ****   *         This parameter can be 0x1FFFF804 or 0x1FFFF806. 
 861:cube/Drivers/STM32F3xx_HAL_Driver/Src/stm32f3xx_hal_flash_ex.c ****   * @param  Data specifies the data to be programmed.
 862:cube/Drivers/STM32F3xx_HAL_Driver/Src/stm32f3xx_hal_flash_ex.c ****   * @retval HAL status
 863:cube/Drivers/STM32F3xx_HAL_Driver/Src/stm32f3xx_hal_flash_ex.c ****   */
 864:cube/Drivers/STM32F3xx_HAL_Driver/Src/stm32f3xx_hal_flash_ex.c **** static HAL_StatusTypeDef FLASH_OB_ProgramData(uint32_t Address, uint8_t Data)
 865:cube/Drivers/STM32F3xx_HAL_Driver/Src/stm32f3xx_hal_flash_ex.c **** {
 866:cube/Drivers/STM32F3xx_HAL_Driver/Src/stm32f3xx_hal_flash_ex.c ****   HAL_StatusTypeDef status = HAL_ERROR;
 867:cube/Drivers/STM32F3xx_HAL_Driver/Src/stm32f3xx_hal_flash_ex.c ****   
 868:cube/Drivers/STM32F3xx_HAL_Driver/Src/stm32f3xx_hal_flash_ex.c ****   /* Check the parameters */
 869:cube/Drivers/STM32F3xx_HAL_Driver/Src/stm32f3xx_hal_flash_ex.c ****   assert_param(IS_OB_DATA_ADDRESS(Address));
 870:cube/Drivers/STM32F3xx_HAL_Driver/Src/stm32f3xx_hal_flash_ex.c ****   
 871:cube/Drivers/STM32F3xx_HAL_Driver/Src/stm32f3xx_hal_flash_ex.c ****   /* Wait for last operation to be completed */
 872:cube/Drivers/STM32F3xx_HAL_Driver/Src/stm32f3xx_hal_flash_ex.c ****   status = FLASH_WaitForLastOperation((uint32_t)FLASH_TIMEOUT_VALUE);
 873:cube/Drivers/STM32F3xx_HAL_Driver/Src/stm32f3xx_hal_flash_ex.c ****   
 874:cube/Drivers/STM32F3xx_HAL_Driver/Src/stm32f3xx_hal_flash_ex.c ****   if(status == HAL_OK)
 875:cube/Drivers/STM32F3xx_HAL_Driver/Src/stm32f3xx_hal_flash_ex.c ****   {
 876:cube/Drivers/STM32F3xx_HAL_Driver/Src/stm32f3xx_hal_flash_ex.c ****     /* Clean the error context */
 877:cube/Drivers/STM32F3xx_HAL_Driver/Src/stm32f3xx_hal_flash_ex.c ****     pFlash.ErrorCode = HAL_FLASH_ERROR_NONE;
 878:cube/Drivers/STM32F3xx_HAL_Driver/Src/stm32f3xx_hal_flash_ex.c **** 
 879:cube/Drivers/STM32F3xx_HAL_Driver/Src/stm32f3xx_hal_flash_ex.c ****     /* Enables the Option Bytes Programming operation */
 880:cube/Drivers/STM32F3xx_HAL_Driver/Src/stm32f3xx_hal_flash_ex.c ****     SET_BIT(FLASH->CR, FLASH_CR_OPTPG); 
 881:cube/Drivers/STM32F3xx_HAL_Driver/Src/stm32f3xx_hal_flash_ex.c ****     *(__IO uint16_t*)Address = Data;
 882:cube/Drivers/STM32F3xx_HAL_Driver/Src/stm32f3xx_hal_flash_ex.c ****     
 883:cube/Drivers/STM32F3xx_HAL_Driver/Src/stm32f3xx_hal_flash_ex.c ****     /* Wait for last operation to be completed */
 884:cube/Drivers/STM32F3xx_HAL_Driver/Src/stm32f3xx_hal_flash_ex.c ****     status = FLASH_WaitForLastOperation((uint32_t)FLASH_TIMEOUT_VALUE);
 885:cube/Drivers/STM32F3xx_HAL_Driver/Src/stm32f3xx_hal_flash_ex.c ****     
 886:cube/Drivers/STM32F3xx_HAL_Driver/Src/stm32f3xx_hal_flash_ex.c ****     /* If the program operation is completed, disable the OPTPG Bit */
 887:cube/Drivers/STM32F3xx_HAL_Driver/Src/stm32f3xx_hal_flash_ex.c ****     CLEAR_BIT(FLASH->CR, FLASH_CR_OPTPG);
 888:cube/Drivers/STM32F3xx_HAL_Driver/Src/stm32f3xx_hal_flash_ex.c ****   }
 889:cube/Drivers/STM32F3xx_HAL_Driver/Src/stm32f3xx_hal_flash_ex.c ****   /* Return the Option Byte Data Program Status */
 890:cube/Drivers/STM32F3xx_HAL_Driver/Src/stm32f3xx_hal_flash_ex.c ****   return status;
 891:cube/Drivers/STM32F3xx_HAL_Driver/Src/stm32f3xx_hal_flash_ex.c **** }
 892:cube/Drivers/STM32F3xx_HAL_Driver/Src/stm32f3xx_hal_flash_ex.c **** 
 893:cube/Drivers/STM32F3xx_HAL_Driver/Src/stm32f3xx_hal_flash_ex.c **** /**
 894:cube/Drivers/STM32F3xx_HAL_Driver/Src/stm32f3xx_hal_flash_ex.c ****   * @brief  Return the FLASH Write Protection Option Bytes value.
 895:cube/Drivers/STM32F3xx_HAL_Driver/Src/stm32f3xx_hal_flash_ex.c ****   * @retval The FLASH Write Protection Option Bytes value
 896:cube/Drivers/STM32F3xx_HAL_Driver/Src/stm32f3xx_hal_flash_ex.c ****   */
 897:cube/Drivers/STM32F3xx_HAL_Driver/Src/stm32f3xx_hal_flash_ex.c **** static uint32_t FLASH_OB_GetWRP(void)
 898:cube/Drivers/STM32F3xx_HAL_Driver/Src/stm32f3xx_hal_flash_ex.c **** {
  66              		.loc 1 898 1 is_stmt 1 view -0
  67              		.cfi_startproc
  68              		@ args = 0, pretend = 0, frame = 0
  69              		@ frame_needed = 0, uses_anonymous_args = 0
  70              		@ link register save eliminated.
 899:cube/Drivers/STM32F3xx_HAL_Driver/Src/stm32f3xx_hal_flash_ex.c ****   /* Return the FLASH write protection Register value */
 900:cube/Drivers/STM32F3xx_HAL_Driver/Src/stm32f3xx_hal_flash_ex.c ****   return (uint32_t)(READ_REG(FLASH->WRPR));
  71              		.loc 1 900 3 view .LVU7
  72              		.loc 1 900 10 is_stmt 0 view .LVU8
ARM GAS  C:\Users\Berbardo\AppData\Local\Temp\ccJ3NdKC.s 			page 18


  73 0000 014B     		ldr	r3, .L5
  74 0002 186A     		ldr	r0, [r3, #32]
 901:cube/Drivers/STM32F3xx_HAL_Driver/Src/stm32f3xx_hal_flash_ex.c **** }
  75              		.loc 1 901 1 view .LVU9
  76 0004 7047     		bx	lr
  77              	.L6:
  78 0006 00BF     		.align	2
  79              	.L5:
  80 0008 00200240 		.word	1073881088
  81              		.cfi_endproc
  82              	.LFE138:
  84              		.section	.text.FLASH_OB_GetRDP,"ax",%progbits
  85              		.align	1
  86              		.syntax unified
  87              		.thumb
  88              		.thumb_func
  89              		.fpu fpv4-sp-d16
  91              	FLASH_OB_GetRDP:
  92              	.LFB139:
 902:cube/Drivers/STM32F3xx_HAL_Driver/Src/stm32f3xx_hal_flash_ex.c **** 
 903:cube/Drivers/STM32F3xx_HAL_Driver/Src/stm32f3xx_hal_flash_ex.c **** /**
 904:cube/Drivers/STM32F3xx_HAL_Driver/Src/stm32f3xx_hal_flash_ex.c ****   * @brief  Returns the FLASH Read Protection level.
 905:cube/Drivers/STM32F3xx_HAL_Driver/Src/stm32f3xx_hal_flash_ex.c ****   * @retval FLASH RDP level
 906:cube/Drivers/STM32F3xx_HAL_Driver/Src/stm32f3xx_hal_flash_ex.c ****   *         This parameter can be one of the following values:
 907:cube/Drivers/STM32F3xx_HAL_Driver/Src/stm32f3xx_hal_flash_ex.c ****   *            @arg @ref OB_RDP_LEVEL_0 No protection
 908:cube/Drivers/STM32F3xx_HAL_Driver/Src/stm32f3xx_hal_flash_ex.c ****   *            @arg @ref OB_RDP_LEVEL_1 Read protection of the memory
 909:cube/Drivers/STM32F3xx_HAL_Driver/Src/stm32f3xx_hal_flash_ex.c ****   *            @arg @ref OB_RDP_LEVEL_2 Full chip protection
 910:cube/Drivers/STM32F3xx_HAL_Driver/Src/stm32f3xx_hal_flash_ex.c ****   */
 911:cube/Drivers/STM32F3xx_HAL_Driver/Src/stm32f3xx_hal_flash_ex.c **** static uint32_t FLASH_OB_GetRDP(void)
 912:cube/Drivers/STM32F3xx_HAL_Driver/Src/stm32f3xx_hal_flash_ex.c **** {
  93              		.loc 1 912 1 is_stmt 1 view -0
  94              		.cfi_startproc
  95              		@ args = 0, pretend = 0, frame = 0
  96              		@ frame_needed = 0, uses_anonymous_args = 0
  97              		@ link register save eliminated.
 913:cube/Drivers/STM32F3xx_HAL_Driver/Src/stm32f3xx_hal_flash_ex.c ****   uint32_t tmp_reg = 0U;
  98              		.loc 1 913 3 view .LVU11
  99              	.LVL0:
 914:cube/Drivers/STM32F3xx_HAL_Driver/Src/stm32f3xx_hal_flash_ex.c ****   
 915:cube/Drivers/STM32F3xx_HAL_Driver/Src/stm32f3xx_hal_flash_ex.c ****   /* Read RDP level bits */
 916:cube/Drivers/STM32F3xx_HAL_Driver/Src/stm32f3xx_hal_flash_ex.c **** #if defined(FLASH_OBR_RDPRT)
 917:cube/Drivers/STM32F3xx_HAL_Driver/Src/stm32f3xx_hal_flash_ex.c ****   tmp_reg = READ_BIT(FLASH->OBR, FLASH_OBR_RDPRT);
 100              		.loc 1 917 3 view .LVU12
 101              		.loc 1 917 13 is_stmt 0 view .LVU13
 102 0000 064B     		ldr	r3, .L12
 103 0002 DB69     		ldr	r3, [r3, #28]
 104              		.loc 1 917 11 view .LVU14
 105 0004 03F00603 		and	r3, r3, #6
 106              	.LVL1:
 918:cube/Drivers/STM32F3xx_HAL_Driver/Src/stm32f3xx_hal_flash_ex.c **** #endif
 919:cube/Drivers/STM32F3xx_HAL_Driver/Src/stm32f3xx_hal_flash_ex.c **** #if defined(FLASH_OBR_LEVEL1_PROT)
 920:cube/Drivers/STM32F3xx_HAL_Driver/Src/stm32f3xx_hal_flash_ex.c ****   tmp_reg = READ_BIT(FLASH->OBR, (FLASH_OBR_LEVEL1_PROT | FLASH_OBR_LEVEL2_PROT));
 921:cube/Drivers/STM32F3xx_HAL_Driver/Src/stm32f3xx_hal_flash_ex.c **** #endif /* FLASH_OBR_LEVEL1_PROT */
 922:cube/Drivers/STM32F3xx_HAL_Driver/Src/stm32f3xx_hal_flash_ex.c **** 
 923:cube/Drivers/STM32F3xx_HAL_Driver/Src/stm32f3xx_hal_flash_ex.c **** #if defined(FLASH_OBR_RDPRT)
 924:cube/Drivers/STM32F3xx_HAL_Driver/Src/stm32f3xx_hal_flash_ex.c ****   if (tmp_reg == FLASH_OBR_RDPRT_1)
 107              		.loc 1 924 3 is_stmt 1 view .LVU15
ARM GAS  C:\Users\Berbardo\AppData\Local\Temp\ccJ3NdKC.s 			page 19


 108              		.loc 1 924 6 is_stmt 0 view .LVU16
 109 0008 022B     		cmp	r3, #2
 110 000a 05D0     		beq	.L9
 925:cube/Drivers/STM32F3xx_HAL_Driver/Src/stm32f3xx_hal_flash_ex.c **** #endif
 926:cube/Drivers/STM32F3xx_HAL_Driver/Src/stm32f3xx_hal_flash_ex.c **** #if defined(FLASH_OBR_LEVEL1_PROT)
 927:cube/Drivers/STM32F3xx_HAL_Driver/Src/stm32f3xx_hal_flash_ex.c ****   if (tmp_reg == FLASH_OBR_LEVEL1_PROT)
 928:cube/Drivers/STM32F3xx_HAL_Driver/Src/stm32f3xx_hal_flash_ex.c **** #endif /* FLASH_OBR_LEVEL1_PROT */
 929:cube/Drivers/STM32F3xx_HAL_Driver/Src/stm32f3xx_hal_flash_ex.c ****   {
 930:cube/Drivers/STM32F3xx_HAL_Driver/Src/stm32f3xx_hal_flash_ex.c ****     return OB_RDP_LEVEL_1;
 931:cube/Drivers/STM32F3xx_HAL_Driver/Src/stm32f3xx_hal_flash_ex.c ****   }
 932:cube/Drivers/STM32F3xx_HAL_Driver/Src/stm32f3xx_hal_flash_ex.c **** #if   defined(FLASH_OBR_RDPRT)
 933:cube/Drivers/STM32F3xx_HAL_Driver/Src/stm32f3xx_hal_flash_ex.c ****   else if (tmp_reg == FLASH_OBR_RDPRT_2)
 111              		.loc 1 933 8 is_stmt 1 view .LVU17
 112              		.loc 1 933 11 is_stmt 0 view .LVU18
 113 000c 062B     		cmp	r3, #6
 114 000e 01D0     		beq	.L11
 934:cube/Drivers/STM32F3xx_HAL_Driver/Src/stm32f3xx_hal_flash_ex.c **** #elif defined(FLASH_OBR_LEVEL2_PROT)
 935:cube/Drivers/STM32F3xx_HAL_Driver/Src/stm32f3xx_hal_flash_ex.c ****   else if (tmp_reg == FLASH_OBR_LEVEL2_PROT)
 936:cube/Drivers/STM32F3xx_HAL_Driver/Src/stm32f3xx_hal_flash_ex.c **** #endif
 937:cube/Drivers/STM32F3xx_HAL_Driver/Src/stm32f3xx_hal_flash_ex.c ****   {
 938:cube/Drivers/STM32F3xx_HAL_Driver/Src/stm32f3xx_hal_flash_ex.c ****     return OB_RDP_LEVEL_2;
 939:cube/Drivers/STM32F3xx_HAL_Driver/Src/stm32f3xx_hal_flash_ex.c ****   }
 940:cube/Drivers/STM32F3xx_HAL_Driver/Src/stm32f3xx_hal_flash_ex.c ****   else 
 941:cube/Drivers/STM32F3xx_HAL_Driver/Src/stm32f3xx_hal_flash_ex.c ****   {
 942:cube/Drivers/STM32F3xx_HAL_Driver/Src/stm32f3xx_hal_flash_ex.c ****     return OB_RDP_LEVEL_0;
 115              		.loc 1 942 12 view .LVU19
 116 0010 AA20     		movs	r0, #170
 943:cube/Drivers/STM32F3xx_HAL_Driver/Src/stm32f3xx_hal_flash_ex.c ****   }
 944:cube/Drivers/STM32F3xx_HAL_Driver/Src/stm32f3xx_hal_flash_ex.c **** }
 117              		.loc 1 944 1 view .LVU20
 118 0012 7047     		bx	lr
 119              	.L11:
 938:cube/Drivers/STM32F3xx_HAL_Driver/Src/stm32f3xx_hal_flash_ex.c ****   }
 120              		.loc 1 938 12 view .LVU21
 121 0014 CC20     		movs	r0, #204
 122 0016 7047     		bx	lr
 123              	.L9:
 930:cube/Drivers/STM32F3xx_HAL_Driver/Src/stm32f3xx_hal_flash_ex.c ****   }
 124              		.loc 1 930 12 view .LVU22
 125 0018 BB20     		movs	r0, #187
 126 001a 7047     		bx	lr
 127              	.L13:
 128              		.align	2
 129              	.L12:
 130 001c 00200240 		.word	1073881088
 131              		.cfi_endproc
 132              	.LFE139:
 134              		.section	.text.FLASH_OB_RDP_LevelConfig,"ax",%progbits
 135              		.align	1
 136              		.syntax unified
 137              		.thumb
 138              		.thumb_func
 139              		.fpu fpv4-sp-d16
 141              	FLASH_OB_RDP_LevelConfig:
 142              	.LVL2:
 143              	.LFB135:
 760:cube/Drivers/STM32F3xx_HAL_Driver/Src/stm32f3xx_hal_flash_ex.c ****   HAL_StatusTypeDef status = HAL_OK;
ARM GAS  C:\Users\Berbardo\AppData\Local\Temp\ccJ3NdKC.s 			page 20


 144              		.loc 1 760 1 is_stmt 1 view -0
 145              		.cfi_startproc
 146              		@ args = 0, pretend = 0, frame = 0
 147              		@ frame_needed = 0, uses_anonymous_args = 0
 760:cube/Drivers/STM32F3xx_HAL_Driver/Src/stm32f3xx_hal_flash_ex.c ****   HAL_StatusTypeDef status = HAL_OK;
 148              		.loc 1 760 1 is_stmt 0 view .LVU24
 149 0000 38B5     		push	{r3, r4, r5, lr}
 150              		.cfi_def_cfa_offset 16
 151              		.cfi_offset 3, -16
 152              		.cfi_offset 4, -12
 153              		.cfi_offset 5, -8
 154              		.cfi_offset 14, -4
 155 0002 0546     		mov	r5, r0
 761:cube/Drivers/STM32F3xx_HAL_Driver/Src/stm32f3xx_hal_flash_ex.c ****   
 156              		.loc 1 761 3 is_stmt 1 view .LVU25
 157              	.LVL3:
 764:cube/Drivers/STM32F3xx_HAL_Driver/Src/stm32f3xx_hal_flash_ex.c ****   
 158              		.loc 1 764 3 view .LVU26
 767:cube/Drivers/STM32F3xx_HAL_Driver/Src/stm32f3xx_hal_flash_ex.c ****   
 159              		.loc 1 767 3 view .LVU27
 767:cube/Drivers/STM32F3xx_HAL_Driver/Src/stm32f3xx_hal_flash_ex.c ****   
 160              		.loc 1 767 12 is_stmt 0 view .LVU28
 161 0004 4CF25030 		movw	r0, #50000
 162              	.LVL4:
 767:cube/Drivers/STM32F3xx_HAL_Driver/Src/stm32f3xx_hal_flash_ex.c ****   
 163              		.loc 1 767 12 view .LVU29
 164 0008 FFF7FEFF 		bl	FLASH_WaitForLastOperation
 165              	.LVL5:
 769:cube/Drivers/STM32F3xx_HAL_Driver/Src/stm32f3xx_hal_flash_ex.c ****   { 
 166              		.loc 1 769 3 is_stmt 1 view .LVU30
 769:cube/Drivers/STM32F3xx_HAL_Driver/Src/stm32f3xx_hal_flash_ex.c ****   { 
 167              		.loc 1 769 5 is_stmt 0 view .LVU31
 168 000c 0346     		mov	r3, r0
 169 000e 08B1     		cbz	r0, .L17
 170              	.LVL6:
 171              	.L15:
 799:cube/Drivers/STM32F3xx_HAL_Driver/Src/stm32f3xx_hal_flash_ex.c **** }
 172              		.loc 1 799 3 is_stmt 1 view .LVU32
 800:cube/Drivers/STM32F3xx_HAL_Driver/Src/stm32f3xx_hal_flash_ex.c **** 
 173              		.loc 1 800 1 is_stmt 0 view .LVU33
 174 0010 1846     		mov	r0, r3
 175 0012 38BD     		pop	{r3, r4, r5, pc}
 176              	.LVL7:
 177              	.L17:
 772:cube/Drivers/STM32F3xx_HAL_Driver/Src/stm32f3xx_hal_flash_ex.c ****     
 178              		.loc 1 772 5 is_stmt 1 view .LVU34
 772:cube/Drivers/STM32F3xx_HAL_Driver/Src/stm32f3xx_hal_flash_ex.c ****     
 179              		.loc 1 772 22 is_stmt 0 view .LVU35
 180 0014 134B     		ldr	r3, .L18
 181 0016 0022     		movs	r2, #0
 182 0018 DA61     		str	r2, [r3, #28]
 775:cube/Drivers/STM32F3xx_HAL_Driver/Src/stm32f3xx_hal_flash_ex.c ****     SET_BIT(FLASH->CR, FLASH_CR_STRT);
 183              		.loc 1 775 5 is_stmt 1 view .LVU36
 184 001a 134C     		ldr	r4, .L18+4
 185 001c 2369     		ldr	r3, [r4, #16]
 186 001e 43F02003 		orr	r3, r3, #32
 187 0022 2361     		str	r3, [r4, #16]
ARM GAS  C:\Users\Berbardo\AppData\Local\Temp\ccJ3NdKC.s 			page 21


 776:cube/Drivers/STM32F3xx_HAL_Driver/Src/stm32f3xx_hal_flash_ex.c **** 
 188              		.loc 1 776 5 view .LVU37
 189 0024 2369     		ldr	r3, [r4, #16]
 190 0026 43F04003 		orr	r3, r3, #64
 191 002a 2361     		str	r3, [r4, #16]
 779:cube/Drivers/STM32F3xx_HAL_Driver/Src/stm32f3xx_hal_flash_ex.c **** 
 192              		.loc 1 779 5 view .LVU38
 779:cube/Drivers/STM32F3xx_HAL_Driver/Src/stm32f3xx_hal_flash_ex.c **** 
 193              		.loc 1 779 14 is_stmt 0 view .LVU39
 194 002c 4CF25030 		movw	r0, #50000
 195              	.LVL8:
 779:cube/Drivers/STM32F3xx_HAL_Driver/Src/stm32f3xx_hal_flash_ex.c **** 
 196              		.loc 1 779 14 view .LVU40
 197 0030 FFF7FEFF 		bl	FLASH_WaitForLastOperation
 198              	.LVL9:
 782:cube/Drivers/STM32F3xx_HAL_Driver/Src/stm32f3xx_hal_flash_ex.c **** 
 199              		.loc 1 782 5 is_stmt 1 view .LVU41
 200 0034 2369     		ldr	r3, [r4, #16]
 201 0036 23F02003 		bic	r3, r3, #32
 202 003a 2361     		str	r3, [r4, #16]
 784:cube/Drivers/STM32F3xx_HAL_Driver/Src/stm32f3xx_hal_flash_ex.c ****     {
 203              		.loc 1 784 5 view .LVU42
 784:cube/Drivers/STM32F3xx_HAL_Driver/Src/stm32f3xx_hal_flash_ex.c ****     {
 204              		.loc 1 784 7 is_stmt 0 view .LVU43
 205 003c 0346     		mov	r3, r0
 206 003e 0028     		cmp	r0, #0
 207 0040 E6D1     		bne	.L15
 787:cube/Drivers/STM32F3xx_HAL_Driver/Src/stm32f3xx_hal_flash_ex.c ****       
 208              		.loc 1 787 7 is_stmt 1 view .LVU44
 209 0042 2369     		ldr	r3, [r4, #16]
 210 0044 43F01003 		orr	r3, r3, #16
 211 0048 2361     		str	r3, [r4, #16]
 789:cube/Drivers/STM32F3xx_HAL_Driver/Src/stm32f3xx_hal_flash_ex.c ****       
 212              		.loc 1 789 7 view .LVU45
 213 004a ADB2     		uxth	r5, r5
 214 004c 074B     		ldr	r3, .L18+8
 215 004e 1D80     		strh	r5, [r3]	@ movhi
 792:cube/Drivers/STM32F3xx_HAL_Driver/Src/stm32f3xx_hal_flash_ex.c ****       
 216              		.loc 1 792 7 view .LVU46
 792:cube/Drivers/STM32F3xx_HAL_Driver/Src/stm32f3xx_hal_flash_ex.c ****       
 217              		.loc 1 792 16 is_stmt 0 view .LVU47
 218 0050 4CF25030 		movw	r0, #50000
 219              	.LVL10:
 792:cube/Drivers/STM32F3xx_HAL_Driver/Src/stm32f3xx_hal_flash_ex.c ****       
 220              		.loc 1 792 16 view .LVU48
 221 0054 FFF7FEFF 		bl	FLASH_WaitForLastOperation
 222              	.LVL11:
 223 0058 0346     		mov	r3, r0
 224              	.LVL12:
 795:cube/Drivers/STM32F3xx_HAL_Driver/Src/stm32f3xx_hal_flash_ex.c ****     }
 225              		.loc 1 795 7 is_stmt 1 view .LVU49
 226 005a 2269     		ldr	r2, [r4, #16]
 227 005c 22F01002 		bic	r2, r2, #16
 228 0060 2261     		str	r2, [r4, #16]
 229 0062 D5E7     		b	.L15
 230              	.L19:
 231              		.align	2
ARM GAS  C:\Users\Berbardo\AppData\Local\Temp\ccJ3NdKC.s 			page 22


 232              	.L18:
 233 0064 00000000 		.word	pFlash
 234 0068 00200240 		.word	1073881088
 235 006c 00F8FF1F 		.word	536868864
 236              		.cfi_endproc
 237              	.LFE135:
 239              		.section	.text.FLASH_OB_UserConfig,"ax",%progbits
 240              		.align	1
 241              		.syntax unified
 242              		.thumb
 243              		.thumb_func
 244              		.fpu fpv4-sp-d16
 246              	FLASH_OB_UserConfig:
 247              	.LVL13:
 248              	.LFB136:
 811:cube/Drivers/STM32F3xx_HAL_Driver/Src/stm32f3xx_hal_flash_ex.c ****   HAL_StatusTypeDef status = HAL_OK;
 249              		.loc 1 811 1 view -0
 250              		.cfi_startproc
 251              		@ args = 0, pretend = 0, frame = 0
 252              		@ frame_needed = 0, uses_anonymous_args = 0
 811:cube/Drivers/STM32F3xx_HAL_Driver/Src/stm32f3xx_hal_flash_ex.c ****   HAL_StatusTypeDef status = HAL_OK;
 253              		.loc 1 811 1 is_stmt 0 view .LVU51
 254 0000 38B5     		push	{r3, r4, r5, lr}
 255              		.cfi_def_cfa_offset 16
 256              		.cfi_offset 3, -16
 257              		.cfi_offset 4, -12
 258              		.cfi_offset 5, -8
 259              		.cfi_offset 14, -4
 260 0002 0446     		mov	r4, r0
 812:cube/Drivers/STM32F3xx_HAL_Driver/Src/stm32f3xx_hal_flash_ex.c **** 
 261              		.loc 1 812 3 is_stmt 1 view .LVU52
 262              	.LVL14:
 815:cube/Drivers/STM32F3xx_HAL_Driver/Src/stm32f3xx_hal_flash_ex.c ****   assert_param(IS_OB_STOP_SOURCE((UserConfig&OB_STOP_NO_RST)));
 263              		.loc 1 815 3 view .LVU53
 816:cube/Drivers/STM32F3xx_HAL_Driver/Src/stm32f3xx_hal_flash_ex.c ****   assert_param(IS_OB_STDBY_SOURCE((UserConfig&OB_STDBY_NO_RST)));
 264              		.loc 1 816 3 view .LVU54
 817:cube/Drivers/STM32F3xx_HAL_Driver/Src/stm32f3xx_hal_flash_ex.c ****   assert_param(IS_OB_BOOT1((UserConfig&OB_BOOT1_SET)));
 265              		.loc 1 817 3 view .LVU55
 818:cube/Drivers/STM32F3xx_HAL_Driver/Src/stm32f3xx_hal_flash_ex.c ****   assert_param(IS_OB_VDDA_ANALOG((UserConfig&OB_VDDA_ANALOG_ON)));
 266              		.loc 1 818 3 view .LVU56
 819:cube/Drivers/STM32F3xx_HAL_Driver/Src/stm32f3xx_hal_flash_ex.c ****   assert_param(IS_OB_SRAM_PARITY((UserConfig&OB_SRAM_PARITY_RESET)));
 267              		.loc 1 819 3 view .LVU57
 820:cube/Drivers/STM32F3xx_HAL_Driver/Src/stm32f3xx_hal_flash_ex.c **** #if defined(FLASH_OBR_SDADC12_VDD_MONITOR)
 268              		.loc 1 820 3 view .LVU58
 826:cube/Drivers/STM32F3xx_HAL_Driver/Src/stm32f3xx_hal_flash_ex.c ****   
 269              		.loc 1 826 3 view .LVU59
 826:cube/Drivers/STM32F3xx_HAL_Driver/Src/stm32f3xx_hal_flash_ex.c ****   
 270              		.loc 1 826 12 is_stmt 0 view .LVU60
 271 0004 4CF25030 		movw	r0, #50000
 272              	.LVL15:
 826:cube/Drivers/STM32F3xx_HAL_Driver/Src/stm32f3xx_hal_flash_ex.c ****   
 273              		.loc 1 826 12 view .LVU61
 274 0008 FFF7FEFF 		bl	FLASH_WaitForLastOperation
 275              	.LVL16:
 828:cube/Drivers/STM32F3xx_HAL_Driver/Src/stm32f3xx_hal_flash_ex.c ****   {     
 276              		.loc 1 828 3 is_stmt 1 view .LVU62
 828:cube/Drivers/STM32F3xx_HAL_Driver/Src/stm32f3xx_hal_flash_ex.c ****   {     
ARM GAS  C:\Users\Berbardo\AppData\Local\Temp\ccJ3NdKC.s 			page 23


 277              		.loc 1 828 5 is_stmt 0 view .LVU63
 278 000c 0346     		mov	r3, r0
 279 000e 08B1     		cbz	r0, .L23
 280              	.LVL17:
 281              	.L21:
 849:cube/Drivers/STM32F3xx_HAL_Driver/Src/stm32f3xx_hal_flash_ex.c **** }
 282              		.loc 1 849 3 is_stmt 1 view .LVU64
 850:cube/Drivers/STM32F3xx_HAL_Driver/Src/stm32f3xx_hal_flash_ex.c **** 
 283              		.loc 1 850 1 is_stmt 0 view .LVU65
 284 0010 1846     		mov	r0, r3
 285 0012 38BD     		pop	{r3, r4, r5, pc}
 286              	.LVL18:
 287              	.L23:
 831:cube/Drivers/STM32F3xx_HAL_Driver/Src/stm32f3xx_hal_flash_ex.c **** 
 288              		.loc 1 831 5 is_stmt 1 view .LVU66
 831:cube/Drivers/STM32F3xx_HAL_Driver/Src/stm32f3xx_hal_flash_ex.c **** 
 289              		.loc 1 831 22 is_stmt 0 view .LVU67
 290 0014 0A4B     		ldr	r3, .L24
 291 0016 0022     		movs	r2, #0
 292 0018 DA61     		str	r2, [r3, #28]
 834:cube/Drivers/STM32F3xx_HAL_Driver/Src/stm32f3xx_hal_flash_ex.c ****  
 293              		.loc 1 834 5 is_stmt 1 view .LVU68
 294 001a 0A4D     		ldr	r5, .L24+4
 295 001c 2B69     		ldr	r3, [r5, #16]
 296 001e 43F01003 		orr	r3, r3, #16
 297 0022 2B61     		str	r3, [r5, #16]
 839:cube/Drivers/STM32F3xx_HAL_Driver/Src/stm32f3xx_hal_flash_ex.c **** #endif
 298              		.loc 1 839 5 view .LVU69
 839:cube/Drivers/STM32F3xx_HAL_Driver/Src/stm32f3xx_hal_flash_ex.c **** #endif
 299              		.loc 1 839 14 is_stmt 0 view .LVU70
 300 0024 44F08804 		orr	r4, r4, #136
 301 0028 074B     		ldr	r3, .L24+8
 302 002a 5C80     		strh	r4, [r3, #2]	@ movhi
 843:cube/Drivers/STM32F3xx_HAL_Driver/Src/stm32f3xx_hal_flash_ex.c **** 
 303              		.loc 1 843 5 is_stmt 1 view .LVU71
 843:cube/Drivers/STM32F3xx_HAL_Driver/Src/stm32f3xx_hal_flash_ex.c **** 
 304              		.loc 1 843 14 is_stmt 0 view .LVU72
 305 002c 4CF25030 		movw	r0, #50000
 306              	.LVL19:
 843:cube/Drivers/STM32F3xx_HAL_Driver/Src/stm32f3xx_hal_flash_ex.c **** 
 307              		.loc 1 843 14 view .LVU73
 308 0030 FFF7FEFF 		bl	FLASH_WaitForLastOperation
 309              	.LVL20:
 310 0034 0346     		mov	r3, r0
 311              	.LVL21:
 846:cube/Drivers/STM32F3xx_HAL_Driver/Src/stm32f3xx_hal_flash_ex.c ****   }
 312              		.loc 1 846 5 is_stmt 1 view .LVU74
 313 0036 2A69     		ldr	r2, [r5, #16]
 314 0038 22F01002 		bic	r2, r2, #16
 315 003c 2A61     		str	r2, [r5, #16]
 316 003e E7E7     		b	.L21
 317              	.L25:
 318              		.align	2
 319              	.L24:
 320 0040 00000000 		.word	pFlash
 321 0044 00200240 		.word	1073881088
 322 0048 00F8FF1F 		.word	536868864
ARM GAS  C:\Users\Berbardo\AppData\Local\Temp\ccJ3NdKC.s 			page 24


 323              		.cfi_endproc
 324              	.LFE136:
 326              		.section	.text.FLASH_OB_ProgramData,"ax",%progbits
 327              		.align	1
 328              		.syntax unified
 329              		.thumb
 330              		.thumb_func
 331              		.fpu fpv4-sp-d16
 333              	FLASH_OB_ProgramData:
 334              	.LVL22:
 335              	.LFB137:
 865:cube/Drivers/STM32F3xx_HAL_Driver/Src/stm32f3xx_hal_flash_ex.c ****   HAL_StatusTypeDef status = HAL_ERROR;
 336              		.loc 1 865 1 view -0
 337              		.cfi_startproc
 338              		@ args = 0, pretend = 0, frame = 0
 339              		@ frame_needed = 0, uses_anonymous_args = 0
 865:cube/Drivers/STM32F3xx_HAL_Driver/Src/stm32f3xx_hal_flash_ex.c ****   HAL_StatusTypeDef status = HAL_ERROR;
 340              		.loc 1 865 1 is_stmt 0 view .LVU76
 341 0000 70B5     		push	{r4, r5, r6, lr}
 342              		.cfi_def_cfa_offset 16
 343              		.cfi_offset 4, -16
 344              		.cfi_offset 5, -12
 345              		.cfi_offset 6, -8
 346              		.cfi_offset 14, -4
 347 0002 0646     		mov	r6, r0
 348 0004 0C46     		mov	r4, r1
 866:cube/Drivers/STM32F3xx_HAL_Driver/Src/stm32f3xx_hal_flash_ex.c ****   
 349              		.loc 1 866 3 is_stmt 1 view .LVU77
 350              	.LVL23:
 869:cube/Drivers/STM32F3xx_HAL_Driver/Src/stm32f3xx_hal_flash_ex.c ****   
 351              		.loc 1 869 3 view .LVU78
 872:cube/Drivers/STM32F3xx_HAL_Driver/Src/stm32f3xx_hal_flash_ex.c ****   
 352              		.loc 1 872 3 view .LVU79
 872:cube/Drivers/STM32F3xx_HAL_Driver/Src/stm32f3xx_hal_flash_ex.c ****   
 353              		.loc 1 872 12 is_stmt 0 view .LVU80
 354 0006 4CF25030 		movw	r0, #50000
 355              	.LVL24:
 872:cube/Drivers/STM32F3xx_HAL_Driver/Src/stm32f3xx_hal_flash_ex.c ****   
 356              		.loc 1 872 12 view .LVU81
 357 000a FFF7FEFF 		bl	FLASH_WaitForLastOperation
 358              	.LVL25:
 874:cube/Drivers/STM32F3xx_HAL_Driver/Src/stm32f3xx_hal_flash_ex.c ****   {
 359              		.loc 1 874 3 is_stmt 1 view .LVU82
 874:cube/Drivers/STM32F3xx_HAL_Driver/Src/stm32f3xx_hal_flash_ex.c ****   {
 360              		.loc 1 874 5 is_stmt 0 view .LVU83
 361 000e 0346     		mov	r3, r0
 362 0010 08B1     		cbz	r0, .L29
 363              	.LVL26:
 364              	.L27:
 890:cube/Drivers/STM32F3xx_HAL_Driver/Src/stm32f3xx_hal_flash_ex.c **** }
 365              		.loc 1 890 3 is_stmt 1 view .LVU84
 891:cube/Drivers/STM32F3xx_HAL_Driver/Src/stm32f3xx_hal_flash_ex.c **** 
 366              		.loc 1 891 1 is_stmt 0 view .LVU85
 367 0012 1846     		mov	r0, r3
 368 0014 70BD     		pop	{r4, r5, r6, pc}
 369              	.LVL27:
 370              	.L29:
ARM GAS  C:\Users\Berbardo\AppData\Local\Temp\ccJ3NdKC.s 			page 25


 877:cube/Drivers/STM32F3xx_HAL_Driver/Src/stm32f3xx_hal_flash_ex.c **** 
 371              		.loc 1 877 5 is_stmt 1 view .LVU86
 877:cube/Drivers/STM32F3xx_HAL_Driver/Src/stm32f3xx_hal_flash_ex.c **** 
 372              		.loc 1 877 22 is_stmt 0 view .LVU87
 373 0016 0A4B     		ldr	r3, .L30
 374 0018 0022     		movs	r2, #0
 375 001a DA61     		str	r2, [r3, #28]
 880:cube/Drivers/STM32F3xx_HAL_Driver/Src/stm32f3xx_hal_flash_ex.c ****     *(__IO uint16_t*)Address = Data;
 376              		.loc 1 880 5 is_stmt 1 view .LVU88
 377 001c 094D     		ldr	r5, .L30+4
 378 001e 2B69     		ldr	r3, [r5, #16]
 379 0020 43F01003 		orr	r3, r3, #16
 380 0024 2B61     		str	r3, [r5, #16]
 881:cube/Drivers/STM32F3xx_HAL_Driver/Src/stm32f3xx_hal_flash_ex.c ****     
 381              		.loc 1 881 5 view .LVU89
 881:cube/Drivers/STM32F3xx_HAL_Driver/Src/stm32f3xx_hal_flash_ex.c ****     
 382              		.loc 1 881 30 is_stmt 0 view .LVU90
 383 0026 A4B2     		uxth	r4, r4
 384 0028 3480     		strh	r4, [r6]	@ movhi
 884:cube/Drivers/STM32F3xx_HAL_Driver/Src/stm32f3xx_hal_flash_ex.c ****     
 385              		.loc 1 884 5 is_stmt 1 view .LVU91
 884:cube/Drivers/STM32F3xx_HAL_Driver/Src/stm32f3xx_hal_flash_ex.c ****     
 386              		.loc 1 884 14 is_stmt 0 view .LVU92
 387 002a 4CF25030 		movw	r0, #50000
 388              	.LVL28:
 884:cube/Drivers/STM32F3xx_HAL_Driver/Src/stm32f3xx_hal_flash_ex.c ****     
 389              		.loc 1 884 14 view .LVU93
 390 002e FFF7FEFF 		bl	FLASH_WaitForLastOperation
 391              	.LVL29:
 392 0032 0346     		mov	r3, r0
 393              	.LVL30:
 887:cube/Drivers/STM32F3xx_HAL_Driver/Src/stm32f3xx_hal_flash_ex.c ****   }
 394              		.loc 1 887 5 is_stmt 1 view .LVU94
 395 0034 2A69     		ldr	r2, [r5, #16]
 396 0036 22F01002 		bic	r2, r2, #16
 397 003a 2A61     		str	r2, [r5, #16]
 398 003c E9E7     		b	.L27
 399              	.L31:
 400 003e 00BF     		.align	2
 401              	.L30:
 402 0040 00000000 		.word	pFlash
 403 0044 00200240 		.word	1073881088
 404              		.cfi_endproc
 405              	.LFE137:
 407              		.section	.text.FLASH_OB_GetUser,"ax",%progbits
 408              		.align	1
 409              		.syntax unified
 410              		.thumb
 411              		.thumb_func
 412              		.fpu fpv4-sp-d16
 414              	FLASH_OB_GetUser:
 415              	.LFB140:
 945:cube/Drivers/STM32F3xx_HAL_Driver/Src/stm32f3xx_hal_flash_ex.c **** 
 946:cube/Drivers/STM32F3xx_HAL_Driver/Src/stm32f3xx_hal_flash_ex.c **** /**
 947:cube/Drivers/STM32F3xx_HAL_Driver/Src/stm32f3xx_hal_flash_ex.c ****   * @brief  Return the FLASH User Option Byte value.
 948:cube/Drivers/STM32F3xx_HAL_Driver/Src/stm32f3xx_hal_flash_ex.c ****   * @retval  The FLASH User Option Bytes values: IWDG_SW(Bit0), RST_STOP(Bit1), RST_STDBY(Bit2), nB
 949:cube/Drivers/STM32F3xx_HAL_Driver/Src/stm32f3xx_hal_flash_ex.c ****   *         VDDA_Analog_Monitoring(Bit5) and SRAM_Parity_Enable(Bit6). 
ARM GAS  C:\Users\Berbardo\AppData\Local\Temp\ccJ3NdKC.s 			page 26


 950:cube/Drivers/STM32F3xx_HAL_Driver/Src/stm32f3xx_hal_flash_ex.c ****   *         And SDADC12_VDD_MONITOR(Bit7) for STM32F373 or STM32F378 . 
 951:cube/Drivers/STM32F3xx_HAL_Driver/Src/stm32f3xx_hal_flash_ex.c ****   */
 952:cube/Drivers/STM32F3xx_HAL_Driver/Src/stm32f3xx_hal_flash_ex.c **** static uint8_t FLASH_OB_GetUser(void)
 953:cube/Drivers/STM32F3xx_HAL_Driver/Src/stm32f3xx_hal_flash_ex.c **** {
 416              		.loc 1 953 1 view -0
 417              		.cfi_startproc
 418              		@ args = 0, pretend = 0, frame = 0
 419              		@ frame_needed = 0, uses_anonymous_args = 0
 420              		@ link register save eliminated.
 954:cube/Drivers/STM32F3xx_HAL_Driver/Src/stm32f3xx_hal_flash_ex.c ****   /* Return the User Option Byte */
 955:cube/Drivers/STM32F3xx_HAL_Driver/Src/stm32f3xx_hal_flash_ex.c ****   return (uint8_t)((READ_REG(FLASH->OBR) & FLASH_OBR_USER) >> FLASH_POSITION_IWDGSW_BIT);
 421              		.loc 1 955 3 view .LVU96
 422              		.loc 1 955 21 is_stmt 0 view .LVU97
 423 0000 064B     		ldr	r3, .L33
 424 0002 D869     		ldr	r0, [r3, #28]
 425              		.loc 1 955 42 view .LVU98
 426 0004 00F4EE40 		and	r0, r0, #30464
 427              	.LVL31:
 428              	.LBB8:
 429              	.LBI8:
 430              		.file 2 "cube/Drivers/CMSIS/Include/cmsis_gcc.h"
   1:cube/Drivers/CMSIS/Include/cmsis_gcc.h **** /**************************************************************************//**
   2:cube/Drivers/CMSIS/Include/cmsis_gcc.h ****  * @file     cmsis_gcc.h
   3:cube/Drivers/CMSIS/Include/cmsis_gcc.h ****  * @brief    CMSIS Cortex-M Core Function/Instruction Header File
   4:cube/Drivers/CMSIS/Include/cmsis_gcc.h ****  * @version  V4.30
   5:cube/Drivers/CMSIS/Include/cmsis_gcc.h ****  * @date     20. October 2015
   6:cube/Drivers/CMSIS/Include/cmsis_gcc.h ****  ******************************************************************************/
   7:cube/Drivers/CMSIS/Include/cmsis_gcc.h **** /* Copyright (c) 2009 - 2015 ARM LIMITED
   8:cube/Drivers/CMSIS/Include/cmsis_gcc.h **** 
   9:cube/Drivers/CMSIS/Include/cmsis_gcc.h ****    All rights reserved.
  10:cube/Drivers/CMSIS/Include/cmsis_gcc.h ****    Redistribution and use in source and binary forms, with or without
  11:cube/Drivers/CMSIS/Include/cmsis_gcc.h ****    modification, are permitted provided that the following conditions are met:
  12:cube/Drivers/CMSIS/Include/cmsis_gcc.h ****    - Redistributions of source code must retain the above copyright
  13:cube/Drivers/CMSIS/Include/cmsis_gcc.h ****      notice, this list of conditions and the following disclaimer.
  14:cube/Drivers/CMSIS/Include/cmsis_gcc.h ****    - Redistributions in binary form must reproduce the above copyright
  15:cube/Drivers/CMSIS/Include/cmsis_gcc.h ****      notice, this list of conditions and the following disclaimer in the
  16:cube/Drivers/CMSIS/Include/cmsis_gcc.h ****      documentation and/or other materials provided with the distribution.
  17:cube/Drivers/CMSIS/Include/cmsis_gcc.h ****    - Neither the name of ARM nor the names of its contributors may be used
  18:cube/Drivers/CMSIS/Include/cmsis_gcc.h ****      to endorse or promote products derived from this software without
  19:cube/Drivers/CMSIS/Include/cmsis_gcc.h ****      specific prior written permission.
  20:cube/Drivers/CMSIS/Include/cmsis_gcc.h ****    *
  21:cube/Drivers/CMSIS/Include/cmsis_gcc.h ****    THIS SOFTWARE IS PROVIDED BY THE COPYRIGHT HOLDERS AND CONTRIBUTORS "AS IS"
  22:cube/Drivers/CMSIS/Include/cmsis_gcc.h ****    AND ANY EXPRESS OR IMPLIED WARRANTIES, INCLUDING, BUT NOT LIMITED TO, THE
  23:cube/Drivers/CMSIS/Include/cmsis_gcc.h ****    IMPLIED WARRANTIES OF MERCHANTABILITY AND FITNESS FOR A PARTICULAR PURPOSE
  24:cube/Drivers/CMSIS/Include/cmsis_gcc.h ****    ARE DISCLAIMED. IN NO EVENT SHALL COPYRIGHT HOLDERS AND CONTRIBUTORS BE
  25:cube/Drivers/CMSIS/Include/cmsis_gcc.h ****    LIABLE FOR ANY DIRECT, INDIRECT, INCIDENTAL, SPECIAL, EXEMPLARY, OR
  26:cube/Drivers/CMSIS/Include/cmsis_gcc.h ****    CONSEQUENTIAL DAMAGES (INCLUDING, BUT NOT LIMITED TO, PROCUREMENT OF
  27:cube/Drivers/CMSIS/Include/cmsis_gcc.h ****    SUBSTITUTE GOODS OR SERVICES; LOSS OF USE, DATA, OR PROFITS; OR BUSINESS
  28:cube/Drivers/CMSIS/Include/cmsis_gcc.h ****    INTERRUPTION) HOWEVER CAUSED AND ON ANY THEORY OF LIABILITY, WHETHER IN
  29:cube/Drivers/CMSIS/Include/cmsis_gcc.h ****    CONTRACT, STRICT LIABILITY, OR TORT (INCLUDING NEGLIGENCE OR OTHERWISE)
  30:cube/Drivers/CMSIS/Include/cmsis_gcc.h ****    ARISING IN ANY WAY OUT OF THE USE OF THIS SOFTWARE, EVEN IF ADVISED OF THE
  31:cube/Drivers/CMSIS/Include/cmsis_gcc.h ****    POSSIBILITY OF SUCH DAMAGE.
  32:cube/Drivers/CMSIS/Include/cmsis_gcc.h ****    ---------------------------------------------------------------------------*/
  33:cube/Drivers/CMSIS/Include/cmsis_gcc.h **** 
  34:cube/Drivers/CMSIS/Include/cmsis_gcc.h **** 
  35:cube/Drivers/CMSIS/Include/cmsis_gcc.h **** #ifndef __CMSIS_GCC_H
  36:cube/Drivers/CMSIS/Include/cmsis_gcc.h **** #define __CMSIS_GCC_H
ARM GAS  C:\Users\Berbardo\AppData\Local\Temp\ccJ3NdKC.s 			page 27


  37:cube/Drivers/CMSIS/Include/cmsis_gcc.h **** 
  38:cube/Drivers/CMSIS/Include/cmsis_gcc.h **** /* ignore some GCC warnings */
  39:cube/Drivers/CMSIS/Include/cmsis_gcc.h **** #if defined ( __GNUC__ )
  40:cube/Drivers/CMSIS/Include/cmsis_gcc.h **** #pragma GCC diagnostic push
  41:cube/Drivers/CMSIS/Include/cmsis_gcc.h **** #pragma GCC diagnostic ignored "-Wsign-conversion"
  42:cube/Drivers/CMSIS/Include/cmsis_gcc.h **** #pragma GCC diagnostic ignored "-Wconversion"
  43:cube/Drivers/CMSIS/Include/cmsis_gcc.h **** #pragma GCC diagnostic ignored "-Wunused-parameter"
  44:cube/Drivers/CMSIS/Include/cmsis_gcc.h **** #endif
  45:cube/Drivers/CMSIS/Include/cmsis_gcc.h **** 
  46:cube/Drivers/CMSIS/Include/cmsis_gcc.h **** 
  47:cube/Drivers/CMSIS/Include/cmsis_gcc.h **** /* ###########################  Core Function Access  ########################### */
  48:cube/Drivers/CMSIS/Include/cmsis_gcc.h **** /** \ingroup  CMSIS_Core_FunctionInterface
  49:cube/Drivers/CMSIS/Include/cmsis_gcc.h ****     \defgroup CMSIS_Core_RegAccFunctions CMSIS Core Register Access Functions
  50:cube/Drivers/CMSIS/Include/cmsis_gcc.h ****   @{
  51:cube/Drivers/CMSIS/Include/cmsis_gcc.h ****  */
  52:cube/Drivers/CMSIS/Include/cmsis_gcc.h **** 
  53:cube/Drivers/CMSIS/Include/cmsis_gcc.h **** /**
  54:cube/Drivers/CMSIS/Include/cmsis_gcc.h ****   \brief   Enable IRQ Interrupts
  55:cube/Drivers/CMSIS/Include/cmsis_gcc.h ****   \details Enables IRQ interrupts by clearing the I-bit in the CPSR.
  56:cube/Drivers/CMSIS/Include/cmsis_gcc.h ****            Can only be executed in Privileged modes.
  57:cube/Drivers/CMSIS/Include/cmsis_gcc.h ****  */
  58:cube/Drivers/CMSIS/Include/cmsis_gcc.h **** __attribute__( ( always_inline ) ) __STATIC_INLINE void __enable_irq(void)
  59:cube/Drivers/CMSIS/Include/cmsis_gcc.h **** {
  60:cube/Drivers/CMSIS/Include/cmsis_gcc.h ****   __ASM volatile ("cpsie i" : : : "memory");
  61:cube/Drivers/CMSIS/Include/cmsis_gcc.h **** }
  62:cube/Drivers/CMSIS/Include/cmsis_gcc.h **** 
  63:cube/Drivers/CMSIS/Include/cmsis_gcc.h **** 
  64:cube/Drivers/CMSIS/Include/cmsis_gcc.h **** /**
  65:cube/Drivers/CMSIS/Include/cmsis_gcc.h ****   \brief   Disable IRQ Interrupts
  66:cube/Drivers/CMSIS/Include/cmsis_gcc.h ****   \details Disables IRQ interrupts by setting the I-bit in the CPSR.
  67:cube/Drivers/CMSIS/Include/cmsis_gcc.h ****   Can only be executed in Privileged modes.
  68:cube/Drivers/CMSIS/Include/cmsis_gcc.h ****  */
  69:cube/Drivers/CMSIS/Include/cmsis_gcc.h **** __attribute__( ( always_inline ) ) __STATIC_INLINE void __disable_irq(void)
  70:cube/Drivers/CMSIS/Include/cmsis_gcc.h **** {
  71:cube/Drivers/CMSIS/Include/cmsis_gcc.h ****   __ASM volatile ("cpsid i" : : : "memory");
  72:cube/Drivers/CMSIS/Include/cmsis_gcc.h **** }
  73:cube/Drivers/CMSIS/Include/cmsis_gcc.h **** 
  74:cube/Drivers/CMSIS/Include/cmsis_gcc.h **** 
  75:cube/Drivers/CMSIS/Include/cmsis_gcc.h **** /**
  76:cube/Drivers/CMSIS/Include/cmsis_gcc.h ****   \brief   Get Control Register
  77:cube/Drivers/CMSIS/Include/cmsis_gcc.h ****   \details Returns the content of the Control Register.
  78:cube/Drivers/CMSIS/Include/cmsis_gcc.h ****   \return               Control Register value
  79:cube/Drivers/CMSIS/Include/cmsis_gcc.h ****  */
  80:cube/Drivers/CMSIS/Include/cmsis_gcc.h **** __attribute__( ( always_inline ) ) __STATIC_INLINE uint32_t __get_CONTROL(void)
  81:cube/Drivers/CMSIS/Include/cmsis_gcc.h **** {
  82:cube/Drivers/CMSIS/Include/cmsis_gcc.h ****   uint32_t result;
  83:cube/Drivers/CMSIS/Include/cmsis_gcc.h **** 
  84:cube/Drivers/CMSIS/Include/cmsis_gcc.h ****   __ASM volatile ("MRS %0, control" : "=r" (result) );
  85:cube/Drivers/CMSIS/Include/cmsis_gcc.h ****   return(result);
  86:cube/Drivers/CMSIS/Include/cmsis_gcc.h **** }
  87:cube/Drivers/CMSIS/Include/cmsis_gcc.h **** 
  88:cube/Drivers/CMSIS/Include/cmsis_gcc.h **** 
  89:cube/Drivers/CMSIS/Include/cmsis_gcc.h **** /**
  90:cube/Drivers/CMSIS/Include/cmsis_gcc.h ****   \brief   Set Control Register
  91:cube/Drivers/CMSIS/Include/cmsis_gcc.h ****   \details Writes the given value to the Control Register.
  92:cube/Drivers/CMSIS/Include/cmsis_gcc.h ****   \param [in]    control  Control Register value to set
  93:cube/Drivers/CMSIS/Include/cmsis_gcc.h ****  */
ARM GAS  C:\Users\Berbardo\AppData\Local\Temp\ccJ3NdKC.s 			page 28


  94:cube/Drivers/CMSIS/Include/cmsis_gcc.h **** __attribute__( ( always_inline ) ) __STATIC_INLINE void __set_CONTROL(uint32_t control)
  95:cube/Drivers/CMSIS/Include/cmsis_gcc.h **** {
  96:cube/Drivers/CMSIS/Include/cmsis_gcc.h ****   __ASM volatile ("MSR control, %0" : : "r" (control) : "memory");
  97:cube/Drivers/CMSIS/Include/cmsis_gcc.h **** }
  98:cube/Drivers/CMSIS/Include/cmsis_gcc.h **** 
  99:cube/Drivers/CMSIS/Include/cmsis_gcc.h **** 
 100:cube/Drivers/CMSIS/Include/cmsis_gcc.h **** /**
 101:cube/Drivers/CMSIS/Include/cmsis_gcc.h ****   \brief   Get IPSR Register
 102:cube/Drivers/CMSIS/Include/cmsis_gcc.h ****   \details Returns the content of the IPSR Register.
 103:cube/Drivers/CMSIS/Include/cmsis_gcc.h ****   \return               IPSR Register value
 104:cube/Drivers/CMSIS/Include/cmsis_gcc.h ****  */
 105:cube/Drivers/CMSIS/Include/cmsis_gcc.h **** __attribute__( ( always_inline ) ) __STATIC_INLINE uint32_t __get_IPSR(void)
 106:cube/Drivers/CMSIS/Include/cmsis_gcc.h **** {
 107:cube/Drivers/CMSIS/Include/cmsis_gcc.h ****   uint32_t result;
 108:cube/Drivers/CMSIS/Include/cmsis_gcc.h **** 
 109:cube/Drivers/CMSIS/Include/cmsis_gcc.h ****   __ASM volatile ("MRS %0, ipsr" : "=r" (result) );
 110:cube/Drivers/CMSIS/Include/cmsis_gcc.h ****   return(result);
 111:cube/Drivers/CMSIS/Include/cmsis_gcc.h **** }
 112:cube/Drivers/CMSIS/Include/cmsis_gcc.h **** 
 113:cube/Drivers/CMSIS/Include/cmsis_gcc.h **** 
 114:cube/Drivers/CMSIS/Include/cmsis_gcc.h **** /**
 115:cube/Drivers/CMSIS/Include/cmsis_gcc.h ****   \brief   Get APSR Register
 116:cube/Drivers/CMSIS/Include/cmsis_gcc.h ****   \details Returns the content of the APSR Register.
 117:cube/Drivers/CMSIS/Include/cmsis_gcc.h ****   \return               APSR Register value
 118:cube/Drivers/CMSIS/Include/cmsis_gcc.h ****  */
 119:cube/Drivers/CMSIS/Include/cmsis_gcc.h **** __attribute__( ( always_inline ) ) __STATIC_INLINE uint32_t __get_APSR(void)
 120:cube/Drivers/CMSIS/Include/cmsis_gcc.h **** {
 121:cube/Drivers/CMSIS/Include/cmsis_gcc.h ****   uint32_t result;
 122:cube/Drivers/CMSIS/Include/cmsis_gcc.h **** 
 123:cube/Drivers/CMSIS/Include/cmsis_gcc.h ****   __ASM volatile ("MRS %0, apsr" : "=r" (result) );
 124:cube/Drivers/CMSIS/Include/cmsis_gcc.h ****   return(result);
 125:cube/Drivers/CMSIS/Include/cmsis_gcc.h **** }
 126:cube/Drivers/CMSIS/Include/cmsis_gcc.h **** 
 127:cube/Drivers/CMSIS/Include/cmsis_gcc.h **** 
 128:cube/Drivers/CMSIS/Include/cmsis_gcc.h **** /**
 129:cube/Drivers/CMSIS/Include/cmsis_gcc.h ****   \brief   Get xPSR Register
 130:cube/Drivers/CMSIS/Include/cmsis_gcc.h ****   \details Returns the content of the xPSR Register.
 131:cube/Drivers/CMSIS/Include/cmsis_gcc.h **** 
 132:cube/Drivers/CMSIS/Include/cmsis_gcc.h ****     \return               xPSR Register value
 133:cube/Drivers/CMSIS/Include/cmsis_gcc.h ****  */
 134:cube/Drivers/CMSIS/Include/cmsis_gcc.h **** __attribute__( ( always_inline ) ) __STATIC_INLINE uint32_t __get_xPSR(void)
 135:cube/Drivers/CMSIS/Include/cmsis_gcc.h **** {
 136:cube/Drivers/CMSIS/Include/cmsis_gcc.h ****   uint32_t result;
 137:cube/Drivers/CMSIS/Include/cmsis_gcc.h **** 
 138:cube/Drivers/CMSIS/Include/cmsis_gcc.h ****   __ASM volatile ("MRS %0, xpsr" : "=r" (result) );
 139:cube/Drivers/CMSIS/Include/cmsis_gcc.h ****   return(result);
 140:cube/Drivers/CMSIS/Include/cmsis_gcc.h **** }
 141:cube/Drivers/CMSIS/Include/cmsis_gcc.h **** 
 142:cube/Drivers/CMSIS/Include/cmsis_gcc.h **** 
 143:cube/Drivers/CMSIS/Include/cmsis_gcc.h **** /**
 144:cube/Drivers/CMSIS/Include/cmsis_gcc.h ****   \brief   Get Process Stack Pointer
 145:cube/Drivers/CMSIS/Include/cmsis_gcc.h ****   \details Returns the current value of the Process Stack Pointer (PSP).
 146:cube/Drivers/CMSIS/Include/cmsis_gcc.h ****   \return               PSP Register value
 147:cube/Drivers/CMSIS/Include/cmsis_gcc.h ****  */
 148:cube/Drivers/CMSIS/Include/cmsis_gcc.h **** __attribute__( ( always_inline ) ) __STATIC_INLINE uint32_t __get_PSP(void)
 149:cube/Drivers/CMSIS/Include/cmsis_gcc.h **** {
 150:cube/Drivers/CMSIS/Include/cmsis_gcc.h ****   register uint32_t result;
ARM GAS  C:\Users\Berbardo\AppData\Local\Temp\ccJ3NdKC.s 			page 29


 151:cube/Drivers/CMSIS/Include/cmsis_gcc.h **** 
 152:cube/Drivers/CMSIS/Include/cmsis_gcc.h ****   __ASM volatile ("MRS %0, psp\n"  : "=r" (result) );
 153:cube/Drivers/CMSIS/Include/cmsis_gcc.h ****   return(result);
 154:cube/Drivers/CMSIS/Include/cmsis_gcc.h **** }
 155:cube/Drivers/CMSIS/Include/cmsis_gcc.h **** 
 156:cube/Drivers/CMSIS/Include/cmsis_gcc.h **** 
 157:cube/Drivers/CMSIS/Include/cmsis_gcc.h **** /**
 158:cube/Drivers/CMSIS/Include/cmsis_gcc.h ****   \brief   Set Process Stack Pointer
 159:cube/Drivers/CMSIS/Include/cmsis_gcc.h ****   \details Assigns the given value to the Process Stack Pointer (PSP).
 160:cube/Drivers/CMSIS/Include/cmsis_gcc.h ****   \param [in]    topOfProcStack  Process Stack Pointer value to set
 161:cube/Drivers/CMSIS/Include/cmsis_gcc.h ****  */
 162:cube/Drivers/CMSIS/Include/cmsis_gcc.h **** __attribute__( ( always_inline ) ) __STATIC_INLINE void __set_PSP(uint32_t topOfProcStack)
 163:cube/Drivers/CMSIS/Include/cmsis_gcc.h **** {
 164:cube/Drivers/CMSIS/Include/cmsis_gcc.h ****   __ASM volatile ("MSR psp, %0\n" : : "r" (topOfProcStack) : "sp");
 165:cube/Drivers/CMSIS/Include/cmsis_gcc.h **** }
 166:cube/Drivers/CMSIS/Include/cmsis_gcc.h **** 
 167:cube/Drivers/CMSIS/Include/cmsis_gcc.h **** 
 168:cube/Drivers/CMSIS/Include/cmsis_gcc.h **** /**
 169:cube/Drivers/CMSIS/Include/cmsis_gcc.h ****   \brief   Get Main Stack Pointer
 170:cube/Drivers/CMSIS/Include/cmsis_gcc.h ****   \details Returns the current value of the Main Stack Pointer (MSP).
 171:cube/Drivers/CMSIS/Include/cmsis_gcc.h ****   \return               MSP Register value
 172:cube/Drivers/CMSIS/Include/cmsis_gcc.h ****  */
 173:cube/Drivers/CMSIS/Include/cmsis_gcc.h **** __attribute__( ( always_inline ) ) __STATIC_INLINE uint32_t __get_MSP(void)
 174:cube/Drivers/CMSIS/Include/cmsis_gcc.h **** {
 175:cube/Drivers/CMSIS/Include/cmsis_gcc.h ****   register uint32_t result;
 176:cube/Drivers/CMSIS/Include/cmsis_gcc.h **** 
 177:cube/Drivers/CMSIS/Include/cmsis_gcc.h ****   __ASM volatile ("MRS %0, msp\n" : "=r" (result) );
 178:cube/Drivers/CMSIS/Include/cmsis_gcc.h ****   return(result);
 179:cube/Drivers/CMSIS/Include/cmsis_gcc.h **** }
 180:cube/Drivers/CMSIS/Include/cmsis_gcc.h **** 
 181:cube/Drivers/CMSIS/Include/cmsis_gcc.h **** 
 182:cube/Drivers/CMSIS/Include/cmsis_gcc.h **** /**
 183:cube/Drivers/CMSIS/Include/cmsis_gcc.h ****   \brief   Set Main Stack Pointer
 184:cube/Drivers/CMSIS/Include/cmsis_gcc.h ****   \details Assigns the given value to the Main Stack Pointer (MSP).
 185:cube/Drivers/CMSIS/Include/cmsis_gcc.h **** 
 186:cube/Drivers/CMSIS/Include/cmsis_gcc.h ****     \param [in]    topOfMainStack  Main Stack Pointer value to set
 187:cube/Drivers/CMSIS/Include/cmsis_gcc.h ****  */
 188:cube/Drivers/CMSIS/Include/cmsis_gcc.h **** __attribute__( ( always_inline ) ) __STATIC_INLINE void __set_MSP(uint32_t topOfMainStack)
 189:cube/Drivers/CMSIS/Include/cmsis_gcc.h **** {
 190:cube/Drivers/CMSIS/Include/cmsis_gcc.h ****   __ASM volatile ("MSR msp, %0\n" : : "r" (topOfMainStack) : "sp");
 191:cube/Drivers/CMSIS/Include/cmsis_gcc.h **** }
 192:cube/Drivers/CMSIS/Include/cmsis_gcc.h **** 
 193:cube/Drivers/CMSIS/Include/cmsis_gcc.h **** 
 194:cube/Drivers/CMSIS/Include/cmsis_gcc.h **** /**
 195:cube/Drivers/CMSIS/Include/cmsis_gcc.h ****   \brief   Get Priority Mask
 196:cube/Drivers/CMSIS/Include/cmsis_gcc.h ****   \details Returns the current state of the priority mask bit from the Priority Mask Register.
 197:cube/Drivers/CMSIS/Include/cmsis_gcc.h ****   \return               Priority Mask value
 198:cube/Drivers/CMSIS/Include/cmsis_gcc.h ****  */
 199:cube/Drivers/CMSIS/Include/cmsis_gcc.h **** __attribute__( ( always_inline ) ) __STATIC_INLINE uint32_t __get_PRIMASK(void)
 200:cube/Drivers/CMSIS/Include/cmsis_gcc.h **** {
 201:cube/Drivers/CMSIS/Include/cmsis_gcc.h ****   uint32_t result;
 202:cube/Drivers/CMSIS/Include/cmsis_gcc.h **** 
 203:cube/Drivers/CMSIS/Include/cmsis_gcc.h ****   __ASM volatile ("MRS %0, primask" : "=r" (result) );
 204:cube/Drivers/CMSIS/Include/cmsis_gcc.h ****   return(result);
 205:cube/Drivers/CMSIS/Include/cmsis_gcc.h **** }
 206:cube/Drivers/CMSIS/Include/cmsis_gcc.h **** 
 207:cube/Drivers/CMSIS/Include/cmsis_gcc.h **** 
ARM GAS  C:\Users\Berbardo\AppData\Local\Temp\ccJ3NdKC.s 			page 30


 208:cube/Drivers/CMSIS/Include/cmsis_gcc.h **** /**
 209:cube/Drivers/CMSIS/Include/cmsis_gcc.h ****   \brief   Set Priority Mask
 210:cube/Drivers/CMSIS/Include/cmsis_gcc.h ****   \details Assigns the given value to the Priority Mask Register.
 211:cube/Drivers/CMSIS/Include/cmsis_gcc.h ****   \param [in]    priMask  Priority Mask
 212:cube/Drivers/CMSIS/Include/cmsis_gcc.h ****  */
 213:cube/Drivers/CMSIS/Include/cmsis_gcc.h **** __attribute__( ( always_inline ) ) __STATIC_INLINE void __set_PRIMASK(uint32_t priMask)
 214:cube/Drivers/CMSIS/Include/cmsis_gcc.h **** {
 215:cube/Drivers/CMSIS/Include/cmsis_gcc.h ****   __ASM volatile ("MSR primask, %0" : : "r" (priMask) : "memory");
 216:cube/Drivers/CMSIS/Include/cmsis_gcc.h **** }
 217:cube/Drivers/CMSIS/Include/cmsis_gcc.h **** 
 218:cube/Drivers/CMSIS/Include/cmsis_gcc.h **** 
 219:cube/Drivers/CMSIS/Include/cmsis_gcc.h **** #if       (__CORTEX_M >= 0x03U)
 220:cube/Drivers/CMSIS/Include/cmsis_gcc.h **** 
 221:cube/Drivers/CMSIS/Include/cmsis_gcc.h **** /**
 222:cube/Drivers/CMSIS/Include/cmsis_gcc.h ****   \brief   Enable FIQ
 223:cube/Drivers/CMSIS/Include/cmsis_gcc.h ****   \details Enables FIQ interrupts by clearing the F-bit in the CPSR.
 224:cube/Drivers/CMSIS/Include/cmsis_gcc.h ****            Can only be executed in Privileged modes.
 225:cube/Drivers/CMSIS/Include/cmsis_gcc.h ****  */
 226:cube/Drivers/CMSIS/Include/cmsis_gcc.h **** __attribute__( ( always_inline ) ) __STATIC_INLINE void __enable_fault_irq(void)
 227:cube/Drivers/CMSIS/Include/cmsis_gcc.h **** {
 228:cube/Drivers/CMSIS/Include/cmsis_gcc.h ****   __ASM volatile ("cpsie f" : : : "memory");
 229:cube/Drivers/CMSIS/Include/cmsis_gcc.h **** }
 230:cube/Drivers/CMSIS/Include/cmsis_gcc.h **** 
 231:cube/Drivers/CMSIS/Include/cmsis_gcc.h **** 
 232:cube/Drivers/CMSIS/Include/cmsis_gcc.h **** /**
 233:cube/Drivers/CMSIS/Include/cmsis_gcc.h ****   \brief   Disable FIQ
 234:cube/Drivers/CMSIS/Include/cmsis_gcc.h ****   \details Disables FIQ interrupts by setting the F-bit in the CPSR.
 235:cube/Drivers/CMSIS/Include/cmsis_gcc.h ****            Can only be executed in Privileged modes.
 236:cube/Drivers/CMSIS/Include/cmsis_gcc.h ****  */
 237:cube/Drivers/CMSIS/Include/cmsis_gcc.h **** __attribute__( ( always_inline ) ) __STATIC_INLINE void __disable_fault_irq(void)
 238:cube/Drivers/CMSIS/Include/cmsis_gcc.h **** {
 239:cube/Drivers/CMSIS/Include/cmsis_gcc.h ****   __ASM volatile ("cpsid f" : : : "memory");
 240:cube/Drivers/CMSIS/Include/cmsis_gcc.h **** }
 241:cube/Drivers/CMSIS/Include/cmsis_gcc.h **** 
 242:cube/Drivers/CMSIS/Include/cmsis_gcc.h **** 
 243:cube/Drivers/CMSIS/Include/cmsis_gcc.h **** /**
 244:cube/Drivers/CMSIS/Include/cmsis_gcc.h ****   \brief   Get Base Priority
 245:cube/Drivers/CMSIS/Include/cmsis_gcc.h ****   \details Returns the current value of the Base Priority register.
 246:cube/Drivers/CMSIS/Include/cmsis_gcc.h ****   \return               Base Priority register value
 247:cube/Drivers/CMSIS/Include/cmsis_gcc.h ****  */
 248:cube/Drivers/CMSIS/Include/cmsis_gcc.h **** __attribute__( ( always_inline ) ) __STATIC_INLINE uint32_t __get_BASEPRI(void)
 249:cube/Drivers/CMSIS/Include/cmsis_gcc.h **** {
 250:cube/Drivers/CMSIS/Include/cmsis_gcc.h ****   uint32_t result;
 251:cube/Drivers/CMSIS/Include/cmsis_gcc.h **** 
 252:cube/Drivers/CMSIS/Include/cmsis_gcc.h ****   __ASM volatile ("MRS %0, basepri" : "=r" (result) );
 253:cube/Drivers/CMSIS/Include/cmsis_gcc.h ****   return(result);
 254:cube/Drivers/CMSIS/Include/cmsis_gcc.h **** }
 255:cube/Drivers/CMSIS/Include/cmsis_gcc.h **** 
 256:cube/Drivers/CMSIS/Include/cmsis_gcc.h **** 
 257:cube/Drivers/CMSIS/Include/cmsis_gcc.h **** /**
 258:cube/Drivers/CMSIS/Include/cmsis_gcc.h ****   \brief   Set Base Priority
 259:cube/Drivers/CMSIS/Include/cmsis_gcc.h ****   \details Assigns the given value to the Base Priority register.
 260:cube/Drivers/CMSIS/Include/cmsis_gcc.h ****   \param [in]    basePri  Base Priority value to set
 261:cube/Drivers/CMSIS/Include/cmsis_gcc.h ****  */
 262:cube/Drivers/CMSIS/Include/cmsis_gcc.h **** __attribute__( ( always_inline ) ) __STATIC_INLINE void __set_BASEPRI(uint32_t value)
 263:cube/Drivers/CMSIS/Include/cmsis_gcc.h **** {
 264:cube/Drivers/CMSIS/Include/cmsis_gcc.h ****   __ASM volatile ("MSR basepri, %0" : : "r" (value) : "memory");
ARM GAS  C:\Users\Berbardo\AppData\Local\Temp\ccJ3NdKC.s 			page 31


 265:cube/Drivers/CMSIS/Include/cmsis_gcc.h **** }
 266:cube/Drivers/CMSIS/Include/cmsis_gcc.h **** 
 267:cube/Drivers/CMSIS/Include/cmsis_gcc.h **** 
 268:cube/Drivers/CMSIS/Include/cmsis_gcc.h **** /**
 269:cube/Drivers/CMSIS/Include/cmsis_gcc.h ****   \brief   Set Base Priority with condition
 270:cube/Drivers/CMSIS/Include/cmsis_gcc.h ****   \details Assigns the given value to the Base Priority register only if BASEPRI masking is disable
 271:cube/Drivers/CMSIS/Include/cmsis_gcc.h ****            or the new value increases the BASEPRI priority level.
 272:cube/Drivers/CMSIS/Include/cmsis_gcc.h ****   \param [in]    basePri  Base Priority value to set
 273:cube/Drivers/CMSIS/Include/cmsis_gcc.h ****  */
 274:cube/Drivers/CMSIS/Include/cmsis_gcc.h **** __attribute__( ( always_inline ) ) __STATIC_INLINE void __set_BASEPRI_MAX(uint32_t value)
 275:cube/Drivers/CMSIS/Include/cmsis_gcc.h **** {
 276:cube/Drivers/CMSIS/Include/cmsis_gcc.h ****   __ASM volatile ("MSR basepri_max, %0" : : "r" (value) : "memory");
 277:cube/Drivers/CMSIS/Include/cmsis_gcc.h **** }
 278:cube/Drivers/CMSIS/Include/cmsis_gcc.h **** 
 279:cube/Drivers/CMSIS/Include/cmsis_gcc.h **** 
 280:cube/Drivers/CMSIS/Include/cmsis_gcc.h **** /**
 281:cube/Drivers/CMSIS/Include/cmsis_gcc.h ****   \brief   Get Fault Mask
 282:cube/Drivers/CMSIS/Include/cmsis_gcc.h ****   \details Returns the current value of the Fault Mask register.
 283:cube/Drivers/CMSIS/Include/cmsis_gcc.h ****   \return               Fault Mask register value
 284:cube/Drivers/CMSIS/Include/cmsis_gcc.h ****  */
 285:cube/Drivers/CMSIS/Include/cmsis_gcc.h **** __attribute__( ( always_inline ) ) __STATIC_INLINE uint32_t __get_FAULTMASK(void)
 286:cube/Drivers/CMSIS/Include/cmsis_gcc.h **** {
 287:cube/Drivers/CMSIS/Include/cmsis_gcc.h ****   uint32_t result;
 288:cube/Drivers/CMSIS/Include/cmsis_gcc.h **** 
 289:cube/Drivers/CMSIS/Include/cmsis_gcc.h ****   __ASM volatile ("MRS %0, faultmask" : "=r" (result) );
 290:cube/Drivers/CMSIS/Include/cmsis_gcc.h ****   return(result);
 291:cube/Drivers/CMSIS/Include/cmsis_gcc.h **** }
 292:cube/Drivers/CMSIS/Include/cmsis_gcc.h **** 
 293:cube/Drivers/CMSIS/Include/cmsis_gcc.h **** 
 294:cube/Drivers/CMSIS/Include/cmsis_gcc.h **** /**
 295:cube/Drivers/CMSIS/Include/cmsis_gcc.h ****   \brief   Set Fault Mask
 296:cube/Drivers/CMSIS/Include/cmsis_gcc.h ****   \details Assigns the given value to the Fault Mask register.
 297:cube/Drivers/CMSIS/Include/cmsis_gcc.h ****   \param [in]    faultMask  Fault Mask value to set
 298:cube/Drivers/CMSIS/Include/cmsis_gcc.h ****  */
 299:cube/Drivers/CMSIS/Include/cmsis_gcc.h **** __attribute__( ( always_inline ) ) __STATIC_INLINE void __set_FAULTMASK(uint32_t faultMask)
 300:cube/Drivers/CMSIS/Include/cmsis_gcc.h **** {
 301:cube/Drivers/CMSIS/Include/cmsis_gcc.h ****   __ASM volatile ("MSR faultmask, %0" : : "r" (faultMask) : "memory");
 302:cube/Drivers/CMSIS/Include/cmsis_gcc.h **** }
 303:cube/Drivers/CMSIS/Include/cmsis_gcc.h **** 
 304:cube/Drivers/CMSIS/Include/cmsis_gcc.h **** #endif /* (__CORTEX_M >= 0x03U) */
 305:cube/Drivers/CMSIS/Include/cmsis_gcc.h **** 
 306:cube/Drivers/CMSIS/Include/cmsis_gcc.h **** 
 307:cube/Drivers/CMSIS/Include/cmsis_gcc.h **** #if       (__CORTEX_M == 0x04U) || (__CORTEX_M == 0x07U)
 308:cube/Drivers/CMSIS/Include/cmsis_gcc.h **** 
 309:cube/Drivers/CMSIS/Include/cmsis_gcc.h **** /**
 310:cube/Drivers/CMSIS/Include/cmsis_gcc.h ****   \brief   Get FPSCR
 311:cube/Drivers/CMSIS/Include/cmsis_gcc.h ****   \details Returns the current value of the Floating Point Status/Control register.
 312:cube/Drivers/CMSIS/Include/cmsis_gcc.h ****   \return               Floating Point Status/Control register value
 313:cube/Drivers/CMSIS/Include/cmsis_gcc.h ****  */
 314:cube/Drivers/CMSIS/Include/cmsis_gcc.h **** __attribute__( ( always_inline ) ) __STATIC_INLINE uint32_t __get_FPSCR(void)
 315:cube/Drivers/CMSIS/Include/cmsis_gcc.h **** {
 316:cube/Drivers/CMSIS/Include/cmsis_gcc.h **** #if (__FPU_PRESENT == 1U) && (__FPU_USED == 1U)
 317:cube/Drivers/CMSIS/Include/cmsis_gcc.h ****   uint32_t result;
 318:cube/Drivers/CMSIS/Include/cmsis_gcc.h **** 
 319:cube/Drivers/CMSIS/Include/cmsis_gcc.h ****   /* Empty asm statement works as a scheduling barrier */
 320:cube/Drivers/CMSIS/Include/cmsis_gcc.h ****   __ASM volatile ("");
 321:cube/Drivers/CMSIS/Include/cmsis_gcc.h ****   __ASM volatile ("VMRS %0, fpscr" : "=r" (result) );
ARM GAS  C:\Users\Berbardo\AppData\Local\Temp\ccJ3NdKC.s 			page 32


 322:cube/Drivers/CMSIS/Include/cmsis_gcc.h ****   __ASM volatile ("");
 323:cube/Drivers/CMSIS/Include/cmsis_gcc.h ****   return(result);
 324:cube/Drivers/CMSIS/Include/cmsis_gcc.h **** #else
 325:cube/Drivers/CMSIS/Include/cmsis_gcc.h ****    return(0);
 326:cube/Drivers/CMSIS/Include/cmsis_gcc.h **** #endif
 327:cube/Drivers/CMSIS/Include/cmsis_gcc.h **** }
 328:cube/Drivers/CMSIS/Include/cmsis_gcc.h **** 
 329:cube/Drivers/CMSIS/Include/cmsis_gcc.h **** 
 330:cube/Drivers/CMSIS/Include/cmsis_gcc.h **** /**
 331:cube/Drivers/CMSIS/Include/cmsis_gcc.h ****   \brief   Set FPSCR
 332:cube/Drivers/CMSIS/Include/cmsis_gcc.h ****   \details Assigns the given value to the Floating Point Status/Control register.
 333:cube/Drivers/CMSIS/Include/cmsis_gcc.h ****   \param [in]    fpscr  Floating Point Status/Control value to set
 334:cube/Drivers/CMSIS/Include/cmsis_gcc.h ****  */
 335:cube/Drivers/CMSIS/Include/cmsis_gcc.h **** __attribute__( ( always_inline ) ) __STATIC_INLINE void __set_FPSCR(uint32_t fpscr)
 336:cube/Drivers/CMSIS/Include/cmsis_gcc.h **** {
 337:cube/Drivers/CMSIS/Include/cmsis_gcc.h **** #if (__FPU_PRESENT == 1U) && (__FPU_USED == 1U)
 338:cube/Drivers/CMSIS/Include/cmsis_gcc.h ****   /* Empty asm statement works as a scheduling barrier */
 339:cube/Drivers/CMSIS/Include/cmsis_gcc.h ****   __ASM volatile ("");
 340:cube/Drivers/CMSIS/Include/cmsis_gcc.h ****   __ASM volatile ("VMSR fpscr, %0" : : "r" (fpscr) : "vfpcc");
 341:cube/Drivers/CMSIS/Include/cmsis_gcc.h ****   __ASM volatile ("");
 342:cube/Drivers/CMSIS/Include/cmsis_gcc.h **** #endif
 343:cube/Drivers/CMSIS/Include/cmsis_gcc.h **** }
 344:cube/Drivers/CMSIS/Include/cmsis_gcc.h **** 
 345:cube/Drivers/CMSIS/Include/cmsis_gcc.h **** #endif /* (__CORTEX_M == 0x04U) || (__CORTEX_M == 0x07U) */
 346:cube/Drivers/CMSIS/Include/cmsis_gcc.h **** 
 347:cube/Drivers/CMSIS/Include/cmsis_gcc.h **** 
 348:cube/Drivers/CMSIS/Include/cmsis_gcc.h **** 
 349:cube/Drivers/CMSIS/Include/cmsis_gcc.h **** /*@} end of CMSIS_Core_RegAccFunctions */
 350:cube/Drivers/CMSIS/Include/cmsis_gcc.h **** 
 351:cube/Drivers/CMSIS/Include/cmsis_gcc.h **** 
 352:cube/Drivers/CMSIS/Include/cmsis_gcc.h **** /* ##########################  Core Instruction Access  ######################### */
 353:cube/Drivers/CMSIS/Include/cmsis_gcc.h **** /** \defgroup CMSIS_Core_InstructionInterface CMSIS Core Instruction Interface
 354:cube/Drivers/CMSIS/Include/cmsis_gcc.h ****   Access to dedicated instructions
 355:cube/Drivers/CMSIS/Include/cmsis_gcc.h ****   @{
 356:cube/Drivers/CMSIS/Include/cmsis_gcc.h **** */
 357:cube/Drivers/CMSIS/Include/cmsis_gcc.h **** 
 358:cube/Drivers/CMSIS/Include/cmsis_gcc.h **** /* Define macros for porting to both thumb1 and thumb2.
 359:cube/Drivers/CMSIS/Include/cmsis_gcc.h ****  * For thumb1, use low register (r0-r7), specified by constraint "l"
 360:cube/Drivers/CMSIS/Include/cmsis_gcc.h ****  * Otherwise, use general registers, specified by constraint "r" */
 361:cube/Drivers/CMSIS/Include/cmsis_gcc.h **** #if defined (__thumb__) && !defined (__thumb2__)
 362:cube/Drivers/CMSIS/Include/cmsis_gcc.h **** #define __CMSIS_GCC_OUT_REG(r) "=l" (r)
 363:cube/Drivers/CMSIS/Include/cmsis_gcc.h **** #define __CMSIS_GCC_USE_REG(r) "l" (r)
 364:cube/Drivers/CMSIS/Include/cmsis_gcc.h **** #else
 365:cube/Drivers/CMSIS/Include/cmsis_gcc.h **** #define __CMSIS_GCC_OUT_REG(r) "=r" (r)
 366:cube/Drivers/CMSIS/Include/cmsis_gcc.h **** #define __CMSIS_GCC_USE_REG(r) "r" (r)
 367:cube/Drivers/CMSIS/Include/cmsis_gcc.h **** #endif
 368:cube/Drivers/CMSIS/Include/cmsis_gcc.h **** 
 369:cube/Drivers/CMSIS/Include/cmsis_gcc.h **** /**
 370:cube/Drivers/CMSIS/Include/cmsis_gcc.h ****   \brief   No Operation
 371:cube/Drivers/CMSIS/Include/cmsis_gcc.h ****   \details No Operation does nothing. This instruction can be used for code alignment purposes.
 372:cube/Drivers/CMSIS/Include/cmsis_gcc.h ****  */
 373:cube/Drivers/CMSIS/Include/cmsis_gcc.h **** __attribute__((always_inline)) __STATIC_INLINE void __NOP(void)
 374:cube/Drivers/CMSIS/Include/cmsis_gcc.h **** {
 375:cube/Drivers/CMSIS/Include/cmsis_gcc.h ****   __ASM volatile ("nop");
 376:cube/Drivers/CMSIS/Include/cmsis_gcc.h **** }
 377:cube/Drivers/CMSIS/Include/cmsis_gcc.h **** 
 378:cube/Drivers/CMSIS/Include/cmsis_gcc.h **** 
ARM GAS  C:\Users\Berbardo\AppData\Local\Temp\ccJ3NdKC.s 			page 33


 379:cube/Drivers/CMSIS/Include/cmsis_gcc.h **** /**
 380:cube/Drivers/CMSIS/Include/cmsis_gcc.h ****   \brief   Wait For Interrupt
 381:cube/Drivers/CMSIS/Include/cmsis_gcc.h ****   \details Wait For Interrupt is a hint instruction that suspends execution until one of a number o
 382:cube/Drivers/CMSIS/Include/cmsis_gcc.h ****  */
 383:cube/Drivers/CMSIS/Include/cmsis_gcc.h **** __attribute__((always_inline)) __STATIC_INLINE void __WFI(void)
 384:cube/Drivers/CMSIS/Include/cmsis_gcc.h **** {
 385:cube/Drivers/CMSIS/Include/cmsis_gcc.h ****   __ASM volatile ("wfi");
 386:cube/Drivers/CMSIS/Include/cmsis_gcc.h **** }
 387:cube/Drivers/CMSIS/Include/cmsis_gcc.h **** 
 388:cube/Drivers/CMSIS/Include/cmsis_gcc.h **** 
 389:cube/Drivers/CMSIS/Include/cmsis_gcc.h **** /**
 390:cube/Drivers/CMSIS/Include/cmsis_gcc.h ****   \brief   Wait For Event
 391:cube/Drivers/CMSIS/Include/cmsis_gcc.h ****   \details Wait For Event is a hint instruction that permits the processor to enter
 392:cube/Drivers/CMSIS/Include/cmsis_gcc.h ****     a low-power state until one of a number of events occurs.
 393:cube/Drivers/CMSIS/Include/cmsis_gcc.h ****  */
 394:cube/Drivers/CMSIS/Include/cmsis_gcc.h **** __attribute__((always_inline)) __STATIC_INLINE void __WFE(void)
 395:cube/Drivers/CMSIS/Include/cmsis_gcc.h **** {
 396:cube/Drivers/CMSIS/Include/cmsis_gcc.h ****   __ASM volatile ("wfe");
 397:cube/Drivers/CMSIS/Include/cmsis_gcc.h **** }
 398:cube/Drivers/CMSIS/Include/cmsis_gcc.h **** 
 399:cube/Drivers/CMSIS/Include/cmsis_gcc.h **** 
 400:cube/Drivers/CMSIS/Include/cmsis_gcc.h **** /**
 401:cube/Drivers/CMSIS/Include/cmsis_gcc.h ****   \brief   Send Event
 402:cube/Drivers/CMSIS/Include/cmsis_gcc.h ****   \details Send Event is a hint instruction. It causes an event to be signaled to the CPU.
 403:cube/Drivers/CMSIS/Include/cmsis_gcc.h ****  */
 404:cube/Drivers/CMSIS/Include/cmsis_gcc.h **** __attribute__((always_inline)) __STATIC_INLINE void __SEV(void)
 405:cube/Drivers/CMSIS/Include/cmsis_gcc.h **** {
 406:cube/Drivers/CMSIS/Include/cmsis_gcc.h ****   __ASM volatile ("sev");
 407:cube/Drivers/CMSIS/Include/cmsis_gcc.h **** }
 408:cube/Drivers/CMSIS/Include/cmsis_gcc.h **** 
 409:cube/Drivers/CMSIS/Include/cmsis_gcc.h **** 
 410:cube/Drivers/CMSIS/Include/cmsis_gcc.h **** /**
 411:cube/Drivers/CMSIS/Include/cmsis_gcc.h ****   \brief   Instruction Synchronization Barrier
 412:cube/Drivers/CMSIS/Include/cmsis_gcc.h ****   \details Instruction Synchronization Barrier flushes the pipeline in the processor,
 413:cube/Drivers/CMSIS/Include/cmsis_gcc.h ****            so that all instructions following the ISB are fetched from cache or memory,
 414:cube/Drivers/CMSIS/Include/cmsis_gcc.h ****            after the instruction has been completed.
 415:cube/Drivers/CMSIS/Include/cmsis_gcc.h ****  */
 416:cube/Drivers/CMSIS/Include/cmsis_gcc.h **** __attribute__((always_inline)) __STATIC_INLINE void __ISB(void)
 417:cube/Drivers/CMSIS/Include/cmsis_gcc.h **** {
 418:cube/Drivers/CMSIS/Include/cmsis_gcc.h ****   __ASM volatile ("isb 0xF":::"memory");
 419:cube/Drivers/CMSIS/Include/cmsis_gcc.h **** }
 420:cube/Drivers/CMSIS/Include/cmsis_gcc.h **** 
 421:cube/Drivers/CMSIS/Include/cmsis_gcc.h **** 
 422:cube/Drivers/CMSIS/Include/cmsis_gcc.h **** /**
 423:cube/Drivers/CMSIS/Include/cmsis_gcc.h ****   \brief   Data Synchronization Barrier
 424:cube/Drivers/CMSIS/Include/cmsis_gcc.h ****   \details Acts as a special kind of Data Memory Barrier.
 425:cube/Drivers/CMSIS/Include/cmsis_gcc.h ****            It completes when all explicit memory accesses before this instruction complete.
 426:cube/Drivers/CMSIS/Include/cmsis_gcc.h ****  */
 427:cube/Drivers/CMSIS/Include/cmsis_gcc.h **** __attribute__((always_inline)) __STATIC_INLINE void __DSB(void)
 428:cube/Drivers/CMSIS/Include/cmsis_gcc.h **** {
 429:cube/Drivers/CMSIS/Include/cmsis_gcc.h ****   __ASM volatile ("dsb 0xF":::"memory");
 430:cube/Drivers/CMSIS/Include/cmsis_gcc.h **** }
 431:cube/Drivers/CMSIS/Include/cmsis_gcc.h **** 
 432:cube/Drivers/CMSIS/Include/cmsis_gcc.h **** 
 433:cube/Drivers/CMSIS/Include/cmsis_gcc.h **** /**
 434:cube/Drivers/CMSIS/Include/cmsis_gcc.h ****   \brief   Data Memory Barrier
 435:cube/Drivers/CMSIS/Include/cmsis_gcc.h ****   \details Ensures the apparent order of the explicit memory operations before
ARM GAS  C:\Users\Berbardo\AppData\Local\Temp\ccJ3NdKC.s 			page 34


 436:cube/Drivers/CMSIS/Include/cmsis_gcc.h ****            and after the instruction, without ensuring their completion.
 437:cube/Drivers/CMSIS/Include/cmsis_gcc.h ****  */
 438:cube/Drivers/CMSIS/Include/cmsis_gcc.h **** __attribute__((always_inline)) __STATIC_INLINE void __DMB(void)
 439:cube/Drivers/CMSIS/Include/cmsis_gcc.h **** {
 440:cube/Drivers/CMSIS/Include/cmsis_gcc.h ****   __ASM volatile ("dmb 0xF":::"memory");
 441:cube/Drivers/CMSIS/Include/cmsis_gcc.h **** }
 442:cube/Drivers/CMSIS/Include/cmsis_gcc.h **** 
 443:cube/Drivers/CMSIS/Include/cmsis_gcc.h **** 
 444:cube/Drivers/CMSIS/Include/cmsis_gcc.h **** /**
 445:cube/Drivers/CMSIS/Include/cmsis_gcc.h ****   \brief   Reverse byte order (32 bit)
 446:cube/Drivers/CMSIS/Include/cmsis_gcc.h ****   \details Reverses the byte order in integer value.
 447:cube/Drivers/CMSIS/Include/cmsis_gcc.h ****   \param [in]    value  Value to reverse
 448:cube/Drivers/CMSIS/Include/cmsis_gcc.h ****   \return               Reversed value
 449:cube/Drivers/CMSIS/Include/cmsis_gcc.h ****  */
 450:cube/Drivers/CMSIS/Include/cmsis_gcc.h **** __attribute__((always_inline)) __STATIC_INLINE uint32_t __REV(uint32_t value)
 451:cube/Drivers/CMSIS/Include/cmsis_gcc.h **** {
 452:cube/Drivers/CMSIS/Include/cmsis_gcc.h **** #if (__GNUC__ > 4) || (__GNUC__ == 4 && __GNUC_MINOR__ >= 5)
 453:cube/Drivers/CMSIS/Include/cmsis_gcc.h ****   return __builtin_bswap32(value);
 454:cube/Drivers/CMSIS/Include/cmsis_gcc.h **** #else
 455:cube/Drivers/CMSIS/Include/cmsis_gcc.h ****   uint32_t result;
 456:cube/Drivers/CMSIS/Include/cmsis_gcc.h **** 
 457:cube/Drivers/CMSIS/Include/cmsis_gcc.h ****   __ASM volatile ("rev %0, %1" : __CMSIS_GCC_OUT_REG (result) : __CMSIS_GCC_USE_REG (value) );
 458:cube/Drivers/CMSIS/Include/cmsis_gcc.h ****   return(result);
 459:cube/Drivers/CMSIS/Include/cmsis_gcc.h **** #endif
 460:cube/Drivers/CMSIS/Include/cmsis_gcc.h **** }
 461:cube/Drivers/CMSIS/Include/cmsis_gcc.h **** 
 462:cube/Drivers/CMSIS/Include/cmsis_gcc.h **** 
 463:cube/Drivers/CMSIS/Include/cmsis_gcc.h **** /**
 464:cube/Drivers/CMSIS/Include/cmsis_gcc.h ****   \brief   Reverse byte order (16 bit)
 465:cube/Drivers/CMSIS/Include/cmsis_gcc.h ****   \details Reverses the byte order in two unsigned short values.
 466:cube/Drivers/CMSIS/Include/cmsis_gcc.h ****   \param [in]    value  Value to reverse
 467:cube/Drivers/CMSIS/Include/cmsis_gcc.h ****   \return               Reversed value
 468:cube/Drivers/CMSIS/Include/cmsis_gcc.h ****  */
 469:cube/Drivers/CMSIS/Include/cmsis_gcc.h **** __attribute__((always_inline)) __STATIC_INLINE uint32_t __REV16(uint32_t value)
 470:cube/Drivers/CMSIS/Include/cmsis_gcc.h **** {
 471:cube/Drivers/CMSIS/Include/cmsis_gcc.h ****   uint32_t result;
 472:cube/Drivers/CMSIS/Include/cmsis_gcc.h **** 
 473:cube/Drivers/CMSIS/Include/cmsis_gcc.h ****   __ASM volatile ("rev16 %0, %1" : __CMSIS_GCC_OUT_REG (result) : __CMSIS_GCC_USE_REG (value) );
 474:cube/Drivers/CMSIS/Include/cmsis_gcc.h ****   return(result);
 475:cube/Drivers/CMSIS/Include/cmsis_gcc.h **** }
 476:cube/Drivers/CMSIS/Include/cmsis_gcc.h **** 
 477:cube/Drivers/CMSIS/Include/cmsis_gcc.h **** 
 478:cube/Drivers/CMSIS/Include/cmsis_gcc.h **** /**
 479:cube/Drivers/CMSIS/Include/cmsis_gcc.h ****   \brief   Reverse byte order in signed short value
 480:cube/Drivers/CMSIS/Include/cmsis_gcc.h ****   \details Reverses the byte order in a signed short value with sign extension to integer.
 481:cube/Drivers/CMSIS/Include/cmsis_gcc.h ****   \param [in]    value  Value to reverse
 482:cube/Drivers/CMSIS/Include/cmsis_gcc.h ****   \return               Reversed value
 483:cube/Drivers/CMSIS/Include/cmsis_gcc.h ****  */
 484:cube/Drivers/CMSIS/Include/cmsis_gcc.h **** __attribute__((always_inline)) __STATIC_INLINE int32_t __REVSH(int32_t value)
 485:cube/Drivers/CMSIS/Include/cmsis_gcc.h **** {
 486:cube/Drivers/CMSIS/Include/cmsis_gcc.h **** #if (__GNUC__ > 4) || (__GNUC__ == 4 && __GNUC_MINOR__ >= 8)
 487:cube/Drivers/CMSIS/Include/cmsis_gcc.h ****   return (short)__builtin_bswap16(value);
 488:cube/Drivers/CMSIS/Include/cmsis_gcc.h **** #else
 489:cube/Drivers/CMSIS/Include/cmsis_gcc.h ****   int32_t result;
 490:cube/Drivers/CMSIS/Include/cmsis_gcc.h **** 
 491:cube/Drivers/CMSIS/Include/cmsis_gcc.h ****   __ASM volatile ("revsh %0, %1" : __CMSIS_GCC_OUT_REG (result) : __CMSIS_GCC_USE_REG (value) );
 492:cube/Drivers/CMSIS/Include/cmsis_gcc.h ****   return(result);
ARM GAS  C:\Users\Berbardo\AppData\Local\Temp\ccJ3NdKC.s 			page 35


 493:cube/Drivers/CMSIS/Include/cmsis_gcc.h **** #endif
 494:cube/Drivers/CMSIS/Include/cmsis_gcc.h **** }
 495:cube/Drivers/CMSIS/Include/cmsis_gcc.h **** 
 496:cube/Drivers/CMSIS/Include/cmsis_gcc.h **** 
 497:cube/Drivers/CMSIS/Include/cmsis_gcc.h **** /**
 498:cube/Drivers/CMSIS/Include/cmsis_gcc.h ****   \brief   Rotate Right in unsigned value (32 bit)
 499:cube/Drivers/CMSIS/Include/cmsis_gcc.h ****   \details Rotate Right (immediate) provides the value of the contents of a register rotated by a v
 500:cube/Drivers/CMSIS/Include/cmsis_gcc.h ****   \param [in]    value  Value to rotate
 501:cube/Drivers/CMSIS/Include/cmsis_gcc.h ****   \param [in]    value  Number of Bits to rotate
 502:cube/Drivers/CMSIS/Include/cmsis_gcc.h ****   \return               Rotated value
 503:cube/Drivers/CMSIS/Include/cmsis_gcc.h ****  */
 504:cube/Drivers/CMSIS/Include/cmsis_gcc.h **** __attribute__((always_inline)) __STATIC_INLINE uint32_t __ROR(uint32_t op1, uint32_t op2)
 505:cube/Drivers/CMSIS/Include/cmsis_gcc.h **** {
 506:cube/Drivers/CMSIS/Include/cmsis_gcc.h ****   return (op1 >> op2) | (op1 << (32U - op2));
 507:cube/Drivers/CMSIS/Include/cmsis_gcc.h **** }
 508:cube/Drivers/CMSIS/Include/cmsis_gcc.h **** 
 509:cube/Drivers/CMSIS/Include/cmsis_gcc.h **** 
 510:cube/Drivers/CMSIS/Include/cmsis_gcc.h **** /**
 511:cube/Drivers/CMSIS/Include/cmsis_gcc.h ****   \brief   Breakpoint
 512:cube/Drivers/CMSIS/Include/cmsis_gcc.h ****   \details Causes the processor to enter Debug state.
 513:cube/Drivers/CMSIS/Include/cmsis_gcc.h ****            Debug tools can use this to investigate system state when the instruction at a particula
 514:cube/Drivers/CMSIS/Include/cmsis_gcc.h ****   \param [in]    value  is ignored by the processor.
 515:cube/Drivers/CMSIS/Include/cmsis_gcc.h ****                  If required, a debugger can use it to store additional information about the break
 516:cube/Drivers/CMSIS/Include/cmsis_gcc.h ****  */
 517:cube/Drivers/CMSIS/Include/cmsis_gcc.h **** #define __BKPT(value)                       __ASM volatile ("bkpt "#value)
 518:cube/Drivers/CMSIS/Include/cmsis_gcc.h **** 
 519:cube/Drivers/CMSIS/Include/cmsis_gcc.h **** 
 520:cube/Drivers/CMSIS/Include/cmsis_gcc.h **** /**
 521:cube/Drivers/CMSIS/Include/cmsis_gcc.h ****   \brief   Reverse bit order of value
 522:cube/Drivers/CMSIS/Include/cmsis_gcc.h ****   \details Reverses the bit order of the given value.
 523:cube/Drivers/CMSIS/Include/cmsis_gcc.h ****   \param [in]    value  Value to reverse
 524:cube/Drivers/CMSIS/Include/cmsis_gcc.h ****   \return               Reversed value
 525:cube/Drivers/CMSIS/Include/cmsis_gcc.h ****  */
 526:cube/Drivers/CMSIS/Include/cmsis_gcc.h **** __attribute__((always_inline)) __STATIC_INLINE uint32_t __RBIT(uint32_t value)
 431              		.loc 2 526 57 is_stmt 1 view .LVU99
 432              	.LBB9:
 527:cube/Drivers/CMSIS/Include/cmsis_gcc.h **** {
 528:cube/Drivers/CMSIS/Include/cmsis_gcc.h ****   uint32_t result;
 433              		.loc 2 528 3 view .LVU100
 529:cube/Drivers/CMSIS/Include/cmsis_gcc.h **** 
 530:cube/Drivers/CMSIS/Include/cmsis_gcc.h **** #if       (__CORTEX_M >= 0x03U) || (__CORTEX_SC >= 300U)
 531:cube/Drivers/CMSIS/Include/cmsis_gcc.h ****    __ASM volatile ("rbit %0, %1" : "=r" (result) : "r" (value) );
 434              		.loc 2 531 4 view .LVU101
 435 0008 4FF48073 		mov	r3, #256
 436              		.syntax unified
 437              	@ 531 "cube/Drivers/CMSIS/Include/cmsis_gcc.h" 1
 438 000c 93FAA3F3 		rbit r3, r3
 439              	@ 0 "" 2
 440              	.LVL32:
 532:cube/Drivers/CMSIS/Include/cmsis_gcc.h **** #else
 533:cube/Drivers/CMSIS/Include/cmsis_gcc.h ****   int32_t s = 4 /*sizeof(v)*/ * 8 - 1; /* extra shift needed at end */
 534:cube/Drivers/CMSIS/Include/cmsis_gcc.h **** 
 535:cube/Drivers/CMSIS/Include/cmsis_gcc.h ****   result = value;                      /* r will be reversed bits of v; first get LSB of v */
 536:cube/Drivers/CMSIS/Include/cmsis_gcc.h ****   for (value >>= 1U; value; value >>= 1U)
 537:cube/Drivers/CMSIS/Include/cmsis_gcc.h ****   {
 538:cube/Drivers/CMSIS/Include/cmsis_gcc.h ****     result <<= 1U;
 539:cube/Drivers/CMSIS/Include/cmsis_gcc.h ****     result |= value & 1U;
ARM GAS  C:\Users\Berbardo\AppData\Local\Temp\ccJ3NdKC.s 			page 36


 540:cube/Drivers/CMSIS/Include/cmsis_gcc.h ****     s--;
 541:cube/Drivers/CMSIS/Include/cmsis_gcc.h ****   }
 542:cube/Drivers/CMSIS/Include/cmsis_gcc.h ****   result <<= s;                        /* shift when v's highest bits are zero */
 543:cube/Drivers/CMSIS/Include/cmsis_gcc.h **** #endif
 544:cube/Drivers/CMSIS/Include/cmsis_gcc.h ****   return(result);
 441              		.loc 2 544 3 view .LVU102
 442              		.loc 2 544 3 is_stmt 0 view .LVU103
 443              		.thumb
 444              		.syntax unified
 445              	.LBE9:
 446              	.LBE8:
 447              		.loc 1 955 63 view .LVU104
 448 0010 B3FA83F3 		clz	r3, r3
 449              		.loc 1 955 60 view .LVU105
 450 0014 D840     		lsrs	r0, r0, r3
 956:cube/Drivers/STM32F3xx_HAL_Driver/Src/stm32f3xx_hal_flash_ex.c **** }
 451              		.loc 1 956 1 view .LVU106
 452 0016 C0B2     		uxtb	r0, r0
 453 0018 7047     		bx	lr
 454              	.L34:
 455 001a 00BF     		.align	2
 456              	.L33:
 457 001c 00200240 		.word	1073881088
 458              		.cfi_endproc
 459              	.LFE140:
 461              		.section	.text.HAL_FLASHEx_OBErase,"ax",%progbits
 462              		.align	1
 463              		.global	HAL_FLASHEx_OBErase
 464              		.syntax unified
 465              		.thumb
 466              		.thumb_func
 467              		.fpu fpv4-sp-d16
 469              	HAL_FLASHEx_OBErase:
 470              	.LFB128:
 330:cube/Drivers/STM32F3xx_HAL_Driver/Src/stm32f3xx_hal_flash_ex.c ****   uint8_t rdptmp = OB_RDP_LEVEL_0;
 471              		.loc 1 330 1 is_stmt 1 view -0
 472              		.cfi_startproc
 473              		@ args = 0, pretend = 0, frame = 0
 474              		@ frame_needed = 0, uses_anonymous_args = 0
 475 0000 38B5     		push	{r3, r4, r5, lr}
 476              		.cfi_def_cfa_offset 16
 477              		.cfi_offset 3, -16
 478              		.cfi_offset 4, -12
 479              		.cfi_offset 5, -8
 480              		.cfi_offset 14, -4
 331:cube/Drivers/STM32F3xx_HAL_Driver/Src/stm32f3xx_hal_flash_ex.c ****   HAL_StatusTypeDef status = HAL_ERROR;
 481              		.loc 1 331 3 view .LVU108
 482              	.LVL33:
 332:cube/Drivers/STM32F3xx_HAL_Driver/Src/stm32f3xx_hal_flash_ex.c **** 
 483              		.loc 1 332 3 view .LVU109
 335:cube/Drivers/STM32F3xx_HAL_Driver/Src/stm32f3xx_hal_flash_ex.c **** 
 484              		.loc 1 335 3 view .LVU110
 335:cube/Drivers/STM32F3xx_HAL_Driver/Src/stm32f3xx_hal_flash_ex.c **** 
 485              		.loc 1 335 12 is_stmt 0 view .LVU111
 486 0002 FFF7FEFF 		bl	FLASH_OB_GetRDP
 487              	.LVL34:
 335:cube/Drivers/STM32F3xx_HAL_Driver/Src/stm32f3xx_hal_flash_ex.c **** 
ARM GAS  C:\Users\Berbardo\AppData\Local\Temp\ccJ3NdKC.s 			page 37


 488              		.loc 1 335 10 view .LVU112
 489 0006 C5B2     		uxtb	r5, r0
 490              	.LVL35:
 338:cube/Drivers/STM32F3xx_HAL_Driver/Src/stm32f3xx_hal_flash_ex.c **** 
 491              		.loc 1 338 3 is_stmt 1 view .LVU113
 338:cube/Drivers/STM32F3xx_HAL_Driver/Src/stm32f3xx_hal_flash_ex.c **** 
 492              		.loc 1 338 12 is_stmt 0 view .LVU114
 493 0008 4CF25030 		movw	r0, #50000
 494 000c FFF7FEFF 		bl	FLASH_WaitForLastOperation
 495              	.LVL36:
 340:cube/Drivers/STM32F3xx_HAL_Driver/Src/stm32f3xx_hal_flash_ex.c ****   {
 496              		.loc 1 340 3 is_stmt 1 view .LVU115
 340:cube/Drivers/STM32F3xx_HAL_Driver/Src/stm32f3xx_hal_flash_ex.c ****   {
 497              		.loc 1 340 5 is_stmt 0 view .LVU116
 498 0010 0346     		mov	r3, r0
 499 0012 08B1     		cbz	r0, .L38
 500              	.LVL37:
 501              	.L36:
 363:cube/Drivers/STM32F3xx_HAL_Driver/Src/stm32f3xx_hal_flash_ex.c **** }
 502              		.loc 1 363 3 is_stmt 1 view .LVU117
 364:cube/Drivers/STM32F3xx_HAL_Driver/Src/stm32f3xx_hal_flash_ex.c **** 
 503              		.loc 1 364 1 is_stmt 0 view .LVU118
 504 0014 1846     		mov	r0, r3
 505 0016 38BD     		pop	{r3, r4, r5, pc}
 506              	.LVL38:
 507              	.L38:
 343:cube/Drivers/STM32F3xx_HAL_Driver/Src/stm32f3xx_hal_flash_ex.c **** 
 508              		.loc 1 343 5 is_stmt 1 view .LVU119
 343:cube/Drivers/STM32F3xx_HAL_Driver/Src/stm32f3xx_hal_flash_ex.c **** 
 509              		.loc 1 343 22 is_stmt 0 view .LVU120
 510 0018 0D4B     		ldr	r3, .L39
 511 001a 0022     		movs	r2, #0
 512 001c DA61     		str	r2, [r3, #28]
 346:cube/Drivers/STM32F3xx_HAL_Driver/Src/stm32f3xx_hal_flash_ex.c ****     SET_BIT(FLASH->CR, FLASH_CR_STRT);
 513              		.loc 1 346 5 is_stmt 1 view .LVU121
 514 001e 0D4C     		ldr	r4, .L39+4
 515 0020 2369     		ldr	r3, [r4, #16]
 516 0022 43F02003 		orr	r3, r3, #32
 517 0026 2361     		str	r3, [r4, #16]
 347:cube/Drivers/STM32F3xx_HAL_Driver/Src/stm32f3xx_hal_flash_ex.c **** 
 518              		.loc 1 347 5 view .LVU122
 519 0028 2369     		ldr	r3, [r4, #16]
 520 002a 43F04003 		orr	r3, r3, #64
 521 002e 2361     		str	r3, [r4, #16]
 350:cube/Drivers/STM32F3xx_HAL_Driver/Src/stm32f3xx_hal_flash_ex.c **** 
 522              		.loc 1 350 5 view .LVU123
 350:cube/Drivers/STM32F3xx_HAL_Driver/Src/stm32f3xx_hal_flash_ex.c **** 
 523              		.loc 1 350 14 is_stmt 0 view .LVU124
 524 0030 4CF25030 		movw	r0, #50000
 525              	.LVL39:
 350:cube/Drivers/STM32F3xx_HAL_Driver/Src/stm32f3xx_hal_flash_ex.c **** 
 526              		.loc 1 350 14 view .LVU125
 527 0034 FFF7FEFF 		bl	FLASH_WaitForLastOperation
 528              	.LVL40:
 353:cube/Drivers/STM32F3xx_HAL_Driver/Src/stm32f3xx_hal_flash_ex.c **** 
 529              		.loc 1 353 5 is_stmt 1 view .LVU126
 530 0038 2369     		ldr	r3, [r4, #16]
ARM GAS  C:\Users\Berbardo\AppData\Local\Temp\ccJ3NdKC.s 			page 38


 531 003a 23F02003 		bic	r3, r3, #32
 532 003e 2361     		str	r3, [r4, #16]
 355:cube/Drivers/STM32F3xx_HAL_Driver/Src/stm32f3xx_hal_flash_ex.c ****     {
 533              		.loc 1 355 5 view .LVU127
 355:cube/Drivers/STM32F3xx_HAL_Driver/Src/stm32f3xx_hal_flash_ex.c ****     {
 534              		.loc 1 355 7 is_stmt 0 view .LVU128
 535 0040 0346     		mov	r3, r0
 536 0042 0028     		cmp	r0, #0
 537 0044 E6D1     		bne	.L36
 358:cube/Drivers/STM32F3xx_HAL_Driver/Src/stm32f3xx_hal_flash_ex.c ****     }
 538              		.loc 1 358 7 is_stmt 1 view .LVU129
 358:cube/Drivers/STM32F3xx_HAL_Driver/Src/stm32f3xx_hal_flash_ex.c ****     }
 539              		.loc 1 358 16 is_stmt 0 view .LVU130
 540 0046 2846     		mov	r0, r5
 541              	.LVL41:
 358:cube/Drivers/STM32F3xx_HAL_Driver/Src/stm32f3xx_hal_flash_ex.c ****     }
 542              		.loc 1 358 16 view .LVU131
 543 0048 FFF7FEFF 		bl	FLASH_OB_RDP_LevelConfig
 544              	.LVL42:
 545 004c 0346     		mov	r3, r0
 546              	.LVL43:
 358:cube/Drivers/STM32F3xx_HAL_Driver/Src/stm32f3xx_hal_flash_ex.c ****     }
 547              		.loc 1 358 16 view .LVU132
 548 004e E1E7     		b	.L36
 549              	.L40:
 550              		.align	2
 551              	.L39:
 552 0050 00000000 		.word	pFlash
 553 0054 00200240 		.word	1073881088
 554              		.cfi_endproc
 555              	.LFE128:
 557              		.section	.text.FLASH_OB_EnableWRP,"ax",%progbits
 558              		.align	1
 559              		.syntax unified
 560              		.thumb
 561              		.thumb_func
 562              		.fpu fpv4-sp-d16
 564              	FLASH_OB_EnableWRP:
 565              	.LVL44:
 566              	.LFB133:
 538:cube/Drivers/STM32F3xx_HAL_Driver/Src/stm32f3xx_hal_flash_ex.c ****   HAL_StatusTypeDef status = HAL_OK;
 567              		.loc 1 538 1 is_stmt 1 view -0
 568              		.cfi_startproc
 569              		@ args = 0, pretend = 0, frame = 0
 570              		@ frame_needed = 0, uses_anonymous_args = 0
 538:cube/Drivers/STM32F3xx_HAL_Driver/Src/stm32f3xx_hal_flash_ex.c ****   HAL_StatusTypeDef status = HAL_OK;
 571              		.loc 1 538 1 is_stmt 0 view .LVU134
 572 0000 F8B5     		push	{r3, r4, r5, r6, r7, lr}
 573              		.cfi_def_cfa_offset 24
 574              		.cfi_offset 3, -24
 575              		.cfi_offset 4, -20
 576              		.cfi_offset 5, -16
 577              		.cfi_offset 6, -12
 578              		.cfi_offset 7, -8
 579              		.cfi_offset 14, -4
 580 0002 0446     		mov	r4, r0
 539:cube/Drivers/STM32F3xx_HAL_Driver/Src/stm32f3xx_hal_flash_ex.c ****   uint16_t WRP0_Data = 0xFFFFU;
ARM GAS  C:\Users\Berbardo\AppData\Local\Temp\ccJ3NdKC.s 			page 39


 581              		.loc 1 539 3 is_stmt 1 view .LVU135
 582              	.LVL45:
 540:cube/Drivers/STM32F3xx_HAL_Driver/Src/stm32f3xx_hal_flash_ex.c **** #if defined(OB_WRP1_WRP1)
 583              		.loc 1 540 3 view .LVU136
 542:cube/Drivers/STM32F3xx_HAL_Driver/Src/stm32f3xx_hal_flash_ex.c **** #endif /* OB_WRP1_WRP1 */
 584              		.loc 1 542 3 view .LVU137
 545:cube/Drivers/STM32F3xx_HAL_Driver/Src/stm32f3xx_hal_flash_ex.c **** #endif /* OB_WRP2_WRP2 */
 585              		.loc 1 545 3 view .LVU138
 548:cube/Drivers/STM32F3xx_HAL_Driver/Src/stm32f3xx_hal_flash_ex.c **** #endif /* OB_WRP3_WRP3 */
 586              		.loc 1 548 3 view .LVU139
 552:cube/Drivers/STM32F3xx_HAL_Driver/Src/stm32f3xx_hal_flash_ex.c ****     
 587              		.loc 1 552 3 view .LVU140
 555:cube/Drivers/STM32F3xx_HAL_Driver/Src/stm32f3xx_hal_flash_ex.c ****   
 588              		.loc 1 555 3 view .LVU141
 555:cube/Drivers/STM32F3xx_HAL_Driver/Src/stm32f3xx_hal_flash_ex.c ****   
 589              		.loc 1 555 37 is_stmt 0 view .LVU142
 590 0004 FFF7FEFF 		bl	FLASH_OB_GetWRP
 591              	.LVL46:
 555:cube/Drivers/STM32F3xx_HAL_Driver/Src/stm32f3xx_hal_flash_ex.c ****   
 592              		.loc 1 555 20 view .LVU143
 593 0008 20EA0404 		bic	r4, r0, r4
 594              	.LVL47:
 558:cube/Drivers/STM32F3xx_HAL_Driver/Src/stm32f3xx_hal_flash_ex.c **** #endif /* OB_WRP_PAGES0TO31MASK */
 595              		.loc 1 558 3 is_stmt 1 view .LVU144
 562:cube/Drivers/STM32F3xx_HAL_Driver/Src/stm32f3xx_hal_flash_ex.c **** #endif /* OB_WRP_PAGES32TO63MASK */
 596              		.loc 1 562 3 view .LVU145
 562:cube/Drivers/STM32F3xx_HAL_Driver/Src/stm32f3xx_hal_flash_ex.c **** #endif /* OB_WRP_PAGES32TO63MASK */
 597              		.loc 1 562 13 is_stmt 0 view .LVU146
 598 000c C4F30727 		ubfx	r7, r4, #8, #8
 599              	.LVL48:
 566:cube/Drivers/STM32F3xx_HAL_Driver/Src/stm32f3xx_hal_flash_ex.c **** #endif /* OB_WRP_PAGES32TO47MASK */
 600              		.loc 1 566 3 is_stmt 1 view .LVU147
 566:cube/Drivers/STM32F3xx_HAL_Driver/Src/stm32f3xx_hal_flash_ex.c **** #endif /* OB_WRP_PAGES32TO47MASK */
 601              		.loc 1 566 13 is_stmt 0 view .LVU148
 602 0010 C4F30746 		ubfx	r6, r4, #16, #8
 603              	.LVL49:
 572:cube/Drivers/STM32F3xx_HAL_Driver/Src/stm32f3xx_hal_flash_ex.c **** #endif /* OB_WRP_PAGES48TO63MASK */
 604              		.loc 1 572 3 is_stmt 1 view .LVU149
 576:cube/Drivers/STM32F3xx_HAL_Driver/Src/stm32f3xx_hal_flash_ex.c **** 
 605              		.loc 1 576 3 view .LVU150
 576:cube/Drivers/STM32F3xx_HAL_Driver/Src/stm32f3xx_hal_flash_ex.c **** 
 606              		.loc 1 576 12 is_stmt 0 view .LVU151
 607 0014 4CF25030 		movw	r0, #50000
 608 0018 FFF7FEFF 		bl	FLASH_WaitForLastOperation
 609              	.LVL50:
 578:cube/Drivers/STM32F3xx_HAL_Driver/Src/stm32f3xx_hal_flash_ex.c ****   { 
 610              		.loc 1 578 3 is_stmt 1 view .LVU152
 578:cube/Drivers/STM32F3xx_HAL_Driver/Src/stm32f3xx_hal_flash_ex.c ****   { 
 611              		.loc 1 578 5 is_stmt 0 view .LVU153
 612 001c 0346     		mov	r3, r0
 613 001e 08B1     		cbz	r0, .L48
 614              	.LVL51:
 615              	.L42:
 635:cube/Drivers/STM32F3xx_HAL_Driver/Src/stm32f3xx_hal_flash_ex.c **** }
 616              		.loc 1 635 3 is_stmt 1 view .LVU154
 636:cube/Drivers/STM32F3xx_HAL_Driver/Src/stm32f3xx_hal_flash_ex.c **** 
 617              		.loc 1 636 1 is_stmt 0 view .LVU155
ARM GAS  C:\Users\Berbardo\AppData\Local\Temp\ccJ3NdKC.s 			page 40


 618 0020 1846     		mov	r0, r3
 619 0022 F8BD     		pop	{r3, r4, r5, r6, r7, pc}
 620              	.LVL52:
 621              	.L48:
 636:cube/Drivers/STM32F3xx_HAL_Driver/Src/stm32f3xx_hal_flash_ex.c **** 
 622              		.loc 1 636 1 view .LVU156
 623 0024 E5B2     		uxtb	r5, r4
 624 0026 240E     		lsrs	r4, r4, #24
 625              	.LVL53:
 581:cube/Drivers/STM32F3xx_HAL_Driver/Src/stm32f3xx_hal_flash_ex.c **** 
 626              		.loc 1 581 5 is_stmt 1 view .LVU157
 581:cube/Drivers/STM32F3xx_HAL_Driver/Src/stm32f3xx_hal_flash_ex.c **** 
 627              		.loc 1 581 22 is_stmt 0 view .LVU158
 628 0028 224B     		ldr	r3, .L53
 629 002a 0022     		movs	r2, #0
 630 002c DA61     		str	r2, [r3, #28]
 584:cube/Drivers/STM32F3xx_HAL_Driver/Src/stm32f3xx_hal_flash_ex.c ****     if (status == HAL_OK)  
 631              		.loc 1 584 5 is_stmt 1 view .LVU159
 584:cube/Drivers/STM32F3xx_HAL_Driver/Src/stm32f3xx_hal_flash_ex.c ****     if (status == HAL_OK)  
 632              		.loc 1 584 14 is_stmt 0 view .LVU160
 633 002e FFF7FEFF 		bl	HAL_FLASHEx_OBErase
 634              	.LVL54:
 585:cube/Drivers/STM32F3xx_HAL_Driver/Src/stm32f3xx_hal_flash_ex.c ****     {
 635              		.loc 1 585 5 is_stmt 1 view .LVU161
 585:cube/Drivers/STM32F3xx_HAL_Driver/Src/stm32f3xx_hal_flash_ex.c ****     {
 636              		.loc 1 585 8 is_stmt 0 view .LVU162
 637 0032 0346     		mov	r3, r0
 638 0034 0028     		cmp	r0, #0
 639 0036 F3D1     		bne	.L42
 588:cube/Drivers/STM32F3xx_HAL_Driver/Src/stm32f3xx_hal_flash_ex.c **** 
 640              		.loc 1 588 7 is_stmt 1 view .LVU163
 641 0038 1F49     		ldr	r1, .L53+4
 642 003a 0A69     		ldr	r2, [r1, #16]
 643 003c 42F01002 		orr	r2, r2, #16
 644 0040 0A61     		str	r2, [r1, #16]
 591:cube/Drivers/STM32F3xx_HAL_Driver/Src/stm32f3xx_hal_flash_ex.c ****       {
 645              		.loc 1 591 7 view .LVU164
 591:cube/Drivers/STM32F3xx_HAL_Driver/Src/stm32f3xx_hal_flash_ex.c ****       {
 646              		.loc 1 591 9 is_stmt 0 view .LVU165
 647 0042 FF2D     		cmp	r5, #255
 648 0044 0ED1     		bne	.L49
 649              	.LVL55:
 650              	.L43:
 601:cube/Drivers/STM32F3xx_HAL_Driver/Src/stm32f3xx_hal_flash_ex.c ****       {
 651              		.loc 1 601 7 is_stmt 1 view .LVU166
 601:cube/Drivers/STM32F3xx_HAL_Driver/Src/stm32f3xx_hal_flash_ex.c ****       {
 652              		.loc 1 601 9 is_stmt 0 view .LVU167
 653 0046 0BB9     		cbnz	r3, .L44
 601:cube/Drivers/STM32F3xx_HAL_Driver/Src/stm32f3xx_hal_flash_ex.c ****       {
 654              		.loc 1 601 29 discriminator 1 view .LVU168
 655 0048 FF2F     		cmp	r7, #255
 656 004a 15D1     		bne	.L50
 657              	.LVL56:
 658              	.L44:
 611:cube/Drivers/STM32F3xx_HAL_Driver/Src/stm32f3xx_hal_flash_ex.c ****       {
 659              		.loc 1 611 7 is_stmt 1 view .LVU169
 611:cube/Drivers/STM32F3xx_HAL_Driver/Src/stm32f3xx_hal_flash_ex.c ****       {
ARM GAS  C:\Users\Berbardo\AppData\Local\Temp\ccJ3NdKC.s 			page 41


 660              		.loc 1 611 9 is_stmt 0 view .LVU170
 661 004c 0BB9     		cbnz	r3, .L45
 611:cube/Drivers/STM32F3xx_HAL_Driver/Src/stm32f3xx_hal_flash_ex.c ****       {
 662              		.loc 1 611 29 discriminator 1 view .LVU171
 663 004e FF2E     		cmp	r6, #255
 664 0050 1CD1     		bne	.L51
 665              	.LVL57:
 666              	.L45:
 621:cube/Drivers/STM32F3xx_HAL_Driver/Src/stm32f3xx_hal_flash_ex.c ****       {
 667              		.loc 1 621 7 is_stmt 1 view .LVU172
 621:cube/Drivers/STM32F3xx_HAL_Driver/Src/stm32f3xx_hal_flash_ex.c ****       {
 668              		.loc 1 621 9 is_stmt 0 view .LVU173
 669 0052 0BB9     		cbnz	r3, .L46
 621:cube/Drivers/STM32F3xx_HAL_Driver/Src/stm32f3xx_hal_flash_ex.c ****       {
 670              		.loc 1 621 29 discriminator 1 view .LVU174
 671 0054 FF2C     		cmp	r4, #255
 672 0056 23D1     		bne	.L52
 673              	.L46:
 631:cube/Drivers/STM32F3xx_HAL_Driver/Src/stm32f3xx_hal_flash_ex.c ****     }
 674              		.loc 1 631 7 is_stmt 1 view .LVU175
 675 0058 1749     		ldr	r1, .L53+4
 676 005a 0A69     		ldr	r2, [r1, #16]
 677 005c 22F01002 		bic	r2, r2, #16
 678 0060 0A61     		str	r2, [r1, #16]
 679 0062 DDE7     		b	.L42
 680              	.LVL58:
 681              	.L49:
 593:cube/Drivers/STM32F3xx_HAL_Driver/Src/stm32f3xx_hal_flash_ex.c ****         
 682              		.loc 1 593 9 view .LVU176
 593:cube/Drivers/STM32F3xx_HAL_Driver/Src/stm32f3xx_hal_flash_ex.c ****         
 683              		.loc 1 593 18 is_stmt 0 view .LVU177
 684 0064 154B     		ldr	r3, .L53+8
 685 0066 1A89     		ldrh	r2, [r3, #8]
 686 0068 1540     		ands	r5, r5, r2
 687              	.LVL59:
 593:cube/Drivers/STM32F3xx_HAL_Driver/Src/stm32f3xx_hal_flash_ex.c ****         
 688              		.loc 1 593 18 view .LVU178
 689 006a 1D81     		strh	r5, [r3, #8]	@ movhi
 596:cube/Drivers/STM32F3xx_HAL_Driver/Src/stm32f3xx_hal_flash_ex.c ****       }
 690              		.loc 1 596 9 is_stmt 1 view .LVU179
 596:cube/Drivers/STM32F3xx_HAL_Driver/Src/stm32f3xx_hal_flash_ex.c ****       }
 691              		.loc 1 596 18 is_stmt 0 view .LVU180
 692 006c 4CF25030 		movw	r0, #50000
 693              	.LVL60:
 596:cube/Drivers/STM32F3xx_HAL_Driver/Src/stm32f3xx_hal_flash_ex.c ****       }
 694              		.loc 1 596 18 view .LVU181
 695 0070 FFF7FEFF 		bl	FLASH_WaitForLastOperation
 696              	.LVL61:
 697 0074 0346     		mov	r3, r0
 698              	.LVL62:
 596:cube/Drivers/STM32F3xx_HAL_Driver/Src/stm32f3xx_hal_flash_ex.c ****       }
 699              		.loc 1 596 18 view .LVU182
 700 0076 E6E7     		b	.L43
 701              	.L50:
 603:cube/Drivers/STM32F3xx_HAL_Driver/Src/stm32f3xx_hal_flash_ex.c ****         
 702              		.loc 1 603 9 is_stmt 1 view .LVU183
 603:cube/Drivers/STM32F3xx_HAL_Driver/Src/stm32f3xx_hal_flash_ex.c ****         
ARM GAS  C:\Users\Berbardo\AppData\Local\Temp\ccJ3NdKC.s 			page 42


 703              		.loc 1 603 18 is_stmt 0 view .LVU184
 704 0078 104B     		ldr	r3, .L53+8
 705              	.LVL63:
 603:cube/Drivers/STM32F3xx_HAL_Driver/Src/stm32f3xx_hal_flash_ex.c ****         
 706              		.loc 1 603 18 view .LVU185
 707 007a 5A89     		ldrh	r2, [r3, #10]
 708 007c 1740     		ands	r7, r7, r2
 709              	.LVL64:
 603:cube/Drivers/STM32F3xx_HAL_Driver/Src/stm32f3xx_hal_flash_ex.c ****         
 710              		.loc 1 603 18 view .LVU186
 711 007e 5F81     		strh	r7, [r3, #10]	@ movhi
 606:cube/Drivers/STM32F3xx_HAL_Driver/Src/stm32f3xx_hal_flash_ex.c ****       }
 712              		.loc 1 606 9 is_stmt 1 view .LVU187
 606:cube/Drivers/STM32F3xx_HAL_Driver/Src/stm32f3xx_hal_flash_ex.c ****       }
 713              		.loc 1 606 18 is_stmt 0 view .LVU188
 714 0080 4CF25030 		movw	r0, #50000
 715 0084 FFF7FEFF 		bl	FLASH_WaitForLastOperation
 716              	.LVL65:
 717 0088 0346     		mov	r3, r0
 718              	.LVL66:
 606:cube/Drivers/STM32F3xx_HAL_Driver/Src/stm32f3xx_hal_flash_ex.c ****       }
 719              		.loc 1 606 18 view .LVU189
 720 008a DFE7     		b	.L44
 721              	.L51:
 613:cube/Drivers/STM32F3xx_HAL_Driver/Src/stm32f3xx_hal_flash_ex.c ****         
 722              		.loc 1 613 9 is_stmt 1 view .LVU190
 613:cube/Drivers/STM32F3xx_HAL_Driver/Src/stm32f3xx_hal_flash_ex.c ****         
 723              		.loc 1 613 18 is_stmt 0 view .LVU191
 724 008c 0B4B     		ldr	r3, .L53+8
 725              	.LVL67:
 613:cube/Drivers/STM32F3xx_HAL_Driver/Src/stm32f3xx_hal_flash_ex.c ****         
 726              		.loc 1 613 18 view .LVU192
 727 008e 9A89     		ldrh	r2, [r3, #12]
 728 0090 1640     		ands	r6, r6, r2
 729              	.LVL68:
 613:cube/Drivers/STM32F3xx_HAL_Driver/Src/stm32f3xx_hal_flash_ex.c ****         
 730              		.loc 1 613 18 view .LVU193
 731 0092 9E81     		strh	r6, [r3, #12]	@ movhi
 616:cube/Drivers/STM32F3xx_HAL_Driver/Src/stm32f3xx_hal_flash_ex.c ****       }
 732              		.loc 1 616 9 is_stmt 1 view .LVU194
 616:cube/Drivers/STM32F3xx_HAL_Driver/Src/stm32f3xx_hal_flash_ex.c ****       }
 733              		.loc 1 616 18 is_stmt 0 view .LVU195
 734 0094 4CF25030 		movw	r0, #50000
 735 0098 FFF7FEFF 		bl	FLASH_WaitForLastOperation
 736              	.LVL69:
 737 009c 0346     		mov	r3, r0
 738              	.LVL70:
 616:cube/Drivers/STM32F3xx_HAL_Driver/Src/stm32f3xx_hal_flash_ex.c ****       }
 739              		.loc 1 616 18 view .LVU196
 740 009e D8E7     		b	.L45
 741              	.L52:
 623:cube/Drivers/STM32F3xx_HAL_Driver/Src/stm32f3xx_hal_flash_ex.c ****         
 742              		.loc 1 623 9 is_stmt 1 view .LVU197
 623:cube/Drivers/STM32F3xx_HAL_Driver/Src/stm32f3xx_hal_flash_ex.c ****         
 743              		.loc 1 623 18 is_stmt 0 view .LVU198
 744 00a0 064B     		ldr	r3, .L53+8
 745              	.LVL71:
ARM GAS  C:\Users\Berbardo\AppData\Local\Temp\ccJ3NdKC.s 			page 43


 623:cube/Drivers/STM32F3xx_HAL_Driver/Src/stm32f3xx_hal_flash_ex.c ****         
 746              		.loc 1 623 18 view .LVU199
 747 00a2 D889     		ldrh	r0, [r3, #14]
 748 00a4 2040     		ands	r0, r0, r4
 749 00a6 D881     		strh	r0, [r3, #14]	@ movhi
 626:cube/Drivers/STM32F3xx_HAL_Driver/Src/stm32f3xx_hal_flash_ex.c ****       }
 750              		.loc 1 626 9 is_stmt 1 view .LVU200
 626:cube/Drivers/STM32F3xx_HAL_Driver/Src/stm32f3xx_hal_flash_ex.c ****       }
 751              		.loc 1 626 18 is_stmt 0 view .LVU201
 752 00a8 4CF25030 		movw	r0, #50000
 753 00ac FFF7FEFF 		bl	FLASH_WaitForLastOperation
 754              	.LVL72:
 755 00b0 0346     		mov	r3, r0
 756              	.LVL73:
 626:cube/Drivers/STM32F3xx_HAL_Driver/Src/stm32f3xx_hal_flash_ex.c ****       }
 757              		.loc 1 626 18 view .LVU202
 758 00b2 D1E7     		b	.L46
 759              	.L54:
 760              		.align	2
 761              	.L53:
 762 00b4 00000000 		.word	pFlash
 763 00b8 00200240 		.word	1073881088
 764 00bc 00F8FF1F 		.word	536868864
 765              		.cfi_endproc
 766              	.LFE133:
 768              		.section	.text.FLASH_OB_DisableWRP,"ax",%progbits
 769              		.align	1
 770              		.syntax unified
 771              		.thumb
 772              		.thumb_func
 773              		.fpu fpv4-sp-d16
 775              	FLASH_OB_DisableWRP:
 776              	.LVL74:
 777              	.LFB134:
 650:cube/Drivers/STM32F3xx_HAL_Driver/Src/stm32f3xx_hal_flash_ex.c ****   HAL_StatusTypeDef status = HAL_OK;
 778              		.loc 1 650 1 is_stmt 1 view -0
 779              		.cfi_startproc
 780              		@ args = 0, pretend = 0, frame = 0
 781              		@ frame_needed = 0, uses_anonymous_args = 0
 650:cube/Drivers/STM32F3xx_HAL_Driver/Src/stm32f3xx_hal_flash_ex.c ****   HAL_StatusTypeDef status = HAL_OK;
 782              		.loc 1 650 1 is_stmt 0 view .LVU204
 783 0000 F8B5     		push	{r3, r4, r5, r6, r7, lr}
 784              		.cfi_def_cfa_offset 24
 785              		.cfi_offset 3, -24
 786              		.cfi_offset 4, -20
 787              		.cfi_offset 5, -16
 788              		.cfi_offset 6, -12
 789              		.cfi_offset 7, -8
 790              		.cfi_offset 14, -4
 791 0002 0446     		mov	r4, r0
 651:cube/Drivers/STM32F3xx_HAL_Driver/Src/stm32f3xx_hal_flash_ex.c ****   uint16_t WRP0_Data = 0xFFFFU;
 792              		.loc 1 651 3 is_stmt 1 view .LVU205
 793              	.LVL75:
 652:cube/Drivers/STM32F3xx_HAL_Driver/Src/stm32f3xx_hal_flash_ex.c **** #if defined(OB_WRP1_WRP1)
 794              		.loc 1 652 3 view .LVU206
 654:cube/Drivers/STM32F3xx_HAL_Driver/Src/stm32f3xx_hal_flash_ex.c **** #endif /* OB_WRP1_WRP1 */
 795              		.loc 1 654 3 view .LVU207
ARM GAS  C:\Users\Berbardo\AppData\Local\Temp\ccJ3NdKC.s 			page 44


 657:cube/Drivers/STM32F3xx_HAL_Driver/Src/stm32f3xx_hal_flash_ex.c **** #endif /* OB_WRP2_WRP2 */
 796              		.loc 1 657 3 view .LVU208
 660:cube/Drivers/STM32F3xx_HAL_Driver/Src/stm32f3xx_hal_flash_ex.c **** #endif /* OB_WRP3_WRP3 */
 797              		.loc 1 660 3 view .LVU209
 664:cube/Drivers/STM32F3xx_HAL_Driver/Src/stm32f3xx_hal_flash_ex.c **** 
 798              		.loc 1 664 3 view .LVU210
 667:cube/Drivers/STM32F3xx_HAL_Driver/Src/stm32f3xx_hal_flash_ex.c **** 
 799              		.loc 1 667 3 view .LVU211
 667:cube/Drivers/STM32F3xx_HAL_Driver/Src/stm32f3xx_hal_flash_ex.c **** 
 800              		.loc 1 667 23 is_stmt 0 view .LVU212
 801 0004 FFF7FEFF 		bl	FLASH_OB_GetWRP
 802              	.LVL76:
 667:cube/Drivers/STM32F3xx_HAL_Driver/Src/stm32f3xx_hal_flash_ex.c **** 
 803              		.loc 1 667 20 view .LVU213
 804 0008 0443     		orrs	r4, r4, r0
 805              	.LVL77:
 670:cube/Drivers/STM32F3xx_HAL_Driver/Src/stm32f3xx_hal_flash_ex.c **** #endif /* OB_WRP_PAGES0TO31MASK */
 806              		.loc 1 670 3 is_stmt 1 view .LVU214
 674:cube/Drivers/STM32F3xx_HAL_Driver/Src/stm32f3xx_hal_flash_ex.c **** #endif /* OB_WRP_PAGES32TO63MASK */
 807              		.loc 1 674 3 view .LVU215
 674:cube/Drivers/STM32F3xx_HAL_Driver/Src/stm32f3xx_hal_flash_ex.c **** #endif /* OB_WRP_PAGES32TO63MASK */
 808              		.loc 1 674 13 is_stmt 0 view .LVU216
 809 000a C4F30727 		ubfx	r7, r4, #8, #8
 810              	.LVL78:
 678:cube/Drivers/STM32F3xx_HAL_Driver/Src/stm32f3xx_hal_flash_ex.c **** #endif /* OB_WRP_PAGES32TO47MASK */
 811              		.loc 1 678 3 is_stmt 1 view .LVU217
 678:cube/Drivers/STM32F3xx_HAL_Driver/Src/stm32f3xx_hal_flash_ex.c **** #endif /* OB_WRP_PAGES32TO47MASK */
 812              		.loc 1 678 13 is_stmt 0 view .LVU218
 813 000e C4F30746 		ubfx	r6, r4, #16, #8
 814              	.LVL79:
 684:cube/Drivers/STM32F3xx_HAL_Driver/Src/stm32f3xx_hal_flash_ex.c **** #endif /* OB_WRP_PAGES48TO63MASK */
 815              		.loc 1 684 3 is_stmt 1 view .LVU219
 689:cube/Drivers/STM32F3xx_HAL_Driver/Src/stm32f3xx_hal_flash_ex.c **** 
 816              		.loc 1 689 3 view .LVU220
 689:cube/Drivers/STM32F3xx_HAL_Driver/Src/stm32f3xx_hal_flash_ex.c **** 
 817              		.loc 1 689 12 is_stmt 0 view .LVU221
 818 0012 4CF25030 		movw	r0, #50000
 819 0016 FFF7FEFF 		bl	FLASH_WaitForLastOperation
 820              	.LVL80:
 691:cube/Drivers/STM32F3xx_HAL_Driver/Src/stm32f3xx_hal_flash_ex.c ****   { 
 821              		.loc 1 691 3 is_stmt 1 view .LVU222
 691:cube/Drivers/STM32F3xx_HAL_Driver/Src/stm32f3xx_hal_flash_ex.c ****   { 
 822              		.loc 1 691 5 is_stmt 0 view .LVU223
 823 001a 0346     		mov	r3, r0
 824 001c 08B1     		cbz	r0, .L62
 825              	.LVL81:
 826              	.L56:
 746:cube/Drivers/STM32F3xx_HAL_Driver/Src/stm32f3xx_hal_flash_ex.c **** }
 827              		.loc 1 746 3 is_stmt 1 view .LVU224
 747:cube/Drivers/STM32F3xx_HAL_Driver/Src/stm32f3xx_hal_flash_ex.c **** 
 828              		.loc 1 747 1 is_stmt 0 view .LVU225
 829 001e 1846     		mov	r0, r3
 830 0020 F8BD     		pop	{r3, r4, r5, r6, r7, pc}
 831              	.LVL82:
 832              	.L62:
 747:cube/Drivers/STM32F3xx_HAL_Driver/Src/stm32f3xx_hal_flash_ex.c **** 
 833              		.loc 1 747 1 view .LVU226
ARM GAS  C:\Users\Berbardo\AppData\Local\Temp\ccJ3NdKC.s 			page 45


 834 0022 E5B2     		uxtb	r5, r4
 835 0024 240E     		lsrs	r4, r4, #24
 836              	.LVL83:
 694:cube/Drivers/STM32F3xx_HAL_Driver/Src/stm32f3xx_hal_flash_ex.c **** 
 837              		.loc 1 694 5 is_stmt 1 view .LVU227
 694:cube/Drivers/STM32F3xx_HAL_Driver/Src/stm32f3xx_hal_flash_ex.c **** 
 838              		.loc 1 694 22 is_stmt 0 view .LVU228
 839 0026 234B     		ldr	r3, .L67
 840 0028 0022     		movs	r2, #0
 841 002a DA61     		str	r2, [r3, #28]
 697:cube/Drivers/STM32F3xx_HAL_Driver/Src/stm32f3xx_hal_flash_ex.c ****     if (status == HAL_OK)  
 842              		.loc 1 697 5 is_stmt 1 view .LVU229
 697:cube/Drivers/STM32F3xx_HAL_Driver/Src/stm32f3xx_hal_flash_ex.c ****     if (status == HAL_OK)  
 843              		.loc 1 697 14 is_stmt 0 view .LVU230
 844 002c FFF7FEFF 		bl	HAL_FLASHEx_OBErase
 845              	.LVL84:
 698:cube/Drivers/STM32F3xx_HAL_Driver/Src/stm32f3xx_hal_flash_ex.c ****     {
 846              		.loc 1 698 5 is_stmt 1 view .LVU231
 698:cube/Drivers/STM32F3xx_HAL_Driver/Src/stm32f3xx_hal_flash_ex.c ****     {
 847              		.loc 1 698 8 is_stmt 0 view .LVU232
 848 0030 0346     		mov	r3, r0
 849 0032 0028     		cmp	r0, #0
 850 0034 F3D1     		bne	.L56
 700:cube/Drivers/STM32F3xx_HAL_Driver/Src/stm32f3xx_hal_flash_ex.c **** 
 851              		.loc 1 700 7 is_stmt 1 view .LVU233
 852 0036 2049     		ldr	r1, .L67+4
 853 0038 0A69     		ldr	r2, [r1, #16]
 854 003a 42F01002 		orr	r2, r2, #16
 855 003e 0A61     		str	r2, [r1, #16]
 703:cube/Drivers/STM32F3xx_HAL_Driver/Src/stm32f3xx_hal_flash_ex.c ****       {
 856              		.loc 1 703 7 view .LVU234
 703:cube/Drivers/STM32F3xx_HAL_Driver/Src/stm32f3xx_hal_flash_ex.c ****       {
 857              		.loc 1 703 9 is_stmt 0 view .LVU235
 858 0040 FF2D     		cmp	r5, #255
 859 0042 0ED1     		bne	.L63
 860              	.LVL85:
 861              	.L57:
 713:cube/Drivers/STM32F3xx_HAL_Driver/Src/stm32f3xx_hal_flash_ex.c ****       {
 862              		.loc 1 713 7 is_stmt 1 view .LVU236
 713:cube/Drivers/STM32F3xx_HAL_Driver/Src/stm32f3xx_hal_flash_ex.c ****       {
 863              		.loc 1 713 9 is_stmt 0 view .LVU237
 864 0044 0BB9     		cbnz	r3, .L58
 713:cube/Drivers/STM32F3xx_HAL_Driver/Src/stm32f3xx_hal_flash_ex.c ****       {
 865              		.loc 1 713 29 discriminator 1 view .LVU238
 866 0046 FF2F     		cmp	r7, #255
 867 0048 15D1     		bne	.L64
 868              	.LVL86:
 869              	.L58:
 723:cube/Drivers/STM32F3xx_HAL_Driver/Src/stm32f3xx_hal_flash_ex.c ****       {
 870              		.loc 1 723 7 is_stmt 1 view .LVU239
 723:cube/Drivers/STM32F3xx_HAL_Driver/Src/stm32f3xx_hal_flash_ex.c ****       {
 871              		.loc 1 723 9 is_stmt 0 view .LVU240
 872 004a 0BB9     		cbnz	r3, .L59
 723:cube/Drivers/STM32F3xx_HAL_Driver/Src/stm32f3xx_hal_flash_ex.c ****       {
 873              		.loc 1 723 29 discriminator 1 view .LVU241
 874 004c FF2E     		cmp	r6, #255
 875 004e 1CD1     		bne	.L65
ARM GAS  C:\Users\Berbardo\AppData\Local\Temp\ccJ3NdKC.s 			page 46


 876              	.LVL87:
 877              	.L59:
 733:cube/Drivers/STM32F3xx_HAL_Driver/Src/stm32f3xx_hal_flash_ex.c ****       {
 878              		.loc 1 733 7 is_stmt 1 view .LVU242
 733:cube/Drivers/STM32F3xx_HAL_Driver/Src/stm32f3xx_hal_flash_ex.c ****       {
 879              		.loc 1 733 9 is_stmt 0 view .LVU243
 880 0050 0BB9     		cbnz	r3, .L60
 733:cube/Drivers/STM32F3xx_HAL_Driver/Src/stm32f3xx_hal_flash_ex.c ****       {
 881              		.loc 1 733 29 discriminator 1 view .LVU244
 882 0052 FF2C     		cmp	r4, #255
 883 0054 23D1     		bne	.L66
 884              	.L60:
 743:cube/Drivers/STM32F3xx_HAL_Driver/Src/stm32f3xx_hal_flash_ex.c ****     }
 885              		.loc 1 743 7 is_stmt 1 view .LVU245
 886 0056 1849     		ldr	r1, .L67+4
 887 0058 0A69     		ldr	r2, [r1, #16]
 888 005a 22F01002 		bic	r2, r2, #16
 889 005e 0A61     		str	r2, [r1, #16]
 890 0060 DDE7     		b	.L56
 891              	.LVL88:
 892              	.L63:
 705:cube/Drivers/STM32F3xx_HAL_Driver/Src/stm32f3xx_hal_flash_ex.c ****         
 893              		.loc 1 705 9 view .LVU246
 705:cube/Drivers/STM32F3xx_HAL_Driver/Src/stm32f3xx_hal_flash_ex.c ****         
 894              		.loc 1 705 18 is_stmt 0 view .LVU247
 895 0062 164B     		ldr	r3, .L67+8
 896 0064 1A89     		ldrh	r2, [r3, #8]
 897 0066 1543     		orrs	r5, r5, r2
 898              	.LVL89:
 705:cube/Drivers/STM32F3xx_HAL_Driver/Src/stm32f3xx_hal_flash_ex.c ****         
 899              		.loc 1 705 18 view .LVU248
 900 0068 1D81     		strh	r5, [r3, #8]	@ movhi
 708:cube/Drivers/STM32F3xx_HAL_Driver/Src/stm32f3xx_hal_flash_ex.c ****       }
 901              		.loc 1 708 9 is_stmt 1 view .LVU249
 708:cube/Drivers/STM32F3xx_HAL_Driver/Src/stm32f3xx_hal_flash_ex.c ****       }
 902              		.loc 1 708 18 is_stmt 0 view .LVU250
 903 006a 4CF25030 		movw	r0, #50000
 904              	.LVL90:
 708:cube/Drivers/STM32F3xx_HAL_Driver/Src/stm32f3xx_hal_flash_ex.c ****       }
 905              		.loc 1 708 18 view .LVU251
 906 006e FFF7FEFF 		bl	FLASH_WaitForLastOperation
 907              	.LVL91:
 908 0072 0346     		mov	r3, r0
 909              	.LVL92:
 708:cube/Drivers/STM32F3xx_HAL_Driver/Src/stm32f3xx_hal_flash_ex.c ****       }
 910              		.loc 1 708 18 view .LVU252
 911 0074 E6E7     		b	.L57
 912              	.L64:
 715:cube/Drivers/STM32F3xx_HAL_Driver/Src/stm32f3xx_hal_flash_ex.c ****         
 913              		.loc 1 715 9 is_stmt 1 view .LVU253
 715:cube/Drivers/STM32F3xx_HAL_Driver/Src/stm32f3xx_hal_flash_ex.c ****         
 914              		.loc 1 715 18 is_stmt 0 view .LVU254
 915 0076 114B     		ldr	r3, .L67+8
 916              	.LVL93:
 715:cube/Drivers/STM32F3xx_HAL_Driver/Src/stm32f3xx_hal_flash_ex.c ****         
 917              		.loc 1 715 18 view .LVU255
 918 0078 5A89     		ldrh	r2, [r3, #10]
ARM GAS  C:\Users\Berbardo\AppData\Local\Temp\ccJ3NdKC.s 			page 47


 919 007a 1743     		orrs	r7, r7, r2
 920              	.LVL94:
 715:cube/Drivers/STM32F3xx_HAL_Driver/Src/stm32f3xx_hal_flash_ex.c ****         
 921              		.loc 1 715 18 view .LVU256
 922 007c 5F81     		strh	r7, [r3, #10]	@ movhi
 718:cube/Drivers/STM32F3xx_HAL_Driver/Src/stm32f3xx_hal_flash_ex.c ****       }
 923              		.loc 1 718 9 is_stmt 1 view .LVU257
 718:cube/Drivers/STM32F3xx_HAL_Driver/Src/stm32f3xx_hal_flash_ex.c ****       }
 924              		.loc 1 718 18 is_stmt 0 view .LVU258
 925 007e 4CF25030 		movw	r0, #50000
 926 0082 FFF7FEFF 		bl	FLASH_WaitForLastOperation
 927              	.LVL95:
 928 0086 0346     		mov	r3, r0
 929              	.LVL96:
 718:cube/Drivers/STM32F3xx_HAL_Driver/Src/stm32f3xx_hal_flash_ex.c ****       }
 930              		.loc 1 718 18 view .LVU259
 931 0088 DFE7     		b	.L58
 932              	.L65:
 725:cube/Drivers/STM32F3xx_HAL_Driver/Src/stm32f3xx_hal_flash_ex.c ****         
 933              		.loc 1 725 9 is_stmt 1 view .LVU260
 725:cube/Drivers/STM32F3xx_HAL_Driver/Src/stm32f3xx_hal_flash_ex.c ****         
 934              		.loc 1 725 18 is_stmt 0 view .LVU261
 935 008a 0C4B     		ldr	r3, .L67+8
 936              	.LVL97:
 725:cube/Drivers/STM32F3xx_HAL_Driver/Src/stm32f3xx_hal_flash_ex.c ****         
 937              		.loc 1 725 18 view .LVU262
 938 008c 9A89     		ldrh	r2, [r3, #12]
 939 008e 1643     		orrs	r6, r6, r2
 940              	.LVL98:
 725:cube/Drivers/STM32F3xx_HAL_Driver/Src/stm32f3xx_hal_flash_ex.c ****         
 941              		.loc 1 725 18 view .LVU263
 942 0090 9E81     		strh	r6, [r3, #12]	@ movhi
 728:cube/Drivers/STM32F3xx_HAL_Driver/Src/stm32f3xx_hal_flash_ex.c ****       }
 943              		.loc 1 728 9 is_stmt 1 view .LVU264
 728:cube/Drivers/STM32F3xx_HAL_Driver/Src/stm32f3xx_hal_flash_ex.c ****       }
 944              		.loc 1 728 18 is_stmt 0 view .LVU265
 945 0092 4CF25030 		movw	r0, #50000
 946 0096 FFF7FEFF 		bl	FLASH_WaitForLastOperation
 947              	.LVL99:
 948 009a 0346     		mov	r3, r0
 949              	.LVL100:
 728:cube/Drivers/STM32F3xx_HAL_Driver/Src/stm32f3xx_hal_flash_ex.c ****       }
 950              		.loc 1 728 18 view .LVU266
 951 009c D8E7     		b	.L59
 952              	.L66:
 735:cube/Drivers/STM32F3xx_HAL_Driver/Src/stm32f3xx_hal_flash_ex.c ****         
 953              		.loc 1 735 9 is_stmt 1 view .LVU267
 735:cube/Drivers/STM32F3xx_HAL_Driver/Src/stm32f3xx_hal_flash_ex.c ****         
 954              		.loc 1 735 18 is_stmt 0 view .LVU268
 955 009e 074B     		ldr	r3, .L67+8
 956              	.LVL101:
 735:cube/Drivers/STM32F3xx_HAL_Driver/Src/stm32f3xx_hal_flash_ex.c ****         
 957              		.loc 1 735 18 view .LVU269
 958 00a0 D889     		ldrh	r0, [r3, #14]
 959 00a2 2043     		orrs	r0, r0, r4
 960 00a4 D881     		strh	r0, [r3, #14]	@ movhi
 738:cube/Drivers/STM32F3xx_HAL_Driver/Src/stm32f3xx_hal_flash_ex.c ****       }
ARM GAS  C:\Users\Berbardo\AppData\Local\Temp\ccJ3NdKC.s 			page 48


 961              		.loc 1 738 9 is_stmt 1 view .LVU270
 738:cube/Drivers/STM32F3xx_HAL_Driver/Src/stm32f3xx_hal_flash_ex.c ****       }
 962              		.loc 1 738 18 is_stmt 0 view .LVU271
 963 00a6 4CF25030 		movw	r0, #50000
 964 00aa FFF7FEFF 		bl	FLASH_WaitForLastOperation
 965              	.LVL102:
 966 00ae 0346     		mov	r3, r0
 967              	.LVL103:
 738:cube/Drivers/STM32F3xx_HAL_Driver/Src/stm32f3xx_hal_flash_ex.c ****       }
 968              		.loc 1 738 18 view .LVU272
 969 00b0 D1E7     		b	.L60
 970              	.L68:
 971 00b2 00BF     		.align	2
 972              	.L67:
 973 00b4 00000000 		.word	pFlash
 974 00b8 00200240 		.word	1073881088
 975 00bc 00F8FF1F 		.word	536868864
 976              		.cfi_endproc
 977              	.LFE134:
 979              		.section	.text.HAL_FLASHEx_OBProgram,"ax",%progbits
 980              		.align	1
 981              		.global	HAL_FLASHEx_OBProgram
 982              		.syntax unified
 983              		.thumb
 984              		.thumb_func
 985              		.fpu fpv4-sp-d16
 987              	HAL_FLASHEx_OBProgram:
 988              	.LVL104:
 989              	.LFB129:
 379:cube/Drivers/STM32F3xx_HAL_Driver/Src/stm32f3xx_hal_flash_ex.c ****   HAL_StatusTypeDef status = HAL_ERROR;
 990              		.loc 1 379 1 is_stmt 1 view -0
 991              		.cfi_startproc
 992              		@ args = 0, pretend = 0, frame = 0
 993              		@ frame_needed = 0, uses_anonymous_args = 0
 380:cube/Drivers/STM32F3xx_HAL_Driver/Src/stm32f3xx_hal_flash_ex.c **** 
 994              		.loc 1 380 3 view .LVU274
 383:cube/Drivers/STM32F3xx_HAL_Driver/Src/stm32f3xx_hal_flash_ex.c **** 
 995              		.loc 1 383 3 view .LVU275
 383:cube/Drivers/STM32F3xx_HAL_Driver/Src/stm32f3xx_hal_flash_ex.c **** 
 996              		.loc 1 383 3 view .LVU276
 997 0000 284B     		ldr	r3, .L87
 998 0002 1B7E     		ldrb	r3, [r3, #24]	@ zero_extendqisi2
 999 0004 012B     		cmp	r3, #1
 1000 0006 4AD0     		beq	.L77
 379:cube/Drivers/STM32F3xx_HAL_Driver/Src/stm32f3xx_hal_flash_ex.c ****   HAL_StatusTypeDef status = HAL_ERROR;
 1001              		.loc 1 379 1 is_stmt 0 discriminator 2 view .LVU277
 1002 0008 10B5     		push	{r4, lr}
 1003              		.cfi_def_cfa_offset 8
 1004              		.cfi_offset 4, -8
 1005              		.cfi_offset 14, -4
 1006 000a 0446     		mov	r4, r0
 383:cube/Drivers/STM32F3xx_HAL_Driver/Src/stm32f3xx_hal_flash_ex.c **** 
 1007              		.loc 1 383 3 is_stmt 1 discriminator 2 view .LVU278
 1008 000c 254B     		ldr	r3, .L87
 1009 000e 0122     		movs	r2, #1
 1010 0010 1A76     		strb	r2, [r3, #24]
 386:cube/Drivers/STM32F3xx_HAL_Driver/Src/stm32f3xx_hal_flash_ex.c **** 
ARM GAS  C:\Users\Berbardo\AppData\Local\Temp\ccJ3NdKC.s 			page 49


 1011              		.loc 1 386 3 discriminator 2 view .LVU279
 389:cube/Drivers/STM32F3xx_HAL_Driver/Src/stm32f3xx_hal_flash_ex.c ****   {
 1012              		.loc 1 389 3 discriminator 2 view .LVU280
 389:cube/Drivers/STM32F3xx_HAL_Driver/Src/stm32f3xx_hal_flash_ex.c ****   {
 1013              		.loc 1 389 14 is_stmt 0 discriminator 2 view .LVU281
 1014 0012 0368     		ldr	r3, [r0]
 389:cube/Drivers/STM32F3xx_HAL_Driver/Src/stm32f3xx_hal_flash_ex.c ****   {
 1015              		.loc 1 389 5 discriminator 2 view .LVU282
 1016 0014 13F0010F 		tst	r3, #1
 1017 0018 10D0     		beq	.L78
 391:cube/Drivers/STM32F3xx_HAL_Driver/Src/stm32f3xx_hal_flash_ex.c ****     if (pOBInit->WRPState == OB_WRPSTATE_ENABLE)
 1018              		.loc 1 391 5 is_stmt 1 view .LVU283
 392:cube/Drivers/STM32F3xx_HAL_Driver/Src/stm32f3xx_hal_flash_ex.c ****     {
 1019              		.loc 1 392 5 view .LVU284
 392:cube/Drivers/STM32F3xx_HAL_Driver/Src/stm32f3xx_hal_flash_ex.c ****     {
 1020              		.loc 1 392 16 is_stmt 0 view .LVU285
 1021 001a 4368     		ldr	r3, [r0, #4]
 392:cube/Drivers/STM32F3xx_HAL_Driver/Src/stm32f3xx_hal_flash_ex.c ****     {
 1022              		.loc 1 392 8 view .LVU286
 1023 001c 9342     		cmp	r3, r2
 1024 001e 08D0     		beq	.L83
 400:cube/Drivers/STM32F3xx_HAL_Driver/Src/stm32f3xx_hal_flash_ex.c ****     }
 1025              		.loc 1 400 7 is_stmt 1 view .LVU287
 400:cube/Drivers/STM32F3xx_HAL_Driver/Src/stm32f3xx_hal_flash_ex.c ****     }
 1026              		.loc 1 400 16 is_stmt 0 view .LVU288
 1027 0020 8068     		ldr	r0, [r0, #8]
 1028              	.LVL105:
 400:cube/Drivers/STM32F3xx_HAL_Driver/Src/stm32f3xx_hal_flash_ex.c ****     }
 1029              		.loc 1 400 16 view .LVU289
 1030 0022 FFF7FEFF 		bl	FLASH_OB_DisableWRP
 1031              	.LVL106:
 1032 0026 0346     		mov	r3, r0
 1033              	.LVL107:
 1034              	.L73:
 402:cube/Drivers/STM32F3xx_HAL_Driver/Src/stm32f3xx_hal_flash_ex.c ****     {
 1035              		.loc 1 402 5 is_stmt 1 view .LVU290
 402:cube/Drivers/STM32F3xx_HAL_Driver/Src/stm32f3xx_hal_flash_ex.c ****     {
 1036              		.loc 1 402 8 is_stmt 0 view .LVU291
 1037 0028 4BB1     		cbz	r3, .L71
 405:cube/Drivers/STM32F3xx_HAL_Driver/Src/stm32f3xx_hal_flash_ex.c ****       return status;
 1038              		.loc 1 405 7 is_stmt 1 view .LVU292
 405:cube/Drivers/STM32F3xx_HAL_Driver/Src/stm32f3xx_hal_flash_ex.c ****       return status;
 1039              		.loc 1 405 7 view .LVU293
 1040 002a 1E4A     		ldr	r2, .L87
 1041 002c 0021     		movs	r1, #0
 1042 002e 1176     		strb	r1, [r2, #24]
 406:cube/Drivers/STM32F3xx_HAL_Driver/Src/stm32f3xx_hal_flash_ex.c ****     }
 1043              		.loc 1 406 7 view .LVU294
 406:cube/Drivers/STM32F3xx_HAL_Driver/Src/stm32f3xx_hal_flash_ex.c ****     }
 1044              		.loc 1 406 14 is_stmt 0 view .LVU295
 1045 0030 14E0     		b	.L70
 1046              	.LVL108:
 1047              	.L83:
 395:cube/Drivers/STM32F3xx_HAL_Driver/Src/stm32f3xx_hal_flash_ex.c ****     }
 1048              		.loc 1 395 7 is_stmt 1 view .LVU296
 395:cube/Drivers/STM32F3xx_HAL_Driver/Src/stm32f3xx_hal_flash_ex.c ****     }
 1049              		.loc 1 395 16 is_stmt 0 view .LVU297
ARM GAS  C:\Users\Berbardo\AppData\Local\Temp\ccJ3NdKC.s 			page 50


 1050 0032 8068     		ldr	r0, [r0, #8]
 1051              	.LVL109:
 395:cube/Drivers/STM32F3xx_HAL_Driver/Src/stm32f3xx_hal_flash_ex.c ****     }
 1052              		.loc 1 395 16 view .LVU298
 1053 0034 FFF7FEFF 		bl	FLASH_OB_EnableWRP
 1054              	.LVL110:
 1055 0038 0346     		mov	r3, r0
 1056              	.LVL111:
 395:cube/Drivers/STM32F3xx_HAL_Driver/Src/stm32f3xx_hal_flash_ex.c ****     }
 1057              		.loc 1 395 16 view .LVU299
 1058 003a F5E7     		b	.L73
 1059              	.LVL112:
 1060              	.L78:
 380:cube/Drivers/STM32F3xx_HAL_Driver/Src/stm32f3xx_hal_flash_ex.c **** 
 1061              		.loc 1 380 21 view .LVU300
 1062 003c 0123     		movs	r3, #1
 1063              	.LVL113:
 1064              	.L71:
 411:cube/Drivers/STM32F3xx_HAL_Driver/Src/stm32f3xx_hal_flash_ex.c ****   {
 1065              		.loc 1 411 3 is_stmt 1 view .LVU301
 411:cube/Drivers/STM32F3xx_HAL_Driver/Src/stm32f3xx_hal_flash_ex.c ****   {
 1066              		.loc 1 411 14 is_stmt 0 view .LVU302
 1067 003e 2268     		ldr	r2, [r4]
 411:cube/Drivers/STM32F3xx_HAL_Driver/Src/stm32f3xx_hal_flash_ex.c ****   {
 1068              		.loc 1 411 5 view .LVU303
 1069 0040 12F0020F 		tst	r2, #2
 1070 0044 0CD1     		bne	.L84
 1071              	.LVL114:
 1072              	.L74:
 423:cube/Drivers/STM32F3xx_HAL_Driver/Src/stm32f3xx_hal_flash_ex.c ****   {
 1073              		.loc 1 423 3 is_stmt 1 view .LVU304
 423:cube/Drivers/STM32F3xx_HAL_Driver/Src/stm32f3xx_hal_flash_ex.c ****   {
 1074              		.loc 1 423 14 is_stmt 0 view .LVU305
 1075 0046 2268     		ldr	r2, [r4]
 423:cube/Drivers/STM32F3xx_HAL_Driver/Src/stm32f3xx_hal_flash_ex.c ****   {
 1076              		.loc 1 423 5 view .LVU306
 1077 0048 12F0040F 		tst	r2, #4
 1078 004c 12D1     		bne	.L85
 1079              	.LVL115:
 1080              	.L75:
 435:cube/Drivers/STM32F3xx_HAL_Driver/Src/stm32f3xx_hal_flash_ex.c ****   {
 1081              		.loc 1 435 3 is_stmt 1 view .LVU307
 435:cube/Drivers/STM32F3xx_HAL_Driver/Src/stm32f3xx_hal_flash_ex.c ****   {
 1082              		.loc 1 435 14 is_stmt 0 view .LVU308
 1083 004e 2268     		ldr	r2, [r4]
 435:cube/Drivers/STM32F3xx_HAL_Driver/Src/stm32f3xx_hal_flash_ex.c ****   {
 1084              		.loc 1 435 5 view .LVU309
 1085 0050 12F0080F 		tst	r2, #8
 1086 0054 18D1     		bne	.L86
 1087              	.LVL116:
 1088              	.L76:
 447:cube/Drivers/STM32F3xx_HAL_Driver/Src/stm32f3xx_hal_flash_ex.c **** 
 1089              		.loc 1 447 3 is_stmt 1 view .LVU310
 447:cube/Drivers/STM32F3xx_HAL_Driver/Src/stm32f3xx_hal_flash_ex.c **** 
 1090              		.loc 1 447 3 view .LVU311
 1091 0056 134A     		ldr	r2, .L87
 1092 0058 0021     		movs	r1, #0
ARM GAS  C:\Users\Berbardo\AppData\Local\Temp\ccJ3NdKC.s 			page 51


 1093 005a 1176     		strb	r1, [r2, #24]
 449:cube/Drivers/STM32F3xx_HAL_Driver/Src/stm32f3xx_hal_flash_ex.c **** }
 1094              		.loc 1 449 3 view .LVU312
 1095              	.LVL117:
 1096              	.L70:
 450:cube/Drivers/STM32F3xx_HAL_Driver/Src/stm32f3xx_hal_flash_ex.c **** 
 1097              		.loc 1 450 1 is_stmt 0 view .LVU313
 1098 005c 1846     		mov	r0, r3
 1099 005e 10BD     		pop	{r4, pc}
 1100              	.LVL118:
 1101              	.L84:
 413:cube/Drivers/STM32F3xx_HAL_Driver/Src/stm32f3xx_hal_flash_ex.c ****     if (status != HAL_OK)
 1102              		.loc 1 413 5 is_stmt 1 view .LVU314
 413:cube/Drivers/STM32F3xx_HAL_Driver/Src/stm32f3xx_hal_flash_ex.c ****     if (status != HAL_OK)
 1103              		.loc 1 413 14 is_stmt 0 view .LVU315
 1104 0060 207B     		ldrb	r0, [r4, #12]	@ zero_extendqisi2
 1105 0062 FFF7FEFF 		bl	FLASH_OB_RDP_LevelConfig
 1106              	.LVL119:
 414:cube/Drivers/STM32F3xx_HAL_Driver/Src/stm32f3xx_hal_flash_ex.c ****     {
 1107              		.loc 1 414 5 is_stmt 1 view .LVU316
 414:cube/Drivers/STM32F3xx_HAL_Driver/Src/stm32f3xx_hal_flash_ex.c ****     {
 1108              		.loc 1 414 8 is_stmt 0 view .LVU317
 1109 0066 0346     		mov	r3, r0
 1110 0068 0028     		cmp	r0, #0
 1111 006a ECD0     		beq	.L74
 417:cube/Drivers/STM32F3xx_HAL_Driver/Src/stm32f3xx_hal_flash_ex.c ****       return status;
 1112              		.loc 1 417 7 is_stmt 1 view .LVU318
 417:cube/Drivers/STM32F3xx_HAL_Driver/Src/stm32f3xx_hal_flash_ex.c ****       return status;
 1113              		.loc 1 417 7 view .LVU319
 1114 006c 0D4A     		ldr	r2, .L87
 1115 006e 0021     		movs	r1, #0
 1116 0070 1176     		strb	r1, [r2, #24]
 418:cube/Drivers/STM32F3xx_HAL_Driver/Src/stm32f3xx_hal_flash_ex.c ****     }
 1117              		.loc 1 418 7 view .LVU320
 418:cube/Drivers/STM32F3xx_HAL_Driver/Src/stm32f3xx_hal_flash_ex.c ****     }
 1118              		.loc 1 418 14 is_stmt 0 view .LVU321
 1119 0072 F3E7     		b	.L70
 1120              	.LVL120:
 1121              	.L85:
 425:cube/Drivers/STM32F3xx_HAL_Driver/Src/stm32f3xx_hal_flash_ex.c ****     if (status != HAL_OK)
 1122              		.loc 1 425 5 is_stmt 1 view .LVU322
 425:cube/Drivers/STM32F3xx_HAL_Driver/Src/stm32f3xx_hal_flash_ex.c ****     if (status != HAL_OK)
 1123              		.loc 1 425 14 is_stmt 0 view .LVU323
 1124 0074 607B     		ldrb	r0, [r4, #13]	@ zero_extendqisi2
 1125 0076 FFF7FEFF 		bl	FLASH_OB_UserConfig
 1126              	.LVL121:
 426:cube/Drivers/STM32F3xx_HAL_Driver/Src/stm32f3xx_hal_flash_ex.c ****     {
 1127              		.loc 1 426 5 is_stmt 1 view .LVU324
 426:cube/Drivers/STM32F3xx_HAL_Driver/Src/stm32f3xx_hal_flash_ex.c ****     {
 1128              		.loc 1 426 8 is_stmt 0 view .LVU325
 1129 007a 0346     		mov	r3, r0
 1130 007c 0028     		cmp	r0, #0
 1131 007e E6D0     		beq	.L75
 429:cube/Drivers/STM32F3xx_HAL_Driver/Src/stm32f3xx_hal_flash_ex.c ****       return status;
 1132              		.loc 1 429 7 is_stmt 1 view .LVU326
 429:cube/Drivers/STM32F3xx_HAL_Driver/Src/stm32f3xx_hal_flash_ex.c ****       return status;
 1133              		.loc 1 429 7 view .LVU327
ARM GAS  C:\Users\Berbardo\AppData\Local\Temp\ccJ3NdKC.s 			page 52


 1134 0080 084A     		ldr	r2, .L87
 1135 0082 0021     		movs	r1, #0
 1136 0084 1176     		strb	r1, [r2, #24]
 430:cube/Drivers/STM32F3xx_HAL_Driver/Src/stm32f3xx_hal_flash_ex.c ****     }
 1137              		.loc 1 430 7 view .LVU328
 430:cube/Drivers/STM32F3xx_HAL_Driver/Src/stm32f3xx_hal_flash_ex.c ****     }
 1138              		.loc 1 430 14 is_stmt 0 view .LVU329
 1139 0086 E9E7     		b	.L70
 1140              	.LVL122:
 1141              	.L86:
 437:cube/Drivers/STM32F3xx_HAL_Driver/Src/stm32f3xx_hal_flash_ex.c ****     if (status != HAL_OK)
 1142              		.loc 1 437 5 is_stmt 1 view .LVU330
 437:cube/Drivers/STM32F3xx_HAL_Driver/Src/stm32f3xx_hal_flash_ex.c ****     if (status != HAL_OK)
 1143              		.loc 1 437 14 is_stmt 0 view .LVU331
 1144 0088 217D     		ldrb	r1, [r4, #20]	@ zero_extendqisi2
 1145 008a 2069     		ldr	r0, [r4, #16]
 1146 008c FFF7FEFF 		bl	FLASH_OB_ProgramData
 1147              	.LVL123:
 438:cube/Drivers/STM32F3xx_HAL_Driver/Src/stm32f3xx_hal_flash_ex.c ****     {
 1148              		.loc 1 438 5 is_stmt 1 view .LVU332
 438:cube/Drivers/STM32F3xx_HAL_Driver/Src/stm32f3xx_hal_flash_ex.c ****     {
 1149              		.loc 1 438 8 is_stmt 0 view .LVU333
 1150 0090 0346     		mov	r3, r0
 1151 0092 0028     		cmp	r0, #0
 1152 0094 DFD0     		beq	.L76
 441:cube/Drivers/STM32F3xx_HAL_Driver/Src/stm32f3xx_hal_flash_ex.c ****       return status;
 1153              		.loc 1 441 7 is_stmt 1 view .LVU334
 441:cube/Drivers/STM32F3xx_HAL_Driver/Src/stm32f3xx_hal_flash_ex.c ****       return status;
 1154              		.loc 1 441 7 view .LVU335
 1155 0096 034A     		ldr	r2, .L87
 1156 0098 0021     		movs	r1, #0
 1157 009a 1176     		strb	r1, [r2, #24]
 442:cube/Drivers/STM32F3xx_HAL_Driver/Src/stm32f3xx_hal_flash_ex.c ****     }
 1158              		.loc 1 442 7 view .LVU336
 442:cube/Drivers/STM32F3xx_HAL_Driver/Src/stm32f3xx_hal_flash_ex.c ****     }
 1159              		.loc 1 442 14 is_stmt 0 view .LVU337
 1160 009c DEE7     		b	.L70
 1161              	.LVL124:
 1162              	.L77:
 1163              		.cfi_def_cfa_offset 0
 1164              		.cfi_restore 4
 1165              		.cfi_restore 14
 383:cube/Drivers/STM32F3xx_HAL_Driver/Src/stm32f3xx_hal_flash_ex.c **** 
 1166              		.loc 1 383 3 view .LVU338
 1167 009e 0223     		movs	r3, #2
 450:cube/Drivers/STM32F3xx_HAL_Driver/Src/stm32f3xx_hal_flash_ex.c **** 
 1168              		.loc 1 450 1 view .LVU339
 1169 00a0 1846     		mov	r0, r3
 1170              	.LVL125:
 450:cube/Drivers/STM32F3xx_HAL_Driver/Src/stm32f3xx_hal_flash_ex.c **** 
 1171              		.loc 1 450 1 view .LVU340
 1172 00a2 7047     		bx	lr
 1173              	.L88:
 1174              		.align	2
 1175              	.L87:
 1176 00a4 00000000 		.word	pFlash
 1177              		.cfi_endproc
ARM GAS  C:\Users\Berbardo\AppData\Local\Temp\ccJ3NdKC.s 			page 53


 1178              	.LFE129:
 1180              		.section	.text.HAL_FLASHEx_OBGetConfig,"ax",%progbits
 1181              		.align	1
 1182              		.global	HAL_FLASHEx_OBGetConfig
 1183              		.syntax unified
 1184              		.thumb
 1185              		.thumb_func
 1186              		.fpu fpv4-sp-d16
 1188              	HAL_FLASHEx_OBGetConfig:
 1189              	.LVL126:
 1190              	.LFB130:
 460:cube/Drivers/STM32F3xx_HAL_Driver/Src/stm32f3xx_hal_flash_ex.c ****   pOBInit->OptionType = OPTIONBYTE_WRP | OPTIONBYTE_RDP | OPTIONBYTE_USER;
 1191              		.loc 1 460 1 is_stmt 1 view -0
 1192              		.cfi_startproc
 1193              		@ args = 0, pretend = 0, frame = 0
 1194              		@ frame_needed = 0, uses_anonymous_args = 0
 460:cube/Drivers/STM32F3xx_HAL_Driver/Src/stm32f3xx_hal_flash_ex.c ****   pOBInit->OptionType = OPTIONBYTE_WRP | OPTIONBYTE_RDP | OPTIONBYTE_USER;
 1195              		.loc 1 460 1 is_stmt 0 view .LVU342
 1196 0000 10B5     		push	{r4, lr}
 1197              		.cfi_def_cfa_offset 8
 1198              		.cfi_offset 4, -8
 1199              		.cfi_offset 14, -4
 1200 0002 0446     		mov	r4, r0
 461:cube/Drivers/STM32F3xx_HAL_Driver/Src/stm32f3xx_hal_flash_ex.c **** 
 1201              		.loc 1 461 3 is_stmt 1 view .LVU343
 461:cube/Drivers/STM32F3xx_HAL_Driver/Src/stm32f3xx_hal_flash_ex.c **** 
 1202              		.loc 1 461 23 is_stmt 0 view .LVU344
 1203 0004 0723     		movs	r3, #7
 1204 0006 0360     		str	r3, [r0]
 464:cube/Drivers/STM32F3xx_HAL_Driver/Src/stm32f3xx_hal_flash_ex.c **** 
 1205              		.loc 1 464 3 is_stmt 1 view .LVU345
 464:cube/Drivers/STM32F3xx_HAL_Driver/Src/stm32f3xx_hal_flash_ex.c **** 
 1206              		.loc 1 464 22 is_stmt 0 view .LVU346
 1207 0008 FFF7FEFF 		bl	FLASH_OB_GetWRP
 1208              	.LVL127:
 464:cube/Drivers/STM32F3xx_HAL_Driver/Src/stm32f3xx_hal_flash_ex.c **** 
 1209              		.loc 1 464 20 view .LVU347
 1210 000c A060     		str	r0, [r4, #8]
 467:cube/Drivers/STM32F3xx_HAL_Driver/Src/stm32f3xx_hal_flash_ex.c **** 
 1211              		.loc 1 467 3 is_stmt 1 view .LVU348
 467:cube/Drivers/STM32F3xx_HAL_Driver/Src/stm32f3xx_hal_flash_ex.c **** 
 1212              		.loc 1 467 23 is_stmt 0 view .LVU349
 1213 000e FFF7FEFF 		bl	FLASH_OB_GetRDP
 1214              	.LVL128:
 467:cube/Drivers/STM32F3xx_HAL_Driver/Src/stm32f3xx_hal_flash_ex.c **** 
 1215              		.loc 1 467 21 view .LVU350
 1216 0012 2073     		strb	r0, [r4, #12]
 470:cube/Drivers/STM32F3xx_HAL_Driver/Src/stm32f3xx_hal_flash_ex.c **** }
 1217              		.loc 1 470 3 is_stmt 1 view .LVU351
 470:cube/Drivers/STM32F3xx_HAL_Driver/Src/stm32f3xx_hal_flash_ex.c **** }
 1218              		.loc 1 470 25 is_stmt 0 view .LVU352
 1219 0014 FFF7FEFF 		bl	FLASH_OB_GetUser
 1220              	.LVL129:
 470:cube/Drivers/STM32F3xx_HAL_Driver/Src/stm32f3xx_hal_flash_ex.c **** }
 1221              		.loc 1 470 23 view .LVU353
 1222 0018 6073     		strb	r0, [r4, #13]
 471:cube/Drivers/STM32F3xx_HAL_Driver/Src/stm32f3xx_hal_flash_ex.c **** 
ARM GAS  C:\Users\Berbardo\AppData\Local\Temp\ccJ3NdKC.s 			page 54


 1223              		.loc 1 471 1 view .LVU354
 1224 001a 10BD     		pop	{r4, pc}
 471:cube/Drivers/STM32F3xx_HAL_Driver/Src/stm32f3xx_hal_flash_ex.c **** 
 1225              		.loc 1 471 1 view .LVU355
 1226              		.cfi_endproc
 1227              	.LFE130:
 1229              		.section	.text.HAL_FLASHEx_OBGetUserData,"ax",%progbits
 1230              		.align	1
 1231              		.global	HAL_FLASHEx_OBGetUserData
 1232              		.syntax unified
 1233              		.thumb
 1234              		.thumb_func
 1235              		.fpu fpv4-sp-d16
 1237              	HAL_FLASHEx_OBGetUserData:
 1238              	.LVL130:
 1239              	.LFB131:
 482:cube/Drivers/STM32F3xx_HAL_Driver/Src/stm32f3xx_hal_flash_ex.c ****   uint32_t value = 0U;
 1240              		.loc 1 482 1 is_stmt 1 view -0
 1241              		.cfi_startproc
 1242              		@ args = 0, pretend = 0, frame = 0
 1243              		@ frame_needed = 0, uses_anonymous_args = 0
 1244              		@ link register save eliminated.
 483:cube/Drivers/STM32F3xx_HAL_Driver/Src/stm32f3xx_hal_flash_ex.c ****   
 1245              		.loc 1 483 3 view .LVU357
 485:cube/Drivers/STM32F3xx_HAL_Driver/Src/stm32f3xx_hal_flash_ex.c ****   {
 1246              		.loc 1 485 3 view .LVU358
 485:cube/Drivers/STM32F3xx_HAL_Driver/Src/stm32f3xx_hal_flash_ex.c ****   {
 1247              		.loc 1 485 6 is_stmt 0 view .LVU359
 1248 0000 0D4B     		ldr	r3, .L95
 1249 0002 9842     		cmp	r0, r3
 1250 0004 0BD0     		beq	.L94
 493:cube/Drivers/STM32F3xx_HAL_Driver/Src/stm32f3xx_hal_flash_ex.c ****   }
 1251              		.loc 1 493 5 is_stmt 1 view .LVU360
 493:cube/Drivers/STM32F3xx_HAL_Driver/Src/stm32f3xx_hal_flash_ex.c ****   }
 1252              		.loc 1 493 13 is_stmt 0 view .LVU361
 1253 0006 0D4B     		ldr	r3, .L95+4
 1254 0008 D869     		ldr	r0, [r3, #28]
 1255              	.LVL131:
 493:cube/Drivers/STM32F3xx_HAL_Driver/Src/stm32f3xx_hal_flash_ex.c ****   }
 1256              		.loc 1 493 13 view .LVU362
 1257 000a 00F07F40 		and	r0, r0, #-16777216
 1258              	.LVL132:
 1259              	.LBB10:
 1260              	.LBI10:
 526:cube/Drivers/CMSIS/Include/cmsis_gcc.h **** {
 1261              		.loc 2 526 57 is_stmt 1 view .LVU363
 1262              	.LBB11:
 528:cube/Drivers/CMSIS/Include/cmsis_gcc.h **** 
 1263              		.loc 2 528 3 view .LVU364
 531:cube/Drivers/CMSIS/Include/cmsis_gcc.h **** #else
 1264              		.loc 2 531 4 view .LVU365
 1265 000e 4FF07F43 		mov	r3, #-16777216
 1266              		.syntax unified
 1267              	@ 531 "cube/Drivers/CMSIS/Include/cmsis_gcc.h" 1
 1268 0012 93FAA3F3 		rbit r3, r3
 1269              	@ 0 "" 2
 1270              	.LVL133:
ARM GAS  C:\Users\Berbardo\AppData\Local\Temp\ccJ3NdKC.s 			page 55


 1271              		.loc 2 544 3 view .LVU366
 1272              		.loc 2 544 3 is_stmt 0 view .LVU367
 1273              		.thumb
 1274              		.syntax unified
 1275              	.LBE11:
 1276              	.LBE10:
 493:cube/Drivers/STM32F3xx_HAL_Driver/Src/stm32f3xx_hal_flash_ex.c ****   }
 1277              		.loc 1 493 54 view .LVU368
 1278 0016 B3FA83F3 		clz	r3, r3
 493:cube/Drivers/STM32F3xx_HAL_Driver/Src/stm32f3xx_hal_flash_ex.c ****   }
 1279              		.loc 1 493 11 view .LVU369
 1280 001a D840     		lsrs	r0, r0, r3
 1281              	.LVL134:
 496:cube/Drivers/STM32F3xx_HAL_Driver/Src/stm32f3xx_hal_flash_ex.c **** }
 1282              		.loc 1 496 3 is_stmt 1 view .LVU370
 497:cube/Drivers/STM32F3xx_HAL_Driver/Src/stm32f3xx_hal_flash_ex.c **** 
 1283              		.loc 1 497 1 is_stmt 0 view .LVU371
 1284 001c 7047     		bx	lr
 1285              	.LVL135:
 1286              	.L94:
 488:cube/Drivers/STM32F3xx_HAL_Driver/Src/stm32f3xx_hal_flash_ex.c ****   }
 1287              		.loc 1 488 5 is_stmt 1 view .LVU372
 488:cube/Drivers/STM32F3xx_HAL_Driver/Src/stm32f3xx_hal_flash_ex.c ****   }
 1288              		.loc 1 488 13 is_stmt 0 view .LVU373
 1289 001e 074B     		ldr	r3, .L95+4
 1290 0020 D869     		ldr	r0, [r3, #28]
 1291              	.LVL136:
 488:cube/Drivers/STM32F3xx_HAL_Driver/Src/stm32f3xx_hal_flash_ex.c ****   }
 1292              		.loc 1 488 13 view .LVU374
 1293 0022 00F47F00 		and	r0, r0, #16711680
 1294              	.LVL137:
 1295              	.LBB12:
 1296              	.LBI12:
 526:cube/Drivers/CMSIS/Include/cmsis_gcc.h **** {
 1297              		.loc 2 526 57 is_stmt 1 view .LVU375
 1298              	.LBB13:
 528:cube/Drivers/CMSIS/Include/cmsis_gcc.h **** 
 1299              		.loc 2 528 3 view .LVU376
 531:cube/Drivers/CMSIS/Include/cmsis_gcc.h **** #else
 1300              		.loc 2 531 4 view .LVU377
 1301 0026 4FF47F03 		mov	r3, #16711680
 1302              		.syntax unified
 1303              	@ 531 "cube/Drivers/CMSIS/Include/cmsis_gcc.h" 1
 1304 002a 93FAA3F3 		rbit r3, r3
 1305              	@ 0 "" 2
 1306              	.LVL138:
 1307              		.loc 2 544 3 view .LVU378
 1308              		.loc 2 544 3 is_stmt 0 view .LVU379
 1309              		.thumb
 1310              		.syntax unified
 1311              	.LBE13:
 1312              	.LBE12:
 488:cube/Drivers/STM32F3xx_HAL_Driver/Src/stm32f3xx_hal_flash_ex.c ****   }
 1313              		.loc 1 488 54 view .LVU380
 1314 002e B3FA83F3 		clz	r3, r3
 488:cube/Drivers/STM32F3xx_HAL_Driver/Src/stm32f3xx_hal_flash_ex.c ****   }
 1315              		.loc 1 488 11 view .LVU381
ARM GAS  C:\Users\Berbardo\AppData\Local\Temp\ccJ3NdKC.s 			page 56


 1316 0032 D840     		lsrs	r0, r0, r3
 1317              	.LVL139:
 488:cube/Drivers/STM32F3xx_HAL_Driver/Src/stm32f3xx_hal_flash_ex.c ****   }
 1318              		.loc 1 488 11 view .LVU382
 1319 0034 7047     		bx	lr
 1320              	.L96:
 1321 0036 00BF     		.align	2
 1322              	.L95:
 1323 0038 04F8FF1F 		.word	536868868
 1324 003c 00200240 		.word	1073881088
 1325              		.cfi_endproc
 1326              	.LFE131:
 1328              		.section	.text.FLASH_PageErase,"ax",%progbits
 1329              		.align	1
 1330              		.global	FLASH_PageErase
 1331              		.syntax unified
 1332              		.thumb
 1333              		.thumb_func
 1334              		.fpu fpv4-sp-d16
 1336              	FLASH_PageErase:
 1337              	.LVL140:
 1338              	.LFB141:
 957:cube/Drivers/STM32F3xx_HAL_Driver/Src/stm32f3xx_hal_flash_ex.c **** 
 958:cube/Drivers/STM32F3xx_HAL_Driver/Src/stm32f3xx_hal_flash_ex.c **** /**
 959:cube/Drivers/STM32F3xx_HAL_Driver/Src/stm32f3xx_hal_flash_ex.c ****   * @}
 960:cube/Drivers/STM32F3xx_HAL_Driver/Src/stm32f3xx_hal_flash_ex.c ****   */
 961:cube/Drivers/STM32F3xx_HAL_Driver/Src/stm32f3xx_hal_flash_ex.c **** 
 962:cube/Drivers/STM32F3xx_HAL_Driver/Src/stm32f3xx_hal_flash_ex.c **** /**
 963:cube/Drivers/STM32F3xx_HAL_Driver/Src/stm32f3xx_hal_flash_ex.c ****   * @}
 964:cube/Drivers/STM32F3xx_HAL_Driver/Src/stm32f3xx_hal_flash_ex.c ****   */
 965:cube/Drivers/STM32F3xx_HAL_Driver/Src/stm32f3xx_hal_flash_ex.c **** 
 966:cube/Drivers/STM32F3xx_HAL_Driver/Src/stm32f3xx_hal_flash_ex.c **** /** @addtogroup FLASH
 967:cube/Drivers/STM32F3xx_HAL_Driver/Src/stm32f3xx_hal_flash_ex.c ****   * @{
 968:cube/Drivers/STM32F3xx_HAL_Driver/Src/stm32f3xx_hal_flash_ex.c ****   */
 969:cube/Drivers/STM32F3xx_HAL_Driver/Src/stm32f3xx_hal_flash_ex.c **** 
 970:cube/Drivers/STM32F3xx_HAL_Driver/Src/stm32f3xx_hal_flash_ex.c **** /** @addtogroup FLASH_Private_Functions
 971:cube/Drivers/STM32F3xx_HAL_Driver/Src/stm32f3xx_hal_flash_ex.c ****  * @{
 972:cube/Drivers/STM32F3xx_HAL_Driver/Src/stm32f3xx_hal_flash_ex.c ****  */
 973:cube/Drivers/STM32F3xx_HAL_Driver/Src/stm32f3xx_hal_flash_ex.c **** 
 974:cube/Drivers/STM32F3xx_HAL_Driver/Src/stm32f3xx_hal_flash_ex.c **** /**
 975:cube/Drivers/STM32F3xx_HAL_Driver/Src/stm32f3xx_hal_flash_ex.c ****   * @brief  Erase the specified FLASH memory page
 976:cube/Drivers/STM32F3xx_HAL_Driver/Src/stm32f3xx_hal_flash_ex.c ****   * @param  PageAddress FLASH page to erase
 977:cube/Drivers/STM32F3xx_HAL_Driver/Src/stm32f3xx_hal_flash_ex.c ****   *         The value of this parameter depend on device used within the same series      
 978:cube/Drivers/STM32F3xx_HAL_Driver/Src/stm32f3xx_hal_flash_ex.c ****   * 
 979:cube/Drivers/STM32F3xx_HAL_Driver/Src/stm32f3xx_hal_flash_ex.c ****   * @retval None
 980:cube/Drivers/STM32F3xx_HAL_Driver/Src/stm32f3xx_hal_flash_ex.c ****   */
 981:cube/Drivers/STM32F3xx_HAL_Driver/Src/stm32f3xx_hal_flash_ex.c **** void FLASH_PageErase(uint32_t PageAddress)
 982:cube/Drivers/STM32F3xx_HAL_Driver/Src/stm32f3xx_hal_flash_ex.c **** {
 1339              		.loc 1 982 1 is_stmt 1 view -0
 1340              		.cfi_startproc
 1341              		@ args = 0, pretend = 0, frame = 0
 1342              		@ frame_needed = 0, uses_anonymous_args = 0
 1343              		@ link register save eliminated.
 983:cube/Drivers/STM32F3xx_HAL_Driver/Src/stm32f3xx_hal_flash_ex.c ****   /* Clean the error context */
 984:cube/Drivers/STM32F3xx_HAL_Driver/Src/stm32f3xx_hal_flash_ex.c ****   pFlash.ErrorCode = HAL_FLASH_ERROR_NONE;
 1344              		.loc 1 984 3 view .LVU384
 1345              		.loc 1 984 20 is_stmt 0 view .LVU385
ARM GAS  C:\Users\Berbardo\AppData\Local\Temp\ccJ3NdKC.s 			page 57


 1346 0000 064B     		ldr	r3, .L98
 1347 0002 0022     		movs	r2, #0
 1348 0004 DA61     		str	r2, [r3, #28]
 985:cube/Drivers/STM32F3xx_HAL_Driver/Src/stm32f3xx_hal_flash_ex.c **** 
 986:cube/Drivers/STM32F3xx_HAL_Driver/Src/stm32f3xx_hal_flash_ex.c ****     /* Proceed to erase the page */
 987:cube/Drivers/STM32F3xx_HAL_Driver/Src/stm32f3xx_hal_flash_ex.c ****     SET_BIT(FLASH->CR, FLASH_CR_PER);
 1349              		.loc 1 987 5 is_stmt 1 view .LVU386
 1350 0006 064B     		ldr	r3, .L98+4
 1351 0008 1A69     		ldr	r2, [r3, #16]
 1352 000a 42F00202 		orr	r2, r2, #2
 1353 000e 1A61     		str	r2, [r3, #16]
 988:cube/Drivers/STM32F3xx_HAL_Driver/Src/stm32f3xx_hal_flash_ex.c ****     WRITE_REG(FLASH->AR, PageAddress);
 1354              		.loc 1 988 5 view .LVU387
 1355 0010 5861     		str	r0, [r3, #20]
 989:cube/Drivers/STM32F3xx_HAL_Driver/Src/stm32f3xx_hal_flash_ex.c ****     SET_BIT(FLASH->CR, FLASH_CR_STRT);
 1356              		.loc 1 989 5 view .LVU388
 1357 0012 1A69     		ldr	r2, [r3, #16]
 1358 0014 42F04002 		orr	r2, r2, #64
 1359 0018 1A61     		str	r2, [r3, #16]
 990:cube/Drivers/STM32F3xx_HAL_Driver/Src/stm32f3xx_hal_flash_ex.c **** }
 1360              		.loc 1 990 1 is_stmt 0 view .LVU389
 1361 001a 7047     		bx	lr
 1362              	.L99:
 1363              		.align	2
 1364              	.L98:
 1365 001c 00000000 		.word	pFlash
 1366 0020 00200240 		.word	1073881088
 1367              		.cfi_endproc
 1368              	.LFE141:
 1370              		.section	.text.HAL_FLASHEx_Erase,"ax",%progbits
 1371              		.align	1
 1372              		.global	HAL_FLASHEx_Erase
 1373              		.syntax unified
 1374              		.thumb
 1375              		.thumb_func
 1376              		.fpu fpv4-sp-d16
 1378              	HAL_FLASHEx_Erase:
 1379              	.LVL141:
 1380              	.LFB126:
 176:cube/Drivers/STM32F3xx_HAL_Driver/Src/stm32f3xx_hal_flash_ex.c ****   HAL_StatusTypeDef status = HAL_ERROR;
 1381              		.loc 1 176 1 is_stmt 1 view -0
 1382              		.cfi_startproc
 1383              		@ args = 0, pretend = 0, frame = 0
 1384              		@ frame_needed = 0, uses_anonymous_args = 0
 177:cube/Drivers/STM32F3xx_HAL_Driver/Src/stm32f3xx_hal_flash_ex.c ****   uint32_t address = 0U;
 1385              		.loc 1 177 3 view .LVU391
 178:cube/Drivers/STM32F3xx_HAL_Driver/Src/stm32f3xx_hal_flash_ex.c **** 
 1386              		.loc 1 178 3 view .LVU392
 181:cube/Drivers/STM32F3xx_HAL_Driver/Src/stm32f3xx_hal_flash_ex.c **** 
 1387              		.loc 1 181 3 view .LVU393
 181:cube/Drivers/STM32F3xx_HAL_Driver/Src/stm32f3xx_hal_flash_ex.c **** 
 1388              		.loc 1 181 3 view .LVU394
 1389 0000 264B     		ldr	r3, .L117
 1390 0002 1B7E     		ldrb	r3, [r3, #24]	@ zero_extendqisi2
 1391 0004 012B     		cmp	r3, #1
 1392 0006 45D0     		beq	.L107
 176:cube/Drivers/STM32F3xx_HAL_Driver/Src/stm32f3xx_hal_flash_ex.c ****   HAL_StatusTypeDef status = HAL_ERROR;
ARM GAS  C:\Users\Berbardo\AppData\Local\Temp\ccJ3NdKC.s 			page 58


 1393              		.loc 1 176 1 is_stmt 0 discriminator 2 view .LVU395
 1394 0008 70B5     		push	{r4, r5, r6, lr}
 1395              		.cfi_def_cfa_offset 16
 1396              		.cfi_offset 4, -16
 1397              		.cfi_offset 5, -12
 1398              		.cfi_offset 6, -8
 1399              		.cfi_offset 14, -4
 1400 000a 0E46     		mov	r6, r1
 1401 000c 0546     		mov	r5, r0
 181:cube/Drivers/STM32F3xx_HAL_Driver/Src/stm32f3xx_hal_flash_ex.c **** 
 1402              		.loc 1 181 3 is_stmt 1 discriminator 2 view .LVU396
 1403 000e 234B     		ldr	r3, .L117
 1404 0010 0122     		movs	r2, #1
 1405 0012 1A76     		strb	r2, [r3, #24]
 184:cube/Drivers/STM32F3xx_HAL_Driver/Src/stm32f3xx_hal_flash_ex.c **** 
 1406              		.loc 1 184 3 discriminator 2 view .LVU397
 186:cube/Drivers/STM32F3xx_HAL_Driver/Src/stm32f3xx_hal_flash_ex.c ****   {
 1407              		.loc 1 186 3 discriminator 2 view .LVU398
 186:cube/Drivers/STM32F3xx_HAL_Driver/Src/stm32f3xx_hal_flash_ex.c ****   {
 1408              		.loc 1 186 17 is_stmt 0 discriminator 2 view .LVU399
 1409 0014 0368     		ldr	r3, [r0]
 186:cube/Drivers/STM32F3xx_HAL_Driver/Src/stm32f3xx_hal_flash_ex.c ****   {
 1410              		.loc 1 186 6 discriminator 2 view .LVU400
 1411 0016 9342     		cmp	r3, r2
 1412 0018 20D0     		beq	.L114
 206:cube/Drivers/STM32F3xx_HAL_Driver/Src/stm32f3xx_hal_flash_ex.c ****     assert_param(IS_FLASH_NB_PAGES(pEraseInit->PageAddress, pEraseInit->NbPages));
 1413              		.loc 1 206 5 is_stmt 1 view .LVU401
 207:cube/Drivers/STM32F3xx_HAL_Driver/Src/stm32f3xx_hal_flash_ex.c ****     
 1414              		.loc 1 207 5 view .LVU402
 211:cube/Drivers/STM32F3xx_HAL_Driver/Src/stm32f3xx_hal_flash_ex.c ****       {
 1415              		.loc 1 211 7 view .LVU403
 211:cube/Drivers/STM32F3xx_HAL_Driver/Src/stm32f3xx_hal_flash_ex.c ****       {
 1416              		.loc 1 211 11 is_stmt 0 view .LVU404
 1417 001a 4CF25030 		movw	r0, #50000
 1418              	.LVL142:
 211:cube/Drivers/STM32F3xx_HAL_Driver/Src/stm32f3xx_hal_flash_ex.c ****       {
 1419              		.loc 1 211 11 view .LVU405
 1420 001e FFF7FEFF 		bl	FLASH_WaitForLastOperation
 1421              	.LVL143:
 211:cube/Drivers/STM32F3xx_HAL_Driver/Src/stm32f3xx_hal_flash_ex.c ****       {
 1422              		.loc 1 211 10 view .LVU406
 1423 0022 88BB     		cbnz	r0, .L109
 214:cube/Drivers/STM32F3xx_HAL_Driver/Src/stm32f3xx_hal_flash_ex.c ****         
 1424              		.loc 1 214 9 is_stmt 1 view .LVU407
 214:cube/Drivers/STM32F3xx_HAL_Driver/Src/stm32f3xx_hal_flash_ex.c ****         
 1425              		.loc 1 214 20 is_stmt 0 view .LVU408
 1426 0024 4FF0FF33 		mov	r3, #-1
 1427 0028 3360     		str	r3, [r6]
 217:cube/Drivers/STM32F3xx_HAL_Driver/Src/stm32f3xx_hal_flash_ex.c ****             address < ((pEraseInit->NbPages * FLASH_PAGE_SIZE) + pEraseInit->PageAddress);
 1428              		.loc 1 217 9 is_stmt 1 view .LVU409
 217:cube/Drivers/STM32F3xx_HAL_Driver/Src/stm32f3xx_hal_flash_ex.c ****             address < ((pEraseInit->NbPages * FLASH_PAGE_SIZE) + pEraseInit->PageAddress);
 1429              		.loc 1 217 21 is_stmt 0 view .LVU410
 1430 002a 6C68     		ldr	r4, [r5, #4]
 1431              	.LVL144:
 177:cube/Drivers/STM32F3xx_HAL_Driver/Src/stm32f3xx_hal_flash_ex.c ****   uint32_t address = 0U;
 1432              		.loc 1 177 21 view .LVU411
 1433 002c 0121     		movs	r1, #1
ARM GAS  C:\Users\Berbardo\AppData\Local\Temp\ccJ3NdKC.s 			page 59


 1434              	.LVL145:
 1435              	.L104:
 218:cube/Drivers/STM32F3xx_HAL_Driver/Src/stm32f3xx_hal_flash_ex.c ****             address += FLASH_PAGE_SIZE)
 1436              		.loc 1 218 35 discriminator 1 view .LVU412
 1437 002e AA68     		ldr	r2, [r5, #8]
 218:cube/Drivers/STM32F3xx_HAL_Driver/Src/stm32f3xx_hal_flash_ex.c ****             address += FLASH_PAGE_SIZE)
 1438              		.loc 1 218 76 discriminator 1 view .LVU413
 1439 0030 6B68     		ldr	r3, [r5, #4]
 218:cube/Drivers/STM32F3xx_HAL_Driver/Src/stm32f3xx_hal_flash_ex.c ****             address += FLASH_PAGE_SIZE)
 1440              		.loc 1 218 64 discriminator 1 view .LVU414
 1441 0032 03EBC223 		add	r3, r3, r2, lsl #11
 217:cube/Drivers/STM32F3xx_HAL_Driver/Src/stm32f3xx_hal_flash_ex.c ****             address < ((pEraseInit->NbPages * FLASH_PAGE_SIZE) + pEraseInit->PageAddress);
 1442              		.loc 1 217 9 discriminator 1 view .LVU415
 1443 0036 A342     		cmp	r3, r4
 1444 0038 27D9     		bls	.L103
 221:cube/Drivers/STM32F3xx_HAL_Driver/Src/stm32f3xx_hal_flash_ex.c ****           
 1445              		.loc 1 221 11 is_stmt 1 view .LVU416
 1446 003a 2046     		mov	r0, r4
 1447 003c FFF7FEFF 		bl	FLASH_PageErase
 1448              	.LVL146:
 224:cube/Drivers/STM32F3xx_HAL_Driver/Src/stm32f3xx_hal_flash_ex.c ****           
 1449              		.loc 1 224 11 view .LVU417
 224:cube/Drivers/STM32F3xx_HAL_Driver/Src/stm32f3xx_hal_flash_ex.c ****           
 1450              		.loc 1 224 20 is_stmt 0 view .LVU418
 1451 0040 4CF25030 		movw	r0, #50000
 1452 0044 FFF7FEFF 		bl	FLASH_WaitForLastOperation
 1453              	.LVL147:
 227:cube/Drivers/STM32F3xx_HAL_Driver/Src/stm32f3xx_hal_flash_ex.c ****           
 1454              		.loc 1 227 11 is_stmt 1 view .LVU419
 1455 0048 154A     		ldr	r2, .L117+4
 1456 004a 1369     		ldr	r3, [r2, #16]
 1457 004c 23F00203 		bic	r3, r3, #2
 1458 0050 1361     		str	r3, [r2, #16]
 229:cube/Drivers/STM32F3xx_HAL_Driver/Src/stm32f3xx_hal_flash_ex.c ****           {
 1459              		.loc 1 229 11 view .LVU420
 229:cube/Drivers/STM32F3xx_HAL_Driver/Src/stm32f3xx_hal_flash_ex.c ****           {
 1460              		.loc 1 229 14 is_stmt 0 view .LVU421
 1461 0052 0146     		mov	r1, r0
 1462 0054 B0B9     		cbnz	r0, .L115
 219:cube/Drivers/STM32F3xx_HAL_Driver/Src/stm32f3xx_hal_flash_ex.c ****         {
 1463              		.loc 1 219 21 view .LVU422
 1464 0056 04F50064 		add	r4, r4, #2048
 1465              	.LVL148:
 219:cube/Drivers/STM32F3xx_HAL_Driver/Src/stm32f3xx_hal_flash_ex.c ****         {
 1466              		.loc 1 219 21 view .LVU423
 1467 005a E8E7     		b	.L104
 1468              	.LVL149:
 1469              	.L114:
 190:cube/Drivers/STM32F3xx_HAL_Driver/Src/stm32f3xx_hal_flash_ex.c ****       {
 1470              		.loc 1 190 7 is_stmt 1 view .LVU424
 190:cube/Drivers/STM32F3xx_HAL_Driver/Src/stm32f3xx_hal_flash_ex.c ****       {
 1471              		.loc 1 190 11 is_stmt 0 view .LVU425
 1472 005c 4CF25030 		movw	r0, #50000
 1473              	.LVL150:
 190:cube/Drivers/STM32F3xx_HAL_Driver/Src/stm32f3xx_hal_flash_ex.c ****       {
 1474              		.loc 1 190 11 view .LVU426
 1475 0060 FFF7FEFF 		bl	FLASH_WaitForLastOperation
ARM GAS  C:\Users\Berbardo\AppData\Local\Temp\ccJ3NdKC.s 			page 60


 1476              	.LVL151:
 190:cube/Drivers/STM32F3xx_HAL_Driver/Src/stm32f3xx_hal_flash_ex.c ****       {
 1477              		.loc 1 190 10 view .LVU427
 1478 0064 08B1     		cbz	r0, .L116
 177:cube/Drivers/STM32F3xx_HAL_Driver/Src/stm32f3xx_hal_flash_ex.c ****   uint32_t address = 0U;
 1479              		.loc 1 177 21 view .LVU428
 1480 0066 0121     		movs	r1, #1
 1481 0068 0FE0     		b	.L103
 1482              	.L116:
 193:cube/Drivers/STM32F3xx_HAL_Driver/Src/stm32f3xx_hal_flash_ex.c ****         
 1483              		.loc 1 193 9 is_stmt 1 view .LVU429
 1484 006a FFF7FEFF 		bl	FLASH_MassErase
 1485              	.LVL152:
 196:cube/Drivers/STM32F3xx_HAL_Driver/Src/stm32f3xx_hal_flash_ex.c ****         
 1486              		.loc 1 196 9 view .LVU430
 196:cube/Drivers/STM32F3xx_HAL_Driver/Src/stm32f3xx_hal_flash_ex.c ****         
 1487              		.loc 1 196 18 is_stmt 0 view .LVU431
 1488 006e 4CF25030 		movw	r0, #50000
 1489 0072 FFF7FEFF 		bl	FLASH_WaitForLastOperation
 1490              	.LVL153:
 1491 0076 0146     		mov	r1, r0
 1492              	.LVL154:
 199:cube/Drivers/STM32F3xx_HAL_Driver/Src/stm32f3xx_hal_flash_ex.c ****       }
 1493              		.loc 1 199 9 is_stmt 1 view .LVU432
 1494 0078 094A     		ldr	r2, .L117+4
 1495 007a 1369     		ldr	r3, [r2, #16]
 1496 007c 23F00403 		bic	r3, r3, #4
 1497 0080 1361     		str	r3, [r2, #16]
 1498 0082 02E0     		b	.L103
 1499              	.LVL155:
 1500              	.L115:
 232:cube/Drivers/STM32F3xx_HAL_Driver/Src/stm32f3xx_hal_flash_ex.c ****             break;
 1501              		.loc 1 232 13 view .LVU433
 232:cube/Drivers/STM32F3xx_HAL_Driver/Src/stm32f3xx_hal_flash_ex.c ****             break;
 1502              		.loc 1 232 24 is_stmt 0 view .LVU434
 1503 0084 3460     		str	r4, [r6]
 233:cube/Drivers/STM32F3xx_HAL_Driver/Src/stm32f3xx_hal_flash_ex.c ****           }
 1504              		.loc 1 233 13 is_stmt 1 view .LVU435
 1505 0086 00E0     		b	.L103
 1506              	.LVL156:
 1507              	.L109:
 177:cube/Drivers/STM32F3xx_HAL_Driver/Src/stm32f3xx_hal_flash_ex.c ****   uint32_t address = 0U;
 1508              		.loc 1 177 21 is_stmt 0 view .LVU436
 1509 0088 0121     		movs	r1, #1
 1510              	.LVL157:
 1511              	.L103:
 240:cube/Drivers/STM32F3xx_HAL_Driver/Src/stm32f3xx_hal_flash_ex.c **** 
 1512              		.loc 1 240 3 is_stmt 1 view .LVU437
 240:cube/Drivers/STM32F3xx_HAL_Driver/Src/stm32f3xx_hal_flash_ex.c **** 
 1513              		.loc 1 240 3 view .LVU438
 1514 008a 044B     		ldr	r3, .L117
 1515 008c 0022     		movs	r2, #0
 1516 008e 1A76     		strb	r2, [r3, #24]
 242:cube/Drivers/STM32F3xx_HAL_Driver/Src/stm32f3xx_hal_flash_ex.c **** }
 1517              		.loc 1 242 3 view .LVU439
 243:cube/Drivers/STM32F3xx_HAL_Driver/Src/stm32f3xx_hal_flash_ex.c **** 
 1518              		.loc 1 243 1 is_stmt 0 view .LVU440
ARM GAS  C:\Users\Berbardo\AppData\Local\Temp\ccJ3NdKC.s 			page 61


 1519 0090 0846     		mov	r0, r1
 1520 0092 70BD     		pop	{r4, r5, r6, pc}
 1521              	.LVL158:
 1522              	.L107:
 1523              		.cfi_def_cfa_offset 0
 1524              		.cfi_restore 4
 1525              		.cfi_restore 5
 1526              		.cfi_restore 6
 1527              		.cfi_restore 14
 181:cube/Drivers/STM32F3xx_HAL_Driver/Src/stm32f3xx_hal_flash_ex.c **** 
 1528              		.loc 1 181 3 view .LVU441
 1529 0094 0221     		movs	r1, #2
 1530              	.LVL159:
 243:cube/Drivers/STM32F3xx_HAL_Driver/Src/stm32f3xx_hal_flash_ex.c **** 
 1531              		.loc 1 243 1 view .LVU442
 1532 0096 0846     		mov	r0, r1
 1533              	.LVL160:
 243:cube/Drivers/STM32F3xx_HAL_Driver/Src/stm32f3xx_hal_flash_ex.c **** 
 1534              		.loc 1 243 1 view .LVU443
 1535 0098 7047     		bx	lr
 1536              	.L118:
 1537 009a 00BF     		.align	2
 1538              	.L117:
 1539 009c 00000000 		.word	pFlash
 1540 00a0 00200240 		.word	1073881088
 1541              		.cfi_endproc
 1542              	.LFE126:
 1544              		.section	.text.HAL_FLASHEx_Erase_IT,"ax",%progbits
 1545              		.align	1
 1546              		.global	HAL_FLASHEx_Erase_IT
 1547              		.syntax unified
 1548              		.thumb
 1549              		.thumb_func
 1550              		.fpu fpv4-sp-d16
 1552              	HAL_FLASHEx_Erase_IT:
 1553              	.LVL161:
 1554              	.LFB127:
 257:cube/Drivers/STM32F3xx_HAL_Driver/Src/stm32f3xx_hal_flash_ex.c ****   HAL_StatusTypeDef status = HAL_OK;
 1555              		.loc 1 257 1 is_stmt 1 view -0
 1556              		.cfi_startproc
 1557              		@ args = 0, pretend = 0, frame = 0
 1558              		@ frame_needed = 0, uses_anonymous_args = 0
 257:cube/Drivers/STM32F3xx_HAL_Driver/Src/stm32f3xx_hal_flash_ex.c ****   HAL_StatusTypeDef status = HAL_OK;
 1559              		.loc 1 257 1 is_stmt 0 view .LVU445
 1560 0000 10B5     		push	{r4, lr}
 1561              		.cfi_def_cfa_offset 8
 1562              		.cfi_offset 4, -8
 1563              		.cfi_offset 14, -4
 258:cube/Drivers/STM32F3xx_HAL_Driver/Src/stm32f3xx_hal_flash_ex.c **** 
 1564              		.loc 1 258 3 is_stmt 1 view .LVU446
 1565              	.LVL162:
 261:cube/Drivers/STM32F3xx_HAL_Driver/Src/stm32f3xx_hal_flash_ex.c **** 
 1566              		.loc 1 261 3 view .LVU447
 261:cube/Drivers/STM32F3xx_HAL_Driver/Src/stm32f3xx_hal_flash_ex.c **** 
 1567              		.loc 1 261 3 view .LVU448
 1568 0002 144B     		ldr	r3, .L126
 1569 0004 1B7E     		ldrb	r3, [r3, #24]	@ zero_extendqisi2
ARM GAS  C:\Users\Berbardo\AppData\Local\Temp\ccJ3NdKC.s 			page 62


 1570 0006 012B     		cmp	r3, #1
 1571 0008 1FD0     		beq	.L122
 261:cube/Drivers/STM32F3xx_HAL_Driver/Src/stm32f3xx_hal_flash_ex.c **** 
 1572              		.loc 1 261 3 discriminator 2 view .LVU449
 1573 000a 124B     		ldr	r3, .L126
 1574 000c 0122     		movs	r2, #1
 1575 000e 1A76     		strb	r2, [r3, #24]
 264:cube/Drivers/STM32F3xx_HAL_Driver/Src/stm32f3xx_hal_flash_ex.c ****   {
 1576              		.loc 1 264 3 discriminator 2 view .LVU450
 264:cube/Drivers/STM32F3xx_HAL_Driver/Src/stm32f3xx_hal_flash_ex.c ****   {
 1577              		.loc 1 264 13 is_stmt 0 discriminator 2 view .LVU451
 1578 0010 1B78     		ldrb	r3, [r3]	@ zero_extendqisi2
 264:cube/Drivers/STM32F3xx_HAL_Driver/Src/stm32f3xx_hal_flash_ex.c ****   {
 1579              		.loc 1 264 6 discriminator 2 view .LVU452
 1580 0012 03F0FF04 		and	r4, r3, #255
 1581 0016 D3B9     		cbnz	r3, .L123
 270:cube/Drivers/STM32F3xx_HAL_Driver/Src/stm32f3xx_hal_flash_ex.c **** 
 1582              		.loc 1 270 3 is_stmt 1 view .LVU453
 273:cube/Drivers/STM32F3xx_HAL_Driver/Src/stm32f3xx_hal_flash_ex.c **** 
 1583              		.loc 1 273 3 view .LVU454
 1584 0018 0F4A     		ldr	r2, .L126+4
 1585 001a 1369     		ldr	r3, [r2, #16]
 1586 001c 43F4A053 		orr	r3, r3, #5120
 1587 0020 1361     		str	r3, [r2, #16]
 275:cube/Drivers/STM32F3xx_HAL_Driver/Src/stm32f3xx_hal_flash_ex.c ****   {
 1588              		.loc 1 275 3 view .LVU455
 275:cube/Drivers/STM32F3xx_HAL_Driver/Src/stm32f3xx_hal_flash_ex.c ****   {
 1589              		.loc 1 275 17 is_stmt 0 view .LVU456
 1590 0022 0368     		ldr	r3, [r0]
 275:cube/Drivers/STM32F3xx_HAL_Driver/Src/stm32f3xx_hal_flash_ex.c ****   {
 1591              		.loc 1 275 6 view .LVU457
 1592 0024 012B     		cmp	r3, #1
 1593 0026 0AD0     		beq	.L125
 286:cube/Drivers/STM32F3xx_HAL_Driver/Src/stm32f3xx_hal_flash_ex.c ****     assert_param(IS_FLASH_NB_PAGES(pEraseInit->PageAddress, pEraseInit->NbPages));
 1594              		.loc 1 286 5 is_stmt 1 view .LVU458
 287:cube/Drivers/STM32F3xx_HAL_Driver/Src/stm32f3xx_hal_flash_ex.c **** 
 1595              		.loc 1 287 5 view .LVU459
 289:cube/Drivers/STM32F3xx_HAL_Driver/Src/stm32f3xx_hal_flash_ex.c ****     pFlash.DataRemaining = pEraseInit->NbPages;
 1596              		.loc 1 289 5 view .LVU460
 289:cube/Drivers/STM32F3xx_HAL_Driver/Src/stm32f3xx_hal_flash_ex.c ****     pFlash.DataRemaining = pEraseInit->NbPages;
 1597              		.loc 1 289 29 is_stmt 0 view .LVU461
 1598 0028 0A4B     		ldr	r3, .L126
 1599 002a 0122     		movs	r2, #1
 1600 002c 1A70     		strb	r2, [r3]
 290:cube/Drivers/STM32F3xx_HAL_Driver/Src/stm32f3xx_hal_flash_ex.c ****     pFlash.Address = pEraseInit->PageAddress;
 1601              		.loc 1 290 5 is_stmt 1 view .LVU462
 290:cube/Drivers/STM32F3xx_HAL_Driver/Src/stm32f3xx_hal_flash_ex.c ****     pFlash.Address = pEraseInit->PageAddress;
 1602              		.loc 1 290 38 is_stmt 0 view .LVU463
 1603 002e 8268     		ldr	r2, [r0, #8]
 290:cube/Drivers/STM32F3xx_HAL_Driver/Src/stm32f3xx_hal_flash_ex.c ****     pFlash.Address = pEraseInit->PageAddress;
 1604              		.loc 1 290 26 view .LVU464
 1605 0030 5A60     		str	r2, [r3, #4]
 291:cube/Drivers/STM32F3xx_HAL_Driver/Src/stm32f3xx_hal_flash_ex.c **** 
 1606              		.loc 1 291 5 is_stmt 1 view .LVU465
 291:cube/Drivers/STM32F3xx_HAL_Driver/Src/stm32f3xx_hal_flash_ex.c **** 
 1607              		.loc 1 291 32 is_stmt 0 view .LVU466
 1608 0032 4068     		ldr	r0, [r0, #4]
ARM GAS  C:\Users\Berbardo\AppData\Local\Temp\ccJ3NdKC.s 			page 63


 1609              	.LVL163:
 291:cube/Drivers/STM32F3xx_HAL_Driver/Src/stm32f3xx_hal_flash_ex.c **** 
 1610              		.loc 1 291 20 view .LVU467
 1611 0034 9860     		str	r0, [r3, #8]
 294:cube/Drivers/STM32F3xx_HAL_Driver/Src/stm32f3xx_hal_flash_ex.c ****   }
 1612              		.loc 1 294 5 is_stmt 1 view .LVU468
 1613 0036 FFF7FEFF 		bl	FLASH_PageErase
 1614              	.LVL164:
 1615              	.L120:
 298:cube/Drivers/STM32F3xx_HAL_Driver/Src/stm32f3xx_hal_flash_ex.c **** 
 1616              		.loc 1 298 1 is_stmt 0 view .LVU469
 1617 003a 2046     		mov	r0, r4
 1618 003c 10BD     		pop	{r4, pc}
 1619              	.LVL165:
 1620              	.L125:
 278:cube/Drivers/STM32F3xx_HAL_Driver/Src/stm32f3xx_hal_flash_ex.c ****         FLASH_MassErase();
 1621              		.loc 1 278 5 is_stmt 1 view .LVU470
 278:cube/Drivers/STM32F3xx_HAL_Driver/Src/stm32f3xx_hal_flash_ex.c ****         FLASH_MassErase();
 1622              		.loc 1 278 29 is_stmt 0 view .LVU471
 1623 003e 054B     		ldr	r3, .L126
 1624 0040 0222     		movs	r2, #2
 1625 0042 1A70     		strb	r2, [r3]
 279:cube/Drivers/STM32F3xx_HAL_Driver/Src/stm32f3xx_hal_flash_ex.c ****   }
 1626              		.loc 1 279 9 is_stmt 1 view .LVU472
 1627 0044 FFF7FEFF 		bl	FLASH_MassErase
 1628              	.LVL166:
 279:cube/Drivers/STM32F3xx_HAL_Driver/Src/stm32f3xx_hal_flash_ex.c ****   }
 1629              		.loc 1 279 9 is_stmt 0 view .LVU473
 1630 0048 F7E7     		b	.L120
 1631              	.LVL167:
 1632              	.L122:
 261:cube/Drivers/STM32F3xx_HAL_Driver/Src/stm32f3xx_hal_flash_ex.c **** 
 1633              		.loc 1 261 3 view .LVU474
 1634 004a 0224     		movs	r4, #2
 1635 004c F5E7     		b	.L120
 1636              	.L123:
 266:cube/Drivers/STM32F3xx_HAL_Driver/Src/stm32f3xx_hal_flash_ex.c ****   }
 1637              		.loc 1 266 12 view .LVU475
 1638 004e 0124     		movs	r4, #1
 1639 0050 F3E7     		b	.L120
 1640              	.L127:
 1641 0052 00BF     		.align	2
 1642              	.L126:
 1643 0054 00000000 		.word	pFlash
 1644 0058 00200240 		.word	1073881088
 1645              		.cfi_endproc
 1646              	.LFE127:
 1648              		.text
 1649              	.Letext0:
 1650              		.file 3 "c:\\program files (x86)\\gnu tools arm embedded\\8 2019-q3-update\\arm-none-eabi\\include
 1651              		.file 4 "c:\\program files (x86)\\gnu tools arm embedded\\8 2019-q3-update\\arm-none-eabi\\include
 1652              		.file 5 "cube/Drivers/CMSIS/Include/core_cm4.h"
 1653              		.file 6 "cube/Drivers/CMSIS/Device/ST/STM32F3xx/Include/system_stm32f3xx.h"
 1654              		.file 7 "cube/Drivers/CMSIS/Device/ST/STM32F3xx/Include/stm32f303xe.h"
 1655              		.file 8 "c:\\program files (x86)\\gnu tools arm embedded\\8 2019-q3-update\\lib\\gcc\\arm-none-eab
 1656              		.file 9 "c:\\program files (x86)\\gnu tools arm embedded\\8 2019-q3-update\\arm-none-eabi\\include
 1657              		.file 10 "c:\\program files (x86)\\gnu tools arm embedded\\8 2019-q3-update\\arm-none-eabi\\includ
ARM GAS  C:\Users\Berbardo\AppData\Local\Temp\ccJ3NdKC.s 			page 64


 1658              		.file 11 "c:\\program files (x86)\\gnu tools arm embedded\\8 2019-q3-update\\arm-none-eabi\\includ
 1659              		.file 12 "cube/Drivers/STM32F3xx_HAL_Driver/Inc/stm32f3xx_hal_def.h"
 1660              		.file 13 "cube/Drivers/STM32F3xx_HAL_Driver/Inc/stm32f3xx_hal_flash.h"
 1661              		.file 14 "cube/Drivers/STM32F3xx_HAL_Driver/Inc/stm32f3xx_hal_flash_ex.h"
 1662              		.file 15 "cube/Drivers/STM32F3xx_HAL_Driver/Inc/stm32f3xx_hal.h"
ARM GAS  C:\Users\Berbardo\AppData\Local\Temp\ccJ3NdKC.s 			page 65


DEFINED SYMBOLS
                            *ABS*:00000000 stm32f3xx_hal_flash_ex.c
C:\Users\Berbardo\AppData\Local\Temp\ccJ3NdKC.s:18     .text.FLASH_MassErase:00000000 $t
C:\Users\Berbardo\AppData\Local\Temp\ccJ3NdKC.s:25     .text.FLASH_MassErase:00000000 FLASH_MassErase
C:\Users\Berbardo\AppData\Local\Temp\ccJ3NdKC.s:52     .text.FLASH_MassErase:0000001c $d
C:\Users\Berbardo\AppData\Local\Temp\ccJ3NdKC.s:58     .text.FLASH_OB_GetWRP:00000000 $t
C:\Users\Berbardo\AppData\Local\Temp\ccJ3NdKC.s:64     .text.FLASH_OB_GetWRP:00000000 FLASH_OB_GetWRP
C:\Users\Berbardo\AppData\Local\Temp\ccJ3NdKC.s:80     .text.FLASH_OB_GetWRP:00000008 $d
C:\Users\Berbardo\AppData\Local\Temp\ccJ3NdKC.s:85     .text.FLASH_OB_GetRDP:00000000 $t
C:\Users\Berbardo\AppData\Local\Temp\ccJ3NdKC.s:91     .text.FLASH_OB_GetRDP:00000000 FLASH_OB_GetRDP
C:\Users\Berbardo\AppData\Local\Temp\ccJ3NdKC.s:130    .text.FLASH_OB_GetRDP:0000001c $d
C:\Users\Berbardo\AppData\Local\Temp\ccJ3NdKC.s:135    .text.FLASH_OB_RDP_LevelConfig:00000000 $t
C:\Users\Berbardo\AppData\Local\Temp\ccJ3NdKC.s:141    .text.FLASH_OB_RDP_LevelConfig:00000000 FLASH_OB_RDP_LevelConfig
C:\Users\Berbardo\AppData\Local\Temp\ccJ3NdKC.s:233    .text.FLASH_OB_RDP_LevelConfig:00000064 $d
C:\Users\Berbardo\AppData\Local\Temp\ccJ3NdKC.s:240    .text.FLASH_OB_UserConfig:00000000 $t
C:\Users\Berbardo\AppData\Local\Temp\ccJ3NdKC.s:246    .text.FLASH_OB_UserConfig:00000000 FLASH_OB_UserConfig
C:\Users\Berbardo\AppData\Local\Temp\ccJ3NdKC.s:320    .text.FLASH_OB_UserConfig:00000040 $d
C:\Users\Berbardo\AppData\Local\Temp\ccJ3NdKC.s:327    .text.FLASH_OB_ProgramData:00000000 $t
C:\Users\Berbardo\AppData\Local\Temp\ccJ3NdKC.s:333    .text.FLASH_OB_ProgramData:00000000 FLASH_OB_ProgramData
C:\Users\Berbardo\AppData\Local\Temp\ccJ3NdKC.s:402    .text.FLASH_OB_ProgramData:00000040 $d
C:\Users\Berbardo\AppData\Local\Temp\ccJ3NdKC.s:408    .text.FLASH_OB_GetUser:00000000 $t
C:\Users\Berbardo\AppData\Local\Temp\ccJ3NdKC.s:414    .text.FLASH_OB_GetUser:00000000 FLASH_OB_GetUser
C:\Users\Berbardo\AppData\Local\Temp\ccJ3NdKC.s:457    .text.FLASH_OB_GetUser:0000001c $d
C:\Users\Berbardo\AppData\Local\Temp\ccJ3NdKC.s:462    .text.HAL_FLASHEx_OBErase:00000000 $t
C:\Users\Berbardo\AppData\Local\Temp\ccJ3NdKC.s:469    .text.HAL_FLASHEx_OBErase:00000000 HAL_FLASHEx_OBErase
C:\Users\Berbardo\AppData\Local\Temp\ccJ3NdKC.s:552    .text.HAL_FLASHEx_OBErase:00000050 $d
C:\Users\Berbardo\AppData\Local\Temp\ccJ3NdKC.s:558    .text.FLASH_OB_EnableWRP:00000000 $t
C:\Users\Berbardo\AppData\Local\Temp\ccJ3NdKC.s:564    .text.FLASH_OB_EnableWRP:00000000 FLASH_OB_EnableWRP
C:\Users\Berbardo\AppData\Local\Temp\ccJ3NdKC.s:762    .text.FLASH_OB_EnableWRP:000000b4 $d
C:\Users\Berbardo\AppData\Local\Temp\ccJ3NdKC.s:769    .text.FLASH_OB_DisableWRP:00000000 $t
C:\Users\Berbardo\AppData\Local\Temp\ccJ3NdKC.s:775    .text.FLASH_OB_DisableWRP:00000000 FLASH_OB_DisableWRP
C:\Users\Berbardo\AppData\Local\Temp\ccJ3NdKC.s:973    .text.FLASH_OB_DisableWRP:000000b4 $d
C:\Users\Berbardo\AppData\Local\Temp\ccJ3NdKC.s:980    .text.HAL_FLASHEx_OBProgram:00000000 $t
C:\Users\Berbardo\AppData\Local\Temp\ccJ3NdKC.s:987    .text.HAL_FLASHEx_OBProgram:00000000 HAL_FLASHEx_OBProgram
C:\Users\Berbardo\AppData\Local\Temp\ccJ3NdKC.s:1176   .text.HAL_FLASHEx_OBProgram:000000a4 $d
C:\Users\Berbardo\AppData\Local\Temp\ccJ3NdKC.s:1181   .text.HAL_FLASHEx_OBGetConfig:00000000 $t
C:\Users\Berbardo\AppData\Local\Temp\ccJ3NdKC.s:1188   .text.HAL_FLASHEx_OBGetConfig:00000000 HAL_FLASHEx_OBGetConfig
C:\Users\Berbardo\AppData\Local\Temp\ccJ3NdKC.s:1230   .text.HAL_FLASHEx_OBGetUserData:00000000 $t
C:\Users\Berbardo\AppData\Local\Temp\ccJ3NdKC.s:1237   .text.HAL_FLASHEx_OBGetUserData:00000000 HAL_FLASHEx_OBGetUserData
C:\Users\Berbardo\AppData\Local\Temp\ccJ3NdKC.s:1323   .text.HAL_FLASHEx_OBGetUserData:00000038 $d
C:\Users\Berbardo\AppData\Local\Temp\ccJ3NdKC.s:1329   .text.FLASH_PageErase:00000000 $t
C:\Users\Berbardo\AppData\Local\Temp\ccJ3NdKC.s:1336   .text.FLASH_PageErase:00000000 FLASH_PageErase
C:\Users\Berbardo\AppData\Local\Temp\ccJ3NdKC.s:1365   .text.FLASH_PageErase:0000001c $d
C:\Users\Berbardo\AppData\Local\Temp\ccJ3NdKC.s:1371   .text.HAL_FLASHEx_Erase:00000000 $t
C:\Users\Berbardo\AppData\Local\Temp\ccJ3NdKC.s:1378   .text.HAL_FLASHEx_Erase:00000000 HAL_FLASHEx_Erase
C:\Users\Berbardo\AppData\Local\Temp\ccJ3NdKC.s:1539   .text.HAL_FLASHEx_Erase:0000009c $d
C:\Users\Berbardo\AppData\Local\Temp\ccJ3NdKC.s:1545   .text.HAL_FLASHEx_Erase_IT:00000000 $t
C:\Users\Berbardo\AppData\Local\Temp\ccJ3NdKC.s:1552   .text.HAL_FLASHEx_Erase_IT:00000000 HAL_FLASHEx_Erase_IT
C:\Users\Berbardo\AppData\Local\Temp\ccJ3NdKC.s:1643   .text.HAL_FLASHEx_Erase_IT:00000054 $d
                           .group:00000000 wm4.0.cbadcd7125b439f63d13d43ae17ce4cb
                           .group:00000000 wm4.target_vl53l1_1.h.12.551c1b90918b951c5224feb9b75565bd
                           .group:00000000 wm4.stm32f3xx_hal_conf.h.37.cb1c9cb802da867d86527a1477311c20
                           .group:00000000 wm4.stm32f3xx.h.55.fe34e0340b06ab20c90f3cf1d792e0eb
                           .group:00000000 wm4.stm32f303xe.h.51.65501469ddbb8a3dac94b2f9d61c4e79
                           .group:00000000 wm4._newlib_version.h.4.9ba035841e762c3308916a0ce96032e7
                           .group:00000000 wm4.features.h.33.d0b7f3cd6ee95f610104014bb3ed522a
                           .group:00000000 wm4._default_types.h.15.247e5cd201eca3442cbf5404108c4935
ARM GAS  C:\Users\Berbardo\AppData\Local\Temp\ccJ3NdKC.s 			page 66


                           .group:00000000 wm4._intsup.h.10.48bafbb683905c4daa4565a85aeeb264
                           .group:00000000 wm4._stdint.h.10.c24fa3af3bc1706662bb5593a907e841
                           .group:00000000 wm4.stdint.h.23.d53047a68f4a85177f80b422d52785ed
                           .group:00000000 wm4.core_cm4.h.74.09ac1776756364a5a5d23084aa23e459
                           .group:00000000 wm4.cmsis_gcc.h.36.39970cb43ce4b53c82644a1f9bc2eab9
                           .group:00000000 wm4.core_cm4.h.223.390ff9b0e06949b13520d8b6746f63e8
                           .group:00000000 wm4.stm32f303xe.h.787.6957ba193b5d3b55f4f9c444bc42cb63
                           .group:00000000 wm4.stm32f3xx.h.191.245d83eb21a6c69e2950c577a7134277
                           .group:00000000 wm4.newlib.h.8.f6e543eac3f2f65163ba2ffe3b04987b
                           .group:00000000 wm4.ieeefp.h.77.5499ed899a78229fbaf6d102924f4714
                           .group:00000000 wm4.config.h.224.c701144a7b0518c6ee9b9b5465b79f81
                           .group:00000000 wm4._ansi.h.31.de524f58584151836e90d8620a16f8e8
                           .group:00000000 wm4.stdio.h.31.7c0e28c411445f3f9c5b11accf882760
                           .group:00000000 wm4.stddef.h.187.2ff233552538c6ff9b8575ca8ea52cb3
                           .group:00000000 wm4.cdefs.h.49.6260d97adb8d27534cbdc0f868b8ea87
                           .group:00000000 wm4.stddef.h.39.ec95e8feac892e292b69dc7ae75b0d64
                           .group:00000000 wm4.stdarg.h.34.3a23a216c0c293b3d2ea2e89281481e6
                           .group:00000000 wm4._types.h.20.dd0d04dca3800a0d2a6129b87f3adbb2
                           .group:00000000 wm4.stddef.h.161.5349cb105733e8777bfb0cf53c4e3f34
                           .group:00000000 wm4._types.h.127.34941de1b2539d59d5cac00e0dd27a45
                           .group:00000000 wm4.reent.h.17.e292bf8b0bec6c96e131a54347145a30
                           .group:00000000 wm4.lock.h.2.1461d1fff82dffe8bfddc23307f6484f
                           .group:00000000 wm4.reent.h.77.dcd6129ff07fe81bd5636db29abe53b2
                           .group:00000000 wm4.types.h.40.c2dcbbb5c1f4f0e5cb716ebf7776da48
                           .group:00000000 wm4.stdio.h.2.4aa87247282eca6c8f36f9de33d8df1a
                           .group:00000000 wm4.stdio.h.81.2a55589bfa3ee24eeb84e3c79458e4a9
                           .group:00000000 wm4.stm32f3xx_hal_def.h.76.500c7c9bfcb8d4adebf82d1af27ff044
                           .group:00000000 wm4.stm32f3xx_hal_rcc.h.64.06cc24fd94394ddd03725d84823331b1
                           .group:00000000 wm4.stm32f3xx_hal_rcc_ex.h.38.96615d6f3e5897bb79454968f7fc6c86
                           .group:00000000 wm4.stm32f3xx_hal_gpio.h.38.11db931fcbf37182e25c3927ddf6e8ba
                           .group:00000000 wm4.stm32f3xx_hal_gpio_ex.h.38.46a6c05d651e2a032ac66cebe63916b8
                           .group:00000000 wm4.stm32f3xx_hal_dma.h.38.61966c780efd486aa451ae49ca247997
                           .group:00000000 wm4.stm32f3xx_hal_dma_ex.h.38.195e7d437d9280b9f4e6bae0fa00db04
                           .group:00000000 wm4.stm32f3xx_hal_dma.h.423.83da80eb3e6ae96f050d0c5e4b55e4b9
                           .group:00000000 wm4.stm32f3xx_hal_cortex.h.38.c5c1d06be9dad8e7837dbe16f3535233
                           .group:00000000 wm4.stm32f3xx_hal_flash.h.38.2b4c202390dfbe69a578ce118ab4d799
                           .group:00000000 wm4.stm32f3xx_hal_flash_ex.h.38.65931ad4b848f69ba672eb38b2753615
                           .group:00000000 wm4.stm32f3xx_hal_i2c.h.38.e3750f5f029ebf729a7cf07e85cad615
                           .group:00000000 wm4.stm32f3xx_hal_i2c_ex.h.38.bdd47c8bc2d21749d9fd72e6b8484890
                           .group:00000000 wm4.stm32f3xx_hal_i2c.h.626.05cba3c85b66bb4631bfd2ebbfab1b06
                           .group:00000000 wm4.stm32f3xx_hal_pwr.h.38.efb6ce75a5c12d6b2c7c914e7a94ec2b
                           .group:00000000 wm4.stm32f3xx_hal_pwr_ex.h.38.d228edc56905d96af2d831d3c8e0487a
                           .group:00000000 wm4.stm32f3xx_hal.h.60.11e72be277d7cf245b56360bacde3327

UNDEFINED SYMBOLS
pFlash
FLASH_WaitForLastOperation
