ARM GAS  C:\Users\Berbardo\AppData\Local\Temp\cczWbgEE.s 			page 1


   1              		.cpu cortex-m4
   2              		.eabi_attribute 27, 1
   3              		.eabi_attribute 28, 1
   4              		.eabi_attribute 20, 1
   5              		.eabi_attribute 21, 1
   6              		.eabi_attribute 23, 3
   7              		.eabi_attribute 24, 1
   8              		.eabi_attribute 25, 1
   9              		.eabi_attribute 26, 1
  10              		.eabi_attribute 30, 1
  11              		.eabi_attribute 34, 1
  12              		.eabi_attribute 18, 4
  13              		.file	"stm32f3xx_hal_gpio.c"
  14              		.text
  15              	.Ltext0:
  16              		.cfi_sections	.debug_frame
  17              		.section	.text.HAL_GPIO_Init,"ax",%progbits
  18              		.align	1
  19              		.global	HAL_GPIO_Init
  20              		.arch armv7e-m
  21              		.syntax unified
  22              		.thumb
  23              		.thumb_func
  24              		.fpu fpv4-sp-d16
  26              	HAL_GPIO_Init:
  27              	.LVL0:
  28              	.LFB126:
  29              		.file 1 "cube/Drivers/STM32F3xx_HAL_Driver/Src/stm32f3xx_hal_gpio.c"
   1:cube/Drivers/STM32F3xx_HAL_Driver/Src/stm32f3xx_hal_gpio.c **** /**
   2:cube/Drivers/STM32F3xx_HAL_Driver/Src/stm32f3xx_hal_gpio.c ****   ******************************************************************************
   3:cube/Drivers/STM32F3xx_HAL_Driver/Src/stm32f3xx_hal_gpio.c ****   * @file    stm32f3xx_hal_gpio.c
   4:cube/Drivers/STM32F3xx_HAL_Driver/Src/stm32f3xx_hal_gpio.c ****   * @author  MCD Application Team
   5:cube/Drivers/STM32F3xx_HAL_Driver/Src/stm32f3xx_hal_gpio.c ****   * @brief   GPIO HAL module driver.
   6:cube/Drivers/STM32F3xx_HAL_Driver/Src/stm32f3xx_hal_gpio.c ****   *          This file provides firmware functions to manage the following
   7:cube/Drivers/STM32F3xx_HAL_Driver/Src/stm32f3xx_hal_gpio.c ****   *          functionalities of the General Purpose Input/Output (GPIO) peripheral:
   8:cube/Drivers/STM32F3xx_HAL_Driver/Src/stm32f3xx_hal_gpio.c ****   *           + Initialization and de-initialization functions
   9:cube/Drivers/STM32F3xx_HAL_Driver/Src/stm32f3xx_hal_gpio.c ****   *           + IO operation functions
  10:cube/Drivers/STM32F3xx_HAL_Driver/Src/stm32f3xx_hal_gpio.c ****   *
  11:cube/Drivers/STM32F3xx_HAL_Driver/Src/stm32f3xx_hal_gpio.c ****   @verbatim
  12:cube/Drivers/STM32F3xx_HAL_Driver/Src/stm32f3xx_hal_gpio.c ****   ==============================================================================
  13:cube/Drivers/STM32F3xx_HAL_Driver/Src/stm32f3xx_hal_gpio.c ****                     ##### GPIO Peripheral features #####
  14:cube/Drivers/STM32F3xx_HAL_Driver/Src/stm32f3xx_hal_gpio.c ****   ==============================================================================
  15:cube/Drivers/STM32F3xx_HAL_Driver/Src/stm32f3xx_hal_gpio.c ****   [..]
  16:cube/Drivers/STM32F3xx_HAL_Driver/Src/stm32f3xx_hal_gpio.c ****     (+) Each port bit of the general-purpose I/O (GPIO) ports can be individually
  17:cube/Drivers/STM32F3xx_HAL_Driver/Src/stm32f3xx_hal_gpio.c ****         configured by software in several modes:
  18:cube/Drivers/STM32F3xx_HAL_Driver/Src/stm32f3xx_hal_gpio.c ****         (++) Input mode
  19:cube/Drivers/STM32F3xx_HAL_Driver/Src/stm32f3xx_hal_gpio.c ****         (++) Analog mode
  20:cube/Drivers/STM32F3xx_HAL_Driver/Src/stm32f3xx_hal_gpio.c ****         (++) Output mode
  21:cube/Drivers/STM32F3xx_HAL_Driver/Src/stm32f3xx_hal_gpio.c ****         (++) Alternate function mode
  22:cube/Drivers/STM32F3xx_HAL_Driver/Src/stm32f3xx_hal_gpio.c ****         (++) External interrupt/event lines
  23:cube/Drivers/STM32F3xx_HAL_Driver/Src/stm32f3xx_hal_gpio.c **** 
  24:cube/Drivers/STM32F3xx_HAL_Driver/Src/stm32f3xx_hal_gpio.c ****     (+) During and just after reset, the alternate functions and external interrupt
  25:cube/Drivers/STM32F3xx_HAL_Driver/Src/stm32f3xx_hal_gpio.c ****         lines are not active and the I/O ports are configured in input floating mode.
  26:cube/Drivers/STM32F3xx_HAL_Driver/Src/stm32f3xx_hal_gpio.c **** 
  27:cube/Drivers/STM32F3xx_HAL_Driver/Src/stm32f3xx_hal_gpio.c ****     (+) All GPIO pins have weak internal pull-up and pull-down resistors, which can be
  28:cube/Drivers/STM32F3xx_HAL_Driver/Src/stm32f3xx_hal_gpio.c ****         activated or not.
  29:cube/Drivers/STM32F3xx_HAL_Driver/Src/stm32f3xx_hal_gpio.c **** 
ARM GAS  C:\Users\Berbardo\AppData\Local\Temp\cczWbgEE.s 			page 2


  30:cube/Drivers/STM32F3xx_HAL_Driver/Src/stm32f3xx_hal_gpio.c ****     (+) In Output or Alternate mode, each IO can be configured on open-drain or push-pull
  31:cube/Drivers/STM32F3xx_HAL_Driver/Src/stm32f3xx_hal_gpio.c ****         type and the IO speed can be selected depending on the VDD value.
  32:cube/Drivers/STM32F3xx_HAL_Driver/Src/stm32f3xx_hal_gpio.c **** 
  33:cube/Drivers/STM32F3xx_HAL_Driver/Src/stm32f3xx_hal_gpio.c ****     (+) The microcontroller IO pins are connected to onboard peripherals/modules through a
  34:cube/Drivers/STM32F3xx_HAL_Driver/Src/stm32f3xx_hal_gpio.c ****         multiplexer that allows only one peripheral alternate function (AF) connected
  35:cube/Drivers/STM32F3xx_HAL_Driver/Src/stm32f3xx_hal_gpio.c ****        to an IO pin at a time. In this way, there can be no conflict between peripherals
  36:cube/Drivers/STM32F3xx_HAL_Driver/Src/stm32f3xx_hal_gpio.c ****        sharing the same IO pin.
  37:cube/Drivers/STM32F3xx_HAL_Driver/Src/stm32f3xx_hal_gpio.c **** 
  38:cube/Drivers/STM32F3xx_HAL_Driver/Src/stm32f3xx_hal_gpio.c ****     (+) All ports have external interrupt/event capability. To use external interrupt
  39:cube/Drivers/STM32F3xx_HAL_Driver/Src/stm32f3xx_hal_gpio.c ****         lines, the port must be configured in input mode. All available GPIO pins are
  40:cube/Drivers/STM32F3xx_HAL_Driver/Src/stm32f3xx_hal_gpio.c ****         connected to the 16 external interrupt/event lines from EXTI0 to EXTI15.
  41:cube/Drivers/STM32F3xx_HAL_Driver/Src/stm32f3xx_hal_gpio.c **** 
  42:cube/Drivers/STM32F3xx_HAL_Driver/Src/stm32f3xx_hal_gpio.c ****     (+) The external interrupt/event controller consists of up to 23 edge detectors
  43:cube/Drivers/STM32F3xx_HAL_Driver/Src/stm32f3xx_hal_gpio.c ****         (16 lines are connected to GPIO) for generating event/interrupt requests (each
  44:cube/Drivers/STM32F3xx_HAL_Driver/Src/stm32f3xx_hal_gpio.c ****         input line can be independently configured to select the type (interrupt or event)
  45:cube/Drivers/STM32F3xx_HAL_Driver/Src/stm32f3xx_hal_gpio.c ****         and the corresponding trigger event (rising or falling or both). Each line can
  46:cube/Drivers/STM32F3xx_HAL_Driver/Src/stm32f3xx_hal_gpio.c ****         also be masked independently.
  47:cube/Drivers/STM32F3xx_HAL_Driver/Src/stm32f3xx_hal_gpio.c **** 
  48:cube/Drivers/STM32F3xx_HAL_Driver/Src/stm32f3xx_hal_gpio.c ****                      ##### How to use this driver #####
  49:cube/Drivers/STM32F3xx_HAL_Driver/Src/stm32f3xx_hal_gpio.c ****   ==============================================================================
  50:cube/Drivers/STM32F3xx_HAL_Driver/Src/stm32f3xx_hal_gpio.c ****   [..]
  51:cube/Drivers/STM32F3xx_HAL_Driver/Src/stm32f3xx_hal_gpio.c ****     (#) Enable the GPIO AHB clock using the following function: __HAL_RCC_GPIOx_CLK_ENABLE().
  52:cube/Drivers/STM32F3xx_HAL_Driver/Src/stm32f3xx_hal_gpio.c **** 
  53:cube/Drivers/STM32F3xx_HAL_Driver/Src/stm32f3xx_hal_gpio.c ****     (#) Configure the GPIO pin(s) using HAL_GPIO_Init().
  54:cube/Drivers/STM32F3xx_HAL_Driver/Src/stm32f3xx_hal_gpio.c ****         (++) Configure the IO mode using "Mode" member from GPIO_InitTypeDef structure
  55:cube/Drivers/STM32F3xx_HAL_Driver/Src/stm32f3xx_hal_gpio.c ****         (++) Activate Pull-up, Pull-down resistor using "Pull" member from GPIO_InitTypeDef
  56:cube/Drivers/STM32F3xx_HAL_Driver/Src/stm32f3xx_hal_gpio.c ****              structure.
  57:cube/Drivers/STM32F3xx_HAL_Driver/Src/stm32f3xx_hal_gpio.c ****         (++) In case of Output or alternate function mode selection: the speed is
  58:cube/Drivers/STM32F3xx_HAL_Driver/Src/stm32f3xx_hal_gpio.c ****              configured through "Speed" member from GPIO_InitTypeDef structure.
  59:cube/Drivers/STM32F3xx_HAL_Driver/Src/stm32f3xx_hal_gpio.c ****         (++) In alternate mode is selection, the alternate function connected to the IO
  60:cube/Drivers/STM32F3xx_HAL_Driver/Src/stm32f3xx_hal_gpio.c ****              is configured through "Alternate" member from GPIO_InitTypeDef structure.
  61:cube/Drivers/STM32F3xx_HAL_Driver/Src/stm32f3xx_hal_gpio.c ****         (++) Analog mode is required when a pin is to be used as ADC channel
  62:cube/Drivers/STM32F3xx_HAL_Driver/Src/stm32f3xx_hal_gpio.c ****              or DAC output.
  63:cube/Drivers/STM32F3xx_HAL_Driver/Src/stm32f3xx_hal_gpio.c ****         (++) In case of external interrupt/event selection the "Mode" member from
  64:cube/Drivers/STM32F3xx_HAL_Driver/Src/stm32f3xx_hal_gpio.c ****              GPIO_InitTypeDef structure select the type (interrupt or event) and
  65:cube/Drivers/STM32F3xx_HAL_Driver/Src/stm32f3xx_hal_gpio.c ****              the corresponding trigger event (rising or falling or both).
  66:cube/Drivers/STM32F3xx_HAL_Driver/Src/stm32f3xx_hal_gpio.c **** 
  67:cube/Drivers/STM32F3xx_HAL_Driver/Src/stm32f3xx_hal_gpio.c ****     (#) In case of external interrupt/event mode selection, configure NVIC IRQ priority
  68:cube/Drivers/STM32F3xx_HAL_Driver/Src/stm32f3xx_hal_gpio.c ****         mapped to the EXTI line using HAL_NVIC_SetPriority() and enable it using
  69:cube/Drivers/STM32F3xx_HAL_Driver/Src/stm32f3xx_hal_gpio.c ****         HAL_NVIC_EnableIRQ().
  70:cube/Drivers/STM32F3xx_HAL_Driver/Src/stm32f3xx_hal_gpio.c **** 
  71:cube/Drivers/STM32F3xx_HAL_Driver/Src/stm32f3xx_hal_gpio.c ****     (#) To get the level of a pin configured in input mode use HAL_GPIO_ReadPin().
  72:cube/Drivers/STM32F3xx_HAL_Driver/Src/stm32f3xx_hal_gpio.c **** 
  73:cube/Drivers/STM32F3xx_HAL_Driver/Src/stm32f3xx_hal_gpio.c ****     (#) To set/reset the level of a pin configured in output mode use
  74:cube/Drivers/STM32F3xx_HAL_Driver/Src/stm32f3xx_hal_gpio.c ****         HAL_GPIO_WritePin()/HAL_GPIO_TogglePin().
  75:cube/Drivers/STM32F3xx_HAL_Driver/Src/stm32f3xx_hal_gpio.c **** 
  76:cube/Drivers/STM32F3xx_HAL_Driver/Src/stm32f3xx_hal_gpio.c ****    (#) To lock pin configuration until next reset use HAL_GPIO_LockPin().
  77:cube/Drivers/STM32F3xx_HAL_Driver/Src/stm32f3xx_hal_gpio.c ****   
  78:cube/Drivers/STM32F3xx_HAL_Driver/Src/stm32f3xx_hal_gpio.c ****     (#) During and just after reset, the alternate functions are not
  79:cube/Drivers/STM32F3xx_HAL_Driver/Src/stm32f3xx_hal_gpio.c ****         active and the GPIO pins are configured in input floating mode (except JTAG
  80:cube/Drivers/STM32F3xx_HAL_Driver/Src/stm32f3xx_hal_gpio.c ****         pins).
  81:cube/Drivers/STM32F3xx_HAL_Driver/Src/stm32f3xx_hal_gpio.c **** 
  82:cube/Drivers/STM32F3xx_HAL_Driver/Src/stm32f3xx_hal_gpio.c ****     (#) The LSE oscillator pins OSC32_IN and OSC32_OUT can be used as general purpose
  83:cube/Drivers/STM32F3xx_HAL_Driver/Src/stm32f3xx_hal_gpio.c ****         (PC14 and PC15U, respectively) when the LSE oscillator is off. The LSE has
  84:cube/Drivers/STM32F3xx_HAL_Driver/Src/stm32f3xx_hal_gpio.c ****         priority over the GPIO function.
  85:cube/Drivers/STM32F3xx_HAL_Driver/Src/stm32f3xx_hal_gpio.c **** 
  86:cube/Drivers/STM32F3xx_HAL_Driver/Src/stm32f3xx_hal_gpio.c ****     (#) The HSE oscillator pins OSC_IN/OSC_OUT can be used as
ARM GAS  C:\Users\Berbardo\AppData\Local\Temp\cczWbgEE.s 			page 3


  87:cube/Drivers/STM32F3xx_HAL_Driver/Src/stm32f3xx_hal_gpio.c ****         general purpose PF0 and PF1, respectively, when the HSE oscillator is off.
  88:cube/Drivers/STM32F3xx_HAL_Driver/Src/stm32f3xx_hal_gpio.c ****         The HSE has priority over the GPIO function.
  89:cube/Drivers/STM32F3xx_HAL_Driver/Src/stm32f3xx_hal_gpio.c **** 
  90:cube/Drivers/STM32F3xx_HAL_Driver/Src/stm32f3xx_hal_gpio.c ****   @endverbatim
  91:cube/Drivers/STM32F3xx_HAL_Driver/Src/stm32f3xx_hal_gpio.c ****   ******************************************************************************
  92:cube/Drivers/STM32F3xx_HAL_Driver/Src/stm32f3xx_hal_gpio.c ****   * @attention
  93:cube/Drivers/STM32F3xx_HAL_Driver/Src/stm32f3xx_hal_gpio.c ****   *
  94:cube/Drivers/STM32F3xx_HAL_Driver/Src/stm32f3xx_hal_gpio.c ****   * <h2><center>&copy; COPYRIGHT(c) 2016 STMicroelectronics</center></h2>
  95:cube/Drivers/STM32F3xx_HAL_Driver/Src/stm32f3xx_hal_gpio.c ****   *
  96:cube/Drivers/STM32F3xx_HAL_Driver/Src/stm32f3xx_hal_gpio.c ****   * Redistribution and use in source and binary forms, with or without modification,
  97:cube/Drivers/STM32F3xx_HAL_Driver/Src/stm32f3xx_hal_gpio.c ****   * are permitted provided that the following conditions are met:
  98:cube/Drivers/STM32F3xx_HAL_Driver/Src/stm32f3xx_hal_gpio.c ****   *   1. Redistributions of source code must retain the above copyright notice,
  99:cube/Drivers/STM32F3xx_HAL_Driver/Src/stm32f3xx_hal_gpio.c ****   *      this list of conditions and the following disclaimer.
 100:cube/Drivers/STM32F3xx_HAL_Driver/Src/stm32f3xx_hal_gpio.c ****   *   2. Redistributions in binary form must reproduce the above copyright notice,
 101:cube/Drivers/STM32F3xx_HAL_Driver/Src/stm32f3xx_hal_gpio.c ****   *      this list of conditions and the following disclaimer in the documentation
 102:cube/Drivers/STM32F3xx_HAL_Driver/Src/stm32f3xx_hal_gpio.c ****   *      and/or other materials provided with the distribution.
 103:cube/Drivers/STM32F3xx_HAL_Driver/Src/stm32f3xx_hal_gpio.c ****   *   3. Neither the name of STMicroelectronics nor the names of its contributors
 104:cube/Drivers/STM32F3xx_HAL_Driver/Src/stm32f3xx_hal_gpio.c ****   *      may be used to endorse or promote products derived from this software
 105:cube/Drivers/STM32F3xx_HAL_Driver/Src/stm32f3xx_hal_gpio.c ****   *      without specific prior written permission.
 106:cube/Drivers/STM32F3xx_HAL_Driver/Src/stm32f3xx_hal_gpio.c ****   *
 107:cube/Drivers/STM32F3xx_HAL_Driver/Src/stm32f3xx_hal_gpio.c ****   * THIS SOFTWARE IS PROVIDED BY THE COPYRIGHT HOLDERS AND CONTRIBUTORS "AS IS"
 108:cube/Drivers/STM32F3xx_HAL_Driver/Src/stm32f3xx_hal_gpio.c ****   * AND ANY EXPRESS OR IMPLIED WARRANTIES, INCLUDING, BUT NOT LIMITED TO, THE
 109:cube/Drivers/STM32F3xx_HAL_Driver/Src/stm32f3xx_hal_gpio.c ****   * IMPLIED WARRANTIES OF MERCHANTABILITY AND FITNESS FOR A PARTICULAR PURPOSE ARE
 110:cube/Drivers/STM32F3xx_HAL_Driver/Src/stm32f3xx_hal_gpio.c ****   * DISCLAIMED. IN NO EVENT SHALL THE COPYRIGHT HOLDER OR CONTRIBUTORS BE LIABLE
 111:cube/Drivers/STM32F3xx_HAL_Driver/Src/stm32f3xx_hal_gpio.c ****   * FOR ANY DIRECT, INDIRECT, INCIDENTAL, SPECIAL, EXEMPLARY, OR CONSEQUENTIAL
 112:cube/Drivers/STM32F3xx_HAL_Driver/Src/stm32f3xx_hal_gpio.c ****   * DAMAGES (INCLUDING, BUT NOT LIMITED TO, PROCUREMENT OF SUBSTITUTE GOODS OR
 113:cube/Drivers/STM32F3xx_HAL_Driver/Src/stm32f3xx_hal_gpio.c ****   * SERVICES; LOSS OF USE, DATA, OR PROFITS; OR BUSINESS INTERRUPTION) HOWEVER
 114:cube/Drivers/STM32F3xx_HAL_Driver/Src/stm32f3xx_hal_gpio.c ****   * CAUSED AND ON ANY THEORY OF LIABILITY, WHETHER IN CONTRACT, STRICT LIABILITY,
 115:cube/Drivers/STM32F3xx_HAL_Driver/Src/stm32f3xx_hal_gpio.c ****   * OR TORT (INCLUDING NEGLIGENCE OR OTHERWISE) ARISING IN ANY WAY OUT OF THE USE
 116:cube/Drivers/STM32F3xx_HAL_Driver/Src/stm32f3xx_hal_gpio.c ****   * OF THIS SOFTWARE, EVEN IF ADVISED OF THE POSSIBILITY OF SUCH DAMAGE.
 117:cube/Drivers/STM32F3xx_HAL_Driver/Src/stm32f3xx_hal_gpio.c ****   *
 118:cube/Drivers/STM32F3xx_HAL_Driver/Src/stm32f3xx_hal_gpio.c ****   ******************************************************************************
 119:cube/Drivers/STM32F3xx_HAL_Driver/Src/stm32f3xx_hal_gpio.c ****   */
 120:cube/Drivers/STM32F3xx_HAL_Driver/Src/stm32f3xx_hal_gpio.c **** 
 121:cube/Drivers/STM32F3xx_HAL_Driver/Src/stm32f3xx_hal_gpio.c **** /* Includes ------------------------------------------------------------------*/
 122:cube/Drivers/STM32F3xx_HAL_Driver/Src/stm32f3xx_hal_gpio.c **** #include "stm32f3xx_hal.h"
 123:cube/Drivers/STM32F3xx_HAL_Driver/Src/stm32f3xx_hal_gpio.c **** 
 124:cube/Drivers/STM32F3xx_HAL_Driver/Src/stm32f3xx_hal_gpio.c **** /** @addtogroup STM32F3xx_HAL_Driver
 125:cube/Drivers/STM32F3xx_HAL_Driver/Src/stm32f3xx_hal_gpio.c ****   * @{
 126:cube/Drivers/STM32F3xx_HAL_Driver/Src/stm32f3xx_hal_gpio.c ****   */
 127:cube/Drivers/STM32F3xx_HAL_Driver/Src/stm32f3xx_hal_gpio.c **** 
 128:cube/Drivers/STM32F3xx_HAL_Driver/Src/stm32f3xx_hal_gpio.c **** /** @defgroup GPIO GPIO
 129:cube/Drivers/STM32F3xx_HAL_Driver/Src/stm32f3xx_hal_gpio.c ****   * @brief GPIO HAL module driver
 130:cube/Drivers/STM32F3xx_HAL_Driver/Src/stm32f3xx_hal_gpio.c ****   * @{
 131:cube/Drivers/STM32F3xx_HAL_Driver/Src/stm32f3xx_hal_gpio.c ****   */
 132:cube/Drivers/STM32F3xx_HAL_Driver/Src/stm32f3xx_hal_gpio.c **** 
 133:cube/Drivers/STM32F3xx_HAL_Driver/Src/stm32f3xx_hal_gpio.c **** #ifdef HAL_GPIO_MODULE_ENABLED
 134:cube/Drivers/STM32F3xx_HAL_Driver/Src/stm32f3xx_hal_gpio.c **** 
 135:cube/Drivers/STM32F3xx_HAL_Driver/Src/stm32f3xx_hal_gpio.c **** /* Private typedef -----------------------------------------------------------*/
 136:cube/Drivers/STM32F3xx_HAL_Driver/Src/stm32f3xx_hal_gpio.c **** /* Private defines -----------------------------------------------------------*/
 137:cube/Drivers/STM32F3xx_HAL_Driver/Src/stm32f3xx_hal_gpio.c **** /** @defgroup GPIO_Private_Defines GPIO Private Defines
 138:cube/Drivers/STM32F3xx_HAL_Driver/Src/stm32f3xx_hal_gpio.c ****   * @{
 139:cube/Drivers/STM32F3xx_HAL_Driver/Src/stm32f3xx_hal_gpio.c ****   */
 140:cube/Drivers/STM32F3xx_HAL_Driver/Src/stm32f3xx_hal_gpio.c **** #define GPIO_MODE             (0x00000003U)
 141:cube/Drivers/STM32F3xx_HAL_Driver/Src/stm32f3xx_hal_gpio.c **** #define EXTI_MODE             (0x10000000U)
 142:cube/Drivers/STM32F3xx_HAL_Driver/Src/stm32f3xx_hal_gpio.c **** #define GPIO_MODE_IT          (0x00010000U)
 143:cube/Drivers/STM32F3xx_HAL_Driver/Src/stm32f3xx_hal_gpio.c **** #define GPIO_MODE_EVT         (0x00020000U)
ARM GAS  C:\Users\Berbardo\AppData\Local\Temp\cczWbgEE.s 			page 4


 144:cube/Drivers/STM32F3xx_HAL_Driver/Src/stm32f3xx_hal_gpio.c **** #define RISING_EDGE           (0x00100000U)
 145:cube/Drivers/STM32F3xx_HAL_Driver/Src/stm32f3xx_hal_gpio.c **** #define FALLING_EDGE          (0x00200000U)
 146:cube/Drivers/STM32F3xx_HAL_Driver/Src/stm32f3xx_hal_gpio.c **** #define GPIO_OUTPUT_TYPE      (0x00000010U)
 147:cube/Drivers/STM32F3xx_HAL_Driver/Src/stm32f3xx_hal_gpio.c **** 
 148:cube/Drivers/STM32F3xx_HAL_Driver/Src/stm32f3xx_hal_gpio.c **** #define GPIO_NUMBER           (16U)
 149:cube/Drivers/STM32F3xx_HAL_Driver/Src/stm32f3xx_hal_gpio.c **** /**
 150:cube/Drivers/STM32F3xx_HAL_Driver/Src/stm32f3xx_hal_gpio.c ****   * @}
 151:cube/Drivers/STM32F3xx_HAL_Driver/Src/stm32f3xx_hal_gpio.c ****   */
 152:cube/Drivers/STM32F3xx_HAL_Driver/Src/stm32f3xx_hal_gpio.c ****   
 153:cube/Drivers/STM32F3xx_HAL_Driver/Src/stm32f3xx_hal_gpio.c **** /* Private macros ------------------------------------------------------------*/
 154:cube/Drivers/STM32F3xx_HAL_Driver/Src/stm32f3xx_hal_gpio.c **** /* Private macros ------------------------------------------------------------*/
 155:cube/Drivers/STM32F3xx_HAL_Driver/Src/stm32f3xx_hal_gpio.c **** /** @defgroup GPIO_Private_Macros GPIO Private Macros
 156:cube/Drivers/STM32F3xx_HAL_Driver/Src/stm32f3xx_hal_gpio.c ****   * @{
 157:cube/Drivers/STM32F3xx_HAL_Driver/Src/stm32f3xx_hal_gpio.c ****   */
 158:cube/Drivers/STM32F3xx_HAL_Driver/Src/stm32f3xx_hal_gpio.c **** /**
 159:cube/Drivers/STM32F3xx_HAL_Driver/Src/stm32f3xx_hal_gpio.c ****   * @}
 160:cube/Drivers/STM32F3xx_HAL_Driver/Src/stm32f3xx_hal_gpio.c ****   */
 161:cube/Drivers/STM32F3xx_HAL_Driver/Src/stm32f3xx_hal_gpio.c **** /* Private variables ---------------------------------------------------------*/
 162:cube/Drivers/STM32F3xx_HAL_Driver/Src/stm32f3xx_hal_gpio.c **** /* Private function prototypes -----------------------------------------------*/
 163:cube/Drivers/STM32F3xx_HAL_Driver/Src/stm32f3xx_hal_gpio.c **** /* Exported functions --------------------------------------------------------*/
 164:cube/Drivers/STM32F3xx_HAL_Driver/Src/stm32f3xx_hal_gpio.c **** 
 165:cube/Drivers/STM32F3xx_HAL_Driver/Src/stm32f3xx_hal_gpio.c **** /** @defgroup GPIO_Exported_Functions GPIO Exported Functions
 166:cube/Drivers/STM32F3xx_HAL_Driver/Src/stm32f3xx_hal_gpio.c ****   * @{
 167:cube/Drivers/STM32F3xx_HAL_Driver/Src/stm32f3xx_hal_gpio.c ****   */
 168:cube/Drivers/STM32F3xx_HAL_Driver/Src/stm32f3xx_hal_gpio.c **** 
 169:cube/Drivers/STM32F3xx_HAL_Driver/Src/stm32f3xx_hal_gpio.c **** /** @defgroup GPIO_Exported_Functions_Group1 Initialization/de-initialization functions 
 170:cube/Drivers/STM32F3xx_HAL_Driver/Src/stm32f3xx_hal_gpio.c ****  *  @brief    Initialization and Configuration functions
 171:cube/Drivers/STM32F3xx_HAL_Driver/Src/stm32f3xx_hal_gpio.c ****  *
 172:cube/Drivers/STM32F3xx_HAL_Driver/Src/stm32f3xx_hal_gpio.c **** @verbatim
 173:cube/Drivers/STM32F3xx_HAL_Driver/Src/stm32f3xx_hal_gpio.c ****  ===============================================================================
 174:cube/Drivers/STM32F3xx_HAL_Driver/Src/stm32f3xx_hal_gpio.c ****               ##### Initialization and de-initialization functions #####
 175:cube/Drivers/STM32F3xx_HAL_Driver/Src/stm32f3xx_hal_gpio.c ****  ===============================================================================
 176:cube/Drivers/STM32F3xx_HAL_Driver/Src/stm32f3xx_hal_gpio.c **** 
 177:cube/Drivers/STM32F3xx_HAL_Driver/Src/stm32f3xx_hal_gpio.c **** @endverbatim
 178:cube/Drivers/STM32F3xx_HAL_Driver/Src/stm32f3xx_hal_gpio.c ****   * @{
 179:cube/Drivers/STM32F3xx_HAL_Driver/Src/stm32f3xx_hal_gpio.c ****   */
 180:cube/Drivers/STM32F3xx_HAL_Driver/Src/stm32f3xx_hal_gpio.c **** 
 181:cube/Drivers/STM32F3xx_HAL_Driver/Src/stm32f3xx_hal_gpio.c **** /**
 182:cube/Drivers/STM32F3xx_HAL_Driver/Src/stm32f3xx_hal_gpio.c ****   * @brief  Initialize the GPIOx peripheral according to the specified parameters in the GPIO_Init.
 183:cube/Drivers/STM32F3xx_HAL_Driver/Src/stm32f3xx_hal_gpio.c ****   * @param  GPIOx where x can be (A..F) to select the GPIO peripheral for STM32F3 family devices
 184:cube/Drivers/STM32F3xx_HAL_Driver/Src/stm32f3xx_hal_gpio.c ****   * @param  GPIO_Init pointer to a GPIO_InitTypeDef structure that contains
 185:cube/Drivers/STM32F3xx_HAL_Driver/Src/stm32f3xx_hal_gpio.c ****   *         the configuration information for the specified GPIO peripheral.
 186:cube/Drivers/STM32F3xx_HAL_Driver/Src/stm32f3xx_hal_gpio.c ****   * @retval None
 187:cube/Drivers/STM32F3xx_HAL_Driver/Src/stm32f3xx_hal_gpio.c ****   */
 188:cube/Drivers/STM32F3xx_HAL_Driver/Src/stm32f3xx_hal_gpio.c **** void HAL_GPIO_Init(GPIO_TypeDef  *GPIOx, GPIO_InitTypeDef *GPIO_Init)
 189:cube/Drivers/STM32F3xx_HAL_Driver/Src/stm32f3xx_hal_gpio.c **** {
  30              		.loc 1 189 1 view -0
  31              		.cfi_startproc
  32              		@ args = 0, pretend = 0, frame = 8
  33              		@ frame_needed = 0, uses_anonymous_args = 0
  34              		@ link register save eliminated.
  35              		.loc 1 189 1 is_stmt 0 view .LVU1
  36 0000 F0B4     		push	{r4, r5, r6, r7}
  37              		.cfi_def_cfa_offset 16
  38              		.cfi_offset 4, -16
  39              		.cfi_offset 5, -12
  40              		.cfi_offset 6, -8
ARM GAS  C:\Users\Berbardo\AppData\Local\Temp\cczWbgEE.s 			page 5


  41              		.cfi_offset 7, -4
  42 0002 82B0     		sub	sp, sp, #8
  43              		.cfi_def_cfa_offset 24
 190:cube/Drivers/STM32F3xx_HAL_Driver/Src/stm32f3xx_hal_gpio.c ****   uint32_t position = 0x00U;
  44              		.loc 1 190 3 is_stmt 1 view .LVU2
  45              	.LVL1:
 191:cube/Drivers/STM32F3xx_HAL_Driver/Src/stm32f3xx_hal_gpio.c ****   uint32_t iocurrent = 0x00U;
  46              		.loc 1 191 3 view .LVU3
 192:cube/Drivers/STM32F3xx_HAL_Driver/Src/stm32f3xx_hal_gpio.c ****   uint32_t temp = 0x00U;
  47              		.loc 1 192 3 view .LVU4
 193:cube/Drivers/STM32F3xx_HAL_Driver/Src/stm32f3xx_hal_gpio.c **** 
 194:cube/Drivers/STM32F3xx_HAL_Driver/Src/stm32f3xx_hal_gpio.c ****   /* Check the parameters */
 195:cube/Drivers/STM32F3xx_HAL_Driver/Src/stm32f3xx_hal_gpio.c ****   assert_param(IS_GPIO_ALL_INSTANCE(GPIOx));
  48              		.loc 1 195 3 view .LVU5
 196:cube/Drivers/STM32F3xx_HAL_Driver/Src/stm32f3xx_hal_gpio.c ****   assert_param(IS_GPIO_PIN(GPIO_Init->Pin));
  49              		.loc 1 196 3 view .LVU6
 197:cube/Drivers/STM32F3xx_HAL_Driver/Src/stm32f3xx_hal_gpio.c ****   assert_param(IS_GPIO_MODE(GPIO_Init->Mode));
  50              		.loc 1 197 3 view .LVU7
 198:cube/Drivers/STM32F3xx_HAL_Driver/Src/stm32f3xx_hal_gpio.c ****   assert_param(IS_GPIO_PULL(GPIO_Init->Pull));
  51              		.loc 1 198 3 view .LVU8
 199:cube/Drivers/STM32F3xx_HAL_Driver/Src/stm32f3xx_hal_gpio.c **** 
 200:cube/Drivers/STM32F3xx_HAL_Driver/Src/stm32f3xx_hal_gpio.c ****   /* Configure the port pins */
 201:cube/Drivers/STM32F3xx_HAL_Driver/Src/stm32f3xx_hal_gpio.c ****   while (((GPIO_Init->Pin) >> position) != RESET)
  52              		.loc 1 201 3 view .LVU9
 190:cube/Drivers/STM32F3xx_HAL_Driver/Src/stm32f3xx_hal_gpio.c ****   uint32_t iocurrent = 0x00U;
  53              		.loc 1 190 12 is_stmt 0 view .LVU10
  54 0004 0023     		movs	r3, #0
  55              		.loc 1 201 9 view .LVU11
  56 0006 36E0     		b	.L2
  57              	.LVL2:
  58              	.L23:
 202:cube/Drivers/STM32F3xx_HAL_Driver/Src/stm32f3xx_hal_gpio.c ****   {
 203:cube/Drivers/STM32F3xx_HAL_Driver/Src/stm32f3xx_hal_gpio.c ****     /* Get current io position */
 204:cube/Drivers/STM32F3xx_HAL_Driver/Src/stm32f3xx_hal_gpio.c ****     iocurrent = (GPIO_Init->Pin) & (1U << position);
 205:cube/Drivers/STM32F3xx_HAL_Driver/Src/stm32f3xx_hal_gpio.c **** 
 206:cube/Drivers/STM32F3xx_HAL_Driver/Src/stm32f3xx_hal_gpio.c ****     if(iocurrent)
 207:cube/Drivers/STM32F3xx_HAL_Driver/Src/stm32f3xx_hal_gpio.c ****     {
 208:cube/Drivers/STM32F3xx_HAL_Driver/Src/stm32f3xx_hal_gpio.c ****       /*--------------------- GPIO Mode Configuration ------------------------*/
 209:cube/Drivers/STM32F3xx_HAL_Driver/Src/stm32f3xx_hal_gpio.c ****       /* In case of Alternate function mode selection */
 210:cube/Drivers/STM32F3xx_HAL_Driver/Src/stm32f3xx_hal_gpio.c ****       if((GPIO_Init->Mode == GPIO_MODE_AF_PP) || (GPIO_Init->Mode == GPIO_MODE_AF_OD))
 211:cube/Drivers/STM32F3xx_HAL_Driver/Src/stm32f3xx_hal_gpio.c ****       {
 212:cube/Drivers/STM32F3xx_HAL_Driver/Src/stm32f3xx_hal_gpio.c ****         /* Check the Alternate function parameters */
 213:cube/Drivers/STM32F3xx_HAL_Driver/Src/stm32f3xx_hal_gpio.c ****         assert_param(IS_GPIO_AF_INSTANCE(GPIOx));
 214:cube/Drivers/STM32F3xx_HAL_Driver/Src/stm32f3xx_hal_gpio.c ****         assert_param(IS_GPIO_AF(GPIO_Init->Alternate));
 215:cube/Drivers/STM32F3xx_HAL_Driver/Src/stm32f3xx_hal_gpio.c ****         
 216:cube/Drivers/STM32F3xx_HAL_Driver/Src/stm32f3xx_hal_gpio.c ****         /* Configure Alternate function mapped with the current IO */
 217:cube/Drivers/STM32F3xx_HAL_Driver/Src/stm32f3xx_hal_gpio.c ****         temp = GPIOx->AFR[position >> 3];
 218:cube/Drivers/STM32F3xx_HAL_Driver/Src/stm32f3xx_hal_gpio.c ****         temp &= ~(0xFU << ((uint32_t)(position & 0x07U) * 4U)) ;
 219:cube/Drivers/STM32F3xx_HAL_Driver/Src/stm32f3xx_hal_gpio.c ****         temp |= ((uint32_t)(GPIO_Init->Alternate) << (((uint32_t)position & 0x07U) * 4U));
 220:cube/Drivers/STM32F3xx_HAL_Driver/Src/stm32f3xx_hal_gpio.c ****         GPIOx->AFR[position >> 3] = temp;
 221:cube/Drivers/STM32F3xx_HAL_Driver/Src/stm32f3xx_hal_gpio.c ****       }
 222:cube/Drivers/STM32F3xx_HAL_Driver/Src/stm32f3xx_hal_gpio.c **** 
 223:cube/Drivers/STM32F3xx_HAL_Driver/Src/stm32f3xx_hal_gpio.c ****       /* Configure IO Direction mode (Input, Output, Alternate or Analog) */
 224:cube/Drivers/STM32F3xx_HAL_Driver/Src/stm32f3xx_hal_gpio.c ****       temp = GPIOx->MODER;
 225:cube/Drivers/STM32F3xx_HAL_Driver/Src/stm32f3xx_hal_gpio.c ****       temp &= ~(GPIO_MODER_MODER0 << (position * 2U));
 226:cube/Drivers/STM32F3xx_HAL_Driver/Src/stm32f3xx_hal_gpio.c ****       temp |= ((GPIO_Init->Mode & GPIO_MODE) << (position * 2U));
 227:cube/Drivers/STM32F3xx_HAL_Driver/Src/stm32f3xx_hal_gpio.c ****       GPIOx->MODER = temp;
ARM GAS  C:\Users\Berbardo\AppData\Local\Temp\cczWbgEE.s 			page 6


 228:cube/Drivers/STM32F3xx_HAL_Driver/Src/stm32f3xx_hal_gpio.c **** 
 229:cube/Drivers/STM32F3xx_HAL_Driver/Src/stm32f3xx_hal_gpio.c ****       /* In case of Output or Alternate function mode selection */
 230:cube/Drivers/STM32F3xx_HAL_Driver/Src/stm32f3xx_hal_gpio.c ****       if((GPIO_Init->Mode == GPIO_MODE_OUTPUT_PP) || (GPIO_Init->Mode == GPIO_MODE_AF_PP) ||
 231:cube/Drivers/STM32F3xx_HAL_Driver/Src/stm32f3xx_hal_gpio.c ****          (GPIO_Init->Mode == GPIO_MODE_OUTPUT_OD) || (GPIO_Init->Mode == GPIO_MODE_AF_OD))
 232:cube/Drivers/STM32F3xx_HAL_Driver/Src/stm32f3xx_hal_gpio.c ****       {
 233:cube/Drivers/STM32F3xx_HAL_Driver/Src/stm32f3xx_hal_gpio.c ****         /* Check the Speed parameter */
 234:cube/Drivers/STM32F3xx_HAL_Driver/Src/stm32f3xx_hal_gpio.c ****         assert_param(IS_GPIO_SPEED(GPIO_Init->Speed));
 235:cube/Drivers/STM32F3xx_HAL_Driver/Src/stm32f3xx_hal_gpio.c ****         /* Configure the IO Speed */
 236:cube/Drivers/STM32F3xx_HAL_Driver/Src/stm32f3xx_hal_gpio.c ****         temp = GPIOx->OSPEEDR;
 237:cube/Drivers/STM32F3xx_HAL_Driver/Src/stm32f3xx_hal_gpio.c ****         temp &= ~(GPIO_OSPEEDER_OSPEEDR0 << (position * 2U));
 238:cube/Drivers/STM32F3xx_HAL_Driver/Src/stm32f3xx_hal_gpio.c ****         temp |= (GPIO_Init->Speed << (position * 2U));
 239:cube/Drivers/STM32F3xx_HAL_Driver/Src/stm32f3xx_hal_gpio.c ****         GPIOx->OSPEEDR = temp;
 240:cube/Drivers/STM32F3xx_HAL_Driver/Src/stm32f3xx_hal_gpio.c **** 
 241:cube/Drivers/STM32F3xx_HAL_Driver/Src/stm32f3xx_hal_gpio.c ****         /* Configure the IO Output Type */
 242:cube/Drivers/STM32F3xx_HAL_Driver/Src/stm32f3xx_hal_gpio.c ****         temp = GPIOx->OTYPER;
 243:cube/Drivers/STM32F3xx_HAL_Driver/Src/stm32f3xx_hal_gpio.c ****         temp &= ~(GPIO_OTYPER_OT_0 << position) ;
 244:cube/Drivers/STM32F3xx_HAL_Driver/Src/stm32f3xx_hal_gpio.c ****         temp |= (((GPIO_Init->Mode & GPIO_OUTPUT_TYPE) >> 4U) << position);
 245:cube/Drivers/STM32F3xx_HAL_Driver/Src/stm32f3xx_hal_gpio.c ****         GPIOx->OTYPER = temp;
 246:cube/Drivers/STM32F3xx_HAL_Driver/Src/stm32f3xx_hal_gpio.c ****       }
 247:cube/Drivers/STM32F3xx_HAL_Driver/Src/stm32f3xx_hal_gpio.c **** 
 248:cube/Drivers/STM32F3xx_HAL_Driver/Src/stm32f3xx_hal_gpio.c ****       /* Activate the Pull-up or Pull down resistor for the current IO */
 249:cube/Drivers/STM32F3xx_HAL_Driver/Src/stm32f3xx_hal_gpio.c ****       temp = GPIOx->PUPDR;
 250:cube/Drivers/STM32F3xx_HAL_Driver/Src/stm32f3xx_hal_gpio.c ****       temp &= ~(GPIO_PUPDR_PUPDR0 << (position * 2U));
 251:cube/Drivers/STM32F3xx_HAL_Driver/Src/stm32f3xx_hal_gpio.c ****       temp |= ((GPIO_Init->Pull) << (position * 2U));
 252:cube/Drivers/STM32F3xx_HAL_Driver/Src/stm32f3xx_hal_gpio.c ****       GPIOx->PUPDR = temp;
 253:cube/Drivers/STM32F3xx_HAL_Driver/Src/stm32f3xx_hal_gpio.c **** 
 254:cube/Drivers/STM32F3xx_HAL_Driver/Src/stm32f3xx_hal_gpio.c ****       /*--------------------- EXTI Mode Configuration ------------------------*/
 255:cube/Drivers/STM32F3xx_HAL_Driver/Src/stm32f3xx_hal_gpio.c ****       /* Configure the External Interrupt or event for the current IO */
 256:cube/Drivers/STM32F3xx_HAL_Driver/Src/stm32f3xx_hal_gpio.c ****       if((GPIO_Init->Mode & EXTI_MODE) == EXTI_MODE)
 257:cube/Drivers/STM32F3xx_HAL_Driver/Src/stm32f3xx_hal_gpio.c ****       {
 258:cube/Drivers/STM32F3xx_HAL_Driver/Src/stm32f3xx_hal_gpio.c ****         /* Enable SYSCFG Clock */
 259:cube/Drivers/STM32F3xx_HAL_Driver/Src/stm32f3xx_hal_gpio.c ****         __HAL_RCC_SYSCFG_CLK_ENABLE();
 260:cube/Drivers/STM32F3xx_HAL_Driver/Src/stm32f3xx_hal_gpio.c **** 
 261:cube/Drivers/STM32F3xx_HAL_Driver/Src/stm32f3xx_hal_gpio.c ****         temp = SYSCFG->EXTICR[position >> 2];
 262:cube/Drivers/STM32F3xx_HAL_Driver/Src/stm32f3xx_hal_gpio.c ****         temp &= ~((0x0FU) << (4U * (position & 0x03U)));
 263:cube/Drivers/STM32F3xx_HAL_Driver/Src/stm32f3xx_hal_gpio.c ****         temp |= (GPIO_GET_INDEX(GPIOx) << (4U * (position & 0x03U)));
  59              		.loc 1 263 18 view .LVU12
  60 0008 0624     		movs	r4, #6
  61 000a 00E0     		b	.L8
  62              	.L14:
  63 000c 0024     		movs	r4, #0
  64              	.L8:
  65              		.loc 1 263 40 discriminator 28 view .LVU13
  66 000e B440     		lsls	r4, r4, r6
  67              		.loc 1 263 14 discriminator 28 view .LVU14
  68 0010 3C43     		orrs	r4, r4, r7
  69              	.LVL3:
 264:cube/Drivers/STM32F3xx_HAL_Driver/Src/stm32f3xx_hal_gpio.c ****         SYSCFG->EXTICR[position >> 2] = temp;
  70              		.loc 1 264 9 is_stmt 1 discriminator 28 view .LVU15
  71              		.loc 1 264 39 is_stmt 0 discriminator 28 view .LVU16
  72 0012 0235     		adds	r5, r5, #2
  73 0014 614E     		ldr	r6, .L24
  74 0016 46F82540 		str	r4, [r6, r5, lsl #2]
 265:cube/Drivers/STM32F3xx_HAL_Driver/Src/stm32f3xx_hal_gpio.c **** 
 266:cube/Drivers/STM32F3xx_HAL_Driver/Src/stm32f3xx_hal_gpio.c ****         /* Clear EXTI line configuration */
 267:cube/Drivers/STM32F3xx_HAL_Driver/Src/stm32f3xx_hal_gpio.c ****         temp = EXTI->IMR;
  75              		.loc 1 267 9 is_stmt 1 discriminator 28 view .LVU17
ARM GAS  C:\Users\Berbardo\AppData\Local\Temp\cczWbgEE.s 			page 7


  76              		.loc 1 267 14 is_stmt 0 discriminator 28 view .LVU18
  77 001a 614C     		ldr	r4, .L24+4
  78              	.LVL4:
  79              		.loc 1 267 14 discriminator 28 view .LVU19
  80 001c 2568     		ldr	r5, [r4]
  81              	.LVL5:
 268:cube/Drivers/STM32F3xx_HAL_Driver/Src/stm32f3xx_hal_gpio.c ****         temp &= ~((uint32_t)iocurrent);
  82              		.loc 1 268 9 is_stmt 1 discriminator 28 view .LVU20
  83              		.loc 1 268 17 is_stmt 0 discriminator 28 view .LVU21
  84 001e D443     		mvns	r4, r2
  85              		.loc 1 268 14 discriminator 28 view .LVU22
  86 0020 04EA0506 		and	r6, r4, r5
  87              	.LVL6:
 269:cube/Drivers/STM32F3xx_HAL_Driver/Src/stm32f3xx_hal_gpio.c ****         if((GPIO_Init->Mode & GPIO_MODE_IT) == GPIO_MODE_IT)
  88              		.loc 1 269 9 is_stmt 1 discriminator 28 view .LVU23
  89              		.loc 1 269 22 is_stmt 0 discriminator 28 view .LVU24
  90 0024 4F68     		ldr	r7, [r1, #4]
  91              		.loc 1 269 11 discriminator 28 view .LVU25
  92 0026 17F4803F 		tst	r7, #65536
  93 002a 01D0     		beq	.L9
 270:cube/Drivers/STM32F3xx_HAL_Driver/Src/stm32f3xx_hal_gpio.c ****         {
 271:cube/Drivers/STM32F3xx_HAL_Driver/Src/stm32f3xx_hal_gpio.c ****           temp |= iocurrent;
  94              		.loc 1 271 11 is_stmt 1 view .LVU26
  95              		.loc 1 271 16 is_stmt 0 view .LVU27
  96 002c 42EA0506 		orr	r6, r2, r5
  97              	.LVL7:
  98              	.L9:
 272:cube/Drivers/STM32F3xx_HAL_Driver/Src/stm32f3xx_hal_gpio.c ****         }
 273:cube/Drivers/STM32F3xx_HAL_Driver/Src/stm32f3xx_hal_gpio.c ****         EXTI->IMR = temp;
  99              		.loc 1 273 9 is_stmt 1 view .LVU28
 100              		.loc 1 273 19 is_stmt 0 view .LVU29
 101 0030 5B4D     		ldr	r5, .L24+4
 102 0032 2E60     		str	r6, [r5]
 274:cube/Drivers/STM32F3xx_HAL_Driver/Src/stm32f3xx_hal_gpio.c **** 
 275:cube/Drivers/STM32F3xx_HAL_Driver/Src/stm32f3xx_hal_gpio.c ****         temp = EXTI->EMR;
 103              		.loc 1 275 9 is_stmt 1 view .LVU30
 104              		.loc 1 275 14 is_stmt 0 view .LVU31
 105 0034 6D68     		ldr	r5, [r5, #4]
 106              	.LVL8:
 276:cube/Drivers/STM32F3xx_HAL_Driver/Src/stm32f3xx_hal_gpio.c ****         temp &= ~((uint32_t)iocurrent);
 107              		.loc 1 276 9 is_stmt 1 view .LVU32
 108              		.loc 1 276 14 is_stmt 0 view .LVU33
 109 0036 04EA0506 		and	r6, r4, r5
 110              	.LVL9:
 277:cube/Drivers/STM32F3xx_HAL_Driver/Src/stm32f3xx_hal_gpio.c ****         if((GPIO_Init->Mode & GPIO_MODE_EVT) == GPIO_MODE_EVT)
 111              		.loc 1 277 9 is_stmt 1 view .LVU34
 112              		.loc 1 277 22 is_stmt 0 view .LVU35
 113 003a 4F68     		ldr	r7, [r1, #4]
 114              		.loc 1 277 11 view .LVU36
 115 003c 17F4003F 		tst	r7, #131072
 116 0040 01D0     		beq	.L10
 278:cube/Drivers/STM32F3xx_HAL_Driver/Src/stm32f3xx_hal_gpio.c ****         {
 279:cube/Drivers/STM32F3xx_HAL_Driver/Src/stm32f3xx_hal_gpio.c ****           temp |= iocurrent;
 117              		.loc 1 279 11 is_stmt 1 view .LVU37
 118              		.loc 1 279 16 is_stmt 0 view .LVU38
 119 0042 42EA0506 		orr	r6, r2, r5
 120              	.LVL10:
ARM GAS  C:\Users\Berbardo\AppData\Local\Temp\cczWbgEE.s 			page 8


 121              	.L10:
 280:cube/Drivers/STM32F3xx_HAL_Driver/Src/stm32f3xx_hal_gpio.c ****         }
 281:cube/Drivers/STM32F3xx_HAL_Driver/Src/stm32f3xx_hal_gpio.c ****         EXTI->EMR = temp;
 122              		.loc 1 281 9 is_stmt 1 view .LVU39
 123              		.loc 1 281 19 is_stmt 0 view .LVU40
 124 0046 564D     		ldr	r5, .L24+4
 125 0048 6E60     		str	r6, [r5, #4]
 282:cube/Drivers/STM32F3xx_HAL_Driver/Src/stm32f3xx_hal_gpio.c **** 
 283:cube/Drivers/STM32F3xx_HAL_Driver/Src/stm32f3xx_hal_gpio.c ****         /* Clear Rising Falling edge configuration */
 284:cube/Drivers/STM32F3xx_HAL_Driver/Src/stm32f3xx_hal_gpio.c ****         temp = EXTI->RTSR;
 126              		.loc 1 284 9 is_stmt 1 view .LVU41
 127              		.loc 1 284 14 is_stmt 0 view .LVU42
 128 004a AD68     		ldr	r5, [r5, #8]
 129              	.LVL11:
 285:cube/Drivers/STM32F3xx_HAL_Driver/Src/stm32f3xx_hal_gpio.c ****         temp &= ~((uint32_t)iocurrent);
 130              		.loc 1 285 9 is_stmt 1 view .LVU43
 131              		.loc 1 285 14 is_stmt 0 view .LVU44
 132 004c 04EA0506 		and	r6, r4, r5
 133              	.LVL12:
 286:cube/Drivers/STM32F3xx_HAL_Driver/Src/stm32f3xx_hal_gpio.c ****         if((GPIO_Init->Mode & RISING_EDGE) == RISING_EDGE)
 134              		.loc 1 286 9 is_stmt 1 view .LVU45
 135              		.loc 1 286 22 is_stmt 0 view .LVU46
 136 0050 4F68     		ldr	r7, [r1, #4]
 137              		.loc 1 286 11 view .LVU47
 138 0052 17F4801F 		tst	r7, #1048576
 139 0056 01D0     		beq	.L11
 287:cube/Drivers/STM32F3xx_HAL_Driver/Src/stm32f3xx_hal_gpio.c ****         {
 288:cube/Drivers/STM32F3xx_HAL_Driver/Src/stm32f3xx_hal_gpio.c ****           temp |= iocurrent;
 140              		.loc 1 288 11 is_stmt 1 view .LVU48
 141              		.loc 1 288 16 is_stmt 0 view .LVU49
 142 0058 42EA0506 		orr	r6, r2, r5
 143              	.LVL13:
 144              	.L11:
 289:cube/Drivers/STM32F3xx_HAL_Driver/Src/stm32f3xx_hal_gpio.c ****         }
 290:cube/Drivers/STM32F3xx_HAL_Driver/Src/stm32f3xx_hal_gpio.c ****         EXTI->RTSR = temp;
 145              		.loc 1 290 9 is_stmt 1 view .LVU50
 146              		.loc 1 290 20 is_stmt 0 view .LVU51
 147 005c 504D     		ldr	r5, .L24+4
 148 005e AE60     		str	r6, [r5, #8]
 291:cube/Drivers/STM32F3xx_HAL_Driver/Src/stm32f3xx_hal_gpio.c **** 
 292:cube/Drivers/STM32F3xx_HAL_Driver/Src/stm32f3xx_hal_gpio.c ****         temp = EXTI->FTSR;
 149              		.loc 1 292 9 is_stmt 1 view .LVU52
 150              		.loc 1 292 14 is_stmt 0 view .LVU53
 151 0060 ED68     		ldr	r5, [r5, #12]
 152              	.LVL14:
 293:cube/Drivers/STM32F3xx_HAL_Driver/Src/stm32f3xx_hal_gpio.c ****         temp &= ~((uint32_t)iocurrent);
 153              		.loc 1 293 9 is_stmt 1 view .LVU54
 154              		.loc 1 293 14 is_stmt 0 view .LVU55
 155 0062 2C40     		ands	r4, r4, r5
 156              	.LVL15:
 294:cube/Drivers/STM32F3xx_HAL_Driver/Src/stm32f3xx_hal_gpio.c ****         if((GPIO_Init->Mode & FALLING_EDGE) == FALLING_EDGE)
 157              		.loc 1 294 9 is_stmt 1 view .LVU56
 158              		.loc 1 294 22 is_stmt 0 view .LVU57
 159 0064 4E68     		ldr	r6, [r1, #4]
 160              		.loc 1 294 11 view .LVU58
 161 0066 16F4001F 		tst	r6, #2097152
 162 006a 01D0     		beq	.L12
ARM GAS  C:\Users\Berbardo\AppData\Local\Temp\cczWbgEE.s 			page 9


 295:cube/Drivers/STM32F3xx_HAL_Driver/Src/stm32f3xx_hal_gpio.c ****         {
 296:cube/Drivers/STM32F3xx_HAL_Driver/Src/stm32f3xx_hal_gpio.c ****           temp |= iocurrent;
 163              		.loc 1 296 11 is_stmt 1 view .LVU59
 164              		.loc 1 296 16 is_stmt 0 view .LVU60
 165 006c 42EA0504 		orr	r4, r2, r5
 166              	.LVL16:
 167              	.L12:
 297:cube/Drivers/STM32F3xx_HAL_Driver/Src/stm32f3xx_hal_gpio.c ****         }
 298:cube/Drivers/STM32F3xx_HAL_Driver/Src/stm32f3xx_hal_gpio.c ****         EXTI->FTSR = temp;
 168              		.loc 1 298 9 is_stmt 1 view .LVU61
 169              		.loc 1 298 20 is_stmt 0 view .LVU62
 170 0070 4B4A     		ldr	r2, .L24+4
 171              	.LVL17:
 172              		.loc 1 298 20 view .LVU63
 173 0072 D460     		str	r4, [r2, #12]
 174              	.LVL18:
 175              	.L3:
 299:cube/Drivers/STM32F3xx_HAL_Driver/Src/stm32f3xx_hal_gpio.c ****       }
 300:cube/Drivers/STM32F3xx_HAL_Driver/Src/stm32f3xx_hal_gpio.c ****     }
 301:cube/Drivers/STM32F3xx_HAL_Driver/Src/stm32f3xx_hal_gpio.c ****     
 302:cube/Drivers/STM32F3xx_HAL_Driver/Src/stm32f3xx_hal_gpio.c ****     position++;
 176              		.loc 1 302 5 is_stmt 1 view .LVU64
 177              		.loc 1 302 13 is_stmt 0 view .LVU65
 178 0074 0133     		adds	r3, r3, #1
 179              	.LVL19:
 180              	.L2:
 201:cube/Drivers/STM32F3xx_HAL_Driver/Src/stm32f3xx_hal_gpio.c ****   {
 181              		.loc 1 201 21 view .LVU66
 182 0076 0A68     		ldr	r2, [r1]
 201:cube/Drivers/STM32F3xx_HAL_Driver/Src/stm32f3xx_hal_gpio.c ****   {
 183              		.loc 1 201 9 view .LVU67
 184 0078 32FA03F4 		lsrs	r4, r2, r3
 185 007c 00F08B80 		beq	.L22
 204:cube/Drivers/STM32F3xx_HAL_Driver/Src/stm32f3xx_hal_gpio.c **** 
 186              		.loc 1 204 5 is_stmt 1 view .LVU68
 204:cube/Drivers/STM32F3xx_HAL_Driver/Src/stm32f3xx_hal_gpio.c **** 
 187              		.loc 1 204 40 is_stmt 0 view .LVU69
 188 0080 0124     		movs	r4, #1
 189 0082 9C40     		lsls	r4, r4, r3
 190              	.LVL20:
 206:cube/Drivers/STM32F3xx_HAL_Driver/Src/stm32f3xx_hal_gpio.c ****     {
 191              		.loc 1 206 5 is_stmt 1 view .LVU70
 206:cube/Drivers/STM32F3xx_HAL_Driver/Src/stm32f3xx_hal_gpio.c ****     {
 192              		.loc 1 206 7 is_stmt 0 view .LVU71
 193 0084 2240     		ands	r2, r4, r2
 194              	.LVL21:
 206:cube/Drivers/STM32F3xx_HAL_Driver/Src/stm32f3xx_hal_gpio.c ****     {
 195              		.loc 1 206 7 view .LVU72
 196 0086 F5D0     		beq	.L3
 210:cube/Drivers/STM32F3xx_HAL_Driver/Src/stm32f3xx_hal_gpio.c ****       {
 197              		.loc 1 210 7 is_stmt 1 view .LVU73
 210:cube/Drivers/STM32F3xx_HAL_Driver/Src/stm32f3xx_hal_gpio.c ****       {
 198              		.loc 1 210 20 is_stmt 0 view .LVU74
 199 0088 4D68     		ldr	r5, [r1, #4]
 210:cube/Drivers/STM32F3xx_HAL_Driver/Src/stm32f3xx_hal_gpio.c ****       {
 200              		.loc 1 210 9 view .LVU75
 201 008a 022D     		cmp	r5, #2
ARM GAS  C:\Users\Berbardo\AppData\Local\Temp\cczWbgEE.s 			page 10


 202 008c 01D0     		beq	.L4
 210:cube/Drivers/STM32F3xx_HAL_Driver/Src/stm32f3xx_hal_gpio.c ****       {
 203              		.loc 1 210 47 discriminator 1 view .LVU76
 204 008e 122D     		cmp	r5, #18
 205 0090 10D1     		bne	.L5
 206              	.L4:
 213:cube/Drivers/STM32F3xx_HAL_Driver/Src/stm32f3xx_hal_gpio.c ****         assert_param(IS_GPIO_AF(GPIO_Init->Alternate));
 207              		.loc 1 213 9 is_stmt 1 view .LVU77
 214:cube/Drivers/STM32F3xx_HAL_Driver/Src/stm32f3xx_hal_gpio.c ****         
 208              		.loc 1 214 9 view .LVU78
 217:cube/Drivers/STM32F3xx_HAL_Driver/Src/stm32f3xx_hal_gpio.c ****         temp &= ~(0xFU << ((uint32_t)(position & 0x07U) * 4U)) ;
 209              		.loc 1 217 9 view .LVU79
 217:cube/Drivers/STM32F3xx_HAL_Driver/Src/stm32f3xx_hal_gpio.c ****         temp &= ~(0xFU << ((uint32_t)(position & 0x07U) * 4U)) ;
 210              		.loc 1 217 36 is_stmt 0 view .LVU80
 211 0092 DE08     		lsrs	r6, r3, #3
 217:cube/Drivers/STM32F3xx_HAL_Driver/Src/stm32f3xx_hal_gpio.c ****         temp &= ~(0xFU << ((uint32_t)(position & 0x07U) * 4U)) ;
 212              		.loc 1 217 14 view .LVU81
 213 0094 0836     		adds	r6, r6, #8
 214 0096 50F826C0 		ldr	ip, [r0, r6, lsl #2]
 215              	.LVL22:
 218:cube/Drivers/STM32F3xx_HAL_Driver/Src/stm32f3xx_hal_gpio.c ****         temp |= ((uint32_t)(GPIO_Init->Alternate) << (((uint32_t)position & 0x07U) * 4U));
 216              		.loc 1 218 9 is_stmt 1 view .LVU82
 218:cube/Drivers/STM32F3xx_HAL_Driver/Src/stm32f3xx_hal_gpio.c ****         temp |= ((uint32_t)(GPIO_Init->Alternate) << (((uint32_t)position & 0x07U) * 4U));
 217              		.loc 1 218 28 is_stmt 0 view .LVU83
 218 009a 03F00705 		and	r5, r3, #7
 218:cube/Drivers/STM32F3xx_HAL_Driver/Src/stm32f3xx_hal_gpio.c ****         temp |= ((uint32_t)(GPIO_Init->Alternate) << (((uint32_t)position & 0x07U) * 4U));
 219              		.loc 1 218 57 view .LVU84
 220 009e AF00     		lsls	r7, r5, #2
 218:cube/Drivers/STM32F3xx_HAL_Driver/Src/stm32f3xx_hal_gpio.c ****         temp |= ((uint32_t)(GPIO_Init->Alternate) << (((uint32_t)position & 0x07U) * 4U));
 221              		.loc 1 218 24 view .LVU85
 222 00a0 0F25     		movs	r5, #15
 223 00a2 BD40     		lsls	r5, r5, r7
 218:cube/Drivers/STM32F3xx_HAL_Driver/Src/stm32f3xx_hal_gpio.c ****         temp |= ((uint32_t)(GPIO_Init->Alternate) << (((uint32_t)position & 0x07U) * 4U));
 224              		.loc 1 218 14 view .LVU86
 225 00a4 2CEA050C 		bic	ip, ip, r5
 226              	.LVL23:
 219:cube/Drivers/STM32F3xx_HAL_Driver/Src/stm32f3xx_hal_gpio.c ****         GPIOx->AFR[position >> 3] = temp;
 227              		.loc 1 219 9 is_stmt 1 view .LVU87
 219:cube/Drivers/STM32F3xx_HAL_Driver/Src/stm32f3xx_hal_gpio.c ****         GPIOx->AFR[position >> 3] = temp;
 228              		.loc 1 219 38 is_stmt 0 view .LVU88
 229 00a8 0D69     		ldr	r5, [r1, #16]
 219:cube/Drivers/STM32F3xx_HAL_Driver/Src/stm32f3xx_hal_gpio.c ****         GPIOx->AFR[position >> 3] = temp;
 230              		.loc 1 219 51 view .LVU89
 231 00aa BD40     		lsls	r5, r5, r7
 219:cube/Drivers/STM32F3xx_HAL_Driver/Src/stm32f3xx_hal_gpio.c ****         GPIOx->AFR[position >> 3] = temp;
 232              		.loc 1 219 14 view .LVU90
 233 00ac 45EA0C05 		orr	r5, r5, ip
 234              	.LVL24:
 220:cube/Drivers/STM32F3xx_HAL_Driver/Src/stm32f3xx_hal_gpio.c ****       }
 235              		.loc 1 220 9 is_stmt 1 view .LVU91
 220:cube/Drivers/STM32F3xx_HAL_Driver/Src/stm32f3xx_hal_gpio.c ****       }
 236              		.loc 1 220 35 is_stmt 0 view .LVU92
 237 00b0 40F82650 		str	r5, [r0, r6, lsl #2]
 238              	.LVL25:
 239              	.L5:
 224:cube/Drivers/STM32F3xx_HAL_Driver/Src/stm32f3xx_hal_gpio.c ****       temp &= ~(GPIO_MODER_MODER0 << (position * 2U));
 240              		.loc 1 224 7 is_stmt 1 view .LVU93
ARM GAS  C:\Users\Berbardo\AppData\Local\Temp\cczWbgEE.s 			page 11


 224:cube/Drivers/STM32F3xx_HAL_Driver/Src/stm32f3xx_hal_gpio.c ****       temp &= ~(GPIO_MODER_MODER0 << (position * 2U));
 241              		.loc 1 224 12 is_stmt 0 view .LVU94
 242 00b4 0668     		ldr	r6, [r0]
 243              	.LVL26:
 225:cube/Drivers/STM32F3xx_HAL_Driver/Src/stm32f3xx_hal_gpio.c ****       temp |= ((GPIO_Init->Mode & GPIO_MODE) << (position * 2U));
 244              		.loc 1 225 7 is_stmt 1 view .LVU95
 225:cube/Drivers/STM32F3xx_HAL_Driver/Src/stm32f3xx_hal_gpio.c ****       temp |= ((GPIO_Init->Mode & GPIO_MODE) << (position * 2U));
 245              		.loc 1 225 48 is_stmt 0 view .LVU96
 246 00b6 5F00     		lsls	r7, r3, #1
 225:cube/Drivers/STM32F3xx_HAL_Driver/Src/stm32f3xx_hal_gpio.c ****       temp |= ((GPIO_Init->Mode & GPIO_MODE) << (position * 2U));
 247              		.loc 1 225 35 view .LVU97
 248 00b8 0325     		movs	r5, #3
 249 00ba BD40     		lsls	r5, r5, r7
 225:cube/Drivers/STM32F3xx_HAL_Driver/Src/stm32f3xx_hal_gpio.c ****       temp |= ((GPIO_Init->Mode & GPIO_MODE) << (position * 2U));
 250              		.loc 1 225 15 view .LVU98
 251 00bc ED43     		mvns	r5, r5
 225:cube/Drivers/STM32F3xx_HAL_Driver/Src/stm32f3xx_hal_gpio.c ****       temp |= ((GPIO_Init->Mode & GPIO_MODE) << (position * 2U));
 252              		.loc 1 225 12 view .LVU99
 253 00be 05EA060C 		and	ip, r5, r6
 254              	.LVL27:
 226:cube/Drivers/STM32F3xx_HAL_Driver/Src/stm32f3xx_hal_gpio.c ****       GPIOx->MODER = temp;
 255              		.loc 1 226 7 is_stmt 1 view .LVU100
 226:cube/Drivers/STM32F3xx_HAL_Driver/Src/stm32f3xx_hal_gpio.c ****       GPIOx->MODER = temp;
 256              		.loc 1 226 26 is_stmt 0 view .LVU101
 257 00c2 4E68     		ldr	r6, [r1, #4]
 226:cube/Drivers/STM32F3xx_HAL_Driver/Src/stm32f3xx_hal_gpio.c ****       GPIOx->MODER = temp;
 258              		.loc 1 226 33 view .LVU102
 259 00c4 06F00306 		and	r6, r6, #3
 226:cube/Drivers/STM32F3xx_HAL_Driver/Src/stm32f3xx_hal_gpio.c ****       GPIOx->MODER = temp;
 260              		.loc 1 226 46 view .LVU103
 261 00c8 BE40     		lsls	r6, r6, r7
 226:cube/Drivers/STM32F3xx_HAL_Driver/Src/stm32f3xx_hal_gpio.c ****       GPIOx->MODER = temp;
 262              		.loc 1 226 12 view .LVU104
 263 00ca 46EA0C06 		orr	r6, r6, ip
 264              	.LVL28:
 227:cube/Drivers/STM32F3xx_HAL_Driver/Src/stm32f3xx_hal_gpio.c **** 
 265              		.loc 1 227 7 is_stmt 1 view .LVU105
 227:cube/Drivers/STM32F3xx_HAL_Driver/Src/stm32f3xx_hal_gpio.c **** 
 266              		.loc 1 227 20 is_stmt 0 view .LVU106
 267 00ce 0660     		str	r6, [r0]
 230:cube/Drivers/STM32F3xx_HAL_Driver/Src/stm32f3xx_hal_gpio.c ****          (GPIO_Init->Mode == GPIO_MODE_OUTPUT_OD) || (GPIO_Init->Mode == GPIO_MODE_AF_OD))
 268              		.loc 1 230 7 is_stmt 1 view .LVU107
 230:cube/Drivers/STM32F3xx_HAL_Driver/Src/stm32f3xx_hal_gpio.c ****          (GPIO_Init->Mode == GPIO_MODE_OUTPUT_OD) || (GPIO_Init->Mode == GPIO_MODE_AF_OD))
 269              		.loc 1 230 20 is_stmt 0 view .LVU108
 270 00d0 4E68     		ldr	r6, [r1, #4]
 271              	.LVL29:
 230:cube/Drivers/STM32F3xx_HAL_Driver/Src/stm32f3xx_hal_gpio.c ****          (GPIO_Init->Mode == GPIO_MODE_OUTPUT_OD) || (GPIO_Init->Mode == GPIO_MODE_AF_OD))
 272              		.loc 1 230 51 view .LVU109
 273 00d2 06F1FF3C 		add	ip, r6, #-1
 230:cube/Drivers/STM32F3xx_HAL_Driver/Src/stm32f3xx_hal_gpio.c ****          (GPIO_Init->Mode == GPIO_MODE_OUTPUT_OD) || (GPIO_Init->Mode == GPIO_MODE_AF_OD))
 274              		.loc 1 230 9 view .LVU110
 275 00d6 BCF1010F 		cmp	ip, #1
 276 00da 03D9     		bls	.L6
 230:cube/Drivers/STM32F3xx_HAL_Driver/Src/stm32f3xx_hal_gpio.c ****          (GPIO_Init->Mode == GPIO_MODE_OUTPUT_OD) || (GPIO_Init->Mode == GPIO_MODE_AF_OD))
 277              		.loc 1 230 91 discriminator 1 view .LVU111
 278 00dc 112E     		cmp	r6, #17
 279 00de 01D0     		beq	.L6
ARM GAS  C:\Users\Berbardo\AppData\Local\Temp\cczWbgEE.s 			page 12


 231:cube/Drivers/STM32F3xx_HAL_Driver/Src/stm32f3xx_hal_gpio.c ****       {
 280              		.loc 1 231 51 view .LVU112
 281 00e0 122E     		cmp	r6, #18
 282 00e2 10D1     		bne	.L7
 283              	.L6:
 234:cube/Drivers/STM32F3xx_HAL_Driver/Src/stm32f3xx_hal_gpio.c ****         /* Configure the IO Speed */
 284              		.loc 1 234 9 is_stmt 1 view .LVU113
 236:cube/Drivers/STM32F3xx_HAL_Driver/Src/stm32f3xx_hal_gpio.c ****         temp &= ~(GPIO_OSPEEDER_OSPEEDR0 << (position * 2U));
 285              		.loc 1 236 9 view .LVU114
 236:cube/Drivers/STM32F3xx_HAL_Driver/Src/stm32f3xx_hal_gpio.c ****         temp &= ~(GPIO_OSPEEDER_OSPEEDR0 << (position * 2U));
 286              		.loc 1 236 14 is_stmt 0 view .LVU115
 287 00e4 8668     		ldr	r6, [r0, #8]
 288              	.LVL30:
 237:cube/Drivers/STM32F3xx_HAL_Driver/Src/stm32f3xx_hal_gpio.c ****         temp |= (GPIO_Init->Speed << (position * 2U));
 289              		.loc 1 237 9 is_stmt 1 view .LVU116
 237:cube/Drivers/STM32F3xx_HAL_Driver/Src/stm32f3xx_hal_gpio.c ****         temp |= (GPIO_Init->Speed << (position * 2U));
 290              		.loc 1 237 14 is_stmt 0 view .LVU117
 291 00e6 05EA060C 		and	ip, r5, r6
 292              	.LVL31:
 238:cube/Drivers/STM32F3xx_HAL_Driver/Src/stm32f3xx_hal_gpio.c ****         GPIOx->OSPEEDR = temp;
 293              		.loc 1 238 9 is_stmt 1 view .LVU118
 238:cube/Drivers/STM32F3xx_HAL_Driver/Src/stm32f3xx_hal_gpio.c ****         GPIOx->OSPEEDR = temp;
 294              		.loc 1 238 27 is_stmt 0 view .LVU119
 295 00ea CE68     		ldr	r6, [r1, #12]
 238:cube/Drivers/STM32F3xx_HAL_Driver/Src/stm32f3xx_hal_gpio.c ****         GPIOx->OSPEEDR = temp;
 296              		.loc 1 238 35 view .LVU120
 297 00ec BE40     		lsls	r6, r6, r7
 238:cube/Drivers/STM32F3xx_HAL_Driver/Src/stm32f3xx_hal_gpio.c ****         GPIOx->OSPEEDR = temp;
 298              		.loc 1 238 14 view .LVU121
 299 00ee 46EA0C06 		orr	r6, r6, ip
 300              	.LVL32:
 239:cube/Drivers/STM32F3xx_HAL_Driver/Src/stm32f3xx_hal_gpio.c **** 
 301              		.loc 1 239 9 is_stmt 1 view .LVU122
 239:cube/Drivers/STM32F3xx_HAL_Driver/Src/stm32f3xx_hal_gpio.c **** 
 302              		.loc 1 239 24 is_stmt 0 view .LVU123
 303 00f2 8660     		str	r6, [r0, #8]
 242:cube/Drivers/STM32F3xx_HAL_Driver/Src/stm32f3xx_hal_gpio.c ****         temp &= ~(GPIO_OTYPER_OT_0 << position) ;
 304              		.loc 1 242 9 is_stmt 1 view .LVU124
 242:cube/Drivers/STM32F3xx_HAL_Driver/Src/stm32f3xx_hal_gpio.c ****         temp &= ~(GPIO_OTYPER_OT_0 << position) ;
 305              		.loc 1 242 14 is_stmt 0 view .LVU125
 306 00f4 4668     		ldr	r6, [r0, #4]
 307              	.LVL33:
 243:cube/Drivers/STM32F3xx_HAL_Driver/Src/stm32f3xx_hal_gpio.c ****         temp |= (((GPIO_Init->Mode & GPIO_OUTPUT_TYPE) >> 4U) << position);
 308              		.loc 1 243 9 is_stmt 1 view .LVU126
 243:cube/Drivers/STM32F3xx_HAL_Driver/Src/stm32f3xx_hal_gpio.c ****         temp |= (((GPIO_Init->Mode & GPIO_OUTPUT_TYPE) >> 4U) << position);
 309              		.loc 1 243 14 is_stmt 0 view .LVU127
 310 00f6 26EA0404 		bic	r4, r6, r4
 311              	.LVL34:
 244:cube/Drivers/STM32F3xx_HAL_Driver/Src/stm32f3xx_hal_gpio.c ****         GPIOx->OTYPER = temp;
 312              		.loc 1 244 9 is_stmt 1 view .LVU128
 244:cube/Drivers/STM32F3xx_HAL_Driver/Src/stm32f3xx_hal_gpio.c ****         GPIOx->OTYPER = temp;
 313              		.loc 1 244 29 is_stmt 0 view .LVU129
 314 00fa 4E68     		ldr	r6, [r1, #4]
 244:cube/Drivers/STM32F3xx_HAL_Driver/Src/stm32f3xx_hal_gpio.c ****         GPIOx->OTYPER = temp;
 315              		.loc 1 244 56 view .LVU130
 316 00fc C6F30016 		ubfx	r6, r6, #4, #1
 244:cube/Drivers/STM32F3xx_HAL_Driver/Src/stm32f3xx_hal_gpio.c ****         GPIOx->OTYPER = temp;
ARM GAS  C:\Users\Berbardo\AppData\Local\Temp\cczWbgEE.s 			page 13


 317              		.loc 1 244 63 view .LVU131
 318 0100 9E40     		lsls	r6, r6, r3
 244:cube/Drivers/STM32F3xx_HAL_Driver/Src/stm32f3xx_hal_gpio.c ****         GPIOx->OTYPER = temp;
 319              		.loc 1 244 14 view .LVU132
 320 0102 2643     		orrs	r6, r6, r4
 321              	.LVL35:
 245:cube/Drivers/STM32F3xx_HAL_Driver/Src/stm32f3xx_hal_gpio.c ****       }
 322              		.loc 1 245 9 is_stmt 1 view .LVU133
 245:cube/Drivers/STM32F3xx_HAL_Driver/Src/stm32f3xx_hal_gpio.c ****       }
 323              		.loc 1 245 23 is_stmt 0 view .LVU134
 324 0104 4660     		str	r6, [r0, #4]
 325              	.LVL36:
 326              	.L7:
 249:cube/Drivers/STM32F3xx_HAL_Driver/Src/stm32f3xx_hal_gpio.c ****       temp &= ~(GPIO_PUPDR_PUPDR0 << (position * 2U));
 327              		.loc 1 249 7 is_stmt 1 view .LVU135
 249:cube/Drivers/STM32F3xx_HAL_Driver/Src/stm32f3xx_hal_gpio.c ****       temp &= ~(GPIO_PUPDR_PUPDR0 << (position * 2U));
 328              		.loc 1 249 12 is_stmt 0 view .LVU136
 329 0106 C468     		ldr	r4, [r0, #12]
 330              	.LVL37:
 250:cube/Drivers/STM32F3xx_HAL_Driver/Src/stm32f3xx_hal_gpio.c ****       temp |= ((GPIO_Init->Pull) << (position * 2U));
 331              		.loc 1 250 7 is_stmt 1 view .LVU137
 250:cube/Drivers/STM32F3xx_HAL_Driver/Src/stm32f3xx_hal_gpio.c ****       temp |= ((GPIO_Init->Pull) << (position * 2U));
 332              		.loc 1 250 12 is_stmt 0 view .LVU138
 333 0108 2540     		ands	r5, r5, r4
 334              	.LVL38:
 251:cube/Drivers/STM32F3xx_HAL_Driver/Src/stm32f3xx_hal_gpio.c ****       GPIOx->PUPDR = temp;
 335              		.loc 1 251 7 is_stmt 1 view .LVU139
 251:cube/Drivers/STM32F3xx_HAL_Driver/Src/stm32f3xx_hal_gpio.c ****       GPIOx->PUPDR = temp;
 336              		.loc 1 251 26 is_stmt 0 view .LVU140
 337 010a 8C68     		ldr	r4, [r1, #8]
 251:cube/Drivers/STM32F3xx_HAL_Driver/Src/stm32f3xx_hal_gpio.c ****       GPIOx->PUPDR = temp;
 338              		.loc 1 251 34 view .LVU141
 339 010c BC40     		lsls	r4, r4, r7
 251:cube/Drivers/STM32F3xx_HAL_Driver/Src/stm32f3xx_hal_gpio.c ****       GPIOx->PUPDR = temp;
 340              		.loc 1 251 12 view .LVU142
 341 010e 2C43     		orrs	r4, r4, r5
 342              	.LVL39:
 252:cube/Drivers/STM32F3xx_HAL_Driver/Src/stm32f3xx_hal_gpio.c **** 
 343              		.loc 1 252 7 is_stmt 1 view .LVU143
 252:cube/Drivers/STM32F3xx_HAL_Driver/Src/stm32f3xx_hal_gpio.c **** 
 344              		.loc 1 252 20 is_stmt 0 view .LVU144
 345 0110 C460     		str	r4, [r0, #12]
 256:cube/Drivers/STM32F3xx_HAL_Driver/Src/stm32f3xx_hal_gpio.c ****       {
 346              		.loc 1 256 7 is_stmt 1 view .LVU145
 256:cube/Drivers/STM32F3xx_HAL_Driver/Src/stm32f3xx_hal_gpio.c ****       {
 347              		.loc 1 256 20 is_stmt 0 view .LVU146
 348 0112 4C68     		ldr	r4, [r1, #4]
 349              	.LVL40:
 256:cube/Drivers/STM32F3xx_HAL_Driver/Src/stm32f3xx_hal_gpio.c ****       {
 350              		.loc 1 256 9 view .LVU147
 351 0114 14F0805F 		tst	r4, #268435456
 352 0118 ACD0     		beq	.L3
 259:cube/Drivers/STM32F3xx_HAL_Driver/Src/stm32f3xx_hal_gpio.c **** 
 353              		.loc 1 259 9 is_stmt 1 view .LVU148
 354              	.LBB2:
 259:cube/Drivers/STM32F3xx_HAL_Driver/Src/stm32f3xx_hal_gpio.c **** 
 355              		.loc 1 259 9 view .LVU149
ARM GAS  C:\Users\Berbardo\AppData\Local\Temp\cczWbgEE.s 			page 14


 259:cube/Drivers/STM32F3xx_HAL_Driver/Src/stm32f3xx_hal_gpio.c **** 
 356              		.loc 1 259 9 view .LVU150
 357 011a 224C     		ldr	r4, .L24+8
 358 011c A569     		ldr	r5, [r4, #24]
 359 011e 45F00105 		orr	r5, r5, #1
 360 0122 A561     		str	r5, [r4, #24]
 361              	.LVL41:
 259:cube/Drivers/STM32F3xx_HAL_Driver/Src/stm32f3xx_hal_gpio.c **** 
 362              		.loc 1 259 9 view .LVU151
 363 0124 A469     		ldr	r4, [r4, #24]
 364 0126 04F00104 		and	r4, r4, #1
 365 012a 0194     		str	r4, [sp, #4]
 259:cube/Drivers/STM32F3xx_HAL_Driver/Src/stm32f3xx_hal_gpio.c **** 
 366              		.loc 1 259 9 view .LVU152
 367 012c 019C     		ldr	r4, [sp, #4]
 368              	.LBE2:
 261:cube/Drivers/STM32F3xx_HAL_Driver/Src/stm32f3xx_hal_gpio.c ****         temp &= ~((0x0FU) << (4U * (position & 0x03U)));
 369              		.loc 1 261 9 view .LVU153
 261:cube/Drivers/STM32F3xx_HAL_Driver/Src/stm32f3xx_hal_gpio.c ****         temp &= ~((0x0FU) << (4U * (position & 0x03U)));
 370              		.loc 1 261 40 is_stmt 0 view .LVU154
 371 012e 9D08     		lsrs	r5, r3, #2
 261:cube/Drivers/STM32F3xx_HAL_Driver/Src/stm32f3xx_hal_gpio.c ****         temp &= ~((0x0FU) << (4U * (position & 0x03U)));
 372              		.loc 1 261 14 view .LVU155
 373 0130 AE1C     		adds	r6, r5, #2
 374 0132 1A4C     		ldr	r4, .L24
 375 0134 54F82670 		ldr	r7, [r4, r6, lsl #2]
 376              	.LVL42:
 262:cube/Drivers/STM32F3xx_HAL_Driver/Src/stm32f3xx_hal_gpio.c ****         temp |= (GPIO_GET_INDEX(GPIOx) << (4U * (position & 0x03U)));
 377              		.loc 1 262 9 is_stmt 1 view .LVU156
 262:cube/Drivers/STM32F3xx_HAL_Driver/Src/stm32f3xx_hal_gpio.c ****         temp |= (GPIO_GET_INDEX(GPIOx) << (4U * (position & 0x03U)));
 378              		.loc 1 262 46 is_stmt 0 view .LVU157
 379 0138 03F00304 		and	r4, r3, #3
 262:cube/Drivers/STM32F3xx_HAL_Driver/Src/stm32f3xx_hal_gpio.c ****         temp |= (GPIO_GET_INDEX(GPIOx) << (4U * (position & 0x03U)));
 380              		.loc 1 262 34 view .LVU158
 381 013c A600     		lsls	r6, r4, #2
 262:cube/Drivers/STM32F3xx_HAL_Driver/Src/stm32f3xx_hal_gpio.c ****         temp |= (GPIO_GET_INDEX(GPIOx) << (4U * (position & 0x03U)));
 382              		.loc 1 262 27 view .LVU159
 383 013e 0F24     		movs	r4, #15
 384 0140 B440     		lsls	r4, r4, r6
 262:cube/Drivers/STM32F3xx_HAL_Driver/Src/stm32f3xx_hal_gpio.c ****         temp |= (GPIO_GET_INDEX(GPIOx) << (4U * (position & 0x03U)));
 385              		.loc 1 262 14 view .LVU160
 386 0142 27EA0407 		bic	r7, r7, r4
 387              	.LVL43:
 263:cube/Drivers/STM32F3xx_HAL_Driver/Src/stm32f3xx_hal_gpio.c ****         SYSCFG->EXTICR[position >> 2] = temp;
 388              		.loc 1 263 9 is_stmt 1 view .LVU161
 263:cube/Drivers/STM32F3xx_HAL_Driver/Src/stm32f3xx_hal_gpio.c ****         SYSCFG->EXTICR[position >> 2] = temp;
 389              		.loc 1 263 18 is_stmt 0 view .LVU162
 390 0146 B0F1904F 		cmp	r0, #1207959552
 391 014a 3FF45FAF 		beq	.L14
 263:cube/Drivers/STM32F3xx_HAL_Driver/Src/stm32f3xx_hal_gpio.c ****         SYSCFG->EXTICR[position >> 2] = temp;
 392              		.loc 1 263 18 discriminator 1 view .LVU163
 393 014e 164C     		ldr	r4, .L24+12
 394 0150 A042     		cmp	r0, r4
 395 0152 16D0     		beq	.L15
 263:cube/Drivers/STM32F3xx_HAL_Driver/Src/stm32f3xx_hal_gpio.c ****         SYSCFG->EXTICR[position >> 2] = temp;
 396              		.loc 1 263 18 discriminator 3 view .LVU164
 397 0154 04F58064 		add	r4, r4, #1024
ARM GAS  C:\Users\Berbardo\AppData\Local\Temp\cczWbgEE.s 			page 15


 398 0158 A042     		cmp	r0, r4
 399 015a 14D0     		beq	.L16
 263:cube/Drivers/STM32F3xx_HAL_Driver/Src/stm32f3xx_hal_gpio.c ****         SYSCFG->EXTICR[position >> 2] = temp;
 400              		.loc 1 263 18 discriminator 5 view .LVU165
 401 015c 04F58064 		add	r4, r4, #1024
 402 0160 A042     		cmp	r0, r4
 403 0162 12D0     		beq	.L17
 263:cube/Drivers/STM32F3xx_HAL_Driver/Src/stm32f3xx_hal_gpio.c ****         SYSCFG->EXTICR[position >> 2] = temp;
 404              		.loc 1 263 18 discriminator 7 view .LVU166
 405 0164 04F58064 		add	r4, r4, #1024
 406 0168 A042     		cmp	r0, r4
 407 016a 10D0     		beq	.L18
 263:cube/Drivers/STM32F3xx_HAL_Driver/Src/stm32f3xx_hal_gpio.c ****         SYSCFG->EXTICR[position >> 2] = temp;
 408              		.loc 1 263 18 discriminator 9 view .LVU167
 409 016c 04F58064 		add	r4, r4, #1024
 410 0170 A042     		cmp	r0, r4
 411 0172 0ED0     		beq	.L19
 263:cube/Drivers/STM32F3xx_HAL_Driver/Src/stm32f3xx_hal_gpio.c ****         SYSCFG->EXTICR[position >> 2] = temp;
 412              		.loc 1 263 18 discriminator 11 view .LVU168
 413 0174 04F58064 		add	r4, r4, #1024
 414 0178 A042     		cmp	r0, r4
 415 017a 3FF445AF 		beq	.L23
 263:cube/Drivers/STM32F3xx_HAL_Driver/Src/stm32f3xx_hal_gpio.c ****         SYSCFG->EXTICR[position >> 2] = temp;
 416              		.loc 1 263 18 view .LVU169
 417 017e 0724     		movs	r4, #7
 418 0180 45E7     		b	.L8
 419              	.L15:
 420 0182 0124     		movs	r4, #1
 421 0184 43E7     		b	.L8
 422              	.L16:
 423 0186 0224     		movs	r4, #2
 424 0188 41E7     		b	.L8
 425              	.L17:
 426 018a 0324     		movs	r4, #3
 427 018c 3FE7     		b	.L8
 428              	.L18:
 429 018e 0424     		movs	r4, #4
 430 0190 3DE7     		b	.L8
 431              	.L19:
 432 0192 0524     		movs	r4, #5
 433 0194 3BE7     		b	.L8
 434              	.LVL44:
 435              	.L22:
 303:cube/Drivers/STM32F3xx_HAL_Driver/Src/stm32f3xx_hal_gpio.c ****   }
 304:cube/Drivers/STM32F3xx_HAL_Driver/Src/stm32f3xx_hal_gpio.c **** }
 436              		.loc 1 304 1 view .LVU170
 437 0196 02B0     		add	sp, sp, #8
 438              		.cfi_def_cfa_offset 16
 439              		@ sp needed
 440 0198 F0BC     		pop	{r4, r5, r6, r7}
 441              		.cfi_restore 7
 442              		.cfi_restore 6
 443              		.cfi_restore 5
 444              		.cfi_restore 4
 445              		.cfi_def_cfa_offset 0
 446 019a 7047     		bx	lr
 447              	.L25:
ARM GAS  C:\Users\Berbardo\AppData\Local\Temp\cczWbgEE.s 			page 16


 448              		.align	2
 449              	.L24:
 450 019c 00000140 		.word	1073807360
 451 01a0 00040140 		.word	1073808384
 452 01a4 00100240 		.word	1073876992
 453 01a8 00040048 		.word	1207960576
 454              		.cfi_endproc
 455              	.LFE126:
 457              		.section	.text.HAL_GPIO_DeInit,"ax",%progbits
 458              		.align	1
 459              		.global	HAL_GPIO_DeInit
 460              		.syntax unified
 461              		.thumb
 462              		.thumb_func
 463              		.fpu fpv4-sp-d16
 465              	HAL_GPIO_DeInit:
 466              	.LVL45:
 467              	.LFB127:
 305:cube/Drivers/STM32F3xx_HAL_Driver/Src/stm32f3xx_hal_gpio.c **** 
 306:cube/Drivers/STM32F3xx_HAL_Driver/Src/stm32f3xx_hal_gpio.c **** /**
 307:cube/Drivers/STM32F3xx_HAL_Driver/Src/stm32f3xx_hal_gpio.c ****   * @brief  De-initialize the GPIOx peripheral registers to their default reset values.
 308:cube/Drivers/STM32F3xx_HAL_Driver/Src/stm32f3xx_hal_gpio.c ****   * @param  GPIOx where x can be (A..F) to select the GPIO peripheral for STM32F30X device or STM32
 309:cube/Drivers/STM32F3xx_HAL_Driver/Src/stm32f3xx_hal_gpio.c ****   * @param  GPIO_Pin specifies the port bit to be written.
 310:cube/Drivers/STM32F3xx_HAL_Driver/Src/stm32f3xx_hal_gpio.c ****   *         This parameter can be one of GPIO_PIN_x where x can be (0..15).
 311:cube/Drivers/STM32F3xx_HAL_Driver/Src/stm32f3xx_hal_gpio.c ****   * @retval None
 312:cube/Drivers/STM32F3xx_HAL_Driver/Src/stm32f3xx_hal_gpio.c ****   */
 313:cube/Drivers/STM32F3xx_HAL_Driver/Src/stm32f3xx_hal_gpio.c **** void HAL_GPIO_DeInit(GPIO_TypeDef  *GPIOx, uint32_t GPIO_Pin)
 314:cube/Drivers/STM32F3xx_HAL_Driver/Src/stm32f3xx_hal_gpio.c **** {
 468              		.loc 1 314 1 is_stmt 1 view -0
 469              		.cfi_startproc
 470              		@ args = 0, pretend = 0, frame = 0
 471              		@ frame_needed = 0, uses_anonymous_args = 0
 315:cube/Drivers/STM32F3xx_HAL_Driver/Src/stm32f3xx_hal_gpio.c ****   uint32_t position = 0x00U;
 472              		.loc 1 315 3 view .LVU172
 316:cube/Drivers/STM32F3xx_HAL_Driver/Src/stm32f3xx_hal_gpio.c ****   uint32_t iocurrent = 0x00U;
 473              		.loc 1 316 3 view .LVU173
 317:cube/Drivers/STM32F3xx_HAL_Driver/Src/stm32f3xx_hal_gpio.c ****   uint32_t tmp = 0x00U;
 474              		.loc 1 317 3 view .LVU174
 318:cube/Drivers/STM32F3xx_HAL_Driver/Src/stm32f3xx_hal_gpio.c **** 
 319:cube/Drivers/STM32F3xx_HAL_Driver/Src/stm32f3xx_hal_gpio.c ****   /* Check the parameters */
 320:cube/Drivers/STM32F3xx_HAL_Driver/Src/stm32f3xx_hal_gpio.c ****   assert_param(IS_GPIO_ALL_INSTANCE(GPIOx));
 475              		.loc 1 320 3 view .LVU175
 321:cube/Drivers/STM32F3xx_HAL_Driver/Src/stm32f3xx_hal_gpio.c ****   assert_param(IS_GPIO_PIN(GPIO_Pin));
 476              		.loc 1 321 3 view .LVU176
 322:cube/Drivers/STM32F3xx_HAL_Driver/Src/stm32f3xx_hal_gpio.c **** 
 323:cube/Drivers/STM32F3xx_HAL_Driver/Src/stm32f3xx_hal_gpio.c ****   /* Configure the port pins */
 324:cube/Drivers/STM32F3xx_HAL_Driver/Src/stm32f3xx_hal_gpio.c ****   while ((GPIO_Pin >> position) != RESET)
 477              		.loc 1 324 3 view .LVU177
 315:cube/Drivers/STM32F3xx_HAL_Driver/Src/stm32f3xx_hal_gpio.c ****   uint32_t iocurrent = 0x00U;
 478              		.loc 1 315 12 is_stmt 0 view .LVU178
 479 0000 0023     		movs	r3, #0
 480              		.loc 1 324 9 view .LVU179
 481 0002 7CE0     		b	.L39
 482              	.LVL46:
 483              	.L46:
 484              		.cfi_def_cfa_offset 20
 485              		.cfi_offset 4, -20
ARM GAS  C:\Users\Berbardo\AppData\Local\Temp\cczWbgEE.s 			page 17


 486              		.cfi_offset 5, -16
 487              		.cfi_offset 6, -12
 488              		.cfi_offset 7, -8
 489              		.cfi_offset 14, -4
 325:cube/Drivers/STM32F3xx_HAL_Driver/Src/stm32f3xx_hal_gpio.c ****   {
 326:cube/Drivers/STM32F3xx_HAL_Driver/Src/stm32f3xx_hal_gpio.c ****     /* Get current io position */
 327:cube/Drivers/STM32F3xx_HAL_Driver/Src/stm32f3xx_hal_gpio.c ****     iocurrent = GPIO_Pin & (1U << position);
 328:cube/Drivers/STM32F3xx_HAL_Driver/Src/stm32f3xx_hal_gpio.c **** 
 329:cube/Drivers/STM32F3xx_HAL_Driver/Src/stm32f3xx_hal_gpio.c ****     if (iocurrent)
 330:cube/Drivers/STM32F3xx_HAL_Driver/Src/stm32f3xx_hal_gpio.c ****     {
 331:cube/Drivers/STM32F3xx_HAL_Driver/Src/stm32f3xx_hal_gpio.c ****       /*------------------------- GPIO Mode Configuration --------------------*/
 332:cube/Drivers/STM32F3xx_HAL_Driver/Src/stm32f3xx_hal_gpio.c ****       /* Configure IO Direction in Input Floting Mode */
 333:cube/Drivers/STM32F3xx_HAL_Driver/Src/stm32f3xx_hal_gpio.c ****       GPIOx->MODER &= ~(GPIO_MODER_MODER0 << (position * 2U));
 334:cube/Drivers/STM32F3xx_HAL_Driver/Src/stm32f3xx_hal_gpio.c **** 
 335:cube/Drivers/STM32F3xx_HAL_Driver/Src/stm32f3xx_hal_gpio.c ****       /* Configure the default Alternate Function in current IO */
 336:cube/Drivers/STM32F3xx_HAL_Driver/Src/stm32f3xx_hal_gpio.c ****       GPIOx->AFR[position >> 3] &= ~(0xFU << ((uint32_t)(position & 0x07U) * 4U)) ;
 337:cube/Drivers/STM32F3xx_HAL_Driver/Src/stm32f3xx_hal_gpio.c **** 
 338:cube/Drivers/STM32F3xx_HAL_Driver/Src/stm32f3xx_hal_gpio.c ****       /* Configure the default value for IO Speed */
 339:cube/Drivers/STM32F3xx_HAL_Driver/Src/stm32f3xx_hal_gpio.c ****       GPIOx->OSPEEDR &= ~(GPIO_OSPEEDER_OSPEEDR0 << (position * 2U));
 340:cube/Drivers/STM32F3xx_HAL_Driver/Src/stm32f3xx_hal_gpio.c **** 
 341:cube/Drivers/STM32F3xx_HAL_Driver/Src/stm32f3xx_hal_gpio.c ****       /* Configure the default value IO Output Type */
 342:cube/Drivers/STM32F3xx_HAL_Driver/Src/stm32f3xx_hal_gpio.c ****       GPIOx->OTYPER  &= ~(GPIO_OTYPER_OT_0 << position) ;
 343:cube/Drivers/STM32F3xx_HAL_Driver/Src/stm32f3xx_hal_gpio.c **** 
 344:cube/Drivers/STM32F3xx_HAL_Driver/Src/stm32f3xx_hal_gpio.c ****       /* Deactivate the Pull-up and Pull-down resistor for the current IO */
 345:cube/Drivers/STM32F3xx_HAL_Driver/Src/stm32f3xx_hal_gpio.c ****       GPIOx->PUPDR &= ~(GPIO_PUPDR_PUPDR0 << (position * 2U));
 346:cube/Drivers/STM32F3xx_HAL_Driver/Src/stm32f3xx_hal_gpio.c **** 
 347:cube/Drivers/STM32F3xx_HAL_Driver/Src/stm32f3xx_hal_gpio.c ****   
 348:cube/Drivers/STM32F3xx_HAL_Driver/Src/stm32f3xx_hal_gpio.c ****       /*------------------------- EXTI Mode Configuration --------------------*/
 349:cube/Drivers/STM32F3xx_HAL_Driver/Src/stm32f3xx_hal_gpio.c ****       /* Clear the External Interrupt or Event for the current IO */
 350:cube/Drivers/STM32F3xx_HAL_Driver/Src/stm32f3xx_hal_gpio.c ****       
 351:cube/Drivers/STM32F3xx_HAL_Driver/Src/stm32f3xx_hal_gpio.c ****       tmp = SYSCFG->EXTICR[position >> 2];
 352:cube/Drivers/STM32F3xx_HAL_Driver/Src/stm32f3xx_hal_gpio.c ****       tmp &= ((0x0FU) << (4U * (position & 0x03U)));
 353:cube/Drivers/STM32F3xx_HAL_Driver/Src/stm32f3xx_hal_gpio.c ****       if(tmp == (GPIO_GET_INDEX(GPIOx) << (4U * (position & 0x03U))))
 490              		.loc 1 353 18 view .LVU180
 491 0004 0625     		movs	r5, #6
 492 0006 00E0     		b	.L29
 493              	.L31:
 494 0008 0025     		movs	r5, #0
 495              	.L29:
 496              		.loc 1 353 40 discriminator 28 view .LVU181
 497 000a 05FA02F2 		lsl	r2, r5, r2
 498              		.loc 1 353 9 discriminator 28 view .LVU182
 499 000e A242     		cmp	r2, r4
 500 0010 57D0     		beq	.L44
 501              	.LVL47:
 502              	.L28:
 354:cube/Drivers/STM32F3xx_HAL_Driver/Src/stm32f3xx_hal_gpio.c ****       {
 355:cube/Drivers/STM32F3xx_HAL_Driver/Src/stm32f3xx_hal_gpio.c ****         tmp = (0x0FU) << (4U * (position & 0x03U));
 356:cube/Drivers/STM32F3xx_HAL_Driver/Src/stm32f3xx_hal_gpio.c ****         SYSCFG->EXTICR[position >> 2] &= ~tmp;
 357:cube/Drivers/STM32F3xx_HAL_Driver/Src/stm32f3xx_hal_gpio.c **** 
 358:cube/Drivers/STM32F3xx_HAL_Driver/Src/stm32f3xx_hal_gpio.c ****         /* Clear EXTI line configuration */
 359:cube/Drivers/STM32F3xx_HAL_Driver/Src/stm32f3xx_hal_gpio.c ****         EXTI->IMR &= ~((uint32_t)iocurrent);
 360:cube/Drivers/STM32F3xx_HAL_Driver/Src/stm32f3xx_hal_gpio.c ****         EXTI->EMR &= ~((uint32_t)iocurrent);
 361:cube/Drivers/STM32F3xx_HAL_Driver/Src/stm32f3xx_hal_gpio.c **** 
 362:cube/Drivers/STM32F3xx_HAL_Driver/Src/stm32f3xx_hal_gpio.c ****         /* Clear Rising Falling edge configuration */
 363:cube/Drivers/STM32F3xx_HAL_Driver/Src/stm32f3xx_hal_gpio.c ****         EXTI->RTSR &= ~((uint32_t)iocurrent);
 364:cube/Drivers/STM32F3xx_HAL_Driver/Src/stm32f3xx_hal_gpio.c ****         EXTI->FTSR &= ~((uint32_t)iocurrent);
ARM GAS  C:\Users\Berbardo\AppData\Local\Temp\cczWbgEE.s 			page 18


 365:cube/Drivers/STM32F3xx_HAL_Driver/Src/stm32f3xx_hal_gpio.c ****       }
 366:cube/Drivers/STM32F3xx_HAL_Driver/Src/stm32f3xx_hal_gpio.c ****     }
 367:cube/Drivers/STM32F3xx_HAL_Driver/Src/stm32f3xx_hal_gpio.c ****     
 368:cube/Drivers/STM32F3xx_HAL_Driver/Src/stm32f3xx_hal_gpio.c ****     position++;
 503              		.loc 1 368 5 is_stmt 1 view .LVU183
 504              		.loc 1 368 13 is_stmt 0 view .LVU184
 505 0012 0133     		adds	r3, r3, #1
 506              	.LVL48:
 324:cube/Drivers/STM32F3xx_HAL_Driver/Src/stm32f3xx_hal_gpio.c ****   {
 507              		.loc 1 324 9 view .LVU185
 508 0014 31FA03F2 		lsrs	r2, r1, r3
 509 0018 6FD0     		beq	.L45
 327:cube/Drivers/STM32F3xx_HAL_Driver/Src/stm32f3xx_hal_gpio.c **** 
 510              		.loc 1 327 5 is_stmt 1 view .LVU186
 327:cube/Drivers/STM32F3xx_HAL_Driver/Src/stm32f3xx_hal_gpio.c **** 
 511              		.loc 1 327 32 is_stmt 0 view .LVU187
 512 001a 0122     		movs	r2, #1
 513 001c 9A40     		lsls	r2, r2, r3
 514              	.LVL49:
 329:cube/Drivers/STM32F3xx_HAL_Driver/Src/stm32f3xx_hal_gpio.c ****     {
 515              		.loc 1 329 5 is_stmt 1 view .LVU188
 329:cube/Drivers/STM32F3xx_HAL_Driver/Src/stm32f3xx_hal_gpio.c ****     {
 516              		.loc 1 329 8 is_stmt 0 view .LVU189
 517 001e 12EA010C 		ands	ip, r2, r1
 518              	.LVL50:
 329:cube/Drivers/STM32F3xx_HAL_Driver/Src/stm32f3xx_hal_gpio.c ****     {
 519              		.loc 1 329 8 view .LVU190
 520 0022 F6D0     		beq	.L28
 521              	.L40:
 333:cube/Drivers/STM32F3xx_HAL_Driver/Src/stm32f3xx_hal_gpio.c **** 
 522              		.loc 1 333 7 is_stmt 1 view .LVU191
 333:cube/Drivers/STM32F3xx_HAL_Driver/Src/stm32f3xx_hal_gpio.c **** 
 523              		.loc 1 333 20 is_stmt 0 view .LVU192
 524 0024 0568     		ldr	r5, [r0]
 333:cube/Drivers/STM32F3xx_HAL_Driver/Src/stm32f3xx_hal_gpio.c **** 
 525              		.loc 1 333 56 view .LVU193
 526 0026 5E00     		lsls	r6, r3, #1
 333:cube/Drivers/STM32F3xx_HAL_Driver/Src/stm32f3xx_hal_gpio.c **** 
 527              		.loc 1 333 43 view .LVU194
 528 0028 0324     		movs	r4, #3
 529 002a B440     		lsls	r4, r4, r6
 333:cube/Drivers/STM32F3xx_HAL_Driver/Src/stm32f3xx_hal_gpio.c **** 
 530              		.loc 1 333 23 view .LVU195
 531 002c E443     		mvns	r4, r4
 333:cube/Drivers/STM32F3xx_HAL_Driver/Src/stm32f3xx_hal_gpio.c **** 
 532              		.loc 1 333 20 view .LVU196
 533 002e 2540     		ands	r5, r5, r4
 534 0030 0560     		str	r5, [r0]
 336:cube/Drivers/STM32F3xx_HAL_Driver/Src/stm32f3xx_hal_gpio.c **** 
 535              		.loc 1 336 7 is_stmt 1 view .LVU197
 336:cube/Drivers/STM32F3xx_HAL_Driver/Src/stm32f3xx_hal_gpio.c **** 
 536              		.loc 1 336 33 is_stmt 0 view .LVU198
 537 0032 DF08     		lsrs	r7, r3, #3
 538 0034 0837     		adds	r7, r7, #8
 539 0036 50F827E0 		ldr	lr, [r0, r7, lsl #2]
 336:cube/Drivers/STM32F3xx_HAL_Driver/Src/stm32f3xx_hal_gpio.c **** 
 540              		.loc 1 336 47 view .LVU199
ARM GAS  C:\Users\Berbardo\AppData\Local\Temp\cczWbgEE.s 			page 19


 541 003a 03F00705 		and	r5, r3, #7
 336:cube/Drivers/STM32F3xx_HAL_Driver/Src/stm32f3xx_hal_gpio.c **** 
 542              		.loc 1 336 76 view .LVU200
 543 003e AD00     		lsls	r5, r5, #2
 336:cube/Drivers/STM32F3xx_HAL_Driver/Src/stm32f3xx_hal_gpio.c **** 
 544              		.loc 1 336 43 view .LVU201
 545 0040 0F26     		movs	r6, #15
 546 0042 06FA05F5 		lsl	r5, r6, r5
 336:cube/Drivers/STM32F3xx_HAL_Driver/Src/stm32f3xx_hal_gpio.c **** 
 547              		.loc 1 336 33 view .LVU202
 548 0046 2EEA0505 		bic	r5, lr, r5
 549 004a 40F82750 		str	r5, [r0, r7, lsl #2]
 339:cube/Drivers/STM32F3xx_HAL_Driver/Src/stm32f3xx_hal_gpio.c **** 
 550              		.loc 1 339 7 is_stmt 1 view .LVU203
 339:cube/Drivers/STM32F3xx_HAL_Driver/Src/stm32f3xx_hal_gpio.c **** 
 551              		.loc 1 339 22 is_stmt 0 view .LVU204
 552 004e 8568     		ldr	r5, [r0, #8]
 553 0050 2540     		ands	r5, r5, r4
 554 0052 8560     		str	r5, [r0, #8]
 342:cube/Drivers/STM32F3xx_HAL_Driver/Src/stm32f3xx_hal_gpio.c **** 
 555              		.loc 1 342 7 is_stmt 1 view .LVU205
 342:cube/Drivers/STM32F3xx_HAL_Driver/Src/stm32f3xx_hal_gpio.c **** 
 556              		.loc 1 342 22 is_stmt 0 view .LVU206
 557 0054 4568     		ldr	r5, [r0, #4]
 558 0056 25EA0202 		bic	r2, r5, r2
 559 005a 4260     		str	r2, [r0, #4]
 345:cube/Drivers/STM32F3xx_HAL_Driver/Src/stm32f3xx_hal_gpio.c **** 
 560              		.loc 1 345 7 is_stmt 1 view .LVU207
 345:cube/Drivers/STM32F3xx_HAL_Driver/Src/stm32f3xx_hal_gpio.c **** 
 561              		.loc 1 345 20 is_stmt 0 view .LVU208
 562 005c C268     		ldr	r2, [r0, #12]
 563 005e 1440     		ands	r4, r4, r2
 564 0060 C460     		str	r4, [r0, #12]
 351:cube/Drivers/STM32F3xx_HAL_Driver/Src/stm32f3xx_hal_gpio.c ****       tmp &= ((0x0FU) << (4U * (position & 0x03U)));
 565              		.loc 1 351 7 is_stmt 1 view .LVU209
 351:cube/Drivers/STM32F3xx_HAL_Driver/Src/stm32f3xx_hal_gpio.c ****       tmp &= ((0x0FU) << (4U * (position & 0x03U)));
 566              		.loc 1 351 37 is_stmt 0 view .LVU210
 567 0062 9F08     		lsrs	r7, r3, #2
 351:cube/Drivers/STM32F3xx_HAL_Driver/Src/stm32f3xx_hal_gpio.c ****       tmp &= ((0x0FU) << (4U * (position & 0x03U)));
 568              		.loc 1 351 11 view .LVU211
 569 0064 BC1C     		adds	r4, r7, #2
 570 0066 2B4A     		ldr	r2, .L49
 571 0068 52F82440 		ldr	r4, [r2, r4, lsl #2]
 572              	.LVL51:
 352:cube/Drivers/STM32F3xx_HAL_Driver/Src/stm32f3xx_hal_gpio.c ****       if(tmp == (GPIO_GET_INDEX(GPIOx) << (4U * (position & 0x03U))))
 573              		.loc 1 352 7 is_stmt 1 view .LVU212
 352:cube/Drivers/STM32F3xx_HAL_Driver/Src/stm32f3xx_hal_gpio.c ****       if(tmp == (GPIO_GET_INDEX(GPIOx) << (4U * (position & 0x03U))))
 574              		.loc 1 352 42 is_stmt 0 view .LVU213
 575 006c 03F00302 		and	r2, r3, #3
 352:cube/Drivers/STM32F3xx_HAL_Driver/Src/stm32f3xx_hal_gpio.c ****       if(tmp == (GPIO_GET_INDEX(GPIOx) << (4U * (position & 0x03U))))
 576              		.loc 1 352 30 view .LVU214
 577 0070 9200     		lsls	r2, r2, #2
 352:cube/Drivers/STM32F3xx_HAL_Driver/Src/stm32f3xx_hal_gpio.c ****       if(tmp == (GPIO_GET_INDEX(GPIOx) << (4U * (position & 0x03U))))
 578              		.loc 1 352 23 view .LVU215
 579 0072 9640     		lsls	r6, r6, r2
 352:cube/Drivers/STM32F3xx_HAL_Driver/Src/stm32f3xx_hal_gpio.c ****       if(tmp == (GPIO_GET_INDEX(GPIOx) << (4U * (position & 0x03U))))
 580              		.loc 1 352 11 view .LVU216
ARM GAS  C:\Users\Berbardo\AppData\Local\Temp\cczWbgEE.s 			page 20


 581 0074 3440     		ands	r4, r4, r6
 582              	.LVL52:
 353:cube/Drivers/STM32F3xx_HAL_Driver/Src/stm32f3xx_hal_gpio.c ****       {
 583              		.loc 1 353 7 is_stmt 1 view .LVU217
 353:cube/Drivers/STM32F3xx_HAL_Driver/Src/stm32f3xx_hal_gpio.c ****       {
 584              		.loc 1 353 18 is_stmt 0 view .LVU218
 585 0076 B0F1904F 		cmp	r0, #1207959552
 586 007a C5D0     		beq	.L31
 353:cube/Drivers/STM32F3xx_HAL_Driver/Src/stm32f3xx_hal_gpio.c ****       {
 587              		.loc 1 353 18 discriminator 1 view .LVU219
 588 007c 264D     		ldr	r5, .L49+4
 589 007e A842     		cmp	r0, r5
 590 0080 15D0     		beq	.L32
 353:cube/Drivers/STM32F3xx_HAL_Driver/Src/stm32f3xx_hal_gpio.c ****       {
 591              		.loc 1 353 18 discriminator 3 view .LVU220
 592 0082 05F58065 		add	r5, r5, #1024
 593 0086 A842     		cmp	r0, r5
 594 0088 13D0     		beq	.L33
 353:cube/Drivers/STM32F3xx_HAL_Driver/Src/stm32f3xx_hal_gpio.c ****       {
 595              		.loc 1 353 18 discriminator 5 view .LVU221
 596 008a 05F58065 		add	r5, r5, #1024
 597 008e A842     		cmp	r0, r5
 598 0090 11D0     		beq	.L34
 353:cube/Drivers/STM32F3xx_HAL_Driver/Src/stm32f3xx_hal_gpio.c ****       {
 599              		.loc 1 353 18 discriminator 7 view .LVU222
 600 0092 05F58065 		add	r5, r5, #1024
 601 0096 A842     		cmp	r0, r5
 602 0098 0FD0     		beq	.L35
 353:cube/Drivers/STM32F3xx_HAL_Driver/Src/stm32f3xx_hal_gpio.c ****       {
 603              		.loc 1 353 18 discriminator 9 view .LVU223
 604 009a 05F58065 		add	r5, r5, #1024
 605 009e A842     		cmp	r0, r5
 606 00a0 0DD0     		beq	.L36
 353:cube/Drivers/STM32F3xx_HAL_Driver/Src/stm32f3xx_hal_gpio.c ****       {
 607              		.loc 1 353 18 discriminator 11 view .LVU224
 608 00a2 05F58065 		add	r5, r5, #1024
 609 00a6 A842     		cmp	r0, r5
 610 00a8 ACD0     		beq	.L46
 353:cube/Drivers/STM32F3xx_HAL_Driver/Src/stm32f3xx_hal_gpio.c ****       {
 611              		.loc 1 353 18 view .LVU225
 612 00aa 0725     		movs	r5, #7
 613 00ac ADE7     		b	.L29
 614              	.L32:
 615 00ae 0125     		movs	r5, #1
 616 00b0 ABE7     		b	.L29
 617              	.L33:
 618 00b2 0225     		movs	r5, #2
 619 00b4 A9E7     		b	.L29
 620              	.L34:
 621 00b6 0325     		movs	r5, #3
 622 00b8 A7E7     		b	.L29
 623              	.L35:
 624 00ba 0425     		movs	r5, #4
 625 00bc A5E7     		b	.L29
 626              	.L36:
 627 00be 0525     		movs	r5, #5
 628 00c0 A3E7     		b	.L29
ARM GAS  C:\Users\Berbardo\AppData\Local\Temp\cczWbgEE.s 			page 21


 629              	.L44:
 355:cube/Drivers/STM32F3xx_HAL_Driver/Src/stm32f3xx_hal_gpio.c ****         SYSCFG->EXTICR[position >> 2] &= ~tmp;
 630              		.loc 1 355 9 is_stmt 1 view .LVU226
 631              	.LVL53:
 356:cube/Drivers/STM32F3xx_HAL_Driver/Src/stm32f3xx_hal_gpio.c **** 
 632              		.loc 1 356 9 view .LVU227
 356:cube/Drivers/STM32F3xx_HAL_Driver/Src/stm32f3xx_hal_gpio.c **** 
 633              		.loc 1 356 39 is_stmt 0 view .LVU228
 634 00c2 144D     		ldr	r5, .L49
 635 00c4 BA1C     		adds	r2, r7, #2
 636 00c6 55F82240 		ldr	r4, [r5, r2, lsl #2]
 637 00ca 24EA0606 		bic	r6, r4, r6
 638              	.LVL54:
 356:cube/Drivers/STM32F3xx_HAL_Driver/Src/stm32f3xx_hal_gpio.c **** 
 639              		.loc 1 356 39 view .LVU229
 640 00ce 45F82260 		str	r6, [r5, r2, lsl #2]
 359:cube/Drivers/STM32F3xx_HAL_Driver/Src/stm32f3xx_hal_gpio.c ****         EXTI->EMR &= ~((uint32_t)iocurrent);
 641              		.loc 1 359 9 is_stmt 1 view .LVU230
 359:cube/Drivers/STM32F3xx_HAL_Driver/Src/stm32f3xx_hal_gpio.c ****         EXTI->EMR &= ~((uint32_t)iocurrent);
 642              		.loc 1 359 19 is_stmt 0 view .LVU231
 643 00d2 124C     		ldr	r4, .L49+8
 644 00d4 2268     		ldr	r2, [r4]
 359:cube/Drivers/STM32F3xx_HAL_Driver/Src/stm32f3xx_hal_gpio.c ****         EXTI->EMR &= ~((uint32_t)iocurrent);
 645              		.loc 1 359 22 view .LVU232
 646 00d6 6FEA0C0C 		mvn	ip, ip
 647              	.LVL55:
 359:cube/Drivers/STM32F3xx_HAL_Driver/Src/stm32f3xx_hal_gpio.c ****         EXTI->EMR &= ~((uint32_t)iocurrent);
 648              		.loc 1 359 19 view .LVU233
 649 00da 02EA0C02 		and	r2, r2, ip
 650 00de 2260     		str	r2, [r4]
 360:cube/Drivers/STM32F3xx_HAL_Driver/Src/stm32f3xx_hal_gpio.c **** 
 651              		.loc 1 360 9 is_stmt 1 view .LVU234
 360:cube/Drivers/STM32F3xx_HAL_Driver/Src/stm32f3xx_hal_gpio.c **** 
 652              		.loc 1 360 19 is_stmt 0 view .LVU235
 653 00e0 6268     		ldr	r2, [r4, #4]
 654 00e2 0CEA0202 		and	r2, ip, r2
 655 00e6 6260     		str	r2, [r4, #4]
 363:cube/Drivers/STM32F3xx_HAL_Driver/Src/stm32f3xx_hal_gpio.c ****         EXTI->FTSR &= ~((uint32_t)iocurrent);
 656              		.loc 1 363 9 is_stmt 1 view .LVU236
 363:cube/Drivers/STM32F3xx_HAL_Driver/Src/stm32f3xx_hal_gpio.c ****         EXTI->FTSR &= ~((uint32_t)iocurrent);
 657              		.loc 1 363 20 is_stmt 0 view .LVU237
 658 00e8 A268     		ldr	r2, [r4, #8]
 659 00ea 0CEA0202 		and	r2, ip, r2
 660 00ee A260     		str	r2, [r4, #8]
 364:cube/Drivers/STM32F3xx_HAL_Driver/Src/stm32f3xx_hal_gpio.c ****       }
 661              		.loc 1 364 9 is_stmt 1 view .LVU238
 364:cube/Drivers/STM32F3xx_HAL_Driver/Src/stm32f3xx_hal_gpio.c ****       }
 662              		.loc 1 364 20 is_stmt 0 view .LVU239
 663 00f0 E268     		ldr	r2, [r4, #12]
 664 00f2 0CEA0202 		and	r2, ip, r2
 665 00f6 E260     		str	r2, [r4, #12]
 666 00f8 8BE7     		b	.L28
 667              	.LVL56:
 668              	.L45:
 369:cube/Drivers/STM32F3xx_HAL_Driver/Src/stm32f3xx_hal_gpio.c ****   }
 370:cube/Drivers/STM32F3xx_HAL_Driver/Src/stm32f3xx_hal_gpio.c **** }
 669              		.loc 1 370 1 view .LVU240
ARM GAS  C:\Users\Berbardo\AppData\Local\Temp\cczWbgEE.s 			page 22


 670 00fa F0BD     		pop	{r4, r5, r6, r7, pc}
 671              	.LVL57:
 672              	.L48:
 673              		.cfi_def_cfa_offset 0
 674              		.cfi_restore 4
 675              		.cfi_restore 5
 676              		.cfi_restore 6
 677              		.cfi_restore 7
 678              		.cfi_restore 14
 368:cube/Drivers/STM32F3xx_HAL_Driver/Src/stm32f3xx_hal_gpio.c ****   }
 679              		.loc 1 368 5 is_stmt 1 view .LVU241
 368:cube/Drivers/STM32F3xx_HAL_Driver/Src/stm32f3xx_hal_gpio.c ****   }
 680              		.loc 1 368 13 is_stmt 0 view .LVU242
 681 00fc 0133     		adds	r3, r3, #1
 682              	.LVL58:
 683              	.L39:
 324:cube/Drivers/STM32F3xx_HAL_Driver/Src/stm32f3xx_hal_gpio.c ****   {
 684              		.loc 1 324 9 view .LVU243
 685 00fe 31FA03F2 		lsrs	r2, r1, r3
 686 0102 06D0     		beq	.L47
 327:cube/Drivers/STM32F3xx_HAL_Driver/Src/stm32f3xx_hal_gpio.c **** 
 687              		.loc 1 327 5 is_stmt 1 view .LVU244
 327:cube/Drivers/STM32F3xx_HAL_Driver/Src/stm32f3xx_hal_gpio.c **** 
 688              		.loc 1 327 32 is_stmt 0 view .LVU245
 689 0104 0122     		movs	r2, #1
 690 0106 9A40     		lsls	r2, r2, r3
 691              	.LVL59:
 329:cube/Drivers/STM32F3xx_HAL_Driver/Src/stm32f3xx_hal_gpio.c ****     {
 692              		.loc 1 329 5 is_stmt 1 view .LVU246
 329:cube/Drivers/STM32F3xx_HAL_Driver/Src/stm32f3xx_hal_gpio.c ****     {
 693              		.loc 1 329 8 is_stmt 0 view .LVU247
 694 0108 12EA010C 		ands	ip, r2, r1
 695              	.LVL60:
 329:cube/Drivers/STM32F3xx_HAL_Driver/Src/stm32f3xx_hal_gpio.c ****     {
 696              		.loc 1 329 8 view .LVU248
 697 010c F6D0     		beq	.L48
 314:cube/Drivers/STM32F3xx_HAL_Driver/Src/stm32f3xx_hal_gpio.c ****   uint32_t position = 0x00U;
 698              		.loc 1 314 1 view .LVU249
 699 010e F0B5     		push	{r4, r5, r6, r7, lr}
 700              		.cfi_def_cfa_offset 20
 701              		.cfi_offset 4, -20
 702              		.cfi_offset 5, -16
 703              		.cfi_offset 6, -12
 704              		.cfi_offset 7, -8
 705              		.cfi_offset 14, -4
 706 0110 88E7     		b	.L40
 707              	.LVL61:
 708              	.L47:
 709              		.cfi_def_cfa_offset 0
 710              		.cfi_restore 4
 711              		.cfi_restore 5
 712              		.cfi_restore 6
 713              		.cfi_restore 7
 714              		.cfi_restore 14
 314:cube/Drivers/STM32F3xx_HAL_Driver/Src/stm32f3xx_hal_gpio.c ****   uint32_t position = 0x00U;
 715              		.loc 1 314 1 view .LVU250
 716 0112 7047     		bx	lr
ARM GAS  C:\Users\Berbardo\AppData\Local\Temp\cczWbgEE.s 			page 23


 717              	.L50:
 718              		.align	2
 719              	.L49:
 720 0114 00000140 		.word	1073807360
 721 0118 00040048 		.word	1207960576
 722 011c 00040140 		.word	1073808384
 723              		.cfi_endproc
 724              	.LFE127:
 726              		.section	.text.HAL_GPIO_ReadPin,"ax",%progbits
 727              		.align	1
 728              		.global	HAL_GPIO_ReadPin
 729              		.syntax unified
 730              		.thumb
 731              		.thumb_func
 732              		.fpu fpv4-sp-d16
 734              	HAL_GPIO_ReadPin:
 735              	.LVL62:
 736              	.LFB128:
 371:cube/Drivers/STM32F3xx_HAL_Driver/Src/stm32f3xx_hal_gpio.c **** 
 372:cube/Drivers/STM32F3xx_HAL_Driver/Src/stm32f3xx_hal_gpio.c **** /**
 373:cube/Drivers/STM32F3xx_HAL_Driver/Src/stm32f3xx_hal_gpio.c ****   * @}
 374:cube/Drivers/STM32F3xx_HAL_Driver/Src/stm32f3xx_hal_gpio.c ****   */
 375:cube/Drivers/STM32F3xx_HAL_Driver/Src/stm32f3xx_hal_gpio.c **** 
 376:cube/Drivers/STM32F3xx_HAL_Driver/Src/stm32f3xx_hal_gpio.c **** /** @defgroup GPIO_Exported_Functions_Group2 IO operation functions 
 377:cube/Drivers/STM32F3xx_HAL_Driver/Src/stm32f3xx_hal_gpio.c ****  *  @brief GPIO Read, Write, Toggle, Lock and EXTI management functions.
 378:cube/Drivers/STM32F3xx_HAL_Driver/Src/stm32f3xx_hal_gpio.c ****  *
 379:cube/Drivers/STM32F3xx_HAL_Driver/Src/stm32f3xx_hal_gpio.c **** @verbatim
 380:cube/Drivers/STM32F3xx_HAL_Driver/Src/stm32f3xx_hal_gpio.c ****  ===============================================================================
 381:cube/Drivers/STM32F3xx_HAL_Driver/Src/stm32f3xx_hal_gpio.c ****                        ##### IO operation functions #####
 382:cube/Drivers/STM32F3xx_HAL_Driver/Src/stm32f3xx_hal_gpio.c ****  ===============================================================================
 383:cube/Drivers/STM32F3xx_HAL_Driver/Src/stm32f3xx_hal_gpio.c **** 
 384:cube/Drivers/STM32F3xx_HAL_Driver/Src/stm32f3xx_hal_gpio.c **** @endverbatim
 385:cube/Drivers/STM32F3xx_HAL_Driver/Src/stm32f3xx_hal_gpio.c ****   * @{
 386:cube/Drivers/STM32F3xx_HAL_Driver/Src/stm32f3xx_hal_gpio.c ****   */
 387:cube/Drivers/STM32F3xx_HAL_Driver/Src/stm32f3xx_hal_gpio.c **** 
 388:cube/Drivers/STM32F3xx_HAL_Driver/Src/stm32f3xx_hal_gpio.c **** /**
 389:cube/Drivers/STM32F3xx_HAL_Driver/Src/stm32f3xx_hal_gpio.c ****   * @brief  Read the specified input port pin.
 390:cube/Drivers/STM32F3xx_HAL_Driver/Src/stm32f3xx_hal_gpio.c ****   * @param  GPIOx where x can be (A..F) to select the GPIO peripheral for STM32F3 family
 391:cube/Drivers/STM32F3xx_HAL_Driver/Src/stm32f3xx_hal_gpio.c ****   * @param  GPIO_Pin specifies the port bit to read.
 392:cube/Drivers/STM32F3xx_HAL_Driver/Src/stm32f3xx_hal_gpio.c ****   *         This parameter can be GPIO_PIN_x where x can be (0..15).
 393:cube/Drivers/STM32F3xx_HAL_Driver/Src/stm32f3xx_hal_gpio.c ****   * @retval The input port pin value.
 394:cube/Drivers/STM32F3xx_HAL_Driver/Src/stm32f3xx_hal_gpio.c ****   */
 395:cube/Drivers/STM32F3xx_HAL_Driver/Src/stm32f3xx_hal_gpio.c **** GPIO_PinState HAL_GPIO_ReadPin(GPIO_TypeDef* GPIOx, uint16_t GPIO_Pin)
 396:cube/Drivers/STM32F3xx_HAL_Driver/Src/stm32f3xx_hal_gpio.c **** {
 737              		.loc 1 396 1 is_stmt 1 view -0
 738              		.cfi_startproc
 739              		@ args = 0, pretend = 0, frame = 0
 740              		@ frame_needed = 0, uses_anonymous_args = 0
 741              		@ link register save eliminated.
 397:cube/Drivers/STM32F3xx_HAL_Driver/Src/stm32f3xx_hal_gpio.c ****   GPIO_PinState bitstatus;
 742              		.loc 1 397 3 view .LVU252
 398:cube/Drivers/STM32F3xx_HAL_Driver/Src/stm32f3xx_hal_gpio.c **** 
 399:cube/Drivers/STM32F3xx_HAL_Driver/Src/stm32f3xx_hal_gpio.c ****   /* Check the parameters */
 400:cube/Drivers/STM32F3xx_HAL_Driver/Src/stm32f3xx_hal_gpio.c ****   assert_param(IS_GPIO_PIN(GPIO_Pin));
 743              		.loc 1 400 3 view .LVU253
 401:cube/Drivers/STM32F3xx_HAL_Driver/Src/stm32f3xx_hal_gpio.c **** 
 402:cube/Drivers/STM32F3xx_HAL_Driver/Src/stm32f3xx_hal_gpio.c ****   if((GPIOx->IDR & GPIO_Pin) != (uint32_t)GPIO_PIN_RESET)
ARM GAS  C:\Users\Berbardo\AppData\Local\Temp\cczWbgEE.s 			page 24


 744              		.loc 1 402 3 view .LVU254
 745              		.loc 1 402 12 is_stmt 0 view .LVU255
 746 0000 0369     		ldr	r3, [r0, #16]
 747              		.loc 1 402 5 view .LVU256
 748 0002 1942     		tst	r1, r3
 749 0004 01D0     		beq	.L53
 403:cube/Drivers/STM32F3xx_HAL_Driver/Src/stm32f3xx_hal_gpio.c ****   {
 404:cube/Drivers/STM32F3xx_HAL_Driver/Src/stm32f3xx_hal_gpio.c ****     bitstatus = GPIO_PIN_SET;
 750              		.loc 1 404 15 view .LVU257
 751 0006 0120     		movs	r0, #1
 752              	.LVL63:
 753              		.loc 1 404 15 view .LVU258
 754 0008 7047     		bx	lr
 755              	.LVL64:
 756              	.L53:
 405:cube/Drivers/STM32F3xx_HAL_Driver/Src/stm32f3xx_hal_gpio.c ****   }
 406:cube/Drivers/STM32F3xx_HAL_Driver/Src/stm32f3xx_hal_gpio.c ****   else
 407:cube/Drivers/STM32F3xx_HAL_Driver/Src/stm32f3xx_hal_gpio.c ****   {
 408:cube/Drivers/STM32F3xx_HAL_Driver/Src/stm32f3xx_hal_gpio.c ****     bitstatus = GPIO_PIN_RESET;
 757              		.loc 1 408 15 view .LVU259
 758 000a 0020     		movs	r0, #0
 759              	.LVL65:
 409:cube/Drivers/STM32F3xx_HAL_Driver/Src/stm32f3xx_hal_gpio.c ****   }
 410:cube/Drivers/STM32F3xx_HAL_Driver/Src/stm32f3xx_hal_gpio.c ****   return bitstatus;
 760              		.loc 1 410 3 is_stmt 1 view .LVU260
 411:cube/Drivers/STM32F3xx_HAL_Driver/Src/stm32f3xx_hal_gpio.c **** }
 761              		.loc 1 411 1 is_stmt 0 view .LVU261
 762 000c 7047     		bx	lr
 763              		.cfi_endproc
 764              	.LFE128:
 766              		.section	.text.HAL_GPIO_WritePin,"ax",%progbits
 767              		.align	1
 768              		.global	HAL_GPIO_WritePin
 769              		.syntax unified
 770              		.thumb
 771              		.thumb_func
 772              		.fpu fpv4-sp-d16
 774              	HAL_GPIO_WritePin:
 775              	.LVL66:
 776              	.LFB129:
 412:cube/Drivers/STM32F3xx_HAL_Driver/Src/stm32f3xx_hal_gpio.c **** 
 413:cube/Drivers/STM32F3xx_HAL_Driver/Src/stm32f3xx_hal_gpio.c **** /**
 414:cube/Drivers/STM32F3xx_HAL_Driver/Src/stm32f3xx_hal_gpio.c ****   * @brief  Set or clear the selected data port bit.
 415:cube/Drivers/STM32F3xx_HAL_Driver/Src/stm32f3xx_hal_gpio.c ****   *
 416:cube/Drivers/STM32F3xx_HAL_Driver/Src/stm32f3xx_hal_gpio.c ****   * @note   This function uses GPIOx_BSRR and GPIOx_BRR registers to allow atomic read/modify
 417:cube/Drivers/STM32F3xx_HAL_Driver/Src/stm32f3xx_hal_gpio.c ****   *         accesses. In this way, there is no risk of an IRQ occurring between
 418:cube/Drivers/STM32F3xx_HAL_Driver/Src/stm32f3xx_hal_gpio.c ****   *         the read and the modify access.
 419:cube/Drivers/STM32F3xx_HAL_Driver/Src/stm32f3xx_hal_gpio.c ****   *
 420:cube/Drivers/STM32F3xx_HAL_Driver/Src/stm32f3xx_hal_gpio.c ****   * @param  GPIOx where x can be (A..F) to select the GPIO peripheral for STM32F3 family
 421:cube/Drivers/STM32F3xx_HAL_Driver/Src/stm32f3xx_hal_gpio.c ****   * @param  GPIO_Pin specifies the port bit to be written.
 422:cube/Drivers/STM32F3xx_HAL_Driver/Src/stm32f3xx_hal_gpio.c ****   *         This parameter can be one of GPIO_PIN_x where x can be (0..15).
 423:cube/Drivers/STM32F3xx_HAL_Driver/Src/stm32f3xx_hal_gpio.c ****   * @param  PinState specifies the value to be written to the selected bit.
 424:cube/Drivers/STM32F3xx_HAL_Driver/Src/stm32f3xx_hal_gpio.c ****   *         This parameter can be one of the GPIO_PinState enum values:
 425:cube/Drivers/STM32F3xx_HAL_Driver/Src/stm32f3xx_hal_gpio.c ****   *            @arg GPIO_PIN_RESET: to clear the port pin
 426:cube/Drivers/STM32F3xx_HAL_Driver/Src/stm32f3xx_hal_gpio.c ****   *            @arg GPIO_PIN_SET: to set the port pin
 427:cube/Drivers/STM32F3xx_HAL_Driver/Src/stm32f3xx_hal_gpio.c ****   * @retval None
 428:cube/Drivers/STM32F3xx_HAL_Driver/Src/stm32f3xx_hal_gpio.c ****   */
ARM GAS  C:\Users\Berbardo\AppData\Local\Temp\cczWbgEE.s 			page 25


 429:cube/Drivers/STM32F3xx_HAL_Driver/Src/stm32f3xx_hal_gpio.c **** void HAL_GPIO_WritePin(GPIO_TypeDef* GPIOx, uint16_t GPIO_Pin, GPIO_PinState PinState)
 430:cube/Drivers/STM32F3xx_HAL_Driver/Src/stm32f3xx_hal_gpio.c **** {
 777              		.loc 1 430 1 is_stmt 1 view -0
 778              		.cfi_startproc
 779              		@ args = 0, pretend = 0, frame = 0
 780              		@ frame_needed = 0, uses_anonymous_args = 0
 781              		@ link register save eliminated.
 431:cube/Drivers/STM32F3xx_HAL_Driver/Src/stm32f3xx_hal_gpio.c ****   /* Check the parameters */
 432:cube/Drivers/STM32F3xx_HAL_Driver/Src/stm32f3xx_hal_gpio.c ****   assert_param(IS_GPIO_PIN(GPIO_Pin));
 782              		.loc 1 432 3 view .LVU263
 433:cube/Drivers/STM32F3xx_HAL_Driver/Src/stm32f3xx_hal_gpio.c ****   assert_param(IS_GPIO_PIN_ACTION(PinState));
 783              		.loc 1 433 3 view .LVU264
 434:cube/Drivers/STM32F3xx_HAL_Driver/Src/stm32f3xx_hal_gpio.c **** 
 435:cube/Drivers/STM32F3xx_HAL_Driver/Src/stm32f3xx_hal_gpio.c ****   if(PinState != GPIO_PIN_RESET)
 784              		.loc 1 435 3 view .LVU265
 785              		.loc 1 435 5 is_stmt 0 view .LVU266
 786 0000 0AB1     		cbz	r2, .L55
 436:cube/Drivers/STM32F3xx_HAL_Driver/Src/stm32f3xx_hal_gpio.c ****   {
 437:cube/Drivers/STM32F3xx_HAL_Driver/Src/stm32f3xx_hal_gpio.c ****     GPIOx->BSRR = (uint32_t)GPIO_Pin;
 787              		.loc 1 437 5 is_stmt 1 view .LVU267
 788              		.loc 1 437 17 is_stmt 0 view .LVU268
 789 0002 8161     		str	r1, [r0, #24]
 790 0004 7047     		bx	lr
 791              	.L55:
 438:cube/Drivers/STM32F3xx_HAL_Driver/Src/stm32f3xx_hal_gpio.c ****   }
 439:cube/Drivers/STM32F3xx_HAL_Driver/Src/stm32f3xx_hal_gpio.c ****   else
 440:cube/Drivers/STM32F3xx_HAL_Driver/Src/stm32f3xx_hal_gpio.c ****   {
 441:cube/Drivers/STM32F3xx_HAL_Driver/Src/stm32f3xx_hal_gpio.c ****     GPIOx->BRR = (uint32_t)GPIO_Pin;
 792              		.loc 1 441 5 is_stmt 1 view .LVU269
 793              		.loc 1 441 16 is_stmt 0 view .LVU270
 794 0006 8162     		str	r1, [r0, #40]
 442:cube/Drivers/STM32F3xx_HAL_Driver/Src/stm32f3xx_hal_gpio.c ****   }
 443:cube/Drivers/STM32F3xx_HAL_Driver/Src/stm32f3xx_hal_gpio.c **** }
 795              		.loc 1 443 1 view .LVU271
 796 0008 7047     		bx	lr
 797              		.cfi_endproc
 798              	.LFE129:
 800              		.section	.text.HAL_GPIO_TogglePin,"ax",%progbits
 801              		.align	1
 802              		.global	HAL_GPIO_TogglePin
 803              		.syntax unified
 804              		.thumb
 805              		.thumb_func
 806              		.fpu fpv4-sp-d16
 808              	HAL_GPIO_TogglePin:
 809              	.LVL67:
 810              	.LFB130:
 444:cube/Drivers/STM32F3xx_HAL_Driver/Src/stm32f3xx_hal_gpio.c **** 
 445:cube/Drivers/STM32F3xx_HAL_Driver/Src/stm32f3xx_hal_gpio.c **** /**
 446:cube/Drivers/STM32F3xx_HAL_Driver/Src/stm32f3xx_hal_gpio.c ****   * @brief  Toggle the specified GPIO pin.
 447:cube/Drivers/STM32F3xx_HAL_Driver/Src/stm32f3xx_hal_gpio.c ****   * @param  GPIOx where x can be (A..F) to select the GPIO peripheral for STM32F3 family
 448:cube/Drivers/STM32F3xx_HAL_Driver/Src/stm32f3xx_hal_gpio.c ****   * @param  GPIO_Pin specifies the pin to be toggled.
 449:cube/Drivers/STM32F3xx_HAL_Driver/Src/stm32f3xx_hal_gpio.c ****   * @retval None
 450:cube/Drivers/STM32F3xx_HAL_Driver/Src/stm32f3xx_hal_gpio.c ****   */
 451:cube/Drivers/STM32F3xx_HAL_Driver/Src/stm32f3xx_hal_gpio.c **** void HAL_GPIO_TogglePin(GPIO_TypeDef* GPIOx, uint16_t GPIO_Pin)
 452:cube/Drivers/STM32F3xx_HAL_Driver/Src/stm32f3xx_hal_gpio.c **** {
 811              		.loc 1 452 1 is_stmt 1 view -0
ARM GAS  C:\Users\Berbardo\AppData\Local\Temp\cczWbgEE.s 			page 26


 812              		.cfi_startproc
 813              		@ args = 0, pretend = 0, frame = 0
 814              		@ frame_needed = 0, uses_anonymous_args = 0
 815              		@ link register save eliminated.
 453:cube/Drivers/STM32F3xx_HAL_Driver/Src/stm32f3xx_hal_gpio.c ****   /* Check the parameters */
 454:cube/Drivers/STM32F3xx_HAL_Driver/Src/stm32f3xx_hal_gpio.c ****   assert_param(IS_GPIO_PIN(GPIO_Pin));
 816              		.loc 1 454 3 view .LVU273
 455:cube/Drivers/STM32F3xx_HAL_Driver/Src/stm32f3xx_hal_gpio.c **** 
 456:cube/Drivers/STM32F3xx_HAL_Driver/Src/stm32f3xx_hal_gpio.c ****   GPIOx->ODR ^= GPIO_Pin;
 817              		.loc 1 456 3 view .LVU274
 818              		.loc 1 456 14 is_stmt 0 view .LVU275
 819 0000 4369     		ldr	r3, [r0, #20]
 820 0002 5940     		eors	r1, r1, r3
 821              	.LVL68:
 822              		.loc 1 456 14 view .LVU276
 823 0004 4161     		str	r1, [r0, #20]
 457:cube/Drivers/STM32F3xx_HAL_Driver/Src/stm32f3xx_hal_gpio.c **** }
 824              		.loc 1 457 1 view .LVU277
 825 0006 7047     		bx	lr
 826              		.cfi_endproc
 827              	.LFE130:
 829              		.section	.text.HAL_GPIO_LockPin,"ax",%progbits
 830              		.align	1
 831              		.global	HAL_GPIO_LockPin
 832              		.syntax unified
 833              		.thumb
 834              		.thumb_func
 835              		.fpu fpv4-sp-d16
 837              	HAL_GPIO_LockPin:
 838              	.LVL69:
 839              	.LFB131:
 458:cube/Drivers/STM32F3xx_HAL_Driver/Src/stm32f3xx_hal_gpio.c **** 
 459:cube/Drivers/STM32F3xx_HAL_Driver/Src/stm32f3xx_hal_gpio.c **** /**
 460:cube/Drivers/STM32F3xx_HAL_Driver/Src/stm32f3xx_hal_gpio.c **** * @brief  Lock GPIO Pins configuration registers.
 461:cube/Drivers/STM32F3xx_HAL_Driver/Src/stm32f3xx_hal_gpio.c ****   * @note   The locked registers are GPIOx_MODER, GPIOx_OTYPER, GPIOx_OSPEEDR,
 462:cube/Drivers/STM32F3xx_HAL_Driver/Src/stm32f3xx_hal_gpio.c ****   *         GPIOx_PUPDR, GPIOx_AFRL and GPIOx_AFRH.
 463:cube/Drivers/STM32F3xx_HAL_Driver/Src/stm32f3xx_hal_gpio.c ****   * @note   The configuration of the locked GPIO pins can no longer be modified
 464:cube/Drivers/STM32F3xx_HAL_Driver/Src/stm32f3xx_hal_gpio.c ****   *         until the next reset.
 465:cube/Drivers/STM32F3xx_HAL_Driver/Src/stm32f3xx_hal_gpio.c ****   * @param  GPIOx where x can be (A..F) to select the GPIO peripheral for STM32F3 family
 466:cube/Drivers/STM32F3xx_HAL_Driver/Src/stm32f3xx_hal_gpio.c ****   * @param  GPIO_Pin specifies the port bits to be locked.
 467:cube/Drivers/STM32F3xx_HAL_Driver/Src/stm32f3xx_hal_gpio.c ****   *         This parameter can be any combination of GPIO_Pin_x where x can be (0..15).
 468:cube/Drivers/STM32F3xx_HAL_Driver/Src/stm32f3xx_hal_gpio.c ****   * @retval None
 469:cube/Drivers/STM32F3xx_HAL_Driver/Src/stm32f3xx_hal_gpio.c ****   */
 470:cube/Drivers/STM32F3xx_HAL_Driver/Src/stm32f3xx_hal_gpio.c **** HAL_StatusTypeDef HAL_GPIO_LockPin(GPIO_TypeDef* GPIOx, uint16_t GPIO_Pin)
 471:cube/Drivers/STM32F3xx_HAL_Driver/Src/stm32f3xx_hal_gpio.c **** {
 840              		.loc 1 471 1 is_stmt 1 view -0
 841              		.cfi_startproc
 842              		@ args = 0, pretend = 0, frame = 8
 843              		@ frame_needed = 0, uses_anonymous_args = 0
 844              		@ link register save eliminated.
 845              		.loc 1 471 1 is_stmt 0 view .LVU279
 846 0000 82B0     		sub	sp, sp, #8
 847              		.cfi_def_cfa_offset 8
 472:cube/Drivers/STM32F3xx_HAL_Driver/Src/stm32f3xx_hal_gpio.c ****   __IO uint32_t tmp = GPIO_LCKR_LCKK;
 848              		.loc 1 472 3 is_stmt 1 view .LVU280
 849              		.loc 1 472 17 is_stmt 0 view .LVU281
 850 0002 4FF48033 		mov	r3, #65536
ARM GAS  C:\Users\Berbardo\AppData\Local\Temp\cczWbgEE.s 			page 27


 851 0006 0193     		str	r3, [sp, #4]
 473:cube/Drivers/STM32F3xx_HAL_Driver/Src/stm32f3xx_hal_gpio.c **** 
 474:cube/Drivers/STM32F3xx_HAL_Driver/Src/stm32f3xx_hal_gpio.c ****   /* Check the parameters */
 475:cube/Drivers/STM32F3xx_HAL_Driver/Src/stm32f3xx_hal_gpio.c ****   assert_param(IS_GPIO_LOCK_INSTANCE(GPIOx));
 852              		.loc 1 475 3 is_stmt 1 view .LVU282
 476:cube/Drivers/STM32F3xx_HAL_Driver/Src/stm32f3xx_hal_gpio.c ****   assert_param(IS_GPIO_PIN(GPIO_Pin));
 853              		.loc 1 476 3 view .LVU283
 477:cube/Drivers/STM32F3xx_HAL_Driver/Src/stm32f3xx_hal_gpio.c **** 
 478:cube/Drivers/STM32F3xx_HAL_Driver/Src/stm32f3xx_hal_gpio.c ****   /* Apply lock key write sequence */
 479:cube/Drivers/STM32F3xx_HAL_Driver/Src/stm32f3xx_hal_gpio.c ****   tmp |= GPIO_Pin;
 854              		.loc 1 479 3 view .LVU284
 855              		.loc 1 479 7 is_stmt 0 view .LVU285
 856 0008 019B     		ldr	r3, [sp, #4]
 857 000a 0B43     		orrs	r3, r3, r1
 858 000c 0193     		str	r3, [sp, #4]
 480:cube/Drivers/STM32F3xx_HAL_Driver/Src/stm32f3xx_hal_gpio.c ****   /* Set LCKx bit(s): LCKK='1' + LCK[15U-0] */
 481:cube/Drivers/STM32F3xx_HAL_Driver/Src/stm32f3xx_hal_gpio.c ****   GPIOx->LCKR = tmp;
 859              		.loc 1 481 3 is_stmt 1 view .LVU286
 860              		.loc 1 481 15 is_stmt 0 view .LVU287
 861 000e 019B     		ldr	r3, [sp, #4]
 862 0010 C361     		str	r3, [r0, #28]
 482:cube/Drivers/STM32F3xx_HAL_Driver/Src/stm32f3xx_hal_gpio.c ****   /* Reset LCKx bit(s): LCKK='0' + LCK[15U-0] */
 483:cube/Drivers/STM32F3xx_HAL_Driver/Src/stm32f3xx_hal_gpio.c ****   GPIOx->LCKR = GPIO_Pin;
 863              		.loc 1 483 3 is_stmt 1 view .LVU288
 864              		.loc 1 483 15 is_stmt 0 view .LVU289
 865 0012 C161     		str	r1, [r0, #28]
 484:cube/Drivers/STM32F3xx_HAL_Driver/Src/stm32f3xx_hal_gpio.c ****   /* Set LCKx bit(s): LCKK='1' + LCK[15U-0] */
 485:cube/Drivers/STM32F3xx_HAL_Driver/Src/stm32f3xx_hal_gpio.c ****   GPIOx->LCKR = tmp;
 866              		.loc 1 485 3 is_stmt 1 view .LVU290
 867              		.loc 1 485 15 is_stmt 0 view .LVU291
 868 0014 019B     		ldr	r3, [sp, #4]
 869 0016 C361     		str	r3, [r0, #28]
 486:cube/Drivers/STM32F3xx_HAL_Driver/Src/stm32f3xx_hal_gpio.c ****   /* Read LCKK bit*/
 487:cube/Drivers/STM32F3xx_HAL_Driver/Src/stm32f3xx_hal_gpio.c ****   tmp = GPIOx->LCKR;
 870              		.loc 1 487 3 is_stmt 1 view .LVU292
 871              		.loc 1 487 14 is_stmt 0 view .LVU293
 872 0018 C369     		ldr	r3, [r0, #28]
 873              		.loc 1 487 7 view .LVU294
 874 001a 0193     		str	r3, [sp, #4]
 488:cube/Drivers/STM32F3xx_HAL_Driver/Src/stm32f3xx_hal_gpio.c **** 
 489:cube/Drivers/STM32F3xx_HAL_Driver/Src/stm32f3xx_hal_gpio.c ****   if((GPIOx->LCKR & GPIO_LCKR_LCKK) != RESET)
 875              		.loc 1 489 3 is_stmt 1 view .LVU295
 876              		.loc 1 489 12 is_stmt 0 view .LVU296
 877 001c C369     		ldr	r3, [r0, #28]
 878              		.loc 1 489 5 view .LVU297
 879 001e 13F4803F 		tst	r3, #65536
 880 0022 02D0     		beq	.L60
 490:cube/Drivers/STM32F3xx_HAL_Driver/Src/stm32f3xx_hal_gpio.c ****   {
 491:cube/Drivers/STM32F3xx_HAL_Driver/Src/stm32f3xx_hal_gpio.c ****     return HAL_OK;
 881              		.loc 1 491 12 view .LVU298
 882 0024 0020     		movs	r0, #0
 883              	.LVL70:
 884              	.L59:
 492:cube/Drivers/STM32F3xx_HAL_Driver/Src/stm32f3xx_hal_gpio.c ****   }
 493:cube/Drivers/STM32F3xx_HAL_Driver/Src/stm32f3xx_hal_gpio.c ****   else
 494:cube/Drivers/STM32F3xx_HAL_Driver/Src/stm32f3xx_hal_gpio.c ****   {
 495:cube/Drivers/STM32F3xx_HAL_Driver/Src/stm32f3xx_hal_gpio.c ****     return HAL_ERROR;
ARM GAS  C:\Users\Berbardo\AppData\Local\Temp\cczWbgEE.s 			page 28


 496:cube/Drivers/STM32F3xx_HAL_Driver/Src/stm32f3xx_hal_gpio.c ****   }
 497:cube/Drivers/STM32F3xx_HAL_Driver/Src/stm32f3xx_hal_gpio.c **** }
 885              		.loc 1 497 1 view .LVU299
 886 0026 02B0     		add	sp, sp, #8
 887              		.cfi_remember_state
 888              		.cfi_def_cfa_offset 0
 889              		@ sp needed
 890 0028 7047     		bx	lr
 891              	.LVL71:
 892              	.L60:
 893              		.cfi_restore_state
 495:cube/Drivers/STM32F3xx_HAL_Driver/Src/stm32f3xx_hal_gpio.c ****   }
 894              		.loc 1 495 12 view .LVU300
 895 002a 0120     		movs	r0, #1
 896              	.LVL72:
 495:cube/Drivers/STM32F3xx_HAL_Driver/Src/stm32f3xx_hal_gpio.c ****   }
 897              		.loc 1 495 12 view .LVU301
 898 002c FBE7     		b	.L59
 899              		.cfi_endproc
 900              	.LFE131:
 902              		.section	.text.HAL_GPIO_EXTI_Callback,"ax",%progbits
 903              		.align	1
 904              		.weak	HAL_GPIO_EXTI_Callback
 905              		.syntax unified
 906              		.thumb
 907              		.thumb_func
 908              		.fpu fpv4-sp-d16
 910              	HAL_GPIO_EXTI_Callback:
 911              	.LVL73:
 912              	.LFB133:
 498:cube/Drivers/STM32F3xx_HAL_Driver/Src/stm32f3xx_hal_gpio.c **** 
 499:cube/Drivers/STM32F3xx_HAL_Driver/Src/stm32f3xx_hal_gpio.c **** /**
 500:cube/Drivers/STM32F3xx_HAL_Driver/Src/stm32f3xx_hal_gpio.c ****   * @brief  Handle EXTI interrupt request.
 501:cube/Drivers/STM32F3xx_HAL_Driver/Src/stm32f3xx_hal_gpio.c ****   * @param  GPIO_Pin Specifies the port pin connected to corresponding EXTI line.
 502:cube/Drivers/STM32F3xx_HAL_Driver/Src/stm32f3xx_hal_gpio.c ****   * @retval None
 503:cube/Drivers/STM32F3xx_HAL_Driver/Src/stm32f3xx_hal_gpio.c ****   */
 504:cube/Drivers/STM32F3xx_HAL_Driver/Src/stm32f3xx_hal_gpio.c **** void HAL_GPIO_EXTI_IRQHandler(uint16_t GPIO_Pin)
 505:cube/Drivers/STM32F3xx_HAL_Driver/Src/stm32f3xx_hal_gpio.c **** {
 506:cube/Drivers/STM32F3xx_HAL_Driver/Src/stm32f3xx_hal_gpio.c ****   /* EXTI line interrupt detected */
 507:cube/Drivers/STM32F3xx_HAL_Driver/Src/stm32f3xx_hal_gpio.c ****   if(__HAL_GPIO_EXTI_GET_IT(GPIO_Pin) != RESET)
 508:cube/Drivers/STM32F3xx_HAL_Driver/Src/stm32f3xx_hal_gpio.c ****   {
 509:cube/Drivers/STM32F3xx_HAL_Driver/Src/stm32f3xx_hal_gpio.c ****     __HAL_GPIO_EXTI_CLEAR_IT(GPIO_Pin);
 510:cube/Drivers/STM32F3xx_HAL_Driver/Src/stm32f3xx_hal_gpio.c ****     HAL_GPIO_EXTI_Callback(GPIO_Pin);
 511:cube/Drivers/STM32F3xx_HAL_Driver/Src/stm32f3xx_hal_gpio.c ****   }
 512:cube/Drivers/STM32F3xx_HAL_Driver/Src/stm32f3xx_hal_gpio.c **** }
 513:cube/Drivers/STM32F3xx_HAL_Driver/Src/stm32f3xx_hal_gpio.c **** 
 514:cube/Drivers/STM32F3xx_HAL_Driver/Src/stm32f3xx_hal_gpio.c **** /**
 515:cube/Drivers/STM32F3xx_HAL_Driver/Src/stm32f3xx_hal_gpio.c ****   * @brief  EXTI line detection callback.
 516:cube/Drivers/STM32F3xx_HAL_Driver/Src/stm32f3xx_hal_gpio.c ****   * @param  GPIO_Pin Specifies the port pin connected to corresponding EXTI line.
 517:cube/Drivers/STM32F3xx_HAL_Driver/Src/stm32f3xx_hal_gpio.c ****   * @retval None
 518:cube/Drivers/STM32F3xx_HAL_Driver/Src/stm32f3xx_hal_gpio.c ****   */
 519:cube/Drivers/STM32F3xx_HAL_Driver/Src/stm32f3xx_hal_gpio.c **** __weak void HAL_GPIO_EXTI_Callback(uint16_t GPIO_Pin)
 520:cube/Drivers/STM32F3xx_HAL_Driver/Src/stm32f3xx_hal_gpio.c **** {
 913              		.loc 1 520 1 is_stmt 1 view -0
 914              		.cfi_startproc
 915              		@ args = 0, pretend = 0, frame = 0
 916              		@ frame_needed = 0, uses_anonymous_args = 0
ARM GAS  C:\Users\Berbardo\AppData\Local\Temp\cczWbgEE.s 			page 29


 917              		@ link register save eliminated.
 521:cube/Drivers/STM32F3xx_HAL_Driver/Src/stm32f3xx_hal_gpio.c ****   /* Prevent unused argument(s) compilation warning */
 522:cube/Drivers/STM32F3xx_HAL_Driver/Src/stm32f3xx_hal_gpio.c ****   UNUSED(GPIO_Pin);
 918              		.loc 1 522 3 view .LVU303
 523:cube/Drivers/STM32F3xx_HAL_Driver/Src/stm32f3xx_hal_gpio.c **** 
 524:cube/Drivers/STM32F3xx_HAL_Driver/Src/stm32f3xx_hal_gpio.c ****   /* NOTE: This function should not be modified, when the callback is needed,
 525:cube/Drivers/STM32F3xx_HAL_Driver/Src/stm32f3xx_hal_gpio.c ****            the HAL_GPIO_EXTI_Callback could be implemented in the user file
 526:cube/Drivers/STM32F3xx_HAL_Driver/Src/stm32f3xx_hal_gpio.c ****    */
 527:cube/Drivers/STM32F3xx_HAL_Driver/Src/stm32f3xx_hal_gpio.c **** }
 919              		.loc 1 527 1 is_stmt 0 view .LVU304
 920 0000 7047     		bx	lr
 921              		.cfi_endproc
 922              	.LFE133:
 924              		.section	.text.HAL_GPIO_EXTI_IRQHandler,"ax",%progbits
 925              		.align	1
 926              		.global	HAL_GPIO_EXTI_IRQHandler
 927              		.syntax unified
 928              		.thumb
 929              		.thumb_func
 930              		.fpu fpv4-sp-d16
 932              	HAL_GPIO_EXTI_IRQHandler:
 933              	.LVL74:
 934              	.LFB132:
 505:cube/Drivers/STM32F3xx_HAL_Driver/Src/stm32f3xx_hal_gpio.c ****   /* EXTI line interrupt detected */
 935              		.loc 1 505 1 is_stmt 1 view -0
 936              		.cfi_startproc
 937              		@ args = 0, pretend = 0, frame = 0
 938              		@ frame_needed = 0, uses_anonymous_args = 0
 505:cube/Drivers/STM32F3xx_HAL_Driver/Src/stm32f3xx_hal_gpio.c ****   /* EXTI line interrupt detected */
 939              		.loc 1 505 1 is_stmt 0 view .LVU306
 940 0000 08B5     		push	{r3, lr}
 941              		.cfi_def_cfa_offset 8
 942              		.cfi_offset 3, -8
 943              		.cfi_offset 14, -4
 507:cube/Drivers/STM32F3xx_HAL_Driver/Src/stm32f3xx_hal_gpio.c ****   {
 944              		.loc 1 507 3 is_stmt 1 view .LVU307
 507:cube/Drivers/STM32F3xx_HAL_Driver/Src/stm32f3xx_hal_gpio.c ****   {
 945              		.loc 1 507 6 is_stmt 0 view .LVU308
 946 0002 054B     		ldr	r3, .L67
 947 0004 5B69     		ldr	r3, [r3, #20]
 507:cube/Drivers/STM32F3xx_HAL_Driver/Src/stm32f3xx_hal_gpio.c ****   {
 948              		.loc 1 507 5 view .LVU309
 949 0006 0342     		tst	r3, r0
 950 0008 00D1     		bne	.L66
 951              	.LVL75:
 952              	.L63:
 512:cube/Drivers/STM32F3xx_HAL_Driver/Src/stm32f3xx_hal_gpio.c **** 
 953              		.loc 1 512 1 view .LVU310
 954 000a 08BD     		pop	{r3, pc}
 955              	.LVL76:
 956              	.L66:
 509:cube/Drivers/STM32F3xx_HAL_Driver/Src/stm32f3xx_hal_gpio.c ****     HAL_GPIO_EXTI_Callback(GPIO_Pin);
 957              		.loc 1 509 5 is_stmt 1 view .LVU311
 958 000c 024B     		ldr	r3, .L67
 959 000e 5861     		str	r0, [r3, #20]
 510:cube/Drivers/STM32F3xx_HAL_Driver/Src/stm32f3xx_hal_gpio.c ****   }
 960              		.loc 1 510 5 view .LVU312
ARM GAS  C:\Users\Berbardo\AppData\Local\Temp\cczWbgEE.s 			page 30


 961 0010 FFF7FEFF 		bl	HAL_GPIO_EXTI_Callback
 962              	.LVL77:
 512:cube/Drivers/STM32F3xx_HAL_Driver/Src/stm32f3xx_hal_gpio.c **** 
 963              		.loc 1 512 1 is_stmt 0 view .LVU313
 964 0014 F9E7     		b	.L63
 965              	.L68:
 966 0016 00BF     		.align	2
 967              	.L67:
 968 0018 00040140 		.word	1073808384
 969              		.cfi_endproc
 970              	.LFE132:
 972              		.text
 973              	.Letext0:
 974              		.file 2 "c:\\program files (x86)\\gnu tools arm embedded\\8 2019-q3-update\\arm-none-eabi\\include
 975              		.file 3 "c:\\program files (x86)\\gnu tools arm embedded\\8 2019-q3-update\\arm-none-eabi\\include
 976              		.file 4 "cube/Drivers/CMSIS/Include/core_cm4.h"
 977              		.file 5 "cube/Drivers/CMSIS/Device/ST/STM32F3xx/Include/system_stm32f3xx.h"
 978              		.file 6 "cube/Drivers/CMSIS/Device/ST/STM32F3xx/Include/stm32f303xe.h"
 979              		.file 7 "c:\\program files (x86)\\gnu tools arm embedded\\8 2019-q3-update\\lib\\gcc\\arm-none-eab
 980              		.file 8 "c:\\program files (x86)\\gnu tools arm embedded\\8 2019-q3-update\\arm-none-eabi\\include
 981              		.file 9 "c:\\program files (x86)\\gnu tools arm embedded\\8 2019-q3-update\\arm-none-eabi\\include
 982              		.file 10 "c:\\program files (x86)\\gnu tools arm embedded\\8 2019-q3-update\\arm-none-eabi\\includ
 983              		.file 11 "cube/Drivers/CMSIS/Device/ST/STM32F3xx/Include/stm32f3xx.h"
 984              		.file 12 "cube/Drivers/STM32F3xx_HAL_Driver/Inc/stm32f3xx_hal_def.h"
 985              		.file 13 "cube/Drivers/STM32F3xx_HAL_Driver/Inc/stm32f3xx_hal_gpio.h"
 986              		.file 14 "cube/Drivers/STM32F3xx_HAL_Driver/Inc/stm32f3xx_hal.h"
ARM GAS  C:\Users\Berbardo\AppData\Local\Temp\cczWbgEE.s 			page 31

