ARM GAS  C:\Users\Berbardo\AppData\Local\Temp\ccQolnPL.s 			page 1


   1              		.cpu cortex-m4
   2              		.eabi_attribute 27, 1
   3              		.eabi_attribute 28, 1
   4              		.eabi_attribute 20, 1
   5              		.eabi_attribute 21, 1
   6              		.eabi_attribute 23, 3
   7              		.eabi_attribute 24, 1
   8              		.eabi_attribute 25, 1
   9              		.eabi_attribute 26, 1
  10              		.eabi_attribute 30, 1
  11              		.eabi_attribute 34, 1
  12              		.eabi_attribute 18, 4
  13              		.file	"vl53l1_api_preset_modes.c"
  14              		.text
  15              	.Ltext0:
  16              		.cfi_sections	.debug_frame
  17              		.section	.text.VL53L1_init_refspadchar_config_struct,"ax",%progbits
  18              		.align	1
  19              		.global	VL53L1_init_refspadchar_config_struct
  20              		.arch armv7e-m
  21              		.syntax unified
  22              		.thumb
  23              		.thumb_func
  24              		.fpu fpv4-sp-d16
  26              	VL53L1_init_refspadchar_config_struct:
  27              	.LVL0:
  28              	.LFB126:
  29              		.file 1 "D:/Git/VL53L1/lib/core/src/vl53l1_api_preset_modes.c"
   1:D:/Git/VL53L1/lib/core/src\vl53l1_api_preset_modes.c **** /*
   2:D:/Git/VL53L1/lib/core/src\vl53l1_api_preset_modes.c **** * Copyright (c) 2017, STMicroelectronics - All Rights Reserved
   3:D:/Git/VL53L1/lib/core/src\vl53l1_api_preset_modes.c **** *
   4:D:/Git/VL53L1/lib/core/src\vl53l1_api_preset_modes.c **** * This file is part of VL53L1 Core and is dual licensed,
   5:D:/Git/VL53L1/lib/core/src\vl53l1_api_preset_modes.c **** * either 'STMicroelectronics
   6:D:/Git/VL53L1/lib/core/src\vl53l1_api_preset_modes.c **** * Proprietary license'
   7:D:/Git/VL53L1/lib/core/src\vl53l1_api_preset_modes.c **** * or 'BSD 3-clause "New" or "Revised" License' , at your option.
   8:D:/Git/VL53L1/lib/core/src\vl53l1_api_preset_modes.c **** *
   9:D:/Git/VL53L1/lib/core/src\vl53l1_api_preset_modes.c **** ********************************************************************************
  10:D:/Git/VL53L1/lib/core/src\vl53l1_api_preset_modes.c **** *
  11:D:/Git/VL53L1/lib/core/src\vl53l1_api_preset_modes.c **** * 'STMicroelectronics Proprietary license'
  12:D:/Git/VL53L1/lib/core/src\vl53l1_api_preset_modes.c **** *
  13:D:/Git/VL53L1/lib/core/src\vl53l1_api_preset_modes.c **** ********************************************************************************
  14:D:/Git/VL53L1/lib/core/src\vl53l1_api_preset_modes.c **** *
  15:D:/Git/VL53L1/lib/core/src\vl53l1_api_preset_modes.c **** * License terms: STMicroelectronics Proprietary in accordance with licensing
  16:D:/Git/VL53L1/lib/core/src\vl53l1_api_preset_modes.c **** * terms at www.st.com/sla0081
  17:D:/Git/VL53L1/lib/core/src\vl53l1_api_preset_modes.c **** *
  18:D:/Git/VL53L1/lib/core/src\vl53l1_api_preset_modes.c **** * STMicroelectronics confidential
  19:D:/Git/VL53L1/lib/core/src\vl53l1_api_preset_modes.c **** * Reproduction and Communication of this document is strictly prohibited unless
  20:D:/Git/VL53L1/lib/core/src\vl53l1_api_preset_modes.c **** * specifically authorized in writing by STMicroelectronics.
  21:D:/Git/VL53L1/lib/core/src\vl53l1_api_preset_modes.c **** *
  22:D:/Git/VL53L1/lib/core/src\vl53l1_api_preset_modes.c **** *
  23:D:/Git/VL53L1/lib/core/src\vl53l1_api_preset_modes.c **** ********************************************************************************
  24:D:/Git/VL53L1/lib/core/src\vl53l1_api_preset_modes.c **** *
  25:D:/Git/VL53L1/lib/core/src\vl53l1_api_preset_modes.c **** * Alternatively, VL53L1 Core may be distributed under the terms of
  26:D:/Git/VL53L1/lib/core/src\vl53l1_api_preset_modes.c **** * 'BSD 3-clause "New" or "Revised" License', in which case the following
  27:D:/Git/VL53L1/lib/core/src\vl53l1_api_preset_modes.c **** * provisions apply instead of the ones mentioned above :
  28:D:/Git/VL53L1/lib/core/src\vl53l1_api_preset_modes.c **** *
  29:D:/Git/VL53L1/lib/core/src\vl53l1_api_preset_modes.c **** ********************************************************************************
ARM GAS  C:\Users\Berbardo\AppData\Local\Temp\ccQolnPL.s 			page 2


  30:D:/Git/VL53L1/lib/core/src\vl53l1_api_preset_modes.c **** *
  31:D:/Git/VL53L1/lib/core/src\vl53l1_api_preset_modes.c **** * License terms: BSD 3-clause "New" or "Revised" License.
  32:D:/Git/VL53L1/lib/core/src\vl53l1_api_preset_modes.c **** *
  33:D:/Git/VL53L1/lib/core/src\vl53l1_api_preset_modes.c **** * Redistribution and use in source and binary forms, with or without
  34:D:/Git/VL53L1/lib/core/src\vl53l1_api_preset_modes.c **** * modification, are permitted provided that the following conditions are met:
  35:D:/Git/VL53L1/lib/core/src\vl53l1_api_preset_modes.c **** *
  36:D:/Git/VL53L1/lib/core/src\vl53l1_api_preset_modes.c **** * 1. Redistributions of source code must retain the above copyright notice, this
  37:D:/Git/VL53L1/lib/core/src\vl53l1_api_preset_modes.c **** * list of conditions and the following disclaimer.
  38:D:/Git/VL53L1/lib/core/src\vl53l1_api_preset_modes.c **** *
  39:D:/Git/VL53L1/lib/core/src\vl53l1_api_preset_modes.c **** * 2. Redistributions in binary form must reproduce the above copyright notice,
  40:D:/Git/VL53L1/lib/core/src\vl53l1_api_preset_modes.c **** * this list of conditions and the following disclaimer in the documentation
  41:D:/Git/VL53L1/lib/core/src\vl53l1_api_preset_modes.c **** * and/or other materials provided with the distribution.
  42:D:/Git/VL53L1/lib/core/src\vl53l1_api_preset_modes.c **** *
  43:D:/Git/VL53L1/lib/core/src\vl53l1_api_preset_modes.c **** * 3. Neither the name of the copyright holder nor the names of its contributors
  44:D:/Git/VL53L1/lib/core/src\vl53l1_api_preset_modes.c **** * may be used to endorse or promote products derived from this software
  45:D:/Git/VL53L1/lib/core/src\vl53l1_api_preset_modes.c **** * without specific prior written permission.
  46:D:/Git/VL53L1/lib/core/src\vl53l1_api_preset_modes.c **** *
  47:D:/Git/VL53L1/lib/core/src\vl53l1_api_preset_modes.c **** * THIS SOFTWARE IS PROVIDED BY THE COPYRIGHT HOLDERS AND CONTRIBUTORS "AS IS"
  48:D:/Git/VL53L1/lib/core/src\vl53l1_api_preset_modes.c **** * AND ANY EXPRESS OR IMPLIED WARRANTIES, INCLUDING, BUT NOT LIMITED TO, THE
  49:D:/Git/VL53L1/lib/core/src\vl53l1_api_preset_modes.c **** * IMPLIED WARRANTIES OF MERCHANTABILITY AND FITNESS FOR A PARTICULAR PURPOSE ARE
  50:D:/Git/VL53L1/lib/core/src\vl53l1_api_preset_modes.c **** * DISCLAIMED. IN NO EVENT SHALL THE COPYRIGHT HOLDER OR CONTRIBUTORS BE LIABLE
  51:D:/Git/VL53L1/lib/core/src\vl53l1_api_preset_modes.c **** * FOR ANY DIRECT, INDIRECT, INCIDENTAL, SPECIAL, EXEMPLARY, OR CONSEQUENTIAL
  52:D:/Git/VL53L1/lib/core/src\vl53l1_api_preset_modes.c **** * DAMAGES (INCLUDING, BUT NOT LIMITED TO, PROCUREMENT OF SUBSTITUTE GOODS OR
  53:D:/Git/VL53L1/lib/core/src\vl53l1_api_preset_modes.c **** * SERVICES; LOSS OF USE, DATA, OR PROFITS; OR BUSINESS INTERRUPTION) HOWEVER
  54:D:/Git/VL53L1/lib/core/src\vl53l1_api_preset_modes.c **** * CAUSED AND ON ANY THEORY OF LIABILITY, WHETHER IN CONTRACT, STRICT LIABILITY,
  55:D:/Git/VL53L1/lib/core/src\vl53l1_api_preset_modes.c **** * OR TORT (INCLUDING NEGLIGENCE OR OTHERWISE) ARISING IN ANY WAY OUT OF THE USE
  56:D:/Git/VL53L1/lib/core/src\vl53l1_api_preset_modes.c **** * OF THIS SOFTWARE, EVEN IF ADVISED OF THE POSSIBILITY OF SUCH DAMAGE.
  57:D:/Git/VL53L1/lib/core/src\vl53l1_api_preset_modes.c **** *
  58:D:/Git/VL53L1/lib/core/src\vl53l1_api_preset_modes.c **** *
  59:D:/Git/VL53L1/lib/core/src\vl53l1_api_preset_modes.c **** ********************************************************************************
  60:D:/Git/VL53L1/lib/core/src\vl53l1_api_preset_modes.c **** *
  61:D:/Git/VL53L1/lib/core/src\vl53l1_api_preset_modes.c **** */
  62:D:/Git/VL53L1/lib/core/src\vl53l1_api_preset_modes.c **** 
  63:D:/Git/VL53L1/lib/core/src\vl53l1_api_preset_modes.c **** /**
  64:D:/Git/VL53L1/lib/core/src\vl53l1_api_preset_modes.c ****  * @file  vl53l1_api_preset_modes.c
  65:D:/Git/VL53L1/lib/core/src\vl53l1_api_preset_modes.c ****  *
  66:D:/Git/VL53L1/lib/core/src\vl53l1_api_preset_modes.c ****  * @brief EwokPlus25 API Preset Modes definitions
  67:D:/Git/VL53L1/lib/core/src\vl53l1_api_preset_modes.c ****  */
  68:D:/Git/VL53L1/lib/core/src\vl53l1_api_preset_modes.c **** 
  69:D:/Git/VL53L1/lib/core/src\vl53l1_api_preset_modes.c **** #include "vl53l1_ll_def.h"
  70:D:/Git/VL53L1/lib/core/src\vl53l1_api_preset_modes.c **** #include "vl53l1_platform_log.h"
  71:D:/Git/VL53L1/lib/core/src\vl53l1_api_preset_modes.c **** #include "vl53l1_register_structs.h"
  72:D:/Git/VL53L1/lib/core/src\vl53l1_api_preset_modes.c **** #include "vl53l1_register_settings.h"
  73:D:/Git/VL53L1/lib/core/src\vl53l1_api_preset_modes.c **** #include "vl53l1_core.h"
  74:D:/Git/VL53L1/lib/core/src\vl53l1_api_preset_modes.c **** #include "vl53l1_api_preset_modes.h"
  75:D:/Git/VL53L1/lib/core/src\vl53l1_api_preset_modes.c **** #include "vl53l1_tuning_parm_defaults.h"
  76:D:/Git/VL53L1/lib/core/src\vl53l1_api_preset_modes.c **** 
  77:D:/Git/VL53L1/lib/core/src\vl53l1_api_preset_modes.c **** 
  78:D:/Git/VL53L1/lib/core/src\vl53l1_api_preset_modes.c **** #define LOG_FUNCTION_START(fmt, ...) \
  79:D:/Git/VL53L1/lib/core/src\vl53l1_api_preset_modes.c **** 	_LOG_FUNCTION_START(VL53L1_TRACE_MODULE_API, fmt, ##__VA_ARGS__)
  80:D:/Git/VL53L1/lib/core/src\vl53l1_api_preset_modes.c **** #define LOG_FUNCTION_END(status, ...) \
  81:D:/Git/VL53L1/lib/core/src\vl53l1_api_preset_modes.c **** 	_LOG_FUNCTION_END(VL53L1_TRACE_MODULE_API, status, ##__VA_ARGS__)
  82:D:/Git/VL53L1/lib/core/src\vl53l1_api_preset_modes.c **** #define LOG_FUNCTION_END_FMT(status, fmt, ...) \
  83:D:/Git/VL53L1/lib/core/src\vl53l1_api_preset_modes.c **** 	_LOG_FUNCTION_END_FMT(VL53L1_TRACE_MODULE_API, status, fmt, ##__VA_ARGS__)
  84:D:/Git/VL53L1/lib/core/src\vl53l1_api_preset_modes.c **** 
  85:D:/Git/VL53L1/lib/core/src\vl53l1_api_preset_modes.c **** 
  86:D:/Git/VL53L1/lib/core/src\vl53l1_api_preset_modes.c **** #ifndef VL53L1_NOCALIB
ARM GAS  C:\Users\Berbardo\AppData\Local\Temp\ccQolnPL.s 			page 3


  87:D:/Git/VL53L1/lib/core/src\vl53l1_api_preset_modes.c **** VL53L1_Error VL53L1_init_refspadchar_config_struct(
  88:D:/Git/VL53L1/lib/core/src\vl53l1_api_preset_modes.c **** 	VL53L1_refspadchar_config_t   *pdata)
  89:D:/Git/VL53L1/lib/core/src\vl53l1_api_preset_modes.c **** {
  30              		.loc 1 89 1 view -0
  31              		.cfi_startproc
  32              		@ args = 0, pretend = 0, frame = 0
  33              		@ frame_needed = 0, uses_anonymous_args = 0
  34              		@ link register save eliminated.
  90:D:/Git/VL53L1/lib/core/src\vl53l1_api_preset_modes.c **** 	/*
  91:D:/Git/VL53L1/lib/core/src\vl53l1_api_preset_modes.c **** 	 * Initializes Ref SPAD Char data structures preset mode
  92:D:/Git/VL53L1/lib/core/src\vl53l1_api_preset_modes.c **** 	 */
  93:D:/Git/VL53L1/lib/core/src\vl53l1_api_preset_modes.c **** 
  94:D:/Git/VL53L1/lib/core/src\vl53l1_api_preset_modes.c **** 	VL53L1_Error  status = VL53L1_ERROR_NONE;
  35              		.loc 1 94 2 view .LVU1
  95:D:/Git/VL53L1/lib/core/src\vl53l1_api_preset_modes.c **** 
  96:D:/Git/VL53L1/lib/core/src\vl53l1_api_preset_modes.c **** 	LOG_FUNCTION_START("");
  36              		.loc 1 96 24 view .LVU2
  97:D:/Git/VL53L1/lib/core/src\vl53l1_api_preset_modes.c **** 
  98:D:/Git/VL53L1/lib/core/src\vl53l1_api_preset_modes.c **** 	/* Reference SPAD Char Configuration
  99:D:/Git/VL53L1/lib/core/src\vl53l1_api_preset_modes.c **** 	 *
 100:D:/Git/VL53L1/lib/core/src\vl53l1_api_preset_modes.c **** 	 * vcsel_period              = 0x0B   - 24 clock VCSEL period
 101:D:/Git/VL53L1/lib/core/src\vl53l1_api_preset_modes.c **** 	 * timeout_us                = 1000   - Set 1000us phase cal timeout
 102:D:/Git/VL53L1/lib/core/src\vl53l1_api_preset_modes.c **** 	 * target_count_rate_mcps    = 0x0A00 - 9.7 -> 20.0 Mcps
 103:D:/Git/VL53L1/lib/core/src\vl53l1_api_preset_modes.c **** 	 * min_count_rate_limit_mcps = 0x0500 - 9.7 -> 10.0 Mcps
 104:D:/Git/VL53L1/lib/core/src\vl53l1_api_preset_modes.c **** 	 * max_count_rate_limit_mcps = 0x1400 - 9.7 -> 40.0 Mcps
 105:D:/Git/VL53L1/lib/core/src\vl53l1_api_preset_modes.c **** 	 */
 106:D:/Git/VL53L1/lib/core/src\vl53l1_api_preset_modes.c **** 
 107:D:/Git/VL53L1/lib/core/src\vl53l1_api_preset_modes.c **** 	pdata->device_test_mode =
  37              		.loc 1 107 2 view .LVU3
  38              		.loc 1 107 26 is_stmt 0 view .LVU4
  39 0000 0823     		movs	r3, #8
  40 0002 0370     		strb	r3, [r0]
 108:D:/Git/VL53L1/lib/core/src\vl53l1_api_preset_modes.c **** 			VL53L1_TUNINGPARM_REFSPADCHAR_DEVICE_TEST_MODE_DEFAULT;
 109:D:/Git/VL53L1/lib/core/src\vl53l1_api_preset_modes.c **** 	pdata->vcsel_period              =
  41              		.loc 1 109 2 is_stmt 1 view .LVU5
  42              		.loc 1 109 35 is_stmt 0 view .LVU6
  43 0004 0B23     		movs	r3, #11
  44 0006 4370     		strb	r3, [r0, #1]
 110:D:/Git/VL53L1/lib/core/src\vl53l1_api_preset_modes.c **** 			VL53L1_TUNINGPARM_REFSPADCHAR_VCSEL_PERIOD_DEFAULT;
 111:D:/Git/VL53L1/lib/core/src\vl53l1_api_preset_modes.c **** 	pdata->timeout_us                =
  45              		.loc 1 111 2 is_stmt 1 view .LVU7
  46              		.loc 1 111 35 is_stmt 0 view .LVU8
  47 0008 4FF47A73 		mov	r3, #1000
  48 000c 4360     		str	r3, [r0, #4]
 112:D:/Git/VL53L1/lib/core/src\vl53l1_api_preset_modes.c **** 			VL53L1_TUNINGPARM_REFSPADCHAR_PHASECAL_TIMEOUT_US_DEFAULT;
 113:D:/Git/VL53L1/lib/core/src\vl53l1_api_preset_modes.c **** 	pdata->target_count_rate_mcps    =
  49              		.loc 1 113 2 is_stmt 1 view .LVU9
  50              		.loc 1 113 35 is_stmt 0 view .LVU10
  51 000e 4FF42063 		mov	r3, #2560
  52 0012 0381     		strh	r3, [r0, #8]	@ movhi
 114:D:/Git/VL53L1/lib/core/src\vl53l1_api_preset_modes.c **** 			VL53L1_TUNINGPARM_REFSPADCHAR_TARGET_COUNT_RATE_MCPS_DEFAULT;
 115:D:/Git/VL53L1/lib/core/src\vl53l1_api_preset_modes.c **** 	pdata->min_count_rate_limit_mcps =
  53              		.loc 1 115 2 is_stmt 1 view .LVU11
  54              		.loc 1 115 35 is_stmt 0 view .LVU12
  55 0014 4FF4A063 		mov	r3, #1280
  56 0018 4381     		strh	r3, [r0, #10]	@ movhi
 116:D:/Git/VL53L1/lib/core/src\vl53l1_api_preset_modes.c **** 			VL53L1_TUNINGPARM_REFSPADCHAR_MIN_COUNTRATE_LIMIT_MCPS_DEFAULT;
ARM GAS  C:\Users\Berbardo\AppData\Local\Temp\ccQolnPL.s 			page 4


 117:D:/Git/VL53L1/lib/core/src\vl53l1_api_preset_modes.c **** 	pdata->max_count_rate_limit_mcps =
  57              		.loc 1 117 2 is_stmt 1 view .LVU13
  58              		.loc 1 117 35 is_stmt 0 view .LVU14
  59 001a 4FF4A053 		mov	r3, #5120
  60 001e 8381     		strh	r3, [r0, #12]	@ movhi
 118:D:/Git/VL53L1/lib/core/src\vl53l1_api_preset_modes.c **** 			VL53L1_TUNINGPARM_REFSPADCHAR_MAX_COUNTRATE_LIMIT_MCPS_DEFAULT;
 119:D:/Git/VL53L1/lib/core/src\vl53l1_api_preset_modes.c **** 
 120:D:/Git/VL53L1/lib/core/src\vl53l1_api_preset_modes.c **** 	LOG_FUNCTION_END(status);
  61              		.loc 1 120 26 is_stmt 1 view .LVU15
 121:D:/Git/VL53L1/lib/core/src\vl53l1_api_preset_modes.c **** 
 122:D:/Git/VL53L1/lib/core/src\vl53l1_api_preset_modes.c **** 	return status;
  62              		.loc 1 122 2 view .LVU16
 123:D:/Git/VL53L1/lib/core/src\vl53l1_api_preset_modes.c **** }
  63              		.loc 1 123 1 is_stmt 0 view .LVU17
  64 0020 0020     		movs	r0, #0
  65              	.LVL1:
  66              		.loc 1 123 1 view .LVU18
  67 0022 7047     		bx	lr
  68              		.cfi_endproc
  69              	.LFE126:
  71              		.section	.text.VL53L1_init_ssc_config_struct,"ax",%progbits
  72              		.align	1
  73              		.global	VL53L1_init_ssc_config_struct
  74              		.syntax unified
  75              		.thumb
  76              		.thumb_func
  77              		.fpu fpv4-sp-d16
  79              	VL53L1_init_ssc_config_struct:
  80              	.LVL2:
  81              	.LFB127:
 124:D:/Git/VL53L1/lib/core/src\vl53l1_api_preset_modes.c **** #endif
 125:D:/Git/VL53L1/lib/core/src\vl53l1_api_preset_modes.c **** 
 126:D:/Git/VL53L1/lib/core/src\vl53l1_api_preset_modes.c **** 
 127:D:/Git/VL53L1/lib/core/src\vl53l1_api_preset_modes.c **** #ifndef VL53L1_NOCALIB
 128:D:/Git/VL53L1/lib/core/src\vl53l1_api_preset_modes.c **** VL53L1_Error VL53L1_init_ssc_config_struct(
 129:D:/Git/VL53L1/lib/core/src\vl53l1_api_preset_modes.c **** 	VL53L1_ssc_config_t   *pdata)
 130:D:/Git/VL53L1/lib/core/src\vl53l1_api_preset_modes.c **** {
  82              		.loc 1 130 1 is_stmt 1 view -0
  83              		.cfi_startproc
  84              		@ args = 0, pretend = 0, frame = 0
  85              		@ frame_needed = 0, uses_anonymous_args = 0
  86              		@ link register save eliminated.
  87              		.loc 1 130 1 is_stmt 0 view .LVU20
  88 0000 0346     		mov	r3, r0
 131:D:/Git/VL53L1/lib/core/src\vl53l1_api_preset_modes.c **** 	/*
 132:D:/Git/VL53L1/lib/core/src\vl53l1_api_preset_modes.c **** 	 * Initializes SPAD Self Check (SSC) data structure
 133:D:/Git/VL53L1/lib/core/src\vl53l1_api_preset_modes.c **** 	 */
 134:D:/Git/VL53L1/lib/core/src\vl53l1_api_preset_modes.c **** 
 135:D:/Git/VL53L1/lib/core/src\vl53l1_api_preset_modes.c **** 	VL53L1_Error  status = VL53L1_ERROR_NONE;
  89              		.loc 1 135 2 is_stmt 1 view .LVU21
  90              	.LVL3:
 136:D:/Git/VL53L1/lib/core/src\vl53l1_api_preset_modes.c **** 
 137:D:/Git/VL53L1/lib/core/src\vl53l1_api_preset_modes.c **** 	LOG_FUNCTION_START("");
  91              		.loc 1 137 24 view .LVU22
 138:D:/Git/VL53L1/lib/core/src\vl53l1_api_preset_modes.c **** 
 139:D:/Git/VL53L1/lib/core/src\vl53l1_api_preset_modes.c **** 	/* SPAD Select Check Configuration */
 140:D:/Git/VL53L1/lib/core/src\vl53l1_api_preset_modes.c **** 
ARM GAS  C:\Users\Berbardo\AppData\Local\Temp\ccQolnPL.s 			page 5


 141:D:/Git/VL53L1/lib/core/src\vl53l1_api_preset_modes.c **** 	/* 0 - store RTN count rates
 142:D:/Git/VL53L1/lib/core/src\vl53l1_api_preset_modes.c **** 	 * 1 - store REF count rates
 143:D:/Git/VL53L1/lib/core/src\vl53l1_api_preset_modes.c **** 	 */
 144:D:/Git/VL53L1/lib/core/src\vl53l1_api_preset_modes.c **** 	pdata->array_select = VL53L1_DEVICESSCARRAY_RTN;
  92              		.loc 1 144 2 view .LVU23
  93              		.loc 1 144 22 is_stmt 0 view .LVU24
  94 0002 0020     		movs	r0, #0
  95              	.LVL4:
  96              		.loc 1 144 22 view .LVU25
  97 0004 1870     		strb	r0, [r3]
 145:D:/Git/VL53L1/lib/core/src\vl53l1_api_preset_modes.c **** 
 146:D:/Git/VL53L1/lib/core/src\vl53l1_api_preset_modes.c **** 	/* VCSEL period register value  0x12 (18) -> 38 VCSEL clocks */
 147:D:/Git/VL53L1/lib/core/src\vl53l1_api_preset_modes.c **** 	pdata->vcsel_period =
  98              		.loc 1 147 2 is_stmt 1 view .LVU26
  99              		.loc 1 147 22 is_stmt 0 view .LVU27
 100 0006 1222     		movs	r2, #18
 101 0008 5A70     		strb	r2, [r3, #1]
 148:D:/Git/VL53L1/lib/core/src\vl53l1_api_preset_modes.c **** 			VL53L1_TUNINGPARM_SPADMAP_VCSEL_PERIOD_DEFAULT;
 149:D:/Git/VL53L1/lib/core/src\vl53l1_api_preset_modes.c **** 
 150:D:/Git/VL53L1/lib/core/src\vl53l1_api_preset_modes.c **** 	/* VCSEL pulse start */
 151:D:/Git/VL53L1/lib/core/src\vl53l1_api_preset_modes.c **** 	pdata->vcsel_start  =
 102              		.loc 1 151 2 is_stmt 1 view .LVU28
 103              		.loc 1 151 22 is_stmt 0 view .LVU29
 104 000a 0F22     		movs	r2, #15
 105 000c 9A70     		strb	r2, [r3, #2]
 152:D:/Git/VL53L1/lib/core/src\vl53l1_api_preset_modes.c **** 			VL53L1_TUNINGPARM_SPADMAP_VCSEL_START_DEFAULT;
 153:D:/Git/VL53L1/lib/core/src\vl53l1_api_preset_modes.c **** 
 154:D:/Git/VL53L1/lib/core/src\vl53l1_api_preset_modes.c **** 	/* VCSEL pulse width */
 155:D:/Git/VL53L1/lib/core/src\vl53l1_api_preset_modes.c **** 	pdata->vcsel_width  = 0x02;
 106              		.loc 1 155 2 is_stmt 1 view .LVU30
 107              		.loc 1 155 22 is_stmt 0 view .LVU31
 108 000e 0222     		movs	r2, #2
 109 0010 DA70     		strb	r2, [r3, #3]
 156:D:/Git/VL53L1/lib/core/src\vl53l1_api_preset_modes.c **** 
 157:D:/Git/VL53L1/lib/core/src\vl53l1_api_preset_modes.c **** 	/* SSC timeout [us] */
 158:D:/Git/VL53L1/lib/core/src\vl53l1_api_preset_modes.c **** 	pdata->timeout_us   = 36000;
 110              		.loc 1 158 2 is_stmt 1 view .LVU32
 111              		.loc 1 158 22 is_stmt 0 view .LVU33
 112 0012 48F6A042 		movw	r2, #36000
 113 0016 5A60     		str	r2, [r3, #4]
 159:D:/Git/VL53L1/lib/core/src\vl53l1_api_preset_modes.c **** 
 160:D:/Git/VL53L1/lib/core/src\vl53l1_api_preset_modes.c **** 	/* SSC rate limit [Mcps]
 161:D:/Git/VL53L1/lib/core/src\vl53l1_api_preset_modes.c **** 	 * - 9.7 for VCSEL ON
 162:D:/Git/VL53L1/lib/core/src\vl53l1_api_preset_modes.c **** 	 * - 1.15 for VCSEL OFF
 163:D:/Git/VL53L1/lib/core/src\vl53l1_api_preset_modes.c **** 	 */
 164:D:/Git/VL53L1/lib/core/src\vl53l1_api_preset_modes.c **** 	pdata->rate_limit_mcps =
 114              		.loc 1 164 2 is_stmt 1 view .LVU34
 115              		.loc 1 164 25 is_stmt 0 view .LVU35
 116 0018 0C22     		movs	r2, #12
 117 001a 1A81     		strh	r2, [r3, #8]	@ movhi
 165:D:/Git/VL53L1/lib/core/src\vl53l1_api_preset_modes.c **** 			VL53L1_TUNINGPARM_SPADMAP_RATE_LIMIT_MCPS_DEFAULT;
 166:D:/Git/VL53L1/lib/core/src\vl53l1_api_preset_modes.c **** 
 167:D:/Git/VL53L1/lib/core/src\vl53l1_api_preset_modes.c **** 	LOG_FUNCTION_END(status);
 118              		.loc 1 167 26 is_stmt 1 view .LVU36
 168:D:/Git/VL53L1/lib/core/src\vl53l1_api_preset_modes.c **** 
 169:D:/Git/VL53L1/lib/core/src\vl53l1_api_preset_modes.c **** 	return status;
 119              		.loc 1 169 2 view .LVU37
ARM GAS  C:\Users\Berbardo\AppData\Local\Temp\ccQolnPL.s 			page 6


 170:D:/Git/VL53L1/lib/core/src\vl53l1_api_preset_modes.c **** }
 120              		.loc 1 170 1 is_stmt 0 view .LVU38
 121 001c 7047     		bx	lr
 122              		.cfi_endproc
 123              	.LFE127:
 125              		.section	.text.VL53L1_init_xtalk_config_struct,"ax",%progbits
 126              		.align	1
 127              		.global	VL53L1_init_xtalk_config_struct
 128              		.syntax unified
 129              		.thumb
 130              		.thumb_func
 131              		.fpu fpv4-sp-d16
 133              	VL53L1_init_xtalk_config_struct:
 134              	.LVL5:
 135              	.LFB128:
 171:D:/Git/VL53L1/lib/core/src\vl53l1_api_preset_modes.c **** #endif
 172:D:/Git/VL53L1/lib/core/src\vl53l1_api_preset_modes.c **** 
 173:D:/Git/VL53L1/lib/core/src\vl53l1_api_preset_modes.c **** 
 174:D:/Git/VL53L1/lib/core/src\vl53l1_api_preset_modes.c **** VL53L1_Error VL53L1_init_xtalk_config_struct(
 175:D:/Git/VL53L1/lib/core/src\vl53l1_api_preset_modes.c **** 	VL53L1_customer_nvm_managed_t *pnvm,
 176:D:/Git/VL53L1/lib/core/src\vl53l1_api_preset_modes.c **** 	VL53L1_xtalk_config_t   *pdata)
 177:D:/Git/VL53L1/lib/core/src\vl53l1_api_preset_modes.c **** {
 136              		.loc 1 177 1 is_stmt 1 view -0
 137              		.cfi_startproc
 138              		@ args = 0, pretend = 0, frame = 0
 139              		@ frame_needed = 0, uses_anonymous_args = 0
 140              		.loc 1 177 1 is_stmt 0 view .LVU40
 141 0000 70B5     		push	{r4, r5, r6, lr}
 142              		.cfi_def_cfa_offset 16
 143              		.cfi_offset 4, -16
 144              		.cfi_offset 5, -12
 145              		.cfi_offset 6, -8
 146              		.cfi_offset 14, -4
 178:D:/Git/VL53L1/lib/core/src\vl53l1_api_preset_modes.c **** 	/*
 179:D:/Git/VL53L1/lib/core/src\vl53l1_api_preset_modes.c **** 	 * Initializes Xtalk Config structure
 180:D:/Git/VL53L1/lib/core/src\vl53l1_api_preset_modes.c **** 	 */
 181:D:/Git/VL53L1/lib/core/src\vl53l1_api_preset_modes.c **** 
 182:D:/Git/VL53L1/lib/core/src\vl53l1_api_preset_modes.c **** 	VL53L1_Error  status = VL53L1_ERROR_NONE;
 147              		.loc 1 182 2 is_stmt 1 view .LVU41
 148              	.LVL6:
 183:D:/Git/VL53L1/lib/core/src\vl53l1_api_preset_modes.c **** 
 184:D:/Git/VL53L1/lib/core/src\vl53l1_api_preset_modes.c **** 	LOG_FUNCTION_START("");
 149              		.loc 1 184 24 view .LVU42
 185:D:/Git/VL53L1/lib/core/src\vl53l1_api_preset_modes.c **** 
 186:D:/Git/VL53L1/lib/core/src\vl53l1_api_preset_modes.c **** 	/* Xtalk default configuration
 187:D:/Git/VL53L1/lib/core/src\vl53l1_api_preset_modes.c **** 	 *
 188:D:/Git/VL53L1/lib/core/src\vl53l1_api_preset_modes.c **** 	 * algo__crosstalk_compensation_plane_offset_kcps
 189:D:/Git/VL53L1/lib/core/src\vl53l1_api_preset_modes.c **** 	 *  = pdev->customer.algo__crosstalk_compensation_plane_offset_kcps
 190:D:/Git/VL53L1/lib/core/src\vl53l1_api_preset_modes.c **** 	 * algo__crosstalk_compensation_x_plane_gradient_kcps
 191:D:/Git/VL53L1/lib/core/src\vl53l1_api_preset_modes.c **** 	 *  = pdev->customer.algo__crosstalk_compensation_x_plane_gradient_kcps
 192:D:/Git/VL53L1/lib/core/src\vl53l1_api_preset_modes.c **** 	 * algo__crosstalk_compensation_y_plane_gradient_kcps
 193:D:/Git/VL53L1/lib/core/src\vl53l1_api_preset_modes.c **** 	 *  = pdev->customer.algo__crosstalk_compensation_y_plane_gradient_kcps
 194:D:/Git/VL53L1/lib/core/src\vl53l1_api_preset_modes.c **** 	 *
 195:D:/Git/VL53L1/lib/core/src\vl53l1_api_preset_modes.c **** 	 */
 196:D:/Git/VL53L1/lib/core/src\vl53l1_api_preset_modes.c **** 
 197:D:/Git/VL53L1/lib/core/src\vl53l1_api_preset_modes.c **** 	/* Store xtalk data into golden copy */
 198:D:/Git/VL53L1/lib/core/src\vl53l1_api_preset_modes.c **** 
ARM GAS  C:\Users\Berbardo\AppData\Local\Temp\ccQolnPL.s 			page 7


 199:D:/Git/VL53L1/lib/core/src\vl53l1_api_preset_modes.c **** 	pdata->algo__crosstalk_compensation_plane_offset_kcps      =
 150              		.loc 1 199 2 view .LVU43
 200:D:/Git/VL53L1/lib/core/src\vl53l1_api_preset_modes.c **** 		pnvm->algo__crosstalk_compensation_plane_offset_kcps;
 151              		.loc 1 200 7 is_stmt 0 view .LVU44
 152 0002 4489     		ldrh	r4, [r0, #10]
 199:D:/Git/VL53L1/lib/core/src\vl53l1_api_preset_modes.c **** 		pnvm->algo__crosstalk_compensation_plane_offset_kcps;
 153              		.loc 1 199 61 view .LVU45
 154 0004 0C60     		str	r4, [r1]
 201:D:/Git/VL53L1/lib/core/src\vl53l1_api_preset_modes.c **** 	pdata->algo__crosstalk_compensation_x_plane_gradient_kcps  =
 155              		.loc 1 201 2 is_stmt 1 view .LVU46
 202:D:/Git/VL53L1/lib/core/src\vl53l1_api_preset_modes.c **** 		pnvm->algo__crosstalk_compensation_x_plane_gradient_kcps;
 156              		.loc 1 202 7 is_stmt 0 view .LVU47
 157 0006 B0F90C50 		ldrsh	r5, [r0, #12]
 201:D:/Git/VL53L1/lib/core/src\vl53l1_api_preset_modes.c **** 	pdata->algo__crosstalk_compensation_x_plane_gradient_kcps  =
 158              		.loc 1 201 61 view .LVU48
 159 000a 8D80     		strh	r5, [r1, #4]	@ movhi
 203:D:/Git/VL53L1/lib/core/src\vl53l1_api_preset_modes.c **** 	pdata->algo__crosstalk_compensation_y_plane_gradient_kcps  =
 160              		.loc 1 203 2 is_stmt 1 view .LVU49
 204:D:/Git/VL53L1/lib/core/src\vl53l1_api_preset_modes.c **** 		pnvm->algo__crosstalk_compensation_y_plane_gradient_kcps;
 161              		.loc 1 204 7 is_stmt 0 view .LVU50
 162 000c B0F90E20 		ldrsh	r2, [r0, #14]
 203:D:/Git/VL53L1/lib/core/src\vl53l1_api_preset_modes.c **** 	pdata->algo__crosstalk_compensation_y_plane_gradient_kcps  =
 163              		.loc 1 203 61 view .LVU51
 164 0010 CA80     		strh	r2, [r1, #6]	@ movhi
 205:D:/Git/VL53L1/lib/core/src\vl53l1_api_preset_modes.c **** 
 206:D:/Git/VL53L1/lib/core/src\vl53l1_api_preset_modes.c **** 	/* Store NVM defaults for later use */
 207:D:/Git/VL53L1/lib/core/src\vl53l1_api_preset_modes.c **** 
 208:D:/Git/VL53L1/lib/core/src\vl53l1_api_preset_modes.c **** 	pdata->nvm_default__crosstalk_compensation_plane_offset_kcps      =
 165              		.loc 1 208 2 is_stmt 1 view .LVU52
 209:D:/Git/VL53L1/lib/core/src\vl53l1_api_preset_modes.c **** 		(uint32_t)pnvm->algo__crosstalk_compensation_plane_offset_kcps;
 166              		.loc 1 209 17 is_stmt 0 view .LVU53
 167 0012 4389     		ldrh	r3, [r0, #10]
 208:D:/Git/VL53L1/lib/core/src\vl53l1_api_preset_modes.c **** 		(uint32_t)pnvm->algo__crosstalk_compensation_plane_offset_kcps;
 168              		.loc 1 208 68 view .LVU54
 169 0014 8B60     		str	r3, [r1, #8]
 210:D:/Git/VL53L1/lib/core/src\vl53l1_api_preset_modes.c **** 	pdata->nvm_default__crosstalk_compensation_x_plane_gradient_kcps  =
 170              		.loc 1 210 2 is_stmt 1 view .LVU55
 211:D:/Git/VL53L1/lib/core/src\vl53l1_api_preset_modes.c **** 		pnvm->algo__crosstalk_compensation_x_plane_gradient_kcps;
 171              		.loc 1 211 7 is_stmt 0 view .LVU56
 172 0016 B0F90C30 		ldrsh	r3, [r0, #12]
 210:D:/Git/VL53L1/lib/core/src\vl53l1_api_preset_modes.c **** 	pdata->nvm_default__crosstalk_compensation_x_plane_gradient_kcps  =
 173              		.loc 1 210 68 view .LVU57
 174 001a 8B81     		strh	r3, [r1, #12]	@ movhi
 212:D:/Git/VL53L1/lib/core/src\vl53l1_api_preset_modes.c **** 	pdata->nvm_default__crosstalk_compensation_y_plane_gradient_kcps  =
 175              		.loc 1 212 2 is_stmt 1 view .LVU58
 213:D:/Git/VL53L1/lib/core/src\vl53l1_api_preset_modes.c **** 		pnvm->algo__crosstalk_compensation_y_plane_gradient_kcps;
 176              		.loc 1 213 7 is_stmt 0 view .LVU59
 177 001c B0F90E30 		ldrsh	r3, [r0, #14]
 212:D:/Git/VL53L1/lib/core/src\vl53l1_api_preset_modes.c **** 	pdata->nvm_default__crosstalk_compensation_y_plane_gradient_kcps  =
 178              		.loc 1 212 68 view .LVU60
 179 0020 CB81     		strh	r3, [r1, #14]	@ movhi
 214:D:/Git/VL53L1/lib/core/src\vl53l1_api_preset_modes.c **** 
 215:D:/Git/VL53L1/lib/core/src\vl53l1_api_preset_modes.c **** 	pdata->lite_mode_crosstalk_margin_kcps                     =
 180              		.loc 1 215 2 is_stmt 1 view .LVU61
 181              		.loc 1 215 61 is_stmt 0 view .LVU62
 182 0022 0023     		movs	r3, #0
 183 0024 4B82     		strh	r3, [r1, #18]	@ movhi
ARM GAS  C:\Users\Berbardo\AppData\Local\Temp\ccQolnPL.s 			page 8


 216:D:/Git/VL53L1/lib/core/src\vl53l1_api_preset_modes.c **** 			VL53L1_TUNINGPARM_LITE_XTALK_MARGIN_KCPS_DEFAULT;
 217:D:/Git/VL53L1/lib/core/src\vl53l1_api_preset_modes.c **** 
 218:D:/Git/VL53L1/lib/core/src\vl53l1_api_preset_modes.c **** 	/* Default for Range Ignore Threshold Mult = 2.0 */
 219:D:/Git/VL53L1/lib/core/src\vl53l1_api_preset_modes.c **** 
 220:D:/Git/VL53L1/lib/core/src\vl53l1_api_preset_modes.c **** 	pdata->crosstalk_range_ignore_threshold_mult =
 184              		.loc 1 220 2 is_stmt 1 view .LVU63
 185              		.loc 1 220 47 is_stmt 0 view .LVU64
 186 0026 4023     		movs	r3, #64
 187 0028 0B75     		strb	r3, [r1, #20]
 221:D:/Git/VL53L1/lib/core/src\vl53l1_api_preset_modes.c **** 			VL53L1_TUNINGPARM_LITE_RIT_MULT_DEFAULT;
 222:D:/Git/VL53L1/lib/core/src\vl53l1_api_preset_modes.c **** 
 223:D:/Git/VL53L1/lib/core/src\vl53l1_api_preset_modes.c **** 	if ((pdata->algo__crosstalk_compensation_plane_offset_kcps == 0x00)
 188              		.loc 1 223 2 is_stmt 1 view .LVU65
 189              		.loc 1 223 5 is_stmt 0 view .LVU66
 190 002a 1CB9     		cbnz	r4, .L4
 224:D:/Git/VL53L1/lib/core/src\vl53l1_api_preset_modes.c **** 		&& (pdata->algo__crosstalk_compensation_x_plane_gradient_kcps == 0x00)
 225:D:/Git/VL53L1/lib/core/src\vl53l1_api_preset_modes.c **** 		&& (pdata->algo__crosstalk_compensation_y_plane_gradient_kcps == 0x00))
 191              		.loc 1 225 3 view .LVU67
 192 002c 4B68     		ldr	r3, [r1, #4]
 193 002e 0BB9     		cbnz	r3, .L4
 226:D:/Git/VL53L1/lib/core/src\vl53l1_api_preset_modes.c **** 		pdata->global_crosstalk_compensation_enable = 0x00;
 194              		.loc 1 226 3 is_stmt 1 view .LVU68
 195              		.loc 1 226 47 is_stmt 0 view .LVU69
 196 0030 0B74     		strb	r3, [r1, #16]
 197 0032 01E0     		b	.L5
 198              	.L4:
 227:D:/Git/VL53L1/lib/core/src\vl53l1_api_preset_modes.c **** 	else
 228:D:/Git/VL53L1/lib/core/src\vl53l1_api_preset_modes.c **** 		pdata->global_crosstalk_compensation_enable = 0x01;
 199              		.loc 1 228 3 is_stmt 1 view .LVU70
 200              		.loc 1 228 47 is_stmt 0 view .LVU71
 201 0034 0123     		movs	r3, #1
 202 0036 0B74     		strb	r3, [r1, #16]
 203              	.L5:
 229:D:/Git/VL53L1/lib/core/src\vl53l1_api_preset_modes.c **** 
 230:D:/Git/VL53L1/lib/core/src\vl53l1_api_preset_modes.c **** 
 231:D:/Git/VL53L1/lib/core/src\vl53l1_api_preset_modes.c **** 	if ((status == VL53L1_ERROR_NONE) &&
 204              		.loc 1 231 2 is_stmt 1 view .LVU72
 232:D:/Git/VL53L1/lib/core/src\vl53l1_api_preset_modes.c **** 		(pdata->global_crosstalk_compensation_enable == 0x01)) {
 205              		.loc 1 232 9 is_stmt 0 view .LVU73
 206 0038 0B7C     		ldrb	r3, [r1, #16]	@ zero_extendqisi2
 231:D:/Git/VL53L1/lib/core/src\vl53l1_api_preset_modes.c **** 		(pdata->global_crosstalk_compensation_enable == 0x01)) {
 207              		.loc 1 231 36 view .LVU74
 208 003a 012B     		cmp	r3, #1
 209 003c 03D0     		beq	.L9
 233:D:/Git/VL53L1/lib/core/src\vl53l1_api_preset_modes.c **** 		pdata->crosstalk_range_ignore_threshold_rate_mcps =
 234:D:/Git/VL53L1/lib/core/src\vl53l1_api_preset_modes.c **** 			VL53L1_calc_range_ignore_threshold(
 235:D:/Git/VL53L1/lib/core/src\vl53l1_api_preset_modes.c **** 				pdata->algo__crosstalk_compensation_plane_offset_kcps,
 236:D:/Git/VL53L1/lib/core/src\vl53l1_api_preset_modes.c **** 				pdata->algo__crosstalk_compensation_x_plane_gradient_kcps,
 237:D:/Git/VL53L1/lib/core/src\vl53l1_api_preset_modes.c **** 				pdata->algo__crosstalk_compensation_y_plane_gradient_kcps,
 238:D:/Git/VL53L1/lib/core/src\vl53l1_api_preset_modes.c **** 				pdata->crosstalk_range_ignore_threshold_mult);
 239:D:/Git/VL53L1/lib/core/src\vl53l1_api_preset_modes.c **** 	} else {
 240:D:/Git/VL53L1/lib/core/src\vl53l1_api_preset_modes.c **** 		pdata->crosstalk_range_ignore_threshold_rate_mcps = 0;
 210              		.loc 1 240 3 is_stmt 1 view .LVU75
 211              		.loc 1 240 53 is_stmt 0 view .LVU76
 212 003e 0023     		movs	r3, #0
 213 0040 CB82     		strh	r3, [r1, #22]	@ movhi
 214              	.LVL7:
ARM GAS  C:\Users\Berbardo\AppData\Local\Temp\ccQolnPL.s 			page 9


 215              	.L7:
 241:D:/Git/VL53L1/lib/core/src\vl53l1_api_preset_modes.c **** 	}
 242:D:/Git/VL53L1/lib/core/src\vl53l1_api_preset_modes.c **** 
 243:D:/Git/VL53L1/lib/core/src\vl53l1_api_preset_modes.c **** 	LOG_FUNCTION_END(status);
 216              		.loc 1 243 26 is_stmt 1 view .LVU77
 244:D:/Git/VL53L1/lib/core/src\vl53l1_api_preset_modes.c **** 
 245:D:/Git/VL53L1/lib/core/src\vl53l1_api_preset_modes.c **** 	return status;
 217              		.loc 1 245 2 view .LVU78
 246:D:/Git/VL53L1/lib/core/src\vl53l1_api_preset_modes.c **** }
 218              		.loc 1 246 1 is_stmt 0 view .LVU79
 219 0042 0020     		movs	r0, #0
 220 0044 70BD     		pop	{r4, r5, r6, pc}
 221              	.LVL8:
 222              	.L9:
 223              		.loc 1 246 1 view .LVU80
 224 0046 0E46     		mov	r6, r1
 233:D:/Git/VL53L1/lib/core/src\vl53l1_api_preset_modes.c **** 			VL53L1_calc_range_ignore_threshold(
 225              		.loc 1 233 3 is_stmt 1 view .LVU81
 234:D:/Git/VL53L1/lib/core/src\vl53l1_api_preset_modes.c **** 				pdata->algo__crosstalk_compensation_plane_offset_kcps,
 226              		.loc 1 234 4 is_stmt 0 view .LVU82
 227 0048 4023     		movs	r3, #64
 228 004a 2946     		mov	r1, r5
 229              	.LVL9:
 234:D:/Git/VL53L1/lib/core/src\vl53l1_api_preset_modes.c **** 				pdata->algo__crosstalk_compensation_plane_offset_kcps,
 230              		.loc 1 234 4 view .LVU83
 231 004c 2046     		mov	r0, r4
 232              	.LVL10:
 234:D:/Git/VL53L1/lib/core/src\vl53l1_api_preset_modes.c **** 				pdata->algo__crosstalk_compensation_plane_offset_kcps,
 233              		.loc 1 234 4 view .LVU84
 234 004e FFF7FEFF 		bl	VL53L1_calc_range_ignore_threshold
 235              	.LVL11:
 233:D:/Git/VL53L1/lib/core/src\vl53l1_api_preset_modes.c **** 			VL53L1_calc_range_ignore_threshold(
 236              		.loc 1 233 53 view .LVU85
 237 0052 F082     		strh	r0, [r6, #22]	@ movhi
 238 0054 F5E7     		b	.L7
 239              		.cfi_endproc
 240              	.LFE128:
 242              		.section	.text.VL53L1_init_offset_cal_config_struct,"ax",%progbits
 243              		.align	1
 244              		.global	VL53L1_init_offset_cal_config_struct
 245              		.syntax unified
 246              		.thumb
 247              		.thumb_func
 248              		.fpu fpv4-sp-d16
 250              	VL53L1_init_offset_cal_config_struct:
 251              	.LVL12:
 252              	.LFB129:
 247:D:/Git/VL53L1/lib/core/src\vl53l1_api_preset_modes.c **** 
 248:D:/Git/VL53L1/lib/core/src\vl53l1_api_preset_modes.c **** #ifndef VL53L1_NOCALIB
 249:D:/Git/VL53L1/lib/core/src\vl53l1_api_preset_modes.c **** VL53L1_Error VL53L1_init_offset_cal_config_struct(
 250:D:/Git/VL53L1/lib/core/src\vl53l1_api_preset_modes.c **** 	VL53L1_offsetcal_config_t   *pdata)
 251:D:/Git/VL53L1/lib/core/src\vl53l1_api_preset_modes.c **** {
 253              		.loc 1 251 1 is_stmt 1 view -0
 254              		.cfi_startproc
 255              		@ args = 0, pretend = 0, frame = 0
 256              		@ frame_needed = 0, uses_anonymous_args = 0
 257              		@ link register save eliminated.
ARM GAS  C:\Users\Berbardo\AppData\Local\Temp\ccQolnPL.s 			page 10


 252:D:/Git/VL53L1/lib/core/src\vl53l1_api_preset_modes.c **** 	/*
 253:D:/Git/VL53L1/lib/core/src\vl53l1_api_preset_modes.c **** 	 * Initializes Offset Calibration Config structure
 254:D:/Git/VL53L1/lib/core/src\vl53l1_api_preset_modes.c **** 	 * - for use with VL53L1_run_offset_calibration()
 255:D:/Git/VL53L1/lib/core/src\vl53l1_api_preset_modes.c **** 	 */
 256:D:/Git/VL53L1/lib/core/src\vl53l1_api_preset_modes.c **** 
 257:D:/Git/VL53L1/lib/core/src\vl53l1_api_preset_modes.c **** 	VL53L1_Error  status = VL53L1_ERROR_NONE;
 258              		.loc 1 257 2 view .LVU87
 258:D:/Git/VL53L1/lib/core/src\vl53l1_api_preset_modes.c **** 
 259:D:/Git/VL53L1/lib/core/src\vl53l1_api_preset_modes.c **** 	LOG_FUNCTION_START("");
 259              		.loc 1 259 24 view .LVU88
 260:D:/Git/VL53L1/lib/core/src\vl53l1_api_preset_modes.c **** 
 261:D:/Git/VL53L1/lib/core/src\vl53l1_api_preset_modes.c **** 	/* Preset Timeout and DSS defaults */
 262:D:/Git/VL53L1/lib/core/src\vl53l1_api_preset_modes.c **** 
 263:D:/Git/VL53L1/lib/core/src\vl53l1_api_preset_modes.c **** 	pdata->dss_config__target_total_rate_mcps          =
 260              		.loc 1 263 2 view .LVU89
 261              		.loc 1 263 53 is_stmt 0 view .LVU90
 262 0000 4FF42063 		mov	r3, #2560
 263 0004 0380     		strh	r3, [r0]	@ movhi
 264:D:/Git/VL53L1/lib/core/src\vl53l1_api_preset_modes.c **** 			VL53L1_TUNINGPARM_OFFSET_CAL_DSS_RATE_MCPS_DEFAULT;
 265:D:/Git/VL53L1/lib/core/src\vl53l1_api_preset_modes.c **** 	/* 20.0 Mcps */
 266:D:/Git/VL53L1/lib/core/src\vl53l1_api_preset_modes.c **** 	pdata->phasecal_config_timeout_us                  =
 264              		.loc 1 266 2 is_stmt 1 view .LVU91
 265              		.loc 1 266 53 is_stmt 0 view .LVU92
 266 0006 4FF47A73 		mov	r3, #1000
 267 000a 4360     		str	r3, [r0, #4]
 267:D:/Git/VL53L1/lib/core/src\vl53l1_api_preset_modes.c **** 			VL53L1_TUNINGPARM_OFFSET_CAL_PHASECAL_TIMEOUT_US_DEFAULT;
 268:D:/Git/VL53L1/lib/core/src\vl53l1_api_preset_modes.c **** 	/* 1000 us */
 269:D:/Git/VL53L1/lib/core/src\vl53l1_api_preset_modes.c **** 	pdata->range_config_timeout_us                     =
 268              		.loc 1 269 2 is_stmt 1 view .LVU93
 269              		.loc 1 269 53 is_stmt 0 view .LVU94
 270 000c 43F2C823 		movw	r3, #13000
 271 0010 8360     		str	r3, [r0, #8]
 270:D:/Git/VL53L1/lib/core/src\vl53l1_api_preset_modes.c **** 			VL53L1_TUNINGPARM_OFFSET_CAL_RANGE_TIMEOUT_US_DEFAULT;
 271:D:/Git/VL53L1/lib/core/src\vl53l1_api_preset_modes.c **** 	/* 13000 us */
 272:D:/Git/VL53L1/lib/core/src\vl53l1_api_preset_modes.c **** 	pdata->mm_config_timeout_us                        =
 272              		.loc 1 272 2 is_stmt 1 view .LVU95
 273              		.loc 1 272 53 is_stmt 0 view .LVU96
 274 0012 C360     		str	r3, [r0, #12]
 273:D:/Git/VL53L1/lib/core/src\vl53l1_api_preset_modes.c **** 			VL53L1_TUNINGPARM_OFFSET_CAL_MM_TIMEOUT_US_DEFAULT;
 274:D:/Git/VL53L1/lib/core/src\vl53l1_api_preset_modes.c **** 	/* 13000 us - Added as part of Patch_AddedOffsetCalMMTuningParm_11791 */
 275:D:/Git/VL53L1/lib/core/src\vl53l1_api_preset_modes.c **** 
 276:D:/Git/VL53L1/lib/core/src\vl53l1_api_preset_modes.c **** 	/* Init number of averaged samples */
 277:D:/Git/VL53L1/lib/core/src\vl53l1_api_preset_modes.c **** 
 278:D:/Git/VL53L1/lib/core/src\vl53l1_api_preset_modes.c **** 	pdata->pre_num_of_samples                          =
 275              		.loc 1 278 2 is_stmt 1 view .LVU97
 276              		.loc 1 278 53 is_stmt 0 view .LVU98
 277 0014 0823     		movs	r3, #8
 278 0016 0374     		strb	r3, [r0, #16]
 279:D:/Git/VL53L1/lib/core/src\vl53l1_api_preset_modes.c **** 			VL53L1_TUNINGPARM_OFFSET_CAL_PRE_SAMPLES_DEFAULT;
 280:D:/Git/VL53L1/lib/core/src\vl53l1_api_preset_modes.c **** 	pdata->mm1_num_of_samples                          =
 279              		.loc 1 280 2 is_stmt 1 view .LVU99
 280              		.loc 1 280 53 is_stmt 0 view .LVU100
 281 0018 2823     		movs	r3, #40
 282 001a 4374     		strb	r3, [r0, #17]
 281:D:/Git/VL53L1/lib/core/src\vl53l1_api_preset_modes.c **** 			VL53L1_TUNINGPARM_OFFSET_CAL_MM1_SAMPLES_DEFAULT;
 282:D:/Git/VL53L1/lib/core/src\vl53l1_api_preset_modes.c **** 	pdata->mm2_num_of_samples                          =
 283              		.loc 1 282 2 is_stmt 1 view .LVU101
ARM GAS  C:\Users\Berbardo\AppData\Local\Temp\ccQolnPL.s 			page 11


 284              		.loc 1 282 53 is_stmt 0 view .LVU102
 285 001c 0923     		movs	r3, #9
 286 001e 8374     		strb	r3, [r0, #18]
 283:D:/Git/VL53L1/lib/core/src\vl53l1_api_preset_modes.c **** 			VL53L1_TUNINGPARM_OFFSET_CAL_MM2_SAMPLES_DEFAULT;
 284:D:/Git/VL53L1/lib/core/src\vl53l1_api_preset_modes.c **** 
 285:D:/Git/VL53L1/lib/core/src\vl53l1_api_preset_modes.c **** 	LOG_FUNCTION_END(status);
 287              		.loc 1 285 26 is_stmt 1 view .LVU103
 286:D:/Git/VL53L1/lib/core/src\vl53l1_api_preset_modes.c **** 
 287:D:/Git/VL53L1/lib/core/src\vl53l1_api_preset_modes.c **** 	return status;
 288              		.loc 1 287 2 view .LVU104
 288:D:/Git/VL53L1/lib/core/src\vl53l1_api_preset_modes.c **** }
 289              		.loc 1 288 1 is_stmt 0 view .LVU105
 290 0020 0020     		movs	r0, #0
 291              	.LVL13:
 292              		.loc 1 288 1 view .LVU106
 293 0022 7047     		bx	lr
 294              		.cfi_endproc
 295              	.LFE129:
 297              		.section	.text.VL53L1_init_tuning_parm_storage_struct,"ax",%progbits
 298              		.align	1
 299              		.global	VL53L1_init_tuning_parm_storage_struct
 300              		.syntax unified
 301              		.thumb
 302              		.thumb_func
 303              		.fpu fpv4-sp-d16
 305              	VL53L1_init_tuning_parm_storage_struct:
 306              	.LVL14:
 307              	.LFB130:
 289:D:/Git/VL53L1/lib/core/src\vl53l1_api_preset_modes.c **** #endif
 290:D:/Git/VL53L1/lib/core/src\vl53l1_api_preset_modes.c **** 
 291:D:/Git/VL53L1/lib/core/src\vl53l1_api_preset_modes.c **** VL53L1_Error VL53L1_init_tuning_parm_storage_struct(
 292:D:/Git/VL53L1/lib/core/src\vl53l1_api_preset_modes.c **** 	VL53L1_tuning_parm_storage_t   *pdata)
 293:D:/Git/VL53L1/lib/core/src\vl53l1_api_preset_modes.c **** {
 308              		.loc 1 293 1 is_stmt 1 view -0
 309              		.cfi_startproc
 310              		@ args = 0, pretend = 0, frame = 0
 311              		@ frame_needed = 0, uses_anonymous_args = 0
 312              		@ link register save eliminated.
 313              		.loc 1 293 1 is_stmt 0 view .LVU108
 314 0000 0346     		mov	r3, r0
 294:D:/Git/VL53L1/lib/core/src\vl53l1_api_preset_modes.c **** 	/*
 295:D:/Git/VL53L1/lib/core/src\vl53l1_api_preset_modes.c **** 	 * Initializes  Tuning Param storage structure
 296:D:/Git/VL53L1/lib/core/src\vl53l1_api_preset_modes.c **** 	 */
 297:D:/Git/VL53L1/lib/core/src\vl53l1_api_preset_modes.c **** 
 298:D:/Git/VL53L1/lib/core/src\vl53l1_api_preset_modes.c **** 	VL53L1_Error  status = VL53L1_ERROR_NONE;
 315              		.loc 1 298 2 is_stmt 1 view .LVU109
 316              	.LVL15:
 299:D:/Git/VL53L1/lib/core/src\vl53l1_api_preset_modes.c **** 
 300:D:/Git/VL53L1/lib/core/src\vl53l1_api_preset_modes.c **** 	LOG_FUNCTION_START("");
 317              		.loc 1 300 24 view .LVU110
 301:D:/Git/VL53L1/lib/core/src\vl53l1_api_preset_modes.c **** 
 302:D:/Git/VL53L1/lib/core/src\vl53l1_api_preset_modes.c **** 	/* Default configuration
 303:D:/Git/VL53L1/lib/core/src\vl53l1_api_preset_modes.c **** 	 *
 304:D:/Git/VL53L1/lib/core/src\vl53l1_api_preset_modes.c **** 	 * - Custom overwrite possible from vl53l1_set_tuning_parms()
 305:D:/Git/VL53L1/lib/core/src\vl53l1_api_preset_modes.c **** 	 * - via tuning file input
 306:D:/Git/VL53L1/lib/core/src\vl53l1_api_preset_modes.c **** 	 */
 307:D:/Git/VL53L1/lib/core/src\vl53l1_api_preset_modes.c **** 
ARM GAS  C:\Users\Berbardo\AppData\Local\Temp\ccQolnPL.s 			page 12


 308:D:/Git/VL53L1/lib/core/src\vl53l1_api_preset_modes.c **** 	pdata->tp_tuning_parm_version              =
 318              		.loc 1 308 2 view .LVU111
 319              		.loc 1 308 45 is_stmt 0 view .LVU112
 320 0002 48F20302 		movw	r2, #32771
 321 0006 0280     		strh	r2, [r0]	@ movhi
 309:D:/Git/VL53L1/lib/core/src\vl53l1_api_preset_modes.c **** 			VL53L1_TUNINGPARM_VERSION_DEFAULT;
 310:D:/Git/VL53L1/lib/core/src\vl53l1_api_preset_modes.c **** 	pdata->tp_tuning_parm_key_table_version    =
 322              		.loc 1 310 2 is_stmt 1 view .LVU113
 323              		.loc 1 310 45 is_stmt 0 view .LVU114
 324 0008 48F20102 		movw	r2, #32769
 325 000c 4280     		strh	r2, [r0, #2]	@ movhi
 311:D:/Git/VL53L1/lib/core/src\vl53l1_api_preset_modes.c **** 			VL53L1_TUNINGPARM_KEY_TABLE_VERSION_DEFAULT;
 312:D:/Git/VL53L1/lib/core/src\vl53l1_api_preset_modes.c **** 	pdata->tp_tuning_parm_lld_version          =
 326              		.loc 1 312 2 is_stmt 1 view .LVU115
 327              		.loc 1 312 45 is_stmt 0 view .LVU116
 328 000e 48F24102 		movw	r2, #32833
 329 0012 8280     		strh	r2, [r0, #4]	@ movhi
 313:D:/Git/VL53L1/lib/core/src\vl53l1_api_preset_modes.c **** 			VL53L1_TUNINGPARM_LLD_VERSION_DEFAULT;
 314:D:/Git/VL53L1/lib/core/src\vl53l1_api_preset_modes.c **** 	pdata->tp_init_phase_rtn_lite_long         =
 330              		.loc 1 314 2 is_stmt 1 view .LVU117
 331              		.loc 1 314 45 is_stmt 0 view .LVU118
 332 0014 0E20     		movs	r0, #14
 333              	.LVL16:
 334              		.loc 1 314 45 view .LVU119
 335 0016 9871     		strb	r0, [r3, #6]
 315:D:/Git/VL53L1/lib/core/src\vl53l1_api_preset_modes.c **** 			VL53L1_TUNINGPARM_INITIAL_PHASE_RTN_LITE_LONG_RANGE_DEFAULT;
 316:D:/Git/VL53L1/lib/core/src\vl53l1_api_preset_modes.c **** 	pdata->tp_init_phase_rtn_lite_med          =
 336              		.loc 1 316 2 is_stmt 1 view .LVU120
 337              		.loc 1 316 45 is_stmt 0 view .LVU121
 338 0018 0A21     		movs	r1, #10
 339 001a D971     		strb	r1, [r3, #7]
 317:D:/Git/VL53L1/lib/core/src\vl53l1_api_preset_modes.c **** 			VL53L1_TUNINGPARM_INITIAL_PHASE_RTN_LITE_MED_RANGE_DEFAULT;
 318:D:/Git/VL53L1/lib/core/src\vl53l1_api_preset_modes.c **** 	pdata->tp_init_phase_rtn_lite_short        =
 340              		.loc 1 318 2 is_stmt 1 view .LVU122
 341              		.loc 1 318 45 is_stmt 0 view .LVU123
 342 001c 0622     		movs	r2, #6
 343 001e 1A72     		strb	r2, [r3, #8]
 319:D:/Git/VL53L1/lib/core/src\vl53l1_api_preset_modes.c **** 			VL53L1_TUNINGPARM_INITIAL_PHASE_RTN_LITE_SHORT_RANGE_DEFAULT;
 320:D:/Git/VL53L1/lib/core/src\vl53l1_api_preset_modes.c **** 	pdata->tp_init_phase_ref_lite_long         =
 344              		.loc 1 320 2 is_stmt 1 view .LVU124
 345              		.loc 1 320 45 is_stmt 0 view .LVU125
 346 0020 5872     		strb	r0, [r3, #9]
 321:D:/Git/VL53L1/lib/core/src\vl53l1_api_preset_modes.c **** 			VL53L1_TUNINGPARM_INITIAL_PHASE_REF_LITE_LONG_RANGE_DEFAULT;
 322:D:/Git/VL53L1/lib/core/src\vl53l1_api_preset_modes.c **** 	pdata->tp_init_phase_ref_lite_med          =
 347              		.loc 1 322 2 is_stmt 1 view .LVU126
 348              		.loc 1 322 45 is_stmt 0 view .LVU127
 349 0022 9972     		strb	r1, [r3, #10]
 323:D:/Git/VL53L1/lib/core/src\vl53l1_api_preset_modes.c **** 			VL53L1_TUNINGPARM_INITIAL_PHASE_REF_LITE_MED_RANGE_DEFAULT;
 324:D:/Git/VL53L1/lib/core/src\vl53l1_api_preset_modes.c **** 	pdata->tp_init_phase_ref_lite_short        =
 350              		.loc 1 324 2 is_stmt 1 view .LVU128
 351              		.loc 1 324 45 is_stmt 0 view .LVU129
 352 0024 DA72     		strb	r2, [r3, #11]
 325:D:/Git/VL53L1/lib/core/src\vl53l1_api_preset_modes.c **** 			VL53L1_TUNINGPARM_INITIAL_PHASE_REF_LITE_SHORT_RANGE_DEFAULT;
 326:D:/Git/VL53L1/lib/core/src\vl53l1_api_preset_modes.c **** 	pdata->tp_consistency_lite_phase_tolerance =
 353              		.loc 1 326 2 is_stmt 1 view .LVU130
 354              		.loc 1 326 45 is_stmt 0 view .LVU131
 355 0026 0221     		movs	r1, #2
ARM GAS  C:\Users\Berbardo\AppData\Local\Temp\ccQolnPL.s 			page 13


 356 0028 1973     		strb	r1, [r3, #12]
 327:D:/Git/VL53L1/lib/core/src\vl53l1_api_preset_modes.c **** 			VL53L1_TUNINGPARM_CONSISTENCY_LITE_PHASE_TOLERANCE_DEFAULT;
 328:D:/Git/VL53L1/lib/core/src\vl53l1_api_preset_modes.c **** 	pdata->tp_phasecal_target                  =
 357              		.loc 1 328 2 is_stmt 1 view .LVU132
 358              		.loc 1 328 45 is_stmt 0 view .LVU133
 359 002a 2122     		movs	r2, #33
 360 002c 5A73     		strb	r2, [r3, #13]
 329:D:/Git/VL53L1/lib/core/src\vl53l1_api_preset_modes.c **** 			VL53L1_TUNINGPARM_PHASECAL_TARGET_DEFAULT;
 330:D:/Git/VL53L1/lib/core/src\vl53l1_api_preset_modes.c **** 	pdata->tp_cal_repeat_rate                  =
 361              		.loc 1 330 2 is_stmt 1 view .LVU134
 362              		.loc 1 330 45 is_stmt 0 view .LVU135
 363 002e 0020     		movs	r0, #0
 364 0030 D881     		strh	r0, [r3, #14]	@ movhi
 331:D:/Git/VL53L1/lib/core/src\vl53l1_api_preset_modes.c **** 			VL53L1_TUNINGPARM_LITE_CAL_REPEAT_RATE_DEFAULT;
 332:D:/Git/VL53L1/lib/core/src\vl53l1_api_preset_modes.c **** 	pdata->tp_lite_min_clip                    =
 365              		.loc 1 332 2 is_stmt 1 view .LVU136
 366              		.loc 1 332 45 is_stmt 0 view .LVU137
 367 0032 1874     		strb	r0, [r3, #16]
 333:D:/Git/VL53L1/lib/core/src\vl53l1_api_preset_modes.c **** 			VL53L1_TUNINGPARM_LITE_MIN_CLIP_MM_DEFAULT;
 334:D:/Git/VL53L1/lib/core/src\vl53l1_api_preset_modes.c **** 	pdata->tp_lite_long_sigma_thresh_mm        =
 368              		.loc 1 334 2 is_stmt 1 view .LVU138
 369              		.loc 1 334 45 is_stmt 0 view .LVU139
 370 0034 4FF4B472 		mov	r2, #360
 371 0038 5A82     		strh	r2, [r3, #18]	@ movhi
 335:D:/Git/VL53L1/lib/core/src\vl53l1_api_preset_modes.c **** 			VL53L1_TUNINGPARM_LITE_LONG_SIGMA_THRESH_MM_DEFAULT;
 336:D:/Git/VL53L1/lib/core/src\vl53l1_api_preset_modes.c **** 	pdata->tp_lite_med_sigma_thresh_mm         =
 372              		.loc 1 336 2 is_stmt 1 view .LVU140
 373              		.loc 1 336 45 is_stmt 0 view .LVU141
 374 003a 9A82     		strh	r2, [r3, #20]	@ movhi
 337:D:/Git/VL53L1/lib/core/src\vl53l1_api_preset_modes.c **** 			VL53L1_TUNINGPARM_LITE_MED_SIGMA_THRESH_MM_DEFAULT;
 338:D:/Git/VL53L1/lib/core/src\vl53l1_api_preset_modes.c **** 	pdata->tp_lite_short_sigma_thresh_mm       =
 375              		.loc 1 338 2 is_stmt 1 view .LVU142
 376              		.loc 1 338 45 is_stmt 0 view .LVU143
 377 003c DA82     		strh	r2, [r3, #22]	@ movhi
 339:D:/Git/VL53L1/lib/core/src\vl53l1_api_preset_modes.c **** 			VL53L1_TUNINGPARM_LITE_SHORT_SIGMA_THRESH_MM_DEFAULT;
 340:D:/Git/VL53L1/lib/core/src\vl53l1_api_preset_modes.c **** 	pdata->tp_lite_long_min_count_rate_rtn_mcps  =
 378              		.loc 1 340 2 is_stmt 1 view .LVU144
 379              		.loc 1 340 47 is_stmt 0 view .LVU145
 380 003e C022     		movs	r2, #192
 381 0040 1A83     		strh	r2, [r3, #24]	@ movhi
 341:D:/Git/VL53L1/lib/core/src\vl53l1_api_preset_modes.c **** 			VL53L1_TUNINGPARM_LITE_LONG_MIN_COUNT_RATE_RTN_MCPS_DEFAULT;
 342:D:/Git/VL53L1/lib/core/src\vl53l1_api_preset_modes.c **** 	pdata->tp_lite_med_min_count_rate_rtn_mcps   =
 382              		.loc 1 342 2 is_stmt 1 view .LVU146
 383              		.loc 1 342 47 is_stmt 0 view .LVU147
 384 0042 5A83     		strh	r2, [r3, #26]	@ movhi
 343:D:/Git/VL53L1/lib/core/src\vl53l1_api_preset_modes.c **** 			VL53L1_TUNINGPARM_LITE_MED_MIN_COUNT_RATE_RTN_MCPS_DEFAULT;
 344:D:/Git/VL53L1/lib/core/src\vl53l1_api_preset_modes.c **** 	pdata->tp_lite_short_min_count_rate_rtn_mcps =
 385              		.loc 1 344 2 is_stmt 1 view .LVU148
 386              		.loc 1 344 47 is_stmt 0 view .LVU149
 387 0044 9A83     		strh	r2, [r3, #28]	@ movhi
 345:D:/Git/VL53L1/lib/core/src\vl53l1_api_preset_modes.c **** 			VL53L1_TUNINGPARM_LITE_SHORT_MIN_COUNT_RATE_RTN_MCPS_DEFAULT;
 346:D:/Git/VL53L1/lib/core/src\vl53l1_api_preset_modes.c **** 	pdata->tp_lite_sigma_est_pulse_width_ns      =
 388              		.loc 1 346 2 is_stmt 1 view .LVU150
 389              		.loc 1 346 47 is_stmt 0 view .LVU151
 390 0046 0822     		movs	r2, #8
 391 0048 9A77     		strb	r2, [r3, #30]
 347:D:/Git/VL53L1/lib/core/src\vl53l1_api_preset_modes.c **** 			VL53L1_TUNINGPARM_LITE_SIGMA_EST_PULSE_WIDTH_DEFAULT;
ARM GAS  C:\Users\Berbardo\AppData\Local\Temp\ccQolnPL.s 			page 14


 348:D:/Git/VL53L1/lib/core/src\vl53l1_api_preset_modes.c **** 	pdata->tp_lite_sigma_est_amb_width_ns        =
 392              		.loc 1 348 2 is_stmt 1 view .LVU152
 393              		.loc 1 348 47 is_stmt 0 view .LVU153
 394 004a 1022     		movs	r2, #16
 395 004c DA77     		strb	r2, [r3, #31]
 349:D:/Git/VL53L1/lib/core/src\vl53l1_api_preset_modes.c **** 			VL53L1_TUNINGPARM_LITE_SIGMA_EST_AMB_WIDTH_NS_DEFAULT;
 350:D:/Git/VL53L1/lib/core/src\vl53l1_api_preset_modes.c **** 	pdata->tp_lite_sigma_ref_mm                  =
 396              		.loc 1 350 2 is_stmt 1 view .LVU154
 397              		.loc 1 350 47 is_stmt 0 view .LVU155
 398 004e 0122     		movs	r2, #1
 399 0050 83F82020 		strb	r2, [r3, #32]
 351:D:/Git/VL53L1/lib/core/src\vl53l1_api_preset_modes.c **** 			VL53L1_TUNINGPARM_LITE_SIGMA_REF_MM_DEFAULT;
 352:D:/Git/VL53L1/lib/core/src\vl53l1_api_preset_modes.c **** 	pdata->tp_lite_seed_cfg                      =
 400              		.loc 1 352 2 is_stmt 1 view .LVU156
 401              		.loc 1 352 47 is_stmt 0 view .LVU157
 402 0054 83F82110 		strb	r1, [r3, #33]
 353:D:/Git/VL53L1/lib/core/src\vl53l1_api_preset_modes.c **** 			VL53L1_TUNINGPARM_LITE_SEED_CONFIG_DEFAULT;
 354:D:/Git/VL53L1/lib/core/src\vl53l1_api_preset_modes.c **** 	pdata->tp_timed_seed_cfg                     =
 403              		.loc 1 354 2 is_stmt 1 view .LVU158
 404              		.loc 1 354 47 is_stmt 0 view .LVU159
 405 0058 83F82220 		strb	r2, [r3, #34]
 355:D:/Git/VL53L1/lib/core/src\vl53l1_api_preset_modes.c **** 			VL53L1_TUNINGPARM_TIMED_SEED_CONFIG_DEFAULT;
 356:D:/Git/VL53L1/lib/core/src\vl53l1_api_preset_modes.c **** 	pdata->tp_lite_quantifier                    =
 406              		.loc 1 356 2 is_stmt 1 view .LVU160
 407              		.loc 1 356 47 is_stmt 0 view .LVU161
 408 005c 83F82310 		strb	r1, [r3, #35]
 357:D:/Git/VL53L1/lib/core/src\vl53l1_api_preset_modes.c **** 			VL53L1_TUNINGPARM_LITE_QUANTIFIER_DEFAULT;
 358:D:/Git/VL53L1/lib/core/src\vl53l1_api_preset_modes.c **** 	pdata->tp_lite_first_order_select            =
 409              		.loc 1 358 2 is_stmt 1 view .LVU162
 410              		.loc 1 358 47 is_stmt 0 view .LVU163
 411 0060 83F82400 		strb	r0, [r3, #36]
 359:D:/Git/VL53L1/lib/core/src\vl53l1_api_preset_modes.c **** 			VL53L1_TUNINGPARM_LITE_FIRST_ORDER_SELECT_DEFAULT;
 360:D:/Git/VL53L1/lib/core/src\vl53l1_api_preset_modes.c **** 
 361:D:/Git/VL53L1/lib/core/src\vl53l1_api_preset_modes.c **** 	/* Preset Mode Configurations */
 362:D:/Git/VL53L1/lib/core/src\vl53l1_api_preset_modes.c **** 	/* - New parms added as part of Patch_TuningParmPresetModeAddition_11839 */
 363:D:/Git/VL53L1/lib/core/src\vl53l1_api_preset_modes.c **** 
 364:D:/Git/VL53L1/lib/core/src\vl53l1_api_preset_modes.c **** 	pdata->tp_dss_target_lite_mcps               =
 412              		.loc 1 364 2 is_stmt 1 view .LVU164
 413              		.loc 1 364 47 is_stmt 0 view .LVU165
 414 0064 4FF42061 		mov	r1, #2560
 415 0068 D984     		strh	r1, [r3, #38]	@ movhi
 365:D:/Git/VL53L1/lib/core/src\vl53l1_api_preset_modes.c **** 			VL53L1_TUNINGPARM_LITE_DSS_CONFIG_TARGET_TOTAL_RATE_MCPS_DEFAULT;
 366:D:/Git/VL53L1/lib/core/src\vl53l1_api_preset_modes.c **** 	pdata->tp_dss_target_timed_mcps              =
 416              		.loc 1 366 2 is_stmt 1 view .LVU166
 417              		.loc 1 366 47 is_stmt 0 view .LVU167
 418 006a 1985     		strh	r1, [r3, #40]	@ movhi
 367:D:/Git/VL53L1/lib/core/src\vl53l1_api_preset_modes.c **** 			VL53L1_TUNINGPARM_TIMED_DSS_CONFIG_TARGET_TOTAL_RATE_MCPS_DEFAULT;
 368:D:/Git/VL53L1/lib/core/src\vl53l1_api_preset_modes.c **** 	pdata->tp_phasecal_timeout_lite_us           =
 419              		.loc 1 368 2 is_stmt 1 view .LVU168
 420              		.loc 1 368 47 is_stmt 0 view .LVU169
 421 006c 48F23001 		movw	r1, #32816
 422 0070 D962     		str	r1, [r3, #44]
 369:D:/Git/VL53L1/lib/core/src\vl53l1_api_preset_modes.c **** 			VL53L1_TUNINGPARM_LITE_PHASECAL_CONFIG_TIMEOUT_US;
 370:D:/Git/VL53L1/lib/core/src\vl53l1_api_preset_modes.c **** 	pdata->tp_phasecal_timeout_timed_us          =
 423              		.loc 1 370 2 is_stmt 1 view .LVU170
 424              		.loc 1 370 47 is_stmt 0 view .LVU171
 425 0072 4FF47A71 		mov	r1, #1000
ARM GAS  C:\Users\Berbardo\AppData\Local\Temp\ccQolnPL.s 			page 15


 426 0076 1963     		str	r1, [r3, #48]
 371:D:/Git/VL53L1/lib/core/src\vl53l1_api_preset_modes.c **** 			VL53L1_TUNINGPARM_TIMED_PHASECAL_CONFIG_TIMEOUT_US_DEFAULT;
 372:D:/Git/VL53L1/lib/core/src\vl53l1_api_preset_modes.c **** 	pdata->tp_mm_timeout_lite_us                 =
 427              		.loc 1 372 2 is_stmt 1 view .LVU172
 428              		.loc 1 372 47 is_stmt 0 view .LVU173
 429 0078 4FF4FA61 		mov	r1, #2000
 430 007c 5963     		str	r1, [r3, #52]
 373:D:/Git/VL53L1/lib/core/src\vl53l1_api_preset_modes.c **** 			VL53L1_TUNINGPARM_LITE_MM_CONFIG_TIMEOUT_US_DEFAULT;
 374:D:/Git/VL53L1/lib/core/src\vl53l1_api_preset_modes.c **** 	pdata->tp_mm_timeout_timed_us                =
 431              		.loc 1 374 2 is_stmt 1 view .LVU174
 432              		.loc 1 374 47 is_stmt 0 view .LVU175
 433 007e 9963     		str	r1, [r3, #56]
 375:D:/Git/VL53L1/lib/core/src\vl53l1_api_preset_modes.c **** 			VL53L1_TUNINGPARM_TIMED_MM_CONFIG_TIMEOUT_US_DEFAULT;
 376:D:/Git/VL53L1/lib/core/src\vl53l1_api_preset_modes.c **** 	pdata->tp_range_timeout_lite_us              =
 434              		.loc 1 376 2 is_stmt 1 view .LVU176
 435              		.loc 1 376 47 is_stmt 0 view .LVU177
 436 0080 4FF21861 		movw	r1, #63000
 437 0084 1964     		str	r1, [r3, #64]
 377:D:/Git/VL53L1/lib/core/src\vl53l1_api_preset_modes.c **** 			VL53L1_TUNINGPARM_LITE_RANGE_CONFIG_TIMEOUT_US_DEFAULT;
 378:D:/Git/VL53L1/lib/core/src\vl53l1_api_preset_modes.c **** 	pdata->tp_range_timeout_timed_us             =
 438              		.loc 1 378 2 is_stmt 1 view .LVU178
 439              		.loc 1 378 47 is_stmt 0 view .LVU179
 440 0086 43F2C821 		movw	r1, #13000
 441 008a 5964     		str	r1, [r3, #68]
 379:D:/Git/VL53L1/lib/core/src\vl53l1_api_preset_modes.c **** 			VL53L1_TUNINGPARM_TIMED_RANGE_CONFIG_TIMEOUT_US_DEFAULT;
 380:D:/Git/VL53L1/lib/core/src\vl53l1_api_preset_modes.c **** 
 381:D:/Git/VL53L1/lib/core/src\vl53l1_api_preset_modes.c **** 	/* Added for Patch_LowPowerAutoMode */
 382:D:/Git/VL53L1/lib/core/src\vl53l1_api_preset_modes.c **** 
 383:D:/Git/VL53L1/lib/core/src\vl53l1_api_preset_modes.c **** 	pdata->tp_mm_timeout_lpa_us =
 442              		.loc 1 383 2 is_stmt 1 view .LVU180
 443              		.loc 1 383 30 is_stmt 0 view .LVU181
 444 008c DA63     		str	r2, [r3, #60]
 384:D:/Git/VL53L1/lib/core/src\vl53l1_api_preset_modes.c **** 			VL53L1_TUNINGPARM_LOWPOWERAUTO_MM_CONFIG_TIMEOUT_US_DEFAULT;
 385:D:/Git/VL53L1/lib/core/src\vl53l1_api_preset_modes.c **** 	pdata->tp_range_timeout_lpa_us =
 445              		.loc 1 385 2 is_stmt 1 view .LVU182
 446              		.loc 1 385 33 is_stmt 0 view .LVU183
 447 008e 4FF4FA52 		mov	r2, #8000
 448 0092 9A64     		str	r2, [r3, #72]
 386:D:/Git/VL53L1/lib/core/src\vl53l1_api_preset_modes.c **** 			VL53L1_TUNINGPARM_LOWPOWERAUTO_RANGE_CONFIG_TIMEOUT_US_DEFAULT;
 387:D:/Git/VL53L1/lib/core/src\vl53l1_api_preset_modes.c **** 
 388:D:/Git/VL53L1/lib/core/src\vl53l1_api_preset_modes.c **** 
 389:D:/Git/VL53L1/lib/core/src\vl53l1_api_preset_modes.c **** 	LOG_FUNCTION_END(status);
 449              		.loc 1 389 26 is_stmt 1 view .LVU184
 390:D:/Git/VL53L1/lib/core/src\vl53l1_api_preset_modes.c **** 
 391:D:/Git/VL53L1/lib/core/src\vl53l1_api_preset_modes.c **** 	return status;
 450              		.loc 1 391 2 view .LVU185
 392:D:/Git/VL53L1/lib/core/src\vl53l1_api_preset_modes.c **** }
 451              		.loc 1 392 1 is_stmt 0 view .LVU186
 452 0094 7047     		bx	lr
 453              		.cfi_endproc
 454              	.LFE130:
 456              		.section	.text.VL53L1_preset_mode_standard_ranging,"ax",%progbits
 457              		.align	1
 458              		.global	VL53L1_preset_mode_standard_ranging
 459              		.syntax unified
 460              		.thumb
 461              		.thumb_func
ARM GAS  C:\Users\Berbardo\AppData\Local\Temp\ccQolnPL.s 			page 16


 462              		.fpu fpv4-sp-d16
 464              	VL53L1_preset_mode_standard_ranging:
 465              	.LVL17:
 466              	.LFB131:
 393:D:/Git/VL53L1/lib/core/src\vl53l1_api_preset_modes.c **** 
 394:D:/Git/VL53L1/lib/core/src\vl53l1_api_preset_modes.c **** 
 395:D:/Git/VL53L1/lib/core/src\vl53l1_api_preset_modes.c **** VL53L1_Error VL53L1_preset_mode_standard_ranging(
 396:D:/Git/VL53L1/lib/core/src\vl53l1_api_preset_modes.c **** 	VL53L1_static_config_t    *pstatic,
 397:D:/Git/VL53L1/lib/core/src\vl53l1_api_preset_modes.c **** 	VL53L1_general_config_t   *pgeneral,
 398:D:/Git/VL53L1/lib/core/src\vl53l1_api_preset_modes.c **** 	VL53L1_timing_config_t    *ptiming,
 399:D:/Git/VL53L1/lib/core/src\vl53l1_api_preset_modes.c **** 	VL53L1_dynamic_config_t   *pdynamic,
 400:D:/Git/VL53L1/lib/core/src\vl53l1_api_preset_modes.c **** 	VL53L1_system_control_t   *psystem,
 401:D:/Git/VL53L1/lib/core/src\vl53l1_api_preset_modes.c **** 	VL53L1_tuning_parm_storage_t *ptuning_parms)
 402:D:/Git/VL53L1/lib/core/src\vl53l1_api_preset_modes.c **** {
 467              		.loc 1 402 1 is_stmt 1 view -0
 468              		.cfi_startproc
 469              		@ args = 8, pretend = 0, frame = 0
 470              		@ frame_needed = 0, uses_anonymous_args = 0
 471              		.loc 1 402 1 is_stmt 0 view .LVU188
 472 0000 2DE9F047 		push	{r4, r5, r6, r7, r8, r9, r10, lr}
 473              		.cfi_def_cfa_offset 32
 474              		.cfi_offset 4, -32
 475              		.cfi_offset 5, -28
 476              		.cfi_offset 6, -24
 477              		.cfi_offset 7, -20
 478              		.cfi_offset 8, -16
 479              		.cfi_offset 9, -12
 480              		.cfi_offset 10, -8
 481              		.cfi_offset 14, -4
 482 0004 0446     		mov	r4, r0
 483 0006 089F     		ldr	r7, [sp, #32]
 484 0008 099D     		ldr	r5, [sp, #36]
 403:D:/Git/VL53L1/lib/core/src\vl53l1_api_preset_modes.c **** 	/*
 404:D:/Git/VL53L1/lib/core/src\vl53l1_api_preset_modes.c **** 	 * Initializes static and dynamic data structures fordevice preset mode
 405:D:/Git/VL53L1/lib/core/src\vl53l1_api_preset_modes.c **** 	 * VL53L1_DEVICEPRESETMODE_STANDARD_RANGING
 406:D:/Git/VL53L1/lib/core/src\vl53l1_api_preset_modes.c **** 	 *
 407:D:/Git/VL53L1/lib/core/src\vl53l1_api_preset_modes.c **** 	 *  - streaming
 408:D:/Git/VL53L1/lib/core/src\vl53l1_api_preset_modes.c **** 	 *  - single sigma delta
 409:D:/Git/VL53L1/lib/core/src\vl53l1_api_preset_modes.c **** 	 *  - back to back
 410:D:/Git/VL53L1/lib/core/src\vl53l1_api_preset_modes.c **** 	 *
 411:D:/Git/VL53L1/lib/core/src\vl53l1_api_preset_modes.c **** 	 *  PLEASE NOTE THE SETTINGS BELOW AT PROVISIONAL AND WILL CHANGE!
 412:D:/Git/VL53L1/lib/core/src\vl53l1_api_preset_modes.c **** 	 */
 413:D:/Git/VL53L1/lib/core/src\vl53l1_api_preset_modes.c **** 
 414:D:/Git/VL53L1/lib/core/src\vl53l1_api_preset_modes.c **** 	VL53L1_Error  status = VL53L1_ERROR_NONE;
 485              		.loc 1 414 2 is_stmt 1 view .LVU189
 486              	.LVL18:
 415:D:/Git/VL53L1/lib/core/src\vl53l1_api_preset_modes.c **** 
 416:D:/Git/VL53L1/lib/core/src\vl53l1_api_preset_modes.c **** 	LOG_FUNCTION_START("");
 487              		.loc 1 416 24 view .LVU190
 417:D:/Git/VL53L1/lib/core/src\vl53l1_api_preset_modes.c **** 
 418:D:/Git/VL53L1/lib/core/src\vl53l1_api_preset_modes.c **** 	/* Static Configuration */
 419:D:/Git/VL53L1/lib/core/src\vl53l1_api_preset_modes.c **** 
 420:D:/Git/VL53L1/lib/core/src\vl53l1_api_preset_modes.c **** 	/* dss_config__target_total_rate_mcps = 20.0 Mcps 9.7 fp */
 421:D:/Git/VL53L1/lib/core/src\vl53l1_api_preset_modes.c **** 	pstatic->dss_config__target_total_rate_mcps               = 0x0A00;
 488              		.loc 1 421 2 view .LVU191
 489              		.loc 1 421 60 is_stmt 0 view .LVU192
 490 000a 4FF42060 		mov	r0, #2560
ARM GAS  C:\Users\Berbardo\AppData\Local\Temp\ccQolnPL.s 			page 17


 491              	.LVL19:
 492              		.loc 1 421 60 view .LVU193
 493 000e 2080     		strh	r0, [r4]	@ movhi
 422:D:/Git/VL53L1/lib/core/src\vl53l1_api_preset_modes.c **** 	pstatic->debug__ctrl                                      = 0x00;
 494              		.loc 1 422 2 is_stmt 1 view .LVU194
 495              		.loc 1 422 60 is_stmt 0 view .LVU195
 496 0010 0020     		movs	r0, #0
 497 0012 A070     		strb	r0, [r4, #2]
 423:D:/Git/VL53L1/lib/core/src\vl53l1_api_preset_modes.c **** 	pstatic->test_mode__ctrl                                  = 0x00;
 498              		.loc 1 423 2 is_stmt 1 view .LVU196
 499              		.loc 1 423 60 is_stmt 0 view .LVU197
 500 0014 E070     		strb	r0, [r4, #3]
 424:D:/Git/VL53L1/lib/core/src\vl53l1_api_preset_modes.c **** 	pstatic->clk_gating__ctrl                                 = 0x00;
 501              		.loc 1 424 2 is_stmt 1 view .LVU198
 502              		.loc 1 424 60 is_stmt 0 view .LVU199
 503 0016 2071     		strb	r0, [r4, #4]
 425:D:/Git/VL53L1/lib/core/src\vl53l1_api_preset_modes.c **** 	pstatic->nvm_bist__ctrl                                   = 0x00;
 504              		.loc 1 425 2 is_stmt 1 view .LVU200
 505              		.loc 1 425 60 is_stmt 0 view .LVU201
 506 0018 6071     		strb	r0, [r4, #5]
 426:D:/Git/VL53L1/lib/core/src\vl53l1_api_preset_modes.c **** 	pstatic->nvm_bist__num_nvm_words                          = 0x00;
 507              		.loc 1 426 2 is_stmt 1 view .LVU202
 508              		.loc 1 426 60 is_stmt 0 view .LVU203
 509 001a A071     		strb	r0, [r4, #6]
 427:D:/Git/VL53L1/lib/core/src\vl53l1_api_preset_modes.c **** 	pstatic->nvm_bist__start_address                          = 0x00;
 510              		.loc 1 427 2 is_stmt 1 view .LVU204
 511              		.loc 1 427 60 is_stmt 0 view .LVU205
 512 001c E071     		strb	r0, [r4, #7]
 428:D:/Git/VL53L1/lib/core/src\vl53l1_api_preset_modes.c **** 	pstatic->host_if__status                                  = 0x00;
 513              		.loc 1 428 2 is_stmt 1 view .LVU206
 514              		.loc 1 428 60 is_stmt 0 view .LVU207
 515 001e 2072     		strb	r0, [r4, #8]
 429:D:/Git/VL53L1/lib/core/src\vl53l1_api_preset_modes.c **** 	pstatic->pad_i2c_hv__config                               = 0x00;
 516              		.loc 1 429 2 is_stmt 1 view .LVU208
 517              		.loc 1 429 60 is_stmt 0 view .LVU209
 518 0020 6072     		strb	r0, [r4, #9]
 430:D:/Git/VL53L1/lib/core/src\vl53l1_api_preset_modes.c **** 	pstatic->pad_i2c_hv__extsup_config                        = 0x00;
 519              		.loc 1 430 2 is_stmt 1 view .LVU210
 520              		.loc 1 430 60 is_stmt 0 view .LVU211
 521 0022 A072     		strb	r0, [r4, #10]
 431:D:/Git/VL53L1/lib/core/src\vl53l1_api_preset_modes.c **** 
 432:D:/Git/VL53L1/lib/core/src\vl53l1_api_preset_modes.c **** 	/*
 433:D:/Git/VL53L1/lib/core/src\vl53l1_api_preset_modes.c **** 	 *  0 - gpio__extsup_hv
 434:D:/Git/VL53L1/lib/core/src\vl53l1_api_preset_modes.c **** 	 *  1 - gpio__vmodeint_hv
 435:D:/Git/VL53L1/lib/core/src\vl53l1_api_preset_modes.c **** 	 */
 436:D:/Git/VL53L1/lib/core/src\vl53l1_api_preset_modes.c **** 	pstatic->gpio_hv_pad__ctrl                                = 0x00;
 522              		.loc 1 436 2 is_stmt 1 view .LVU212
 523              		.loc 1 436 60 is_stmt 0 view .LVU213
 524 0024 E072     		strb	r0, [r4, #11]
 437:D:/Git/VL53L1/lib/core/src\vl53l1_api_preset_modes.c **** 
 438:D:/Git/VL53L1/lib/core/src\vl53l1_api_preset_modes.c **** 	/*
 439:D:/Git/VL53L1/lib/core/src\vl53l1_api_preset_modes.c **** 	 * Set interrupt active low
 440:D:/Git/VL53L1/lib/core/src\vl53l1_api_preset_modes.c **** 	 *
 441:D:/Git/VL53L1/lib/core/src\vl53l1_api_preset_modes.c **** 	 *  3:0 - gpio__mux_select_hv
 442:D:/Git/VL53L1/lib/core/src\vl53l1_api_preset_modes.c **** 	 *    4 - gpio__mux_active_high_hv
 443:D:/Git/VL53L1/lib/core/src\vl53l1_api_preset_modes.c **** 	 */
 444:D:/Git/VL53L1/lib/core/src\vl53l1_api_preset_modes.c **** 	pstatic->gpio_hv_mux__ctrl  = \
ARM GAS  C:\Users\Berbardo\AppData\Local\Temp\ccQolnPL.s 			page 18


 525              		.loc 1 444 2 is_stmt 1 view .LVU214
 526              		.loc 1 444 30 is_stmt 0 view .LVU215
 527 0026 1126     		movs	r6, #17
 528 0028 2673     		strb	r6, [r4, #12]
 445:D:/Git/VL53L1/lib/core/src\vl53l1_api_preset_modes.c **** 			VL53L1_DEVICEINTERRUPTPOLARITY_ACTIVE_LOW | \
 446:D:/Git/VL53L1/lib/core/src\vl53l1_api_preset_modes.c **** 			VL53L1_DEVICEGPIOMODE_OUTPUT_RANGE_AND_ERROR_INTERRUPTS;
 447:D:/Git/VL53L1/lib/core/src\vl53l1_api_preset_modes.c **** 
 448:D:/Git/VL53L1/lib/core/src\vl53l1_api_preset_modes.c **** 	pstatic->gpio__tio_hv_status                              = 0x02;
 529              		.loc 1 448 2 is_stmt 1 view .LVU216
 530              		.loc 1 448 60 is_stmt 0 view .LVU217
 531 002a 4FF0020C 		mov	ip, #2
 532 002e 84F80DC0 		strb	ip, [r4, #13]
 449:D:/Git/VL53L1/lib/core/src\vl53l1_api_preset_modes.c **** 	pstatic->gpio__fio_hv_status                              = 0x00;
 533              		.loc 1 449 2 is_stmt 1 view .LVU218
 534              		.loc 1 449 60 is_stmt 0 view .LVU219
 535 0032 A073     		strb	r0, [r4, #14]
 450:D:/Git/VL53L1/lib/core/src\vl53l1_api_preset_modes.c **** 	pstatic->ana_config__spad_sel_pswidth                     = 0x02;
 536              		.loc 1 450 2 is_stmt 1 view .LVU220
 537              		.loc 1 450 60 is_stmt 0 view .LVU221
 538 0034 84F80FC0 		strb	ip, [r4, #15]
 451:D:/Git/VL53L1/lib/core/src\vl53l1_api_preset_modes.c **** 	pstatic->ana_config__vcsel_pulse_width_offset             = 0x08;
 539              		.loc 1 451 2 is_stmt 1 view .LVU222
 540              		.loc 1 451 60 is_stmt 0 view .LVU223
 541 0038 4FF00808 		mov	r8, #8
 542 003c 84F81080 		strb	r8, [r4, #16]
 452:D:/Git/VL53L1/lib/core/src\vl53l1_api_preset_modes.c **** 	pstatic->ana_config__fast_osc__config_ctrl                = 0x00;
 543              		.loc 1 452 2 is_stmt 1 view .LVU224
 544              		.loc 1 452 60 is_stmt 0 view .LVU225
 545 0040 6074     		strb	r0, [r4, #17]
 453:D:/Git/VL53L1/lib/core/src\vl53l1_api_preset_modes.c **** 
 454:D:/Git/VL53L1/lib/core/src\vl53l1_api_preset_modes.c **** 	pstatic->sigma_estimator__effective_pulse_width_ns        =
 546              		.loc 1 454 2 is_stmt 1 view .LVU226
 455:D:/Git/VL53L1/lib/core/src\vl53l1_api_preset_modes.c **** 			ptuning_parms->tp_lite_sigma_est_pulse_width_ns;
 547              		.loc 1 455 17 is_stmt 0 view .LVU227
 548 0042 AE7F     		ldrb	r6, [r5, #30]	@ zero_extendqisi2
 454:D:/Git/VL53L1/lib/core/src\vl53l1_api_preset_modes.c **** 			ptuning_parms->tp_lite_sigma_est_pulse_width_ns;
 549              		.loc 1 454 60 view .LVU228
 550 0044 A674     		strb	r6, [r4, #18]
 456:D:/Git/VL53L1/lib/core/src\vl53l1_api_preset_modes.c **** 	pstatic->sigma_estimator__effective_ambient_width_ns      =
 551              		.loc 1 456 2 is_stmt 1 view .LVU229
 457:D:/Git/VL53L1/lib/core/src\vl53l1_api_preset_modes.c **** 			ptuning_parms->tp_lite_sigma_est_amb_width_ns;
 552              		.loc 1 457 17 is_stmt 0 view .LVU230
 553 0046 EE7F     		ldrb	r6, [r5, #31]	@ zero_extendqisi2
 456:D:/Git/VL53L1/lib/core/src\vl53l1_api_preset_modes.c **** 	pstatic->sigma_estimator__effective_ambient_width_ns      =
 554              		.loc 1 456 60 view .LVU231
 555 0048 E674     		strb	r6, [r4, #19]
 458:D:/Git/VL53L1/lib/core/src\vl53l1_api_preset_modes.c **** 	pstatic->sigma_estimator__sigma_ref_mm                    =
 556              		.loc 1 458 2 is_stmt 1 view .LVU232
 459:D:/Git/VL53L1/lib/core/src\vl53l1_api_preset_modes.c **** 			ptuning_parms->tp_lite_sigma_ref_mm;
 557              		.loc 1 459 17 is_stmt 0 view .LVU233
 558 004a 95F82060 		ldrb	r6, [r5, #32]	@ zero_extendqisi2
 458:D:/Git/VL53L1/lib/core/src\vl53l1_api_preset_modes.c **** 	pstatic->sigma_estimator__sigma_ref_mm                    =
 559              		.loc 1 458 60 view .LVU234
 560 004e 2675     		strb	r6, [r4, #20]
 460:D:/Git/VL53L1/lib/core/src\vl53l1_api_preset_modes.c **** 	/* Minimum allowable value of 1 - 0 disables the feature */
 461:D:/Git/VL53L1/lib/core/src\vl53l1_api_preset_modes.c **** 	pstatic->algo__crosstalk_compensation_valid_height_mm     = 0x01;
 561              		.loc 1 461 2 is_stmt 1 view .LVU235
ARM GAS  C:\Users\Berbardo\AppData\Local\Temp\ccQolnPL.s 			page 19


 562              		.loc 1 461 60 is_stmt 0 view .LVU236
 563 0050 0126     		movs	r6, #1
 564 0052 6675     		strb	r6, [r4, #21]
 462:D:/Git/VL53L1/lib/core/src\vl53l1_api_preset_modes.c **** 	pstatic->spare_host_config__static_config_spare_0         = 0x00;
 565              		.loc 1 462 2 is_stmt 1 view .LVU237
 566              		.loc 1 462 60 is_stmt 0 view .LVU238
 567 0054 A075     		strb	r0, [r4, #22]
 463:D:/Git/VL53L1/lib/core/src\vl53l1_api_preset_modes.c **** 	pstatic->spare_host_config__static_config_spare_1         = 0x00;
 568              		.loc 1 463 2 is_stmt 1 view .LVU239
 569              		.loc 1 463 60 is_stmt 0 view .LVU240
 570 0056 E075     		strb	r0, [r4, #23]
 464:D:/Git/VL53L1/lib/core/src\vl53l1_api_preset_modes.c **** 
 465:D:/Git/VL53L1/lib/core/src\vl53l1_api_preset_modes.c **** 	pstatic->algo__range_ignore_threshold_mcps                = 0x0000;
 571              		.loc 1 465 2 is_stmt 1 view .LVU241
 572              		.loc 1 465 60 is_stmt 0 view .LVU242
 573 0058 2083     		strh	r0, [r4, #24]	@ movhi
 466:D:/Git/VL53L1/lib/core/src\vl53l1_api_preset_modes.c **** 
 467:D:/Git/VL53L1/lib/core/src\vl53l1_api_preset_modes.c **** 	/* set RIT distance to 20 mm */
 468:D:/Git/VL53L1/lib/core/src\vl53l1_api_preset_modes.c **** 	pstatic->algo__range_ignore_valid_height_mm               = 0xff;
 574              		.loc 1 468 2 is_stmt 1 view .LVU243
 575              		.loc 1 468 60 is_stmt 0 view .LVU244
 576 005a 4FF0FF0E 		mov	lr, #255
 577 005e 84F81AE0 		strb	lr, [r4, #26]
 469:D:/Git/VL53L1/lib/core/src\vl53l1_api_preset_modes.c **** 	pstatic->algo__range_min_clip                             =
 578              		.loc 1 469 2 is_stmt 1 view .LVU245
 470:D:/Git/VL53L1/lib/core/src\vl53l1_api_preset_modes.c **** 			ptuning_parms->tp_lite_min_clip;
 579              		.loc 1 470 17 is_stmt 0 view .LVU246
 580 0062 95F81090 		ldrb	r9, [r5, #16]	@ zero_extendqisi2
 469:D:/Git/VL53L1/lib/core/src\vl53l1_api_preset_modes.c **** 	pstatic->algo__range_min_clip                             =
 581              		.loc 1 469 60 view .LVU247
 582 0066 84F81B90 		strb	r9, [r4, #27]
 471:D:/Git/VL53L1/lib/core/src\vl53l1_api_preset_modes.c **** 	/*
 472:D:/Git/VL53L1/lib/core/src\vl53l1_api_preset_modes.c **** 	 * Phase consistency check limit - format 1.3 fp
 473:D:/Git/VL53L1/lib/core/src\vl53l1_api_preset_modes.c **** 	 * 0x02 -> 0.25
 474:D:/Git/VL53L1/lib/core/src\vl53l1_api_preset_modes.c **** 	 * 0x08 -> 1.00
 475:D:/Git/VL53L1/lib/core/src\vl53l1_api_preset_modes.c **** 	 */
 476:D:/Git/VL53L1/lib/core/src\vl53l1_api_preset_modes.c **** 	pstatic->algo__consistency_check__tolerance               =
 583              		.loc 1 476 2 is_stmt 1 view .LVU248
 477:D:/Git/VL53L1/lib/core/src\vl53l1_api_preset_modes.c **** 			ptuning_parms->tp_consistency_lite_phase_tolerance;
 584              		.loc 1 477 17 is_stmt 0 view .LVU249
 585 006a 95F80C90 		ldrb	r9, [r5, #12]	@ zero_extendqisi2
 476:D:/Git/VL53L1/lib/core/src\vl53l1_api_preset_modes.c **** 			ptuning_parms->tp_consistency_lite_phase_tolerance;
 586              		.loc 1 476 60 view .LVU250
 587 006e 84F81C90 		strb	r9, [r4, #28]
 478:D:/Git/VL53L1/lib/core/src\vl53l1_api_preset_modes.c **** 	pstatic->spare_host_config__static_config_spare_2         = 0x00;
 588              		.loc 1 478 2 is_stmt 1 view .LVU251
 589              		.loc 1 478 60 is_stmt 0 view .LVU252
 590 0072 6077     		strb	r0, [r4, #29]
 479:D:/Git/VL53L1/lib/core/src\vl53l1_api_preset_modes.c **** 	pstatic->sd_config__reset_stages_msb                      = 0x00;
 591              		.loc 1 479 2 is_stmt 1 view .LVU253
 592              		.loc 1 479 60 is_stmt 0 view .LVU254
 593 0074 A077     		strb	r0, [r4, #30]
 480:D:/Git/VL53L1/lib/core/src\vl53l1_api_preset_modes.c **** 	pstatic->sd_config__reset_stages_lsb                      = 0x00;
 594              		.loc 1 480 2 is_stmt 1 view .LVU255
 595              		.loc 1 480 60 is_stmt 0 view .LVU256
 596 0076 E077     		strb	r0, [r4, #31]
 481:D:/Git/VL53L1/lib/core/src\vl53l1_api_preset_modes.c **** 
ARM GAS  C:\Users\Berbardo\AppData\Local\Temp\ccQolnPL.s 			page 20


 482:D:/Git/VL53L1/lib/core/src\vl53l1_api_preset_modes.c **** 	pgeneral->gph_config__stream_count_update_value           = 0x00;
 597              		.loc 1 482 2 is_stmt 1 view .LVU257
 598              		.loc 1 482 60 is_stmt 0 view .LVU258
 599 0078 0870     		strb	r0, [r1]
 483:D:/Git/VL53L1/lib/core/src\vl53l1_api_preset_modes.c **** 	pgeneral->global_config__stream_divider                   = 0x00;
 600              		.loc 1 483 2 is_stmt 1 view .LVU259
 601              		.loc 1 483 60 is_stmt 0 view .LVU260
 602 007a 4870     		strb	r0, [r1, #1]
 484:D:/Git/VL53L1/lib/core/src\vl53l1_api_preset_modes.c **** 	pgeneral->system__interrupt_config_gpio =
 603              		.loc 1 484 2 is_stmt 1 view .LVU261
 604              		.loc 1 484 42 is_stmt 0 view .LVU262
 605 007c 4FF02009 		mov	r9, #32
 606 0080 81F80290 		strb	r9, [r1, #2]
 485:D:/Git/VL53L1/lib/core/src\vl53l1_api_preset_modes.c **** 			VL53L1_INTERRUPT_CONFIG_NEW_SAMPLE_READY;
 486:D:/Git/VL53L1/lib/core/src\vl53l1_api_preset_modes.c **** 	pgeneral->cal_config__vcsel_start                         = 0x0B;
 607              		.loc 1 486 2 is_stmt 1 view .LVU263
 608              		.loc 1 486 60 is_stmt 0 view .LVU264
 609 0084 0B24     		movs	r4, #11
 610              	.LVL20:
 611              		.loc 1 486 60 view .LVU265
 612 0086 CC70     		strb	r4, [r1, #3]
 487:D:/Git/VL53L1/lib/core/src\vl53l1_api_preset_modes.c **** 
 488:D:/Git/VL53L1/lib/core/src\vl53l1_api_preset_modes.c **** 	/*
 489:D:/Git/VL53L1/lib/core/src\vl53l1_api_preset_modes.c **** 	 * Set VHV / Phase Cal repeat rate to 1 every
 490:D:/Git/VL53L1/lib/core/src\vl53l1_api_preset_modes.c **** 	 * 60 * 60 ranges (once every minute @ 60Hz)
 491:D:/Git/VL53L1/lib/core/src\vl53l1_api_preset_modes.c **** 	 * 0 - disables
 492:D:/Git/VL53L1/lib/core/src\vl53l1_api_preset_modes.c **** 	 * 12-bit value -> 4095 max
 493:D:/Git/VL53L1/lib/core/src\vl53l1_api_preset_modes.c **** 	 */
 494:D:/Git/VL53L1/lib/core/src\vl53l1_api_preset_modes.c **** 	pgeneral->cal_config__repeat_rate                         =
 613              		.loc 1 494 2 is_stmt 1 view .LVU266
 495:D:/Git/VL53L1/lib/core/src\vl53l1_api_preset_modes.c **** 			ptuning_parms->tp_cal_repeat_rate;
 614              		.loc 1 495 17 is_stmt 0 view .LVU267
 615 0088 B5F80EA0 		ldrh	r10, [r5, #14]
 494:D:/Git/VL53L1/lib/core/src\vl53l1_api_preset_modes.c **** 			ptuning_parms->tp_cal_repeat_rate;
 616              		.loc 1 494 60 view .LVU268
 617 008c A1F804A0 		strh	r10, [r1, #4]	@ movhi
 496:D:/Git/VL53L1/lib/core/src\vl53l1_api_preset_modes.c **** 	pgeneral->global_config__vcsel_width                      = 0x02;
 618              		.loc 1 496 2 is_stmt 1 view .LVU269
 619              		.loc 1 496 60 is_stmt 0 view .LVU270
 620 0090 81F806C0 		strb	ip, [r1, #6]
 497:D:/Git/VL53L1/lib/core/src\vl53l1_api_preset_modes.c **** 	/* 13 macro periods gives a timeout of 1ms */
 498:D:/Git/VL53L1/lib/core/src\vl53l1_api_preset_modes.c **** 	pgeneral->phasecal_config__timeout_macrop                 = 0x0D;
 621              		.loc 1 498 2 is_stmt 1 view .LVU271
 622              		.loc 1 498 60 is_stmt 0 view .LVU272
 623 0094 4FF00D0A 		mov	r10, #13
 624 0098 81F807A0 		strb	r10, [r1, #7]
 499:D:/Git/VL53L1/lib/core/src\vl53l1_api_preset_modes.c **** 	/* Phase cal target phase 2.0625 - 4.4 fp -> 0x21*/
 500:D:/Git/VL53L1/lib/core/src\vl53l1_api_preset_modes.c **** 	pgeneral->phasecal_config__target                         =
 625              		.loc 1 500 2 is_stmt 1 view .LVU273
 501:D:/Git/VL53L1/lib/core/src\vl53l1_api_preset_modes.c **** 			ptuning_parms->tp_phasecal_target;
 626              		.loc 1 501 17 is_stmt 0 view .LVU274
 627 009c 95F80DA0 		ldrb	r10, [r5, #13]	@ zero_extendqisi2
 500:D:/Git/VL53L1/lib/core/src\vl53l1_api_preset_modes.c **** 			ptuning_parms->tp_phasecal_target;
 628              		.loc 1 500 60 view .LVU275
 629 00a0 81F808A0 		strb	r10, [r1, #8]
 502:D:/Git/VL53L1/lib/core/src\vl53l1_api_preset_modes.c **** 	pgeneral->phasecal_config__override                       = 0x00;
 630              		.loc 1 502 2 is_stmt 1 view .LVU276
ARM GAS  C:\Users\Berbardo\AppData\Local\Temp\ccQolnPL.s 			page 21


 631              		.loc 1 502 60 is_stmt 0 view .LVU277
 632 00a4 4872     		strb	r0, [r1, #9]
 503:D:/Git/VL53L1/lib/core/src\vl53l1_api_preset_modes.c **** 	pgeneral->dss_config__roi_mode_control =
 633              		.loc 1 503 2 is_stmt 1 view .LVU278
 634              		.loc 1 503 41 is_stmt 0 view .LVU279
 635 00a6 8E72     		strb	r6, [r1, #10]
 504:D:/Git/VL53L1/lib/core/src\vl53l1_api_preset_modes.c **** 			VL53L1_DEVICEDSSMODE__TARGET_RATE;
 505:D:/Git/VL53L1/lib/core/src\vl53l1_api_preset_modes.c **** 	/* format for threshold high and low is 9.7 fp */
 506:D:/Git/VL53L1/lib/core/src\vl53l1_api_preset_modes.c **** 	pgeneral->system__thresh_rate_high                        = 0x0000;
 636              		.loc 1 506 2 is_stmt 1 view .LVU280
 637              		.loc 1 506 60 is_stmt 0 view .LVU281
 638 00a8 8881     		strh	r0, [r1, #12]	@ movhi
 507:D:/Git/VL53L1/lib/core/src\vl53l1_api_preset_modes.c **** 	pgeneral->system__thresh_rate_low                         = 0x0000;
 639              		.loc 1 507 2 is_stmt 1 view .LVU282
 640              		.loc 1 507 60 is_stmt 0 view .LVU283
 641 00aa C881     		strh	r0, [r1, #14]	@ movhi
 508:D:/Git/VL53L1/lib/core/src\vl53l1_api_preset_modes.c **** 	/* The format for manual effective spads is 8.8 -> 0x8C00 = 140.00 */
 509:D:/Git/VL53L1/lib/core/src\vl53l1_api_preset_modes.c **** 	pgeneral->dss_config__manual_effective_spads_select       = 0x8C00;
 642              		.loc 1 509 2 is_stmt 1 view .LVU284
 643              		.loc 1 509 60 is_stmt 0 view .LVU285
 644 00ac 4FF40C4A 		mov	r10, #35840
 645 00b0 A1F810A0 		strh	r10, [r1, #16]	@ movhi
 510:D:/Git/VL53L1/lib/core/src\vl53l1_api_preset_modes.c **** 	pgeneral->dss_config__manual_block_select                 = 0x00;
 646              		.loc 1 510 2 is_stmt 1 view .LVU286
 647              		.loc 1 510 60 is_stmt 0 view .LVU287
 648 00b4 8874     		strb	r0, [r1, #18]
 511:D:/Git/VL53L1/lib/core/src\vl53l1_api_preset_modes.c **** 
 512:D:/Git/VL53L1/lib/core/src\vl53l1_api_preset_modes.c **** 	/*
 513:D:/Git/VL53L1/lib/core/src\vl53l1_api_preset_modes.c **** 	 * Aperture attenuation value - format 0.8
 514:D:/Git/VL53L1/lib/core/src\vl53l1_api_preset_modes.c **** 	 *
 515:D:/Git/VL53L1/lib/core/src\vl53l1_api_preset_modes.c **** 	 * Nominal:  5x   -> 0.200000 * 256 = 51 = 0x33
 516:D:/Git/VL53L1/lib/core/src\vl53l1_api_preset_modes.c **** 	 * Measured: 4.6x -> 0.217391 * 256 = 56 = 0x38
 517:D:/Git/VL53L1/lib/core/src\vl53l1_api_preset_modes.c **** 	 */
 518:D:/Git/VL53L1/lib/core/src\vl53l1_api_preset_modes.c **** 	pgeneral->dss_config__aperture_attenuation                = 0x38;
 649              		.loc 1 518 2 is_stmt 1 view .LVU288
 650              		.loc 1 518 60 is_stmt 0 view .LVU289
 651 00b6 4FF0380A 		mov	r10, #56
 652 00ba 81F813A0 		strb	r10, [r1, #19]
 519:D:/Git/VL53L1/lib/core/src\vl53l1_api_preset_modes.c **** 	pgeneral->dss_config__max_spads_limit                     = 0xFF;
 653              		.loc 1 519 2 is_stmt 1 view .LVU290
 654              		.loc 1 519 60 is_stmt 0 view .LVU291
 655 00be 81F814E0 		strb	lr, [r1, #20]
 520:D:/Git/VL53L1/lib/core/src\vl53l1_api_preset_modes.c **** 	pgeneral->dss_config__min_spads_limit                     = 0x01;
 656              		.loc 1 520 2 is_stmt 1 view .LVU292
 657              		.loc 1 520 60 is_stmt 0 view .LVU293
 658 00c2 4E75     		strb	r6, [r1, #21]
 521:D:/Git/VL53L1/lib/core/src\vl53l1_api_preset_modes.c **** 
 522:D:/Git/VL53L1/lib/core/src\vl53l1_api_preset_modes.c **** 	/* Timing Configuration */
 523:D:/Git/VL53L1/lib/core/src\vl53l1_api_preset_modes.c **** 
 524:D:/Git/VL53L1/lib/core/src\vl53l1_api_preset_modes.c **** 	/* Default timing of 2ms */
 525:D:/Git/VL53L1/lib/core/src\vl53l1_api_preset_modes.c **** 	ptiming->mm_config__timeout_macrop_a_hi                   = 0x00;
 659              		.loc 1 525 2 is_stmt 1 view .LVU294
 660              		.loc 1 525 60 is_stmt 0 view .LVU295
 661 00c4 1070     		strb	r0, [r2]
 526:D:/Git/VL53L1/lib/core/src\vl53l1_api_preset_modes.c **** 	ptiming->mm_config__timeout_macrop_a_lo                   = 0x1a;
 662              		.loc 1 526 2 is_stmt 1 view .LVU296
 663              		.loc 1 526 60 is_stmt 0 view .LVU297
ARM GAS  C:\Users\Berbardo\AppData\Local\Temp\ccQolnPL.s 			page 22


 664 00c6 1A21     		movs	r1, #26
 665              	.LVL21:
 666              		.loc 1 526 60 view .LVU298
 667 00c8 5170     		strb	r1, [r2, #1]
 527:D:/Git/VL53L1/lib/core/src\vl53l1_api_preset_modes.c **** 	ptiming->mm_config__timeout_macrop_b_hi                   = 0x00;
 668              		.loc 1 527 2 is_stmt 1 view .LVU299
 669              		.loc 1 527 60 is_stmt 0 view .LVU300
 670 00ca 9070     		strb	r0, [r2, #2]
 528:D:/Git/VL53L1/lib/core/src\vl53l1_api_preset_modes.c **** 	ptiming->mm_config__timeout_macrop_b_lo                   = 0x20;
 671              		.loc 1 528 2 is_stmt 1 view .LVU301
 672              		.loc 1 528 60 is_stmt 0 view .LVU302
 673 00cc 82F80390 		strb	r9, [r2, #3]
 529:D:/Git/VL53L1/lib/core/src\vl53l1_api_preset_modes.c **** 	/* Setup for 30ms default */
 530:D:/Git/VL53L1/lib/core/src\vl53l1_api_preset_modes.c **** 	ptiming->range_config__timeout_macrop_a_hi                = 0x01;
 674              		.loc 1 530 2 is_stmt 1 view .LVU303
 675              		.loc 1 530 60 is_stmt 0 view .LVU304
 676 00d0 1671     		strb	r6, [r2, #4]
 531:D:/Git/VL53L1/lib/core/src\vl53l1_api_preset_modes.c **** 	ptiming->range_config__timeout_macrop_a_lo                = 0xCC;
 677              		.loc 1 531 2 is_stmt 1 view .LVU305
 678              		.loc 1 531 60 is_stmt 0 view .LVU306
 679 00d2 CC21     		movs	r1, #204
 680 00d4 5171     		strb	r1, [r2, #5]
 532:D:/Git/VL53L1/lib/core/src\vl53l1_api_preset_modes.c **** 	/* register value 11 gives a 24 VCSEL period */
 533:D:/Git/VL53L1/lib/core/src\vl53l1_api_preset_modes.c **** 	ptiming->range_config__vcsel_period_a                     = 0x0B;
 681              		.loc 1 533 2 is_stmt 1 view .LVU307
 682              		.loc 1 533 60 is_stmt 0 view .LVU308
 683 00d6 9471     		strb	r4, [r2, #6]
 534:D:/Git/VL53L1/lib/core/src\vl53l1_api_preset_modes.c **** 	/* Setup for 30ms default */
 535:D:/Git/VL53L1/lib/core/src\vl53l1_api_preset_modes.c **** 	ptiming->range_config__timeout_macrop_b_hi                = 0x01;
 684              		.loc 1 535 2 is_stmt 1 view .LVU309
 685              		.loc 1 535 60 is_stmt 0 view .LVU310
 686 00d8 D671     		strb	r6, [r2, #7]
 536:D:/Git/VL53L1/lib/core/src\vl53l1_api_preset_modes.c **** 	ptiming->range_config__timeout_macrop_b_lo                = 0xF5;
 687              		.loc 1 536 2 is_stmt 1 view .LVU311
 688              		.loc 1 536 60 is_stmt 0 view .LVU312
 689 00da F521     		movs	r1, #245
 690 00dc 1172     		strb	r1, [r2, #8]
 537:D:/Git/VL53L1/lib/core/src\vl53l1_api_preset_modes.c **** 	/* register value  09 gives a 20 VCSEL period */
 538:D:/Git/VL53L1/lib/core/src\vl53l1_api_preset_modes.c **** 	ptiming->range_config__vcsel_period_b                     = 0x09;
 691              		.loc 1 538 2 is_stmt 1 view .LVU313
 692              		.loc 1 538 60 is_stmt 0 view .LVU314
 693 00de 0921     		movs	r1, #9
 694 00e0 5172     		strb	r1, [r2, #9]
 539:D:/Git/VL53L1/lib/core/src\vl53l1_api_preset_modes.c **** 	/*
 540:D:/Git/VL53L1/lib/core/src\vl53l1_api_preset_modes.c **** 	 * Sigma thresh register - format 14.2
 541:D:/Git/VL53L1/lib/core/src\vl53l1_api_preset_modes.c **** 	 *
 542:D:/Git/VL53L1/lib/core/src\vl53l1_api_preset_modes.c **** 	 * 0x003C -> 15.0 mm
 543:D:/Git/VL53L1/lib/core/src\vl53l1_api_preset_modes.c **** 	 * 0x0050 -> 20.0 mm
 544:D:/Git/VL53L1/lib/core/src\vl53l1_api_preset_modes.c **** 	 */
 545:D:/Git/VL53L1/lib/core/src\vl53l1_api_preset_modes.c **** 	ptiming->range_config__sigma_thresh                       =
 695              		.loc 1 545 2 is_stmt 1 view .LVU315
 546:D:/Git/VL53L1/lib/core/src\vl53l1_api_preset_modes.c **** 			ptuning_parms->tp_lite_med_sigma_thresh_mm;
 696              		.loc 1 546 17 is_stmt 0 view .LVU316
 697 00e2 B5F81490 		ldrh	r9, [r5, #20]
 545:D:/Git/VL53L1/lib/core/src\vl53l1_api_preset_modes.c **** 			ptuning_parms->tp_lite_med_sigma_thresh_mm;
 698              		.loc 1 545 60 view .LVU317
 699 00e6 A2F80A90 		strh	r9, [r2, #10]	@ movhi
ARM GAS  C:\Users\Berbardo\AppData\Local\Temp\ccQolnPL.s 			page 23


 547:D:/Git/VL53L1/lib/core/src\vl53l1_api_preset_modes.c **** 	/*
 548:D:/Git/VL53L1/lib/core/src\vl53l1_api_preset_modes.c **** 	 *  Rate Limit - format 9.7fp
 549:D:/Git/VL53L1/lib/core/src\vl53l1_api_preset_modes.c **** 	 *  0x0020 -> 0.250 Mcps
 550:D:/Git/VL53L1/lib/core/src\vl53l1_api_preset_modes.c **** 	 *  0x0080 -> 1.000 Mcps
 551:D:/Git/VL53L1/lib/core/src\vl53l1_api_preset_modes.c **** 	 */
 552:D:/Git/VL53L1/lib/core/src\vl53l1_api_preset_modes.c **** 	ptiming->range_config__min_count_rate_rtn_limit_mcps      =
 700              		.loc 1 552 2 is_stmt 1 view .LVU318
 553:D:/Git/VL53L1/lib/core/src\vl53l1_api_preset_modes.c **** 			ptuning_parms->tp_lite_med_min_count_rate_rtn_mcps;
 701              		.loc 1 553 17 is_stmt 0 view .LVU319
 702 00ea B5F81A90 		ldrh	r9, [r5, #26]
 552:D:/Git/VL53L1/lib/core/src\vl53l1_api_preset_modes.c **** 			ptuning_parms->tp_lite_med_min_count_rate_rtn_mcps;
 703              		.loc 1 552 60 view .LVU320
 704 00ee A2F80C90 		strh	r9, [r2, #12]	@ movhi
 554:D:/Git/VL53L1/lib/core/src\vl53l1_api_preset_modes.c **** 
 555:D:/Git/VL53L1/lib/core/src\vl53l1_api_preset_modes.c **** 	/* Phase limit register formats = 5.3
 556:D:/Git/VL53L1/lib/core/src\vl53l1_api_preset_modes.c **** 	 * low   = 0x08 ->  1.0
 557:D:/Git/VL53L1/lib/core/src\vl53l1_api_preset_modes.c **** 	 * high  = 0x78 -> 15.0 -> 3.0m
 558:D:/Git/VL53L1/lib/core/src\vl53l1_api_preset_modes.c **** 	 */
 559:D:/Git/VL53L1/lib/core/src\vl53l1_api_preset_modes.c **** 	ptiming->range_config__valid_phase_low                    = 0x08;
 705              		.loc 1 559 2 is_stmt 1 view .LVU321
 706              		.loc 1 559 60 is_stmt 0 view .LVU322
 707 00f2 82F80E80 		strb	r8, [r2, #14]
 560:D:/Git/VL53L1/lib/core/src\vl53l1_api_preset_modes.c **** 	ptiming->range_config__valid_phase_high                   = 0x78;
 708              		.loc 1 560 2 is_stmt 1 view .LVU323
 709              		.loc 1 560 60 is_stmt 0 view .LVU324
 710 00f6 4FF07808 		mov	r8, #120
 711 00fa 82F80F80 		strb	r8, [r2, #15]
 561:D:/Git/VL53L1/lib/core/src\vl53l1_api_preset_modes.c **** 	ptiming->system__intermeasurement_period                  = 0x00000000;
 712              		.loc 1 561 2 is_stmt 1 view .LVU325
 713              		.loc 1 561 60 is_stmt 0 view .LVU326
 714 00fe 1061     		str	r0, [r2, #16]
 562:D:/Git/VL53L1/lib/core/src\vl53l1_api_preset_modes.c **** 	ptiming->system__fractional_enable                        = 0x00;
 715              		.loc 1 562 2 is_stmt 1 view .LVU327
 716              		.loc 1 562 60 is_stmt 0 view .LVU328
 717 0100 1075     		strb	r0, [r2, #20]
 563:D:/Git/VL53L1/lib/core/src\vl53l1_api_preset_modes.c **** 
 564:D:/Git/VL53L1/lib/core/src\vl53l1_api_preset_modes.c **** 	/* Dynamic Configuration */
 565:D:/Git/VL53L1/lib/core/src\vl53l1_api_preset_modes.c **** 
 566:D:/Git/VL53L1/lib/core/src\vl53l1_api_preset_modes.c **** 	pdynamic->system__grouped_parameter_hold_0                 = 0x01;
 718              		.loc 1 566 2 is_stmt 1 view .LVU329
 719              		.loc 1 566 61 is_stmt 0 view .LVU330
 720 0102 1E70     		strb	r6, [r3]
 567:D:/Git/VL53L1/lib/core/src\vl53l1_api_preset_modes.c **** 
 568:D:/Git/VL53L1/lib/core/src\vl53l1_api_preset_modes.c **** 	pdynamic->system__thresh_high                              = 0x0000;
 721              		.loc 1 568 2 is_stmt 1 view .LVU331
 722              		.loc 1 568 61 is_stmt 0 view .LVU332
 723 0104 5880     		strh	r0, [r3, #2]	@ movhi
 569:D:/Git/VL53L1/lib/core/src\vl53l1_api_preset_modes.c **** 	pdynamic->system__thresh_low                               = 0x0000;
 724              		.loc 1 569 2 is_stmt 1 view .LVU333
 725              		.loc 1 569 61 is_stmt 0 view .LVU334
 726 0106 9880     		strh	r0, [r3, #4]	@ movhi
 570:D:/Git/VL53L1/lib/core/src\vl53l1_api_preset_modes.c **** 	pdynamic->system__enable_xtalk_per_quadrant                = 0x00;
 727              		.loc 1 570 2 is_stmt 1 view .LVU335
 728              		.loc 1 570 61 is_stmt 0 view .LVU336
 729 0108 9871     		strb	r0, [r3, #6]
 571:D:/Git/VL53L1/lib/core/src\vl53l1_api_preset_modes.c **** 	pdynamic->system__seed_config =
 730              		.loc 1 571 2 is_stmt 1 view .LVU337
ARM GAS  C:\Users\Berbardo\AppData\Local\Temp\ccQolnPL.s 			page 24


 572:D:/Git/VL53L1/lib/core/src\vl53l1_api_preset_modes.c **** 			ptuning_parms->tp_lite_seed_cfg;
 731              		.loc 1 572 17 is_stmt 0 view .LVU338
 732 010a 95F82120 		ldrb	r2, [r5, #33]	@ zero_extendqisi2
 733              	.LVL22:
 571:D:/Git/VL53L1/lib/core/src\vl53l1_api_preset_modes.c **** 	pdynamic->system__seed_config =
 734              		.loc 1 571 32 view .LVU339
 735 010e DA71     		strb	r2, [r3, #7]
 573:D:/Git/VL53L1/lib/core/src\vl53l1_api_preset_modes.c **** 
 574:D:/Git/VL53L1/lib/core/src\vl53l1_api_preset_modes.c **** 	/* Timing A */
 575:D:/Git/VL53L1/lib/core/src\vl53l1_api_preset_modes.c **** 	pdynamic->sd_config__woi_sd0                               = 0x0B;
 736              		.loc 1 575 2 is_stmt 1 view .LVU340
 737              		.loc 1 575 61 is_stmt 0 view .LVU341
 738 0110 1C72     		strb	r4, [r3, #8]
 576:D:/Git/VL53L1/lib/core/src\vl53l1_api_preset_modes.c **** 	/* Timing B */
 577:D:/Git/VL53L1/lib/core/src\vl53l1_api_preset_modes.c **** 	pdynamic->sd_config__woi_sd1                               = 0x09;
 739              		.loc 1 577 2 is_stmt 1 view .LVU342
 740              		.loc 1 577 61 is_stmt 0 view .LVU343
 741 0112 5972     		strb	r1, [r3, #9]
 578:D:/Git/VL53L1/lib/core/src\vl53l1_api_preset_modes.c **** 
 579:D:/Git/VL53L1/lib/core/src\vl53l1_api_preset_modes.c **** 	pdynamic->sd_config__initial_phase_sd0                     =
 742              		.loc 1 579 2 is_stmt 1 view .LVU344
 580:D:/Git/VL53L1/lib/core/src\vl53l1_api_preset_modes.c **** 			ptuning_parms->tp_init_phase_rtn_lite_med;
 743              		.loc 1 580 17 is_stmt 0 view .LVU345
 744 0114 EA79     		ldrb	r2, [r5, #7]	@ zero_extendqisi2
 579:D:/Git/VL53L1/lib/core/src\vl53l1_api_preset_modes.c **** 			ptuning_parms->tp_init_phase_rtn_lite_med;
 745              		.loc 1 579 61 view .LVU346
 746 0116 9A72     		strb	r2, [r3, #10]
 581:D:/Git/VL53L1/lib/core/src\vl53l1_api_preset_modes.c **** 	pdynamic->sd_config__initial_phase_sd1                     =
 747              		.loc 1 581 2 is_stmt 1 view .LVU347
 582:D:/Git/VL53L1/lib/core/src\vl53l1_api_preset_modes.c **** 			ptuning_parms->tp_init_phase_ref_lite_med;;
 748              		.loc 1 582 17 is_stmt 0 view .LVU348
 749 0118 AA7A     		ldrb	r2, [r5, #10]	@ zero_extendqisi2
 581:D:/Git/VL53L1/lib/core/src\vl53l1_api_preset_modes.c **** 	pdynamic->sd_config__initial_phase_sd1                     =
 750              		.loc 1 581 61 view .LVU349
 751 011a DA72     		strb	r2, [r3, #11]
 752              		.loc 1 582 46 is_stmt 1 view .LVU350
 583:D:/Git/VL53L1/lib/core/src\vl53l1_api_preset_modes.c **** 
 584:D:/Git/VL53L1/lib/core/src\vl53l1_api_preset_modes.c **** 	pdynamic->system__grouped_parameter_hold_1                 = 0x01;
 753              		.loc 1 584 2 view .LVU351
 754              		.loc 1 584 61 is_stmt 0 view .LVU352
 755 011c 1E73     		strb	r6, [r3, #12]
 585:D:/Git/VL53L1/lib/core/src\vl53l1_api_preset_modes.c **** 
 586:D:/Git/VL53L1/lib/core/src\vl53l1_api_preset_modes.c **** 	/*
 587:D:/Git/VL53L1/lib/core/src\vl53l1_api_preset_modes.c **** 	 *  Quantifier settings
 588:D:/Git/VL53L1/lib/core/src\vl53l1_api_preset_modes.c **** 	 *
 589:D:/Git/VL53L1/lib/core/src\vl53l1_api_preset_modes.c **** 	 *  sd_config__first_order_select
 590:D:/Git/VL53L1/lib/core/src\vl53l1_api_preset_modes.c **** 	 *     bit 0 - return sigma delta
 591:D:/Git/VL53L1/lib/core/src\vl53l1_api_preset_modes.c **** 	 *     bit 1 - reference sigma delta
 592:D:/Git/VL53L1/lib/core/src\vl53l1_api_preset_modes.c **** 	 *
 593:D:/Git/VL53L1/lib/core/src\vl53l1_api_preset_modes.c **** 	 *  sd_config__first_order_select = 0x03 (1st order)
 594:D:/Git/VL53L1/lib/core/src\vl53l1_api_preset_modes.c **** 	 *
 595:D:/Git/VL53L1/lib/core/src\vl53l1_api_preset_modes.c **** 	 *      sd_config__quantifier options
 596:D:/Git/VL53L1/lib/core/src\vl53l1_api_preset_modes.c **** 	 *        0
 597:D:/Git/VL53L1/lib/core/src\vl53l1_api_preset_modes.c **** 	 *        1 ->   64
 598:D:/Git/VL53L1/lib/core/src\vl53l1_api_preset_modes.c **** 	 *        2 ->  128
 599:D:/Git/VL53L1/lib/core/src\vl53l1_api_preset_modes.c **** 	 *        3 ->  256
 600:D:/Git/VL53L1/lib/core/src\vl53l1_api_preset_modes.c **** 	 *
ARM GAS  C:\Users\Berbardo\AppData\Local\Temp\ccQolnPL.s 			page 25


 601:D:/Git/VL53L1/lib/core/src\vl53l1_api_preset_modes.c **** 	 *  sd_config__first_order_select = 0x00 (2nd order)
 602:D:/Git/VL53L1/lib/core/src\vl53l1_api_preset_modes.c **** 	 *
 603:D:/Git/VL53L1/lib/core/src\vl53l1_api_preset_modes.c **** 	 *      sd_config__quantifier options
 604:D:/Git/VL53L1/lib/core/src\vl53l1_api_preset_modes.c **** 	 *        0
 605:D:/Git/VL53L1/lib/core/src\vl53l1_api_preset_modes.c **** 	 *        1  ->  256
 606:D:/Git/VL53L1/lib/core/src\vl53l1_api_preset_modes.c **** 	 *        2  -> 1024
 607:D:/Git/VL53L1/lib/core/src\vl53l1_api_preset_modes.c **** 	 *        3  -> 4095
 608:D:/Git/VL53L1/lib/core/src\vl53l1_api_preset_modes.c **** 	 *
 609:D:/Git/VL53L1/lib/core/src\vl53l1_api_preset_modes.c **** 	 *  Setting below 2nd order, Quantifier = 1024
 610:D:/Git/VL53L1/lib/core/src\vl53l1_api_preset_modes.c **** 	 */
 611:D:/Git/VL53L1/lib/core/src\vl53l1_api_preset_modes.c **** 
 612:D:/Git/VL53L1/lib/core/src\vl53l1_api_preset_modes.c **** 	pdynamic->sd_config__first_order_select =
 756              		.loc 1 612 2 is_stmt 1 view .LVU353
 613:D:/Git/VL53L1/lib/core/src\vl53l1_api_preset_modes.c **** 			ptuning_parms->tp_lite_first_order_select;
 757              		.loc 1 613 17 is_stmt 0 view .LVU354
 758 011e 95F82420 		ldrb	r2, [r5, #36]	@ zero_extendqisi2
 612:D:/Git/VL53L1/lib/core/src\vl53l1_api_preset_modes.c **** 			ptuning_parms->tp_lite_first_order_select;
 759              		.loc 1 612 42 view .LVU355
 760 0122 5A73     		strb	r2, [r3, #13]
 614:D:/Git/VL53L1/lib/core/src\vl53l1_api_preset_modes.c **** 	pdynamic->sd_config__quantifier         =
 761              		.loc 1 614 2 is_stmt 1 view .LVU356
 615:D:/Git/VL53L1/lib/core/src\vl53l1_api_preset_modes.c **** 			ptuning_parms->tp_lite_quantifier;
 762              		.loc 1 615 17 is_stmt 0 view .LVU357
 763 0124 95F82320 		ldrb	r2, [r5, #35]	@ zero_extendqisi2
 614:D:/Git/VL53L1/lib/core/src\vl53l1_api_preset_modes.c **** 	pdynamic->sd_config__quantifier         =
 764              		.loc 1 614 42 view .LVU358
 765 0128 9A73     		strb	r2, [r3, #14]
 616:D:/Git/VL53L1/lib/core/src\vl53l1_api_preset_modes.c **** 
 617:D:/Git/VL53L1/lib/core/src\vl53l1_api_preset_modes.c **** 	/* Below defaults will be overwritten by zone_cfg
 618:D:/Git/VL53L1/lib/core/src\vl53l1_api_preset_modes.c **** 	 * Spad no = 199 (0xC7)
 619:D:/Git/VL53L1/lib/core/src\vl53l1_api_preset_modes.c **** 	 * Spad no =  63 (0x3F)
 620:D:/Git/VL53L1/lib/core/src\vl53l1_api_preset_modes.c **** 	 */
 621:D:/Git/VL53L1/lib/core/src\vl53l1_api_preset_modes.c **** 	pdynamic->roi_config__user_roi_centre_spad              = 0xC7;
 766              		.loc 1 621 2 is_stmt 1 view .LVU359
 767              		.loc 1 621 58 is_stmt 0 view .LVU360
 768 012a C722     		movs	r2, #199
 769 012c DA73     		strb	r2, [r3, #15]
 622:D:/Git/VL53L1/lib/core/src\vl53l1_api_preset_modes.c **** 	/* 16x16 ROI */
 623:D:/Git/VL53L1/lib/core/src\vl53l1_api_preset_modes.c **** 	pdynamic->roi_config__user_roi_requested_global_xy_size = 0xFF;
 770              		.loc 1 623 2 is_stmt 1 view .LVU361
 771              		.loc 1 623 58 is_stmt 0 view .LVU362
 772 012e 83F810E0 		strb	lr, [r3, #16]
 624:D:/Git/VL53L1/lib/core/src\vl53l1_api_preset_modes.c **** 
 625:D:/Git/VL53L1/lib/core/src\vl53l1_api_preset_modes.c **** 
 626:D:/Git/VL53L1/lib/core/src\vl53l1_api_preset_modes.c **** 	pdynamic->system__sequence_config                          = \
 773              		.loc 1 626 2 is_stmt 1 view .LVU363
 774              		.loc 1 626 61 is_stmt 0 view .LVU364
 775 0132 DB22     		movs	r2, #219
 776 0134 5A74     		strb	r2, [r3, #17]
 627:D:/Git/VL53L1/lib/core/src\vl53l1_api_preset_modes.c **** 			VL53L1_SEQUENCE_VHV_EN | \
 628:D:/Git/VL53L1/lib/core/src\vl53l1_api_preset_modes.c **** 			VL53L1_SEQUENCE_PHASECAL_EN | \
 629:D:/Git/VL53L1/lib/core/src\vl53l1_api_preset_modes.c **** 			VL53L1_SEQUENCE_DSS1_EN | \
 630:D:/Git/VL53L1/lib/core/src\vl53l1_api_preset_modes.c **** 			VL53L1_SEQUENCE_DSS2_EN | \
 631:D:/Git/VL53L1/lib/core/src\vl53l1_api_preset_modes.c **** 			VL53L1_SEQUENCE_MM2_EN | \
 632:D:/Git/VL53L1/lib/core/src\vl53l1_api_preset_modes.c **** 			VL53L1_SEQUENCE_RANGE_EN;
 633:D:/Git/VL53L1/lib/core/src\vl53l1_api_preset_modes.c **** 
 634:D:/Git/VL53L1/lib/core/src\vl53l1_api_preset_modes.c **** 	pdynamic->system__grouped_parameter_hold                   = 0x02;
ARM GAS  C:\Users\Berbardo\AppData\Local\Temp\ccQolnPL.s 			page 26


 777              		.loc 1 634 2 is_stmt 1 view .LVU365
 778              		.loc 1 634 61 is_stmt 0 view .LVU366
 779 0136 83F812C0 		strb	ip, [r3, #18]
 635:D:/Git/VL53L1/lib/core/src\vl53l1_api_preset_modes.c **** 
 636:D:/Git/VL53L1/lib/core/src\vl53l1_api_preset_modes.c **** 	/* System control */
 637:D:/Git/VL53L1/lib/core/src\vl53l1_api_preset_modes.c **** 
 638:D:/Git/VL53L1/lib/core/src\vl53l1_api_preset_modes.c **** 
 639:D:/Git/VL53L1/lib/core/src\vl53l1_api_preset_modes.c **** 	psystem->system__stream_count_ctrl                         = 0x00;
 780              		.loc 1 639 2 is_stmt 1 view .LVU367
 781              		.loc 1 639 61 is_stmt 0 view .LVU368
 782 013a 7870     		strb	r0, [r7, #1]
 640:D:/Git/VL53L1/lib/core/src\vl53l1_api_preset_modes.c **** 	psystem->firmware__enable                                  = 0x01;
 783              		.loc 1 640 2 is_stmt 1 view .LVU369
 784              		.loc 1 640 61 is_stmt 0 view .LVU370
 785 013c BE70     		strb	r6, [r7, #2]
 641:D:/Git/VL53L1/lib/core/src\vl53l1_api_preset_modes.c **** 	psystem->system__interrupt_clear                           = \
 786              		.loc 1 641 2 is_stmt 1 view .LVU371
 787              		.loc 1 641 61 is_stmt 0 view .LVU372
 788 013e FE70     		strb	r6, [r7, #3]
 642:D:/Git/VL53L1/lib/core/src\vl53l1_api_preset_modes.c **** 			VL53L1_CLEAR_RANGE_INT;
 643:D:/Git/VL53L1/lib/core/src\vl53l1_api_preset_modes.c **** 
 644:D:/Git/VL53L1/lib/core/src\vl53l1_api_preset_modes.c **** 	psystem->system__mode_start                                = \
 789              		.loc 1 644 2 is_stmt 1 view .LVU373
 790              		.loc 1 644 61 is_stmt 0 view .LVU374
 791 0140 2123     		movs	r3, #33
 792              	.LVL23:
 793              		.loc 1 644 61 view .LVU375
 794 0142 3B71     		strb	r3, [r7, #4]
 645:D:/Git/VL53L1/lib/core/src\vl53l1_api_preset_modes.c **** 			VL53L1_DEVICESCHEDULERMODE_STREAMING | \
 646:D:/Git/VL53L1/lib/core/src\vl53l1_api_preset_modes.c **** 			VL53L1_DEVICEREADOUTMODE_SINGLE_SD | \
 647:D:/Git/VL53L1/lib/core/src\vl53l1_api_preset_modes.c **** 			VL53L1_DEVICEMEASUREMENTMODE_BACKTOBACK;
 648:D:/Git/VL53L1/lib/core/src\vl53l1_api_preset_modes.c **** 
 649:D:/Git/VL53L1/lib/core/src\vl53l1_api_preset_modes.c **** 	LOG_FUNCTION_END(status);
 795              		.loc 1 649 26 is_stmt 1 view .LVU376
 650:D:/Git/VL53L1/lib/core/src\vl53l1_api_preset_modes.c **** 
 651:D:/Git/VL53L1/lib/core/src\vl53l1_api_preset_modes.c **** 	return status;
 796              		.loc 1 651 2 view .LVU377
 652:D:/Git/VL53L1/lib/core/src\vl53l1_api_preset_modes.c **** }
 797              		.loc 1 652 1 is_stmt 0 view .LVU378
 798 0144 BDE8F087 		pop	{r4, r5, r6, r7, r8, r9, r10, pc}
 799              		.loc 1 652 1 view .LVU379
 800              		.cfi_endproc
 801              	.LFE131:
 803              		.section	.text.VL53L1_preset_mode_standard_ranging_short_range,"ax",%progbits
 804              		.align	1
 805              		.global	VL53L1_preset_mode_standard_ranging_short_range
 806              		.syntax unified
 807              		.thumb
 808              		.thumb_func
 809              		.fpu fpv4-sp-d16
 811              	VL53L1_preset_mode_standard_ranging_short_range:
 812              	.LVL24:
 813              	.LFB132:
 653:D:/Git/VL53L1/lib/core/src\vl53l1_api_preset_modes.c **** 
 654:D:/Git/VL53L1/lib/core/src\vl53l1_api_preset_modes.c **** 
 655:D:/Git/VL53L1/lib/core/src\vl53l1_api_preset_modes.c **** VL53L1_Error VL53L1_preset_mode_standard_ranging_short_range(
 656:D:/Git/VL53L1/lib/core/src\vl53l1_api_preset_modes.c **** 	VL53L1_static_config_t    *pstatic,
ARM GAS  C:\Users\Berbardo\AppData\Local\Temp\ccQolnPL.s 			page 27


 657:D:/Git/VL53L1/lib/core/src\vl53l1_api_preset_modes.c **** 	VL53L1_general_config_t   *pgeneral,
 658:D:/Git/VL53L1/lib/core/src\vl53l1_api_preset_modes.c **** 	VL53L1_timing_config_t    *ptiming,
 659:D:/Git/VL53L1/lib/core/src\vl53l1_api_preset_modes.c **** 	VL53L1_dynamic_config_t   *pdynamic,
 660:D:/Git/VL53L1/lib/core/src\vl53l1_api_preset_modes.c **** 	VL53L1_system_control_t   *psystem,
 661:D:/Git/VL53L1/lib/core/src\vl53l1_api_preset_modes.c **** 	VL53L1_tuning_parm_storage_t *ptuning_parms)
 662:D:/Git/VL53L1/lib/core/src\vl53l1_api_preset_modes.c **** {
 814              		.loc 1 662 1 is_stmt 1 view -0
 815              		.cfi_startproc
 816              		@ args = 8, pretend = 0, frame = 0
 817              		@ frame_needed = 0, uses_anonymous_args = 0
 818              		.loc 1 662 1 is_stmt 0 view .LVU381
 819 0000 F0B5     		push	{r4, r5, r6, r7, lr}
 820              		.cfi_def_cfa_offset 20
 821              		.cfi_offset 4, -20
 822              		.cfi_offset 5, -16
 823              		.cfi_offset 6, -12
 824              		.cfi_offset 7, -8
 825              		.cfi_offset 14, -4
 826 0002 83B0     		sub	sp, sp, #12
 827              		.cfi_def_cfa_offset 32
 828 0004 1546     		mov	r5, r2
 829 0006 1E46     		mov	r6, r3
 830 0008 099C     		ldr	r4, [sp, #36]
 663:D:/Git/VL53L1/lib/core/src\vl53l1_api_preset_modes.c **** 	/*
 664:D:/Git/VL53L1/lib/core/src\vl53l1_api_preset_modes.c **** 	 * Initializes static and dynamic data structures for
 665:D:/Git/VL53L1/lib/core/src\vl53l1_api_preset_modes.c **** 	 * device preset mode
 666:D:/Git/VL53L1/lib/core/src\vl53l1_api_preset_modes.c **** 	 *
 667:D:/Git/VL53L1/lib/core/src\vl53l1_api_preset_modes.c **** 	 * VL53L1_DEVICEPRESETMODE_STANDARD_RANGING_SHORT_RANGE
 668:D:/Git/VL53L1/lib/core/src\vl53l1_api_preset_modes.c **** 	 * (up to 1.4 metres)
 669:D:/Git/VL53L1/lib/core/src\vl53l1_api_preset_modes.c **** 	 *
 670:D:/Git/VL53L1/lib/core/src\vl53l1_api_preset_modes.c **** 	 * PLEASE NOTE THE SETTINGS BELOW AT PROVISIONAL AND WILL CHANGE!
 671:D:/Git/VL53L1/lib/core/src\vl53l1_api_preset_modes.c **** 	 */
 672:D:/Git/VL53L1/lib/core/src\vl53l1_api_preset_modes.c **** 
 673:D:/Git/VL53L1/lib/core/src\vl53l1_api_preset_modes.c **** 	VL53L1_Error  status = VL53L1_ERROR_NONE;
 831              		.loc 1 673 2 is_stmt 1 view .LVU382
 832              	.LVL25:
 674:D:/Git/VL53L1/lib/core/src\vl53l1_api_preset_modes.c **** 
 675:D:/Git/VL53L1/lib/core/src\vl53l1_api_preset_modes.c **** 	LOG_FUNCTION_START("");
 833              		.loc 1 675 24 view .LVU383
 676:D:/Git/VL53L1/lib/core/src\vl53l1_api_preset_modes.c **** 
 677:D:/Git/VL53L1/lib/core/src\vl53l1_api_preset_modes.c **** 	/* Call standard ranging configuration followed by
 678:D:/Git/VL53L1/lib/core/src\vl53l1_api_preset_modes.c **** 	 * overrides for the  short range configuration
 679:D:/Git/VL53L1/lib/core/src\vl53l1_api_preset_modes.c **** 	 */
 680:D:/Git/VL53L1/lib/core/src\vl53l1_api_preset_modes.c **** 
 681:D:/Git/VL53L1/lib/core/src\vl53l1_api_preset_modes.c **** 	status = VL53L1_preset_mode_standard_ranging(
 834              		.loc 1 681 2 view .LVU384
 835              		.loc 1 681 11 is_stmt 0 view .LVU385
 836 000a 0194     		str	r4, [sp, #4]
 837 000c 089F     		ldr	r7, [sp, #32]
 838 000e 0097     		str	r7, [sp]
 839 0010 FFF7FEFF 		bl	VL53L1_preset_mode_standard_ranging
 840              	.LVL26:
 682:D:/Git/VL53L1/lib/core/src\vl53l1_api_preset_modes.c **** 		pstatic,
 683:D:/Git/VL53L1/lib/core/src\vl53l1_api_preset_modes.c **** 		pgeneral,
 684:D:/Git/VL53L1/lib/core/src\vl53l1_api_preset_modes.c **** 		ptiming,
 685:D:/Git/VL53L1/lib/core/src\vl53l1_api_preset_modes.c **** 		pdynamic,
 686:D:/Git/VL53L1/lib/core/src\vl53l1_api_preset_modes.c **** 		psystem,
ARM GAS  C:\Users\Berbardo\AppData\Local\Temp\ccQolnPL.s 			page 28


 687:D:/Git/VL53L1/lib/core/src\vl53l1_api_preset_modes.c **** 		ptuning_parms);
 688:D:/Git/VL53L1/lib/core/src\vl53l1_api_preset_modes.c **** 
 689:D:/Git/VL53L1/lib/core/src\vl53l1_api_preset_modes.c **** 	/* now override standard ranging specific registers */
 690:D:/Git/VL53L1/lib/core/src\vl53l1_api_preset_modes.c **** 
 691:D:/Git/VL53L1/lib/core/src\vl53l1_api_preset_modes.c **** 	if (status == VL53L1_ERROR_NONE) {
 841              		.loc 1 691 2 is_stmt 1 view .LVU386
 842              		.loc 1 691 5 is_stmt 0 view .LVU387
 843 0014 0346     		mov	r3, r0
 844 0016 88B9     		cbnz	r0, .L15
 692:D:/Git/VL53L1/lib/core/src\vl53l1_api_preset_modes.c **** 
 693:D:/Git/VL53L1/lib/core/src\vl53l1_api_preset_modes.c **** 		/* Timing Configuration
 694:D:/Git/VL53L1/lib/core/src\vl53l1_api_preset_modes.c **** 		 *
 695:D:/Git/VL53L1/lib/core/src\vl53l1_api_preset_modes.c **** 		 * vcsel_period_a    = 7 -> 16 period
 696:D:/Git/VL53L1/lib/core/src\vl53l1_api_preset_modes.c **** 		 * vcsel_period_b    = 5 -> 12 period
 697:D:/Git/VL53L1/lib/core/src\vl53l1_api_preset_modes.c **** 		 * sigma_thresh                  = 0x003C -> 14.2fp -> 15.0 mm
 698:D:/Git/VL53L1/lib/core/src\vl53l1_api_preset_modes.c **** 		 * min_count_rate_rtn_limit_mcps = 0x0080 ->  9.7fp ->  1.0 Mcps
 699:D:/Git/VL53L1/lib/core/src\vl53l1_api_preset_modes.c **** 		 * valid_phase_low               = 0x08 -> 5.3fp -> 1.0
 700:D:/Git/VL53L1/lib/core/src\vl53l1_api_preset_modes.c **** 		 * valid_phase_high              = 0x38 -> 5.3fp -> 7.0 -> 1.4m
 701:D:/Git/VL53L1/lib/core/src\vl53l1_api_preset_modes.c **** 		 */
 702:D:/Git/VL53L1/lib/core/src\vl53l1_api_preset_modes.c **** 
 703:D:/Git/VL53L1/lib/core/src\vl53l1_api_preset_modes.c **** 		ptiming->range_config__vcsel_period_a                = 0x07;
 845              		.loc 1 703 3 is_stmt 1 view .LVU388
 846              		.loc 1 703 56 is_stmt 0 view .LVU389
 847 0018 0721     		movs	r1, #7
 848 001a A971     		strb	r1, [r5, #6]
 704:D:/Git/VL53L1/lib/core/src\vl53l1_api_preset_modes.c **** 		ptiming->range_config__vcsel_period_b                = 0x05;
 849              		.loc 1 704 3 is_stmt 1 view .LVU390
 850              		.loc 1 704 56 is_stmt 0 view .LVU391
 851 001c 0522     		movs	r2, #5
 852 001e 6A72     		strb	r2, [r5, #9]
 705:D:/Git/VL53L1/lib/core/src\vl53l1_api_preset_modes.c **** 		ptiming->range_config__sigma_thresh                  =
 853              		.loc 1 705 3 is_stmt 1 view .LVU392
 706:D:/Git/VL53L1/lib/core/src\vl53l1_api_preset_modes.c **** 				ptuning_parms->tp_lite_short_sigma_thresh_mm;
 854              		.loc 1 706 18 is_stmt 0 view .LVU393
 855 0020 E08A     		ldrh	r0, [r4, #22]
 856              	.LVL27:
 705:D:/Git/VL53L1/lib/core/src\vl53l1_api_preset_modes.c **** 		ptiming->range_config__sigma_thresh                  =
 857              		.loc 1 705 56 view .LVU394
 858 0022 6881     		strh	r0, [r5, #10]	@ movhi
 707:D:/Git/VL53L1/lib/core/src\vl53l1_api_preset_modes.c **** 		ptiming->range_config__min_count_rate_rtn_limit_mcps =
 859              		.loc 1 707 3 is_stmt 1 view .LVU395
 708:D:/Git/VL53L1/lib/core/src\vl53l1_api_preset_modes.c **** 				ptuning_parms->tp_lite_short_min_count_rate_rtn_mcps;
 860              		.loc 1 708 18 is_stmt 0 view .LVU396
 861 0024 A08B     		ldrh	r0, [r4, #28]
 707:D:/Git/VL53L1/lib/core/src\vl53l1_api_preset_modes.c **** 		ptiming->range_config__min_count_rate_rtn_limit_mcps =
 862              		.loc 1 707 56 view .LVU397
 863 0026 A881     		strh	r0, [r5, #12]	@ movhi
 709:D:/Git/VL53L1/lib/core/src\vl53l1_api_preset_modes.c **** 		ptiming->range_config__valid_phase_low               = 0x08;
 864              		.loc 1 709 3 is_stmt 1 view .LVU398
 865              		.loc 1 709 56 is_stmt 0 view .LVU399
 866 0028 0820     		movs	r0, #8
 867 002a A873     		strb	r0, [r5, #14]
 710:D:/Git/VL53L1/lib/core/src\vl53l1_api_preset_modes.c **** 		ptiming->range_config__valid_phase_high              = 0x38;
 868              		.loc 1 710 3 is_stmt 1 view .LVU400
 869              		.loc 1 710 56 is_stmt 0 view .LVU401
 870 002c 3820     		movs	r0, #56
 871 002e E873     		strb	r0, [r5, #15]
ARM GAS  C:\Users\Berbardo\AppData\Local\Temp\ccQolnPL.s 			page 29


 711:D:/Git/VL53L1/lib/core/src\vl53l1_api_preset_modes.c **** 
 712:D:/Git/VL53L1/lib/core/src\vl53l1_api_preset_modes.c **** 		/* Dynamic Configuration
 713:D:/Git/VL53L1/lib/core/src\vl53l1_api_preset_modes.c **** 		 * SD0 -> Timing A
 714:D:/Git/VL53L1/lib/core/src\vl53l1_api_preset_modes.c **** 		 * SD1 -> Timing B
 715:D:/Git/VL53L1/lib/core/src\vl53l1_api_preset_modes.c **** 		 */
 716:D:/Git/VL53L1/lib/core/src\vl53l1_api_preset_modes.c **** 
 717:D:/Git/VL53L1/lib/core/src\vl53l1_api_preset_modes.c **** 		pdynamic->sd_config__woi_sd0                         = 0x07;
 872              		.loc 1 717 3 is_stmt 1 view .LVU402
 873              		.loc 1 717 56 is_stmt 0 view .LVU403
 874 0030 3172     		strb	r1, [r6, #8]
 718:D:/Git/VL53L1/lib/core/src\vl53l1_api_preset_modes.c **** 		pdynamic->sd_config__woi_sd1                         = 0x05;
 875              		.loc 1 718 3 is_stmt 1 view .LVU404
 876              		.loc 1 718 56 is_stmt 0 view .LVU405
 877 0032 7272     		strb	r2, [r6, #9]
 719:D:/Git/VL53L1/lib/core/src\vl53l1_api_preset_modes.c **** 		pdynamic->sd_config__initial_phase_sd0               =
 878              		.loc 1 719 3 is_stmt 1 view .LVU406
 720:D:/Git/VL53L1/lib/core/src\vl53l1_api_preset_modes.c **** 				ptuning_parms->tp_init_phase_rtn_lite_short;
 879              		.loc 1 720 18 is_stmt 0 view .LVU407
 880 0034 227A     		ldrb	r2, [r4, #8]	@ zero_extendqisi2
 719:D:/Git/VL53L1/lib/core/src\vl53l1_api_preset_modes.c **** 		pdynamic->sd_config__initial_phase_sd0               =
 881              		.loc 1 719 56 view .LVU408
 882 0036 B272     		strb	r2, [r6, #10]
 721:D:/Git/VL53L1/lib/core/src\vl53l1_api_preset_modes.c **** 		pdynamic->sd_config__initial_phase_sd1               =
 883              		.loc 1 721 3 is_stmt 1 view .LVU409
 722:D:/Git/VL53L1/lib/core/src\vl53l1_api_preset_modes.c **** 				ptuning_parms->tp_init_phase_ref_lite_short;
 884              		.loc 1 722 18 is_stmt 0 view .LVU410
 885 0038 E27A     		ldrb	r2, [r4, #11]	@ zero_extendqisi2
 721:D:/Git/VL53L1/lib/core/src\vl53l1_api_preset_modes.c **** 		pdynamic->sd_config__initial_phase_sd1               =
 886              		.loc 1 721 56 view .LVU411
 887 003a F272     		strb	r2, [r6, #11]
 888              	.L15:
 723:D:/Git/VL53L1/lib/core/src\vl53l1_api_preset_modes.c **** 	}
 724:D:/Git/VL53L1/lib/core/src\vl53l1_api_preset_modes.c **** 
 725:D:/Git/VL53L1/lib/core/src\vl53l1_api_preset_modes.c **** 	LOG_FUNCTION_END(status);
 889              		.loc 1 725 26 is_stmt 1 view .LVU412
 726:D:/Git/VL53L1/lib/core/src\vl53l1_api_preset_modes.c **** 
 727:D:/Git/VL53L1/lib/core/src\vl53l1_api_preset_modes.c **** 	return status;
 890              		.loc 1 727 2 view .LVU413
 728:D:/Git/VL53L1/lib/core/src\vl53l1_api_preset_modes.c **** }
 891              		.loc 1 728 1 is_stmt 0 view .LVU414
 892 003c 1846     		mov	r0, r3
 893 003e 03B0     		add	sp, sp, #12
 894              		.cfi_def_cfa_offset 20
 895              		@ sp needed
 896 0040 F0BD     		pop	{r4, r5, r6, r7, pc}
 897              		.loc 1 728 1 view .LVU415
 898              		.cfi_endproc
 899              	.LFE132:
 901              		.section	.text.VL53L1_preset_mode_standard_ranging_long_range,"ax",%progbits
 902              		.align	1
 903              		.global	VL53L1_preset_mode_standard_ranging_long_range
 904              		.syntax unified
 905              		.thumb
 906              		.thumb_func
 907              		.fpu fpv4-sp-d16
 909              	VL53L1_preset_mode_standard_ranging_long_range:
 910              	.LVL28:
ARM GAS  C:\Users\Berbardo\AppData\Local\Temp\ccQolnPL.s 			page 30


 911              	.LFB133:
 729:D:/Git/VL53L1/lib/core/src\vl53l1_api_preset_modes.c **** 
 730:D:/Git/VL53L1/lib/core/src\vl53l1_api_preset_modes.c **** 
 731:D:/Git/VL53L1/lib/core/src\vl53l1_api_preset_modes.c **** VL53L1_Error VL53L1_preset_mode_standard_ranging_long_range(
 732:D:/Git/VL53L1/lib/core/src\vl53l1_api_preset_modes.c **** 	VL53L1_static_config_t    *pstatic,
 733:D:/Git/VL53L1/lib/core/src\vl53l1_api_preset_modes.c **** 	VL53L1_general_config_t   *pgeneral,
 734:D:/Git/VL53L1/lib/core/src\vl53l1_api_preset_modes.c **** 	VL53L1_timing_config_t    *ptiming,
 735:D:/Git/VL53L1/lib/core/src\vl53l1_api_preset_modes.c **** 	VL53L1_dynamic_config_t   *pdynamic,
 736:D:/Git/VL53L1/lib/core/src\vl53l1_api_preset_modes.c **** 	VL53L1_system_control_t   *psystem,
 737:D:/Git/VL53L1/lib/core/src\vl53l1_api_preset_modes.c **** 	VL53L1_tuning_parm_storage_t *ptuning_parms)
 738:D:/Git/VL53L1/lib/core/src\vl53l1_api_preset_modes.c **** {
 912              		.loc 1 738 1 is_stmt 1 view -0
 913              		.cfi_startproc
 914              		@ args = 8, pretend = 0, frame = 0
 915              		@ frame_needed = 0, uses_anonymous_args = 0
 916              		.loc 1 738 1 is_stmt 0 view .LVU417
 917 0000 F0B5     		push	{r4, r5, r6, r7, lr}
 918              		.cfi_def_cfa_offset 20
 919              		.cfi_offset 4, -20
 920              		.cfi_offset 5, -16
 921              		.cfi_offset 6, -12
 922              		.cfi_offset 7, -8
 923              		.cfi_offset 14, -4
 924 0002 83B0     		sub	sp, sp, #12
 925              		.cfi_def_cfa_offset 32
 926 0004 1546     		mov	r5, r2
 927 0006 1E46     		mov	r6, r3
 928 0008 099C     		ldr	r4, [sp, #36]
 739:D:/Git/VL53L1/lib/core/src\vl53l1_api_preset_modes.c **** 	/*
 740:D:/Git/VL53L1/lib/core/src\vl53l1_api_preset_modes.c **** 	 * Initializes static and dynamic data structures for
 741:D:/Git/VL53L1/lib/core/src\vl53l1_api_preset_modes.c **** 	 * device preset mode
 742:D:/Git/VL53L1/lib/core/src\vl53l1_api_preset_modes.c **** 	 *
 743:D:/Git/VL53L1/lib/core/src\vl53l1_api_preset_modes.c **** 	 * VL53L1_DEVICEPRESETMODE_STANDARD_RANGING_LONG_RANGE
 744:D:/Git/VL53L1/lib/core/src\vl53l1_api_preset_modes.c **** 	 * (up to 4.8 metres)
 745:D:/Git/VL53L1/lib/core/src\vl53l1_api_preset_modes.c **** 	 *
 746:D:/Git/VL53L1/lib/core/src\vl53l1_api_preset_modes.c **** 	 *  PLEASE NOTE THE SETTINGS BELOW AT PROVISIONAL AND WILL CHANGE!
 747:D:/Git/VL53L1/lib/core/src\vl53l1_api_preset_modes.c **** 	 */
 748:D:/Git/VL53L1/lib/core/src\vl53l1_api_preset_modes.c **** 
 749:D:/Git/VL53L1/lib/core/src\vl53l1_api_preset_modes.c **** 	VL53L1_Error  status = VL53L1_ERROR_NONE;
 929              		.loc 1 749 2 is_stmt 1 view .LVU418
 930              	.LVL29:
 750:D:/Git/VL53L1/lib/core/src\vl53l1_api_preset_modes.c **** 
 751:D:/Git/VL53L1/lib/core/src\vl53l1_api_preset_modes.c **** 	LOG_FUNCTION_START("");
 931              		.loc 1 751 24 view .LVU419
 752:D:/Git/VL53L1/lib/core/src\vl53l1_api_preset_modes.c **** 
 753:D:/Git/VL53L1/lib/core/src\vl53l1_api_preset_modes.c **** 	/* Call standard ranging configuration with
 754:D:/Git/VL53L1/lib/core/src\vl53l1_api_preset_modes.c **** 	 * overrides for long range configuration
 755:D:/Git/VL53L1/lib/core/src\vl53l1_api_preset_modes.c **** 	 */
 756:D:/Git/VL53L1/lib/core/src\vl53l1_api_preset_modes.c **** 
 757:D:/Git/VL53L1/lib/core/src\vl53l1_api_preset_modes.c **** 	status = VL53L1_preset_mode_standard_ranging(
 932              		.loc 1 757 2 view .LVU420
 933              		.loc 1 757 11 is_stmt 0 view .LVU421
 934 000a 0194     		str	r4, [sp, #4]
 935 000c 089F     		ldr	r7, [sp, #32]
 936 000e 0097     		str	r7, [sp]
 937 0010 FFF7FEFF 		bl	VL53L1_preset_mode_standard_ranging
 938              	.LVL30:
ARM GAS  C:\Users\Berbardo\AppData\Local\Temp\ccQolnPL.s 			page 31


 758:D:/Git/VL53L1/lib/core/src\vl53l1_api_preset_modes.c **** 		pstatic,
 759:D:/Git/VL53L1/lib/core/src\vl53l1_api_preset_modes.c **** 		pgeneral,
 760:D:/Git/VL53L1/lib/core/src\vl53l1_api_preset_modes.c **** 		ptiming,
 761:D:/Git/VL53L1/lib/core/src\vl53l1_api_preset_modes.c **** 		pdynamic,
 762:D:/Git/VL53L1/lib/core/src\vl53l1_api_preset_modes.c **** 		psystem,
 763:D:/Git/VL53L1/lib/core/src\vl53l1_api_preset_modes.c **** 		ptuning_parms);
 764:D:/Git/VL53L1/lib/core/src\vl53l1_api_preset_modes.c **** 
 765:D:/Git/VL53L1/lib/core/src\vl53l1_api_preset_modes.c **** 	/* now override standard ranging specific registers */
 766:D:/Git/VL53L1/lib/core/src\vl53l1_api_preset_modes.c **** 
 767:D:/Git/VL53L1/lib/core/src\vl53l1_api_preset_modes.c **** 	if (status == VL53L1_ERROR_NONE) {
 939              		.loc 1 767 2 is_stmt 1 view .LVU422
 940              		.loc 1 767 5 is_stmt 0 view .LVU423
 941 0014 0346     		mov	r3, r0
 942 0016 88B9     		cbnz	r0, .L18
 768:D:/Git/VL53L1/lib/core/src\vl53l1_api_preset_modes.c **** 
 769:D:/Git/VL53L1/lib/core/src\vl53l1_api_preset_modes.c **** 		/* Timing Configuration
 770:D:/Git/VL53L1/lib/core/src\vl53l1_api_preset_modes.c **** 		 *
 771:D:/Git/VL53L1/lib/core/src\vl53l1_api_preset_modes.c **** 		 * vcsel_period_a    = 15 -> 32 period
 772:D:/Git/VL53L1/lib/core/src\vl53l1_api_preset_modes.c **** 		 * vcsel_period_b    = 13 -> 28 period
 773:D:/Git/VL53L1/lib/core/src\vl53l1_api_preset_modes.c **** 		 * sigma_thresh                  = 0x003C -> 14.2fp -> 15.0 mm
 774:D:/Git/VL53L1/lib/core/src\vl53l1_api_preset_modes.c **** 		 * min_count_rate_rtn_limit_mcps = 0x0080 ->  9.7fp ->  1.0 Mcps
 775:D:/Git/VL53L1/lib/core/src\vl53l1_api_preset_modes.c **** 		 * valid_phase_low               = 0x08 -> 5.3fp ->  1.0
 776:D:/Git/VL53L1/lib/core/src\vl53l1_api_preset_modes.c **** 		 * valid_phase_high              = 0xB8 -> 5.3fp -> 23.0 -> 4.6m
 777:D:/Git/VL53L1/lib/core/src\vl53l1_api_preset_modes.c **** 		 */
 778:D:/Git/VL53L1/lib/core/src\vl53l1_api_preset_modes.c **** 
 779:D:/Git/VL53L1/lib/core/src\vl53l1_api_preset_modes.c **** 		ptiming->range_config__vcsel_period_a                = 0x0F;
 943              		.loc 1 779 3 is_stmt 1 view .LVU424
 944              		.loc 1 779 56 is_stmt 0 view .LVU425
 945 0018 0F21     		movs	r1, #15
 946 001a A971     		strb	r1, [r5, #6]
 780:D:/Git/VL53L1/lib/core/src\vl53l1_api_preset_modes.c **** 		ptiming->range_config__vcsel_period_b                = 0x0D;
 947              		.loc 1 780 3 is_stmt 1 view .LVU426
 948              		.loc 1 780 56 is_stmt 0 view .LVU427
 949 001c 0D22     		movs	r2, #13
 950 001e 6A72     		strb	r2, [r5, #9]
 781:D:/Git/VL53L1/lib/core/src\vl53l1_api_preset_modes.c **** 		ptiming->range_config__sigma_thresh                  =
 951              		.loc 1 781 3 is_stmt 1 view .LVU428
 782:D:/Git/VL53L1/lib/core/src\vl53l1_api_preset_modes.c **** 				ptuning_parms->tp_lite_long_sigma_thresh_mm;
 952              		.loc 1 782 18 is_stmt 0 view .LVU429
 953 0020 608A     		ldrh	r0, [r4, #18]
 954              	.LVL31:
 781:D:/Git/VL53L1/lib/core/src\vl53l1_api_preset_modes.c **** 		ptiming->range_config__sigma_thresh                  =
 955              		.loc 1 781 56 view .LVU430
 956 0022 6881     		strh	r0, [r5, #10]	@ movhi
 783:D:/Git/VL53L1/lib/core/src\vl53l1_api_preset_modes.c **** 		ptiming->range_config__min_count_rate_rtn_limit_mcps =
 957              		.loc 1 783 3 is_stmt 1 view .LVU431
 784:D:/Git/VL53L1/lib/core/src\vl53l1_api_preset_modes.c **** 				ptuning_parms->tp_lite_long_min_count_rate_rtn_mcps;
 958              		.loc 1 784 18 is_stmt 0 view .LVU432
 959 0024 208B     		ldrh	r0, [r4, #24]
 783:D:/Git/VL53L1/lib/core/src\vl53l1_api_preset_modes.c **** 		ptiming->range_config__min_count_rate_rtn_limit_mcps =
 960              		.loc 1 783 56 view .LVU433
 961 0026 A881     		strh	r0, [r5, #12]	@ movhi
 785:D:/Git/VL53L1/lib/core/src\vl53l1_api_preset_modes.c **** 		ptiming->range_config__valid_phase_low               = 0x08;
 962              		.loc 1 785 3 is_stmt 1 view .LVU434
 963              		.loc 1 785 56 is_stmt 0 view .LVU435
 964 0028 0820     		movs	r0, #8
 965 002a A873     		strb	r0, [r5, #14]
ARM GAS  C:\Users\Berbardo\AppData\Local\Temp\ccQolnPL.s 			page 32


 786:D:/Git/VL53L1/lib/core/src\vl53l1_api_preset_modes.c **** 		ptiming->range_config__valid_phase_high              = 0xB8;
 966              		.loc 1 786 3 is_stmt 1 view .LVU436
 967              		.loc 1 786 56 is_stmt 0 view .LVU437
 968 002c B820     		movs	r0, #184
 969 002e E873     		strb	r0, [r5, #15]
 787:D:/Git/VL53L1/lib/core/src\vl53l1_api_preset_modes.c **** 
 788:D:/Git/VL53L1/lib/core/src\vl53l1_api_preset_modes.c **** 		/* Dynamic Configuration
 789:D:/Git/VL53L1/lib/core/src\vl53l1_api_preset_modes.c **** 		 * SD0 -> Timing A
 790:D:/Git/VL53L1/lib/core/src\vl53l1_api_preset_modes.c **** 		 * SD1 -> Timing B
 791:D:/Git/VL53L1/lib/core/src\vl53l1_api_preset_modes.c **** 		 */
 792:D:/Git/VL53L1/lib/core/src\vl53l1_api_preset_modes.c **** 
 793:D:/Git/VL53L1/lib/core/src\vl53l1_api_preset_modes.c **** 		pdynamic->sd_config__woi_sd0                         = 0x0F;
 970              		.loc 1 793 3 is_stmt 1 view .LVU438
 971              		.loc 1 793 56 is_stmt 0 view .LVU439
 972 0030 3172     		strb	r1, [r6, #8]
 794:D:/Git/VL53L1/lib/core/src\vl53l1_api_preset_modes.c **** 		pdynamic->sd_config__woi_sd1                         = 0x0D;
 973              		.loc 1 794 3 is_stmt 1 view .LVU440
 974              		.loc 1 794 56 is_stmt 0 view .LVU441
 975 0032 7272     		strb	r2, [r6, #9]
 795:D:/Git/VL53L1/lib/core/src\vl53l1_api_preset_modes.c **** 		pdynamic->sd_config__initial_phase_sd0               =
 976              		.loc 1 795 3 is_stmt 1 view .LVU442
 796:D:/Git/VL53L1/lib/core/src\vl53l1_api_preset_modes.c **** 				ptuning_parms->tp_init_phase_rtn_lite_long;
 977              		.loc 1 796 18 is_stmt 0 view .LVU443
 978 0034 A279     		ldrb	r2, [r4, #6]	@ zero_extendqisi2
 795:D:/Git/VL53L1/lib/core/src\vl53l1_api_preset_modes.c **** 		pdynamic->sd_config__initial_phase_sd0               =
 979              		.loc 1 795 56 view .LVU444
 980 0036 B272     		strb	r2, [r6, #10]
 797:D:/Git/VL53L1/lib/core/src\vl53l1_api_preset_modes.c **** 		pdynamic->sd_config__initial_phase_sd1               =
 981              		.loc 1 797 3 is_stmt 1 view .LVU445
 798:D:/Git/VL53L1/lib/core/src\vl53l1_api_preset_modes.c **** 				ptuning_parms->tp_init_phase_ref_lite_long;
 982              		.loc 1 798 18 is_stmt 0 view .LVU446
 983 0038 627A     		ldrb	r2, [r4, #9]	@ zero_extendqisi2
 797:D:/Git/VL53L1/lib/core/src\vl53l1_api_preset_modes.c **** 		pdynamic->sd_config__initial_phase_sd1               =
 984              		.loc 1 797 56 view .LVU447
 985 003a F272     		strb	r2, [r6, #11]
 986              	.L18:
 799:D:/Git/VL53L1/lib/core/src\vl53l1_api_preset_modes.c **** 	}
 800:D:/Git/VL53L1/lib/core/src\vl53l1_api_preset_modes.c **** 
 801:D:/Git/VL53L1/lib/core/src\vl53l1_api_preset_modes.c **** 	LOG_FUNCTION_END(status);
 987              		.loc 1 801 26 is_stmt 1 view .LVU448
 802:D:/Git/VL53L1/lib/core/src\vl53l1_api_preset_modes.c **** 
 803:D:/Git/VL53L1/lib/core/src\vl53l1_api_preset_modes.c **** 	return status;
 988              		.loc 1 803 2 view .LVU449
 804:D:/Git/VL53L1/lib/core/src\vl53l1_api_preset_modes.c **** }
 989              		.loc 1 804 1 is_stmt 0 view .LVU450
 990 003c 1846     		mov	r0, r3
 991 003e 03B0     		add	sp, sp, #12
 992              		.cfi_def_cfa_offset 20
 993              		@ sp needed
 994 0040 F0BD     		pop	{r4, r5, r6, r7, pc}
 995              		.loc 1 804 1 view .LVU451
 996              		.cfi_endproc
 997              	.LFE133:
 999              		.section	.text.VL53L1_preset_mode_standard_ranging_mm1_cal,"ax",%progbits
 1000              		.align	1
 1001              		.global	VL53L1_preset_mode_standard_ranging_mm1_cal
 1002              		.syntax unified
ARM GAS  C:\Users\Berbardo\AppData\Local\Temp\ccQolnPL.s 			page 33


 1003              		.thumb
 1004              		.thumb_func
 1005              		.fpu fpv4-sp-d16
 1007              	VL53L1_preset_mode_standard_ranging_mm1_cal:
 1008              	.LVL32:
 1009              	.LFB134:
 805:D:/Git/VL53L1/lib/core/src\vl53l1_api_preset_modes.c **** 
 806:D:/Git/VL53L1/lib/core/src\vl53l1_api_preset_modes.c **** 
 807:D:/Git/VL53L1/lib/core/src\vl53l1_api_preset_modes.c **** #ifndef VL53L1_NOCALIB
 808:D:/Git/VL53L1/lib/core/src\vl53l1_api_preset_modes.c **** VL53L1_Error VL53L1_preset_mode_standard_ranging_mm1_cal(
 809:D:/Git/VL53L1/lib/core/src\vl53l1_api_preset_modes.c **** 	VL53L1_static_config_t    *pstatic,
 810:D:/Git/VL53L1/lib/core/src\vl53l1_api_preset_modes.c **** 	VL53L1_general_config_t   *pgeneral,
 811:D:/Git/VL53L1/lib/core/src\vl53l1_api_preset_modes.c **** 	VL53L1_timing_config_t    *ptiming,
 812:D:/Git/VL53L1/lib/core/src\vl53l1_api_preset_modes.c **** 	VL53L1_dynamic_config_t   *pdynamic,
 813:D:/Git/VL53L1/lib/core/src\vl53l1_api_preset_modes.c **** 	VL53L1_system_control_t   *psystem,
 814:D:/Git/VL53L1/lib/core/src\vl53l1_api_preset_modes.c **** 	VL53L1_tuning_parm_storage_t *ptuning_parms)
 815:D:/Git/VL53L1/lib/core/src\vl53l1_api_preset_modes.c **** {
 1010              		.loc 1 815 1 is_stmt 1 view -0
 1011              		.cfi_startproc
 1012              		@ args = 8, pretend = 0, frame = 0
 1013              		@ frame_needed = 0, uses_anonymous_args = 0
 1014              		.loc 1 815 1 is_stmt 0 view .LVU453
 1015 0000 70B5     		push	{r4, r5, r6, lr}
 1016              		.cfi_def_cfa_offset 16
 1017              		.cfi_offset 4, -16
 1018              		.cfi_offset 5, -12
 1019              		.cfi_offset 6, -8
 1020              		.cfi_offset 14, -4
 1021 0002 82B0     		sub	sp, sp, #8
 1022              		.cfi_def_cfa_offset 24
 1023 0004 0E46     		mov	r6, r1
 1024 0006 1D46     		mov	r5, r3
 816:D:/Git/VL53L1/lib/core/src\vl53l1_api_preset_modes.c **** 	/*
 817:D:/Git/VL53L1/lib/core/src\vl53l1_api_preset_modes.c **** 	 * Initializes static and dynamic data structures for
 818:D:/Git/VL53L1/lib/core/src\vl53l1_api_preset_modes.c **** 	 * device preset mode
 819:D:/Git/VL53L1/lib/core/src\vl53l1_api_preset_modes.c **** 	 *
 820:D:/Git/VL53L1/lib/core/src\vl53l1_api_preset_modes.c **** 	 * VL53L1_DEVICEPRESETMODE_STANDARD_RANGING_MM1_CAL
 821:D:/Git/VL53L1/lib/core/src\vl53l1_api_preset_modes.c **** 	 *
 822:D:/Git/VL53L1/lib/core/src\vl53l1_api_preset_modes.c **** 	 * PLEASE NOTE THE SETTINGS BELOW AT PROVISIONAL AND WILL CHANGE!
 823:D:/Git/VL53L1/lib/core/src\vl53l1_api_preset_modes.c **** 	 */
 824:D:/Git/VL53L1/lib/core/src\vl53l1_api_preset_modes.c **** 
 825:D:/Git/VL53L1/lib/core/src\vl53l1_api_preset_modes.c **** 	VL53L1_Error  status = VL53L1_ERROR_NONE;
 1025              		.loc 1 825 2 is_stmt 1 view .LVU454
 1026              	.LVL33:
 826:D:/Git/VL53L1/lib/core/src\vl53l1_api_preset_modes.c **** 
 827:D:/Git/VL53L1/lib/core/src\vl53l1_api_preset_modes.c **** 	LOG_FUNCTION_START("");
 1027              		.loc 1 827 24 view .LVU455
 828:D:/Git/VL53L1/lib/core/src\vl53l1_api_preset_modes.c **** 
 829:D:/Git/VL53L1/lib/core/src\vl53l1_api_preset_modes.c **** 	/* Call standard ranging configuration with
 830:D:/Git/VL53L1/lib/core/src\vl53l1_api_preset_modes.c **** 	 * overrides for long range configuration
 831:D:/Git/VL53L1/lib/core/src\vl53l1_api_preset_modes.c **** 	 */
 832:D:/Git/VL53L1/lib/core/src\vl53l1_api_preset_modes.c **** 
 833:D:/Git/VL53L1/lib/core/src\vl53l1_api_preset_modes.c **** 	status = VL53L1_preset_mode_standard_ranging(
 1028              		.loc 1 833 2 view .LVU456
 1029              		.loc 1 833 11 is_stmt 0 view .LVU457
 1030 0008 079C     		ldr	r4, [sp, #28]
 1031 000a 0194     		str	r4, [sp, #4]
ARM GAS  C:\Users\Berbardo\AppData\Local\Temp\ccQolnPL.s 			page 34


 1032 000c 069C     		ldr	r4, [sp, #24]
 1033 000e 0094     		str	r4, [sp]
 1034 0010 FFF7FEFF 		bl	VL53L1_preset_mode_standard_ranging
 1035              	.LVL34:
 834:D:/Git/VL53L1/lib/core/src\vl53l1_api_preset_modes.c **** 		pstatic,
 835:D:/Git/VL53L1/lib/core/src\vl53l1_api_preset_modes.c **** 		pgeneral,
 836:D:/Git/VL53L1/lib/core/src\vl53l1_api_preset_modes.c **** 		ptiming,
 837:D:/Git/VL53L1/lib/core/src\vl53l1_api_preset_modes.c **** 		pdynamic,
 838:D:/Git/VL53L1/lib/core/src\vl53l1_api_preset_modes.c **** 		psystem,
 839:D:/Git/VL53L1/lib/core/src\vl53l1_api_preset_modes.c **** 		ptuning_parms);
 840:D:/Git/VL53L1/lib/core/src\vl53l1_api_preset_modes.c **** 
 841:D:/Git/VL53L1/lib/core/src\vl53l1_api_preset_modes.c **** 	/* now override standard ranging specific registers */
 842:D:/Git/VL53L1/lib/core/src\vl53l1_api_preset_modes.c **** 
 843:D:/Git/VL53L1/lib/core/src\vl53l1_api_preset_modes.c **** 	if (status == VL53L1_ERROR_NONE) {
 1036              		.loc 1 843 2 is_stmt 1 view .LVU458
 1037              		.loc 1 843 5 is_stmt 0 view .LVU459
 1038 0014 0346     		mov	r3, r0
 1039 0016 18B9     		cbnz	r0, .L21
 844:D:/Git/VL53L1/lib/core/src\vl53l1_api_preset_modes.c **** 
 845:D:/Git/VL53L1/lib/core/src\vl53l1_api_preset_modes.c **** 		pgeneral->dss_config__roi_mode_control =
 1040              		.loc 1 845 3 is_stmt 1 view .LVU460
 1041              		.loc 1 845 42 is_stmt 0 view .LVU461
 1042 0018 0222     		movs	r2, #2
 1043 001a B272     		strb	r2, [r6, #10]
 846:D:/Git/VL53L1/lib/core/src\vl53l1_api_preset_modes.c **** 				VL53L1_DEVICEDSSMODE__REQUESTED_EFFFECTIVE_SPADS;
 847:D:/Git/VL53L1/lib/core/src\vl53l1_api_preset_modes.c **** 
 848:D:/Git/VL53L1/lib/core/src\vl53l1_api_preset_modes.c **** 		pdynamic->system__sequence_config  = \
 1044              		.loc 1 848 3 is_stmt 1 view .LVU462
 1045              		.loc 1 848 38 is_stmt 0 view .LVU463
 1046 001c 3B22     		movs	r2, #59
 1047 001e 6A74     		strb	r2, [r5, #17]
 1048              	.L21:
 849:D:/Git/VL53L1/lib/core/src\vl53l1_api_preset_modes.c **** 				VL53L1_SEQUENCE_VHV_EN | \
 850:D:/Git/VL53L1/lib/core/src\vl53l1_api_preset_modes.c **** 				VL53L1_SEQUENCE_PHASECAL_EN | \
 851:D:/Git/VL53L1/lib/core/src\vl53l1_api_preset_modes.c **** 				VL53L1_SEQUENCE_DSS1_EN | \
 852:D:/Git/VL53L1/lib/core/src\vl53l1_api_preset_modes.c **** 				VL53L1_SEQUENCE_DSS2_EN | \
 853:D:/Git/VL53L1/lib/core/src\vl53l1_api_preset_modes.c **** 				VL53L1_SEQUENCE_MM1_EN;
 854:D:/Git/VL53L1/lib/core/src\vl53l1_api_preset_modes.c **** 	}
 855:D:/Git/VL53L1/lib/core/src\vl53l1_api_preset_modes.c **** 
 856:D:/Git/VL53L1/lib/core/src\vl53l1_api_preset_modes.c **** 	LOG_FUNCTION_END(status);
 1049              		.loc 1 856 26 is_stmt 1 view .LVU464
 857:D:/Git/VL53L1/lib/core/src\vl53l1_api_preset_modes.c **** 
 858:D:/Git/VL53L1/lib/core/src\vl53l1_api_preset_modes.c **** 	return status;
 1050              		.loc 1 858 2 view .LVU465
 859:D:/Git/VL53L1/lib/core/src\vl53l1_api_preset_modes.c **** }
 1051              		.loc 1 859 1 is_stmt 0 view .LVU466
 1052 0020 1846     		mov	r0, r3
 1053              	.LVL35:
 1054              		.loc 1 859 1 view .LVU467
 1055 0022 02B0     		add	sp, sp, #8
 1056              		.cfi_def_cfa_offset 16
 1057              		@ sp needed
 1058 0024 70BD     		pop	{r4, r5, r6, pc}
 1059              		.loc 1 859 1 view .LVU468
 1060              		.cfi_endproc
 1061              	.LFE134:
 1063              		.section	.text.VL53L1_preset_mode_standard_ranging_mm2_cal,"ax",%progbits
ARM GAS  C:\Users\Berbardo\AppData\Local\Temp\ccQolnPL.s 			page 35


 1064              		.align	1
 1065              		.global	VL53L1_preset_mode_standard_ranging_mm2_cal
 1066              		.syntax unified
 1067              		.thumb
 1068              		.thumb_func
 1069              		.fpu fpv4-sp-d16
 1071              	VL53L1_preset_mode_standard_ranging_mm2_cal:
 1072              	.LVL36:
 1073              	.LFB135:
 860:D:/Git/VL53L1/lib/core/src\vl53l1_api_preset_modes.c **** 
 861:D:/Git/VL53L1/lib/core/src\vl53l1_api_preset_modes.c **** 
 862:D:/Git/VL53L1/lib/core/src\vl53l1_api_preset_modes.c **** VL53L1_Error VL53L1_preset_mode_standard_ranging_mm2_cal(
 863:D:/Git/VL53L1/lib/core/src\vl53l1_api_preset_modes.c **** 	VL53L1_static_config_t    *pstatic,
 864:D:/Git/VL53L1/lib/core/src\vl53l1_api_preset_modes.c **** 	VL53L1_general_config_t   *pgeneral,
 865:D:/Git/VL53L1/lib/core/src\vl53l1_api_preset_modes.c **** 	VL53L1_timing_config_t    *ptiming,
 866:D:/Git/VL53L1/lib/core/src\vl53l1_api_preset_modes.c **** 	VL53L1_dynamic_config_t   *pdynamic,
 867:D:/Git/VL53L1/lib/core/src\vl53l1_api_preset_modes.c **** 	VL53L1_system_control_t   *psystem,
 868:D:/Git/VL53L1/lib/core/src\vl53l1_api_preset_modes.c **** 	VL53L1_tuning_parm_storage_t *ptuning_parms)
 869:D:/Git/VL53L1/lib/core/src\vl53l1_api_preset_modes.c **** {
 1074              		.loc 1 869 1 is_stmt 1 view -0
 1075              		.cfi_startproc
 1076              		@ args = 8, pretend = 0, frame = 0
 1077              		@ frame_needed = 0, uses_anonymous_args = 0
 1078              		.loc 1 869 1 is_stmt 0 view .LVU470
 1079 0000 70B5     		push	{r4, r5, r6, lr}
 1080              		.cfi_def_cfa_offset 16
 1081              		.cfi_offset 4, -16
 1082              		.cfi_offset 5, -12
 1083              		.cfi_offset 6, -8
 1084              		.cfi_offset 14, -4
 1085 0002 82B0     		sub	sp, sp, #8
 1086              		.cfi_def_cfa_offset 24
 1087 0004 0E46     		mov	r6, r1
 1088 0006 1D46     		mov	r5, r3
 870:D:/Git/VL53L1/lib/core/src\vl53l1_api_preset_modes.c **** 	/*
 871:D:/Git/VL53L1/lib/core/src\vl53l1_api_preset_modes.c **** 	 * Initializes static and dynamic data structures for
 872:D:/Git/VL53L1/lib/core/src\vl53l1_api_preset_modes.c **** 	 * device preset mode
 873:D:/Git/VL53L1/lib/core/src\vl53l1_api_preset_modes.c **** 	 *
 874:D:/Git/VL53L1/lib/core/src\vl53l1_api_preset_modes.c **** 	 * VL53L1_DEVICEPRESETMODE_STANDARD_RANGING_MM2_CAL
 875:D:/Git/VL53L1/lib/core/src\vl53l1_api_preset_modes.c **** 	 *
 876:D:/Git/VL53L1/lib/core/src\vl53l1_api_preset_modes.c **** 	 * PLEASE NOTE THE SETTINGS BELOW AT PROVISIONAL AND WILL CHANGE!
 877:D:/Git/VL53L1/lib/core/src\vl53l1_api_preset_modes.c **** 	 */
 878:D:/Git/VL53L1/lib/core/src\vl53l1_api_preset_modes.c **** 
 879:D:/Git/VL53L1/lib/core/src\vl53l1_api_preset_modes.c **** 	VL53L1_Error  status = VL53L1_ERROR_NONE;
 1089              		.loc 1 879 2 is_stmt 1 view .LVU471
 1090              	.LVL37:
 880:D:/Git/VL53L1/lib/core/src\vl53l1_api_preset_modes.c **** 
 881:D:/Git/VL53L1/lib/core/src\vl53l1_api_preset_modes.c **** 	LOG_FUNCTION_START("");
 1091              		.loc 1 881 24 view .LVU472
 882:D:/Git/VL53L1/lib/core/src\vl53l1_api_preset_modes.c **** 
 883:D:/Git/VL53L1/lib/core/src\vl53l1_api_preset_modes.c **** 	/* Call standard ranging configuration with
 884:D:/Git/VL53L1/lib/core/src\vl53l1_api_preset_modes.c **** 	 * overrides for long range configuration
 885:D:/Git/VL53L1/lib/core/src\vl53l1_api_preset_modes.c **** 	 */
 886:D:/Git/VL53L1/lib/core/src\vl53l1_api_preset_modes.c **** 
 887:D:/Git/VL53L1/lib/core/src\vl53l1_api_preset_modes.c **** 	status = VL53L1_preset_mode_standard_ranging(
 1092              		.loc 1 887 2 view .LVU473
 1093              		.loc 1 887 11 is_stmt 0 view .LVU474
ARM GAS  C:\Users\Berbardo\AppData\Local\Temp\ccQolnPL.s 			page 36


 1094 0008 079C     		ldr	r4, [sp, #28]
 1095 000a 0194     		str	r4, [sp, #4]
 1096 000c 069C     		ldr	r4, [sp, #24]
 1097 000e 0094     		str	r4, [sp]
 1098 0010 FFF7FEFF 		bl	VL53L1_preset_mode_standard_ranging
 1099              	.LVL38:
 888:D:/Git/VL53L1/lib/core/src\vl53l1_api_preset_modes.c **** 		pstatic,
 889:D:/Git/VL53L1/lib/core/src\vl53l1_api_preset_modes.c **** 		pgeneral,
 890:D:/Git/VL53L1/lib/core/src\vl53l1_api_preset_modes.c **** 		ptiming,
 891:D:/Git/VL53L1/lib/core/src\vl53l1_api_preset_modes.c **** 		pdynamic,
 892:D:/Git/VL53L1/lib/core/src\vl53l1_api_preset_modes.c **** 		psystem,
 893:D:/Git/VL53L1/lib/core/src\vl53l1_api_preset_modes.c **** 		ptuning_parms);
 894:D:/Git/VL53L1/lib/core/src\vl53l1_api_preset_modes.c **** 
 895:D:/Git/VL53L1/lib/core/src\vl53l1_api_preset_modes.c **** 	/* now override standard ranging specific registers */
 896:D:/Git/VL53L1/lib/core/src\vl53l1_api_preset_modes.c **** 
 897:D:/Git/VL53L1/lib/core/src\vl53l1_api_preset_modes.c **** 	if (status == VL53L1_ERROR_NONE) {
 1100              		.loc 1 897 2 is_stmt 1 view .LVU475
 1101              		.loc 1 897 5 is_stmt 0 view .LVU476
 1102 0014 0346     		mov	r3, r0
 1103 0016 18B9     		cbnz	r0, .L24
 898:D:/Git/VL53L1/lib/core/src\vl53l1_api_preset_modes.c **** 
 899:D:/Git/VL53L1/lib/core/src\vl53l1_api_preset_modes.c **** 		pgeneral->dss_config__roi_mode_control =
 1104              		.loc 1 899 3 is_stmt 1 view .LVU477
 1105              		.loc 1 899 42 is_stmt 0 view .LVU478
 1106 0018 0222     		movs	r2, #2
 1107 001a B272     		strb	r2, [r6, #10]
 900:D:/Git/VL53L1/lib/core/src\vl53l1_api_preset_modes.c **** 				VL53L1_DEVICEDSSMODE__REQUESTED_EFFFECTIVE_SPADS;
 901:D:/Git/VL53L1/lib/core/src\vl53l1_api_preset_modes.c **** 
 902:D:/Git/VL53L1/lib/core/src\vl53l1_api_preset_modes.c **** 		pdynamic->system__sequence_config  = \
 1108              		.loc 1 902 3 is_stmt 1 view .LVU479
 1109              		.loc 1 902 38 is_stmt 0 view .LVU480
 1110 001c 5B22     		movs	r2, #91
 1111 001e 6A74     		strb	r2, [r5, #17]
 1112              	.L24:
 903:D:/Git/VL53L1/lib/core/src\vl53l1_api_preset_modes.c **** 				VL53L1_SEQUENCE_VHV_EN | \
 904:D:/Git/VL53L1/lib/core/src\vl53l1_api_preset_modes.c **** 				VL53L1_SEQUENCE_PHASECAL_EN | \
 905:D:/Git/VL53L1/lib/core/src\vl53l1_api_preset_modes.c **** 				VL53L1_SEQUENCE_DSS1_EN | \
 906:D:/Git/VL53L1/lib/core/src\vl53l1_api_preset_modes.c **** 				VL53L1_SEQUENCE_DSS2_EN | \
 907:D:/Git/VL53L1/lib/core/src\vl53l1_api_preset_modes.c **** 				VL53L1_SEQUENCE_MM2_EN;
 908:D:/Git/VL53L1/lib/core/src\vl53l1_api_preset_modes.c **** 	}
 909:D:/Git/VL53L1/lib/core/src\vl53l1_api_preset_modes.c **** 
 910:D:/Git/VL53L1/lib/core/src\vl53l1_api_preset_modes.c **** 	LOG_FUNCTION_END(status);
 1113              		.loc 1 910 26 is_stmt 1 view .LVU481
 911:D:/Git/VL53L1/lib/core/src\vl53l1_api_preset_modes.c **** 
 912:D:/Git/VL53L1/lib/core/src\vl53l1_api_preset_modes.c **** 	return status;
 1114              		.loc 1 912 2 view .LVU482
 913:D:/Git/VL53L1/lib/core/src\vl53l1_api_preset_modes.c **** }
 1115              		.loc 1 913 1 is_stmt 0 view .LVU483
 1116 0020 1846     		mov	r0, r3
 1117              	.LVL39:
 1118              		.loc 1 913 1 view .LVU484
 1119 0022 02B0     		add	sp, sp, #8
 1120              		.cfi_def_cfa_offset 16
 1121              		@ sp needed
 1122 0024 70BD     		pop	{r4, r5, r6, pc}
 1123              		.loc 1 913 1 view .LVU485
 1124              		.cfi_endproc
ARM GAS  C:\Users\Berbardo\AppData\Local\Temp\ccQolnPL.s 			page 37


 1125              	.LFE135:
 1127              		.section	.text.VL53L1_preset_mode_timed_ranging,"ax",%progbits
 1128              		.align	1
 1129              		.global	VL53L1_preset_mode_timed_ranging
 1130              		.syntax unified
 1131              		.thumb
 1132              		.thumb_func
 1133              		.fpu fpv4-sp-d16
 1135              	VL53L1_preset_mode_timed_ranging:
 1136              	.LVL40:
 1137              	.LFB136:
 914:D:/Git/VL53L1/lib/core/src\vl53l1_api_preset_modes.c **** #endif
 915:D:/Git/VL53L1/lib/core/src\vl53l1_api_preset_modes.c **** 
 916:D:/Git/VL53L1/lib/core/src\vl53l1_api_preset_modes.c **** 
 917:D:/Git/VL53L1/lib/core/src\vl53l1_api_preset_modes.c **** VL53L1_Error VL53L1_preset_mode_timed_ranging(
 918:D:/Git/VL53L1/lib/core/src\vl53l1_api_preset_modes.c **** 
 919:D:/Git/VL53L1/lib/core/src\vl53l1_api_preset_modes.c **** 	VL53L1_static_config_t    *pstatic,
 920:D:/Git/VL53L1/lib/core/src\vl53l1_api_preset_modes.c **** 	VL53L1_general_config_t   *pgeneral,
 921:D:/Git/VL53L1/lib/core/src\vl53l1_api_preset_modes.c **** 	VL53L1_timing_config_t    *ptiming,
 922:D:/Git/VL53L1/lib/core/src\vl53l1_api_preset_modes.c **** 	VL53L1_dynamic_config_t   *pdynamic,
 923:D:/Git/VL53L1/lib/core/src\vl53l1_api_preset_modes.c **** 	VL53L1_system_control_t   *psystem,
 924:D:/Git/VL53L1/lib/core/src\vl53l1_api_preset_modes.c **** 	VL53L1_tuning_parm_storage_t *ptuning_parms)
 925:D:/Git/VL53L1/lib/core/src\vl53l1_api_preset_modes.c **** {
 1138              		.loc 1 925 1 is_stmt 1 view -0
 1139              		.cfi_startproc
 1140              		@ args = 8, pretend = 0, frame = 0
 1141              		@ frame_needed = 0, uses_anonymous_args = 0
 1142              		.loc 1 925 1 is_stmt 0 view .LVU487
 1143 0000 F0B5     		push	{r4, r5, r6, r7, lr}
 1144              		.cfi_def_cfa_offset 20
 1145              		.cfi_offset 4, -20
 1146              		.cfi_offset 5, -16
 1147              		.cfi_offset 6, -12
 1148              		.cfi_offset 7, -8
 1149              		.cfi_offset 14, -4
 1150 0002 83B0     		sub	sp, sp, #12
 1151              		.cfi_def_cfa_offset 32
 1152 0004 1446     		mov	r4, r2
 1153 0006 1F46     		mov	r7, r3
 1154 0008 089D     		ldr	r5, [sp, #32]
 1155 000a 099E     		ldr	r6, [sp, #36]
 926:D:/Git/VL53L1/lib/core/src\vl53l1_api_preset_modes.c **** 	/*
 927:D:/Git/VL53L1/lib/core/src\vl53l1_api_preset_modes.c **** 	* Initializes static and dynamic data structures for
 928:D:/Git/VL53L1/lib/core/src\vl53l1_api_preset_modes.c **** 	* device preset mode
 929:D:/Git/VL53L1/lib/core/src\vl53l1_api_preset_modes.c **** 	*
 930:D:/Git/VL53L1/lib/core/src\vl53l1_api_preset_modes.c **** 	* VL53L1_DEVICEPRESETMODE_TIMED_RANGING
 931:D:/Git/VL53L1/lib/core/src\vl53l1_api_preset_modes.c **** 	*
 932:D:/Git/VL53L1/lib/core/src\vl53l1_api_preset_modes.c **** 	*  - pseudo-solo
 933:D:/Git/VL53L1/lib/core/src\vl53l1_api_preset_modes.c **** 	*  - single sigma delta
 934:D:/Git/VL53L1/lib/core/src\vl53l1_api_preset_modes.c **** 	*  - timed
 935:D:/Git/VL53L1/lib/core/src\vl53l1_api_preset_modes.c **** 	*
 936:D:/Git/VL53L1/lib/core/src\vl53l1_api_preset_modes.c **** 	*  PLEASE NOTE THE SETTINGS BELOW AT PROVISIONAL AND WILL CHANGE!
 937:D:/Git/VL53L1/lib/core/src\vl53l1_api_preset_modes.c **** 	*/
 938:D:/Git/VL53L1/lib/core/src\vl53l1_api_preset_modes.c **** 
 939:D:/Git/VL53L1/lib/core/src\vl53l1_api_preset_modes.c **** 	VL53L1_Error  status = VL53L1_ERROR_NONE;
 1156              		.loc 1 939 2 is_stmt 1 view .LVU488
 1157              	.LVL41:
ARM GAS  C:\Users\Berbardo\AppData\Local\Temp\ccQolnPL.s 			page 38


 940:D:/Git/VL53L1/lib/core/src\vl53l1_api_preset_modes.c **** 
 941:D:/Git/VL53L1/lib/core/src\vl53l1_api_preset_modes.c **** 	LOG_FUNCTION_START("");
 1158              		.loc 1 941 24 view .LVU489
 942:D:/Git/VL53L1/lib/core/src\vl53l1_api_preset_modes.c **** 
 943:D:/Git/VL53L1/lib/core/src\vl53l1_api_preset_modes.c **** 	/* Call standard ranging configuration */
 944:D:/Git/VL53L1/lib/core/src\vl53l1_api_preset_modes.c **** 
 945:D:/Git/VL53L1/lib/core/src\vl53l1_api_preset_modes.c **** 	status = VL53L1_preset_mode_standard_ranging(
 1159              		.loc 1 945 2 view .LVU490
 1160              		.loc 1 945 11 is_stmt 0 view .LVU491
 1161 000c 0196     		str	r6, [sp, #4]
 1162 000e 0095     		str	r5, [sp]
 1163 0010 FFF7FEFF 		bl	VL53L1_preset_mode_standard_ranging
 1164              	.LVL42:
 946:D:/Git/VL53L1/lib/core/src\vl53l1_api_preset_modes.c **** 					pstatic,
 947:D:/Git/VL53L1/lib/core/src\vl53l1_api_preset_modes.c **** 					pgeneral,
 948:D:/Git/VL53L1/lib/core/src\vl53l1_api_preset_modes.c **** 					ptiming,
 949:D:/Git/VL53L1/lib/core/src\vl53l1_api_preset_modes.c **** 					pdynamic,
 950:D:/Git/VL53L1/lib/core/src\vl53l1_api_preset_modes.c **** 					psystem,
 951:D:/Git/VL53L1/lib/core/src\vl53l1_api_preset_modes.c **** 					ptuning_parms);
 952:D:/Git/VL53L1/lib/core/src\vl53l1_api_preset_modes.c **** 
 953:D:/Git/VL53L1/lib/core/src\vl53l1_api_preset_modes.c **** 	/* now override standard ranging specific registers */
 954:D:/Git/VL53L1/lib/core/src\vl53l1_api_preset_modes.c **** 
 955:D:/Git/VL53L1/lib/core/src\vl53l1_api_preset_modes.c **** 	if (status == VL53L1_ERROR_NONE) {
 1165              		.loc 1 955 2 is_stmt 1 view .LVU492
 1166              		.loc 1 955 5 is_stmt 0 view .LVU493
 1167 0014 0346     		mov	r3, r0
 1168 0016 78B9     		cbnz	r0, .L27
 956:D:/Git/VL53L1/lib/core/src\vl53l1_api_preset_modes.c **** 
 957:D:/Git/VL53L1/lib/core/src\vl53l1_api_preset_modes.c **** 		/* Dynamic Configuration */
 958:D:/Git/VL53L1/lib/core/src\vl53l1_api_preset_modes.c **** 
 959:D:/Git/VL53L1/lib/core/src\vl53l1_api_preset_modes.c **** 		/* Disable GPH  */
 960:D:/Git/VL53L1/lib/core/src\vl53l1_api_preset_modes.c **** 		pdynamic->system__grouped_parameter_hold = 0x00;
 1169              		.loc 1 960 3 is_stmt 1 view .LVU494
 1170              		.loc 1 960 44 is_stmt 0 view .LVU495
 1171 0018 0022     		movs	r2, #0
 1172 001a BA74     		strb	r2, [r7, #18]
 961:D:/Git/VL53L1/lib/core/src\vl53l1_api_preset_modes.c **** 
 962:D:/Git/VL53L1/lib/core/src\vl53l1_api_preset_modes.c **** 		/* Re-Configure timing budget default for 13ms */
 963:D:/Git/VL53L1/lib/core/src\vl53l1_api_preset_modes.c **** 		ptiming->range_config__timeout_macrop_a_hi                = 0x00;
 1173              		.loc 1 963 3 is_stmt 1 view .LVU496
 1174              		.loc 1 963 61 is_stmt 0 view .LVU497
 1175 001c 2271     		strb	r2, [r4, #4]
 964:D:/Git/VL53L1/lib/core/src\vl53l1_api_preset_modes.c **** 		ptiming->range_config__timeout_macrop_a_lo                = 0xB1;
 1176              		.loc 1 964 3 is_stmt 1 view .LVU498
 1177              		.loc 1 964 61 is_stmt 0 view .LVU499
 1178 001e B121     		movs	r1, #177
 1179 0020 6171     		strb	r1, [r4, #5]
 965:D:/Git/VL53L1/lib/core/src\vl53l1_api_preset_modes.c **** 		/* Setup for 13ms default */
 966:D:/Git/VL53L1/lib/core/src\vl53l1_api_preset_modes.c **** 		ptiming->range_config__timeout_macrop_b_hi                = 0x00;
 1180              		.loc 1 966 3 is_stmt 1 view .LVU500
 1181              		.loc 1 966 61 is_stmt 0 view .LVU501
 1182 0022 E271     		strb	r2, [r4, #7]
 967:D:/Git/VL53L1/lib/core/src\vl53l1_api_preset_modes.c **** 		ptiming->range_config__timeout_macrop_b_lo                = 0xD4;
 1183              		.loc 1 967 3 is_stmt 1 view .LVU502
 1184              		.loc 1 967 61 is_stmt 0 view .LVU503
 1185 0024 D422     		movs	r2, #212
 1186 0026 2272     		strb	r2, [r4, #8]
ARM GAS  C:\Users\Berbardo\AppData\Local\Temp\ccQolnPL.s 			page 39


 968:D:/Git/VL53L1/lib/core/src\vl53l1_api_preset_modes.c **** 
 969:D:/Git/VL53L1/lib/core/src\vl53l1_api_preset_modes.c **** 		/* Timing Configuration */
 970:D:/Git/VL53L1/lib/core/src\vl53l1_api_preset_modes.c **** 
 971:D:/Git/VL53L1/lib/core/src\vl53l1_api_preset_modes.c **** 		ptiming->system__intermeasurement_period = 0x00000600;
 1187              		.loc 1 971 3 is_stmt 1 view .LVU504
 1188              		.loc 1 971 44 is_stmt 0 view .LVU505
 1189 0028 4FF4C062 		mov	r2, #1536
 1190 002c 2261     		str	r2, [r4, #16]
 972:D:/Git/VL53L1/lib/core/src\vl53l1_api_preset_modes.c **** 		pdynamic->system__seed_config =
 1191              		.loc 1 972 3 is_stmt 1 view .LVU506
 973:D:/Git/VL53L1/lib/core/src\vl53l1_api_preset_modes.c **** 				ptuning_parms->tp_timed_seed_cfg;
 1192              		.loc 1 973 18 is_stmt 0 view .LVU507
 1193 002e 96F82220 		ldrb	r2, [r6, #34]	@ zero_extendqisi2
 972:D:/Git/VL53L1/lib/core/src\vl53l1_api_preset_modes.c **** 		pdynamic->system__seed_config =
 1194              		.loc 1 972 33 view .LVU508
 1195 0032 FA71     		strb	r2, [r7, #7]
 974:D:/Git/VL53L1/lib/core/src\vl53l1_api_preset_modes.c **** 
 975:D:/Git/VL53L1/lib/core/src\vl53l1_api_preset_modes.c **** 		/* System control */
 976:D:/Git/VL53L1/lib/core/src\vl53l1_api_preset_modes.c **** 
 977:D:/Git/VL53L1/lib/core/src\vl53l1_api_preset_modes.c **** 		/* Configure Timed/Psuedo-solo mode */
 978:D:/Git/VL53L1/lib/core/src\vl53l1_api_preset_modes.c **** 		psystem->system__mode_start =
 1196              		.loc 1 978 3 is_stmt 1 view .LVU509
 1197              		.loc 1 978 31 is_stmt 0 view .LVU510
 1198 0034 4022     		movs	r2, #64
 1199 0036 2A71     		strb	r2, [r5, #4]
 1200              	.L27:
 979:D:/Git/VL53L1/lib/core/src\vl53l1_api_preset_modes.c **** 				VL53L1_DEVICESCHEDULERMODE_PSEUDO_SOLO | \
 980:D:/Git/VL53L1/lib/core/src\vl53l1_api_preset_modes.c **** 				VL53L1_DEVICEREADOUTMODE_SINGLE_SD     | \
 981:D:/Git/VL53L1/lib/core/src\vl53l1_api_preset_modes.c **** 				VL53L1_DEVICEMEASUREMENTMODE_TIMED;
 982:D:/Git/VL53L1/lib/core/src\vl53l1_api_preset_modes.c **** 	}
 983:D:/Git/VL53L1/lib/core/src\vl53l1_api_preset_modes.c **** 
 984:D:/Git/VL53L1/lib/core/src\vl53l1_api_preset_modes.c **** 	LOG_FUNCTION_END(status);
 1201              		.loc 1 984 26 is_stmt 1 view .LVU511
 985:D:/Git/VL53L1/lib/core/src\vl53l1_api_preset_modes.c **** 
 986:D:/Git/VL53L1/lib/core/src\vl53l1_api_preset_modes.c **** 	return status;
 1202              		.loc 1 986 2 view .LVU512
 987:D:/Git/VL53L1/lib/core/src\vl53l1_api_preset_modes.c **** }
 1203              		.loc 1 987 1 is_stmt 0 view .LVU513
 1204 0038 1846     		mov	r0, r3
 1205              	.LVL43:
 1206              		.loc 1 987 1 view .LVU514
 1207 003a 03B0     		add	sp, sp, #12
 1208              		.cfi_def_cfa_offset 20
 1209              		@ sp needed
 1210 003c F0BD     		pop	{r4, r5, r6, r7, pc}
 1211              		.loc 1 987 1 view .LVU515
 1212              		.cfi_endproc
 1213              	.LFE136:
 1215              		.section	.text.VL53L1_preset_mode_timed_ranging_short_range,"ax",%progbits
 1216              		.align	1
 1217              		.global	VL53L1_preset_mode_timed_ranging_short_range
 1218              		.syntax unified
 1219              		.thumb
 1220              		.thumb_func
 1221              		.fpu fpv4-sp-d16
 1223              	VL53L1_preset_mode_timed_ranging_short_range:
 1224              	.LVL44:
ARM GAS  C:\Users\Berbardo\AppData\Local\Temp\ccQolnPL.s 			page 40


 1225              	.LFB137:
 988:D:/Git/VL53L1/lib/core/src\vl53l1_api_preset_modes.c **** 
 989:D:/Git/VL53L1/lib/core/src\vl53l1_api_preset_modes.c **** VL53L1_Error VL53L1_preset_mode_timed_ranging_short_range(
 990:D:/Git/VL53L1/lib/core/src\vl53l1_api_preset_modes.c **** 
 991:D:/Git/VL53L1/lib/core/src\vl53l1_api_preset_modes.c **** 	VL53L1_static_config_t    *pstatic,
 992:D:/Git/VL53L1/lib/core/src\vl53l1_api_preset_modes.c **** 	VL53L1_general_config_t   *pgeneral,
 993:D:/Git/VL53L1/lib/core/src\vl53l1_api_preset_modes.c **** 	VL53L1_timing_config_t    *ptiming,
 994:D:/Git/VL53L1/lib/core/src\vl53l1_api_preset_modes.c **** 	VL53L1_dynamic_config_t   *pdynamic,
 995:D:/Git/VL53L1/lib/core/src\vl53l1_api_preset_modes.c **** 	VL53L1_system_control_t   *psystem,
 996:D:/Git/VL53L1/lib/core/src\vl53l1_api_preset_modes.c **** 	VL53L1_tuning_parm_storage_t *ptuning_parms)
 997:D:/Git/VL53L1/lib/core/src\vl53l1_api_preset_modes.c **** {
 1226              		.loc 1 997 1 is_stmt 1 view -0
 1227              		.cfi_startproc
 1228              		@ args = 8, pretend = 0, frame = 0
 1229              		@ frame_needed = 0, uses_anonymous_args = 0
 1230              		.loc 1 997 1 is_stmt 0 view .LVU517
 1231 0000 F0B5     		push	{r4, r5, r6, r7, lr}
 1232              		.cfi_def_cfa_offset 20
 1233              		.cfi_offset 4, -20
 1234              		.cfi_offset 5, -16
 1235              		.cfi_offset 6, -12
 1236              		.cfi_offset 7, -8
 1237              		.cfi_offset 14, -4
 1238 0002 83B0     		sub	sp, sp, #12
 1239              		.cfi_def_cfa_offset 32
 1240 0004 1446     		mov	r4, r2
 1241 0006 1F46     		mov	r7, r3
 1242 0008 089D     		ldr	r5, [sp, #32]
 1243 000a 099E     		ldr	r6, [sp, #36]
 998:D:/Git/VL53L1/lib/core/src\vl53l1_api_preset_modes.c **** 	/*
 999:D:/Git/VL53L1/lib/core/src\vl53l1_api_preset_modes.c **** 	* Initializes static and dynamic data structures for
1000:D:/Git/VL53L1/lib/core/src\vl53l1_api_preset_modes.c **** 	* device preset mode
1001:D:/Git/VL53L1/lib/core/src\vl53l1_api_preset_modes.c **** 	*
1002:D:/Git/VL53L1/lib/core/src\vl53l1_api_preset_modes.c **** 	* VL53L1_DEVICEPRESETMODE_TIMED_RANGING_SHORT_RANGE
1003:D:/Git/VL53L1/lib/core/src\vl53l1_api_preset_modes.c **** 	*
1004:D:/Git/VL53L1/lib/core/src\vl53l1_api_preset_modes.c **** 	*  - pseudo-solo
1005:D:/Git/VL53L1/lib/core/src\vl53l1_api_preset_modes.c **** 	*  - single sigma delta
1006:D:/Git/VL53L1/lib/core/src\vl53l1_api_preset_modes.c **** 	*  - timed
1007:D:/Git/VL53L1/lib/core/src\vl53l1_api_preset_modes.c **** 	*
1008:D:/Git/VL53L1/lib/core/src\vl53l1_api_preset_modes.c **** 	*  PLEASE NOTE THE SETTINGS BELOW AT PROVISIONAL AND WILL CHANGE!
1009:D:/Git/VL53L1/lib/core/src\vl53l1_api_preset_modes.c **** 	*/
1010:D:/Git/VL53L1/lib/core/src\vl53l1_api_preset_modes.c **** 
1011:D:/Git/VL53L1/lib/core/src\vl53l1_api_preset_modes.c **** 	VL53L1_Error  status = VL53L1_ERROR_NONE;
 1244              		.loc 1 1011 2 is_stmt 1 view .LVU518
 1245              	.LVL45:
1012:D:/Git/VL53L1/lib/core/src\vl53l1_api_preset_modes.c **** 
1013:D:/Git/VL53L1/lib/core/src\vl53l1_api_preset_modes.c **** 	LOG_FUNCTION_START("");
 1246              		.loc 1 1013 24 view .LVU519
1014:D:/Git/VL53L1/lib/core/src\vl53l1_api_preset_modes.c **** 
1015:D:/Git/VL53L1/lib/core/src\vl53l1_api_preset_modes.c **** 	/* Call standard ranging configuration */
1016:D:/Git/VL53L1/lib/core/src\vl53l1_api_preset_modes.c **** 
1017:D:/Git/VL53L1/lib/core/src\vl53l1_api_preset_modes.c **** 	status = VL53L1_preset_mode_standard_ranging_short_range(
 1247              		.loc 1 1017 2 view .LVU520
 1248              		.loc 1 1017 11 is_stmt 0 view .LVU521
 1249 000c 0196     		str	r6, [sp, #4]
 1250 000e 0095     		str	r5, [sp]
 1251 0010 FFF7FEFF 		bl	VL53L1_preset_mode_standard_ranging_short_range
ARM GAS  C:\Users\Berbardo\AppData\Local\Temp\ccQolnPL.s 			page 41


 1252              	.LVL46:
1018:D:/Git/VL53L1/lib/core/src\vl53l1_api_preset_modes.c **** 					pstatic,
1019:D:/Git/VL53L1/lib/core/src\vl53l1_api_preset_modes.c **** 					pgeneral,
1020:D:/Git/VL53L1/lib/core/src\vl53l1_api_preset_modes.c **** 					ptiming,
1021:D:/Git/VL53L1/lib/core/src\vl53l1_api_preset_modes.c **** 					pdynamic,
1022:D:/Git/VL53L1/lib/core/src\vl53l1_api_preset_modes.c **** 					psystem,
1023:D:/Git/VL53L1/lib/core/src\vl53l1_api_preset_modes.c **** 					ptuning_parms);
1024:D:/Git/VL53L1/lib/core/src\vl53l1_api_preset_modes.c **** 
1025:D:/Git/VL53L1/lib/core/src\vl53l1_api_preset_modes.c **** 	/* now override standard ranging specific registers */
1026:D:/Git/VL53L1/lib/core/src\vl53l1_api_preset_modes.c **** 
1027:D:/Git/VL53L1/lib/core/src\vl53l1_api_preset_modes.c **** 	if (status == VL53L1_ERROR_NONE) {
 1253              		.loc 1 1027 2 is_stmt 1 view .LVU522
 1254              		.loc 1 1027 5 is_stmt 0 view .LVU523
 1255 0014 0346     		mov	r3, r0
 1256 0016 80B9     		cbnz	r0, .L30
1028:D:/Git/VL53L1/lib/core/src\vl53l1_api_preset_modes.c **** 
1029:D:/Git/VL53L1/lib/core/src\vl53l1_api_preset_modes.c **** 		/* Dynamic Configuration */
1030:D:/Git/VL53L1/lib/core/src\vl53l1_api_preset_modes.c **** 
1031:D:/Git/VL53L1/lib/core/src\vl53l1_api_preset_modes.c **** 		/* Disable GPH  */
1032:D:/Git/VL53L1/lib/core/src\vl53l1_api_preset_modes.c **** 		pdynamic->system__grouped_parameter_hold = 0x00;
 1257              		.loc 1 1032 3 is_stmt 1 view .LVU524
 1258              		.loc 1 1032 44 is_stmt 0 view .LVU525
 1259 0018 0022     		movs	r2, #0
 1260 001a BA74     		strb	r2, [r7, #18]
1033:D:/Git/VL53L1/lib/core/src\vl53l1_api_preset_modes.c **** 
1034:D:/Git/VL53L1/lib/core/src\vl53l1_api_preset_modes.c **** 
1035:D:/Git/VL53L1/lib/core/src\vl53l1_api_preset_modes.c **** 		/* Timing Configuration */
1036:D:/Git/VL53L1/lib/core/src\vl53l1_api_preset_modes.c **** 
1037:D:/Git/VL53L1/lib/core/src\vl53l1_api_preset_modes.c **** 		/* Re-Configure timing budget default for 13ms */
1038:D:/Git/VL53L1/lib/core/src\vl53l1_api_preset_modes.c **** 		ptiming->range_config__timeout_macrop_a_hi                = 0x01;
 1261              		.loc 1 1038 3 is_stmt 1 view .LVU526
 1262              		.loc 1 1038 61 is_stmt 0 view .LVU527
 1263 001c 0122     		movs	r2, #1
 1264 001e 2271     		strb	r2, [r4, #4]
1039:D:/Git/VL53L1/lib/core/src\vl53l1_api_preset_modes.c **** 		ptiming->range_config__timeout_macrop_a_lo                = 0x84;
 1265              		.loc 1 1039 3 is_stmt 1 view .LVU528
 1266              		.loc 1 1039 61 is_stmt 0 view .LVU529
 1267 0020 8421     		movs	r1, #132
 1268 0022 6171     		strb	r1, [r4, #5]
1040:D:/Git/VL53L1/lib/core/src\vl53l1_api_preset_modes.c **** 		/* Setup for 13ms default */
1041:D:/Git/VL53L1/lib/core/src\vl53l1_api_preset_modes.c **** 		ptiming->range_config__timeout_macrop_b_hi                = 0x01;
 1269              		.loc 1 1041 3 is_stmt 1 view .LVU530
 1270              		.loc 1 1041 61 is_stmt 0 view .LVU531
 1271 0024 E271     		strb	r2, [r4, #7]
1042:D:/Git/VL53L1/lib/core/src\vl53l1_api_preset_modes.c **** 		ptiming->range_config__timeout_macrop_b_lo                = 0xB1;
 1272              		.loc 1 1042 3 is_stmt 1 view .LVU532
 1273              		.loc 1 1042 61 is_stmt 0 view .LVU533
 1274 0026 B122     		movs	r2, #177
 1275 0028 2272     		strb	r2, [r4, #8]
1043:D:/Git/VL53L1/lib/core/src\vl53l1_api_preset_modes.c **** 
1044:D:/Git/VL53L1/lib/core/src\vl53l1_api_preset_modes.c **** 		ptiming->system__intermeasurement_period = 0x00000600;
 1276              		.loc 1 1044 3 is_stmt 1 view .LVU534
 1277              		.loc 1 1044 44 is_stmt 0 view .LVU535
 1278 002a 4FF4C062 		mov	r2, #1536
 1279 002e 2261     		str	r2, [r4, #16]
1045:D:/Git/VL53L1/lib/core/src\vl53l1_api_preset_modes.c **** 		pdynamic->system__seed_config =
 1280              		.loc 1 1045 3 is_stmt 1 view .LVU536
ARM GAS  C:\Users\Berbardo\AppData\Local\Temp\ccQolnPL.s 			page 42


1046:D:/Git/VL53L1/lib/core/src\vl53l1_api_preset_modes.c **** 				ptuning_parms->tp_timed_seed_cfg;
 1281              		.loc 1 1046 18 is_stmt 0 view .LVU537
 1282 0030 96F82220 		ldrb	r2, [r6, #34]	@ zero_extendqisi2
1045:D:/Git/VL53L1/lib/core/src\vl53l1_api_preset_modes.c **** 		pdynamic->system__seed_config =
 1283              		.loc 1 1045 33 view .LVU538
 1284 0034 FA71     		strb	r2, [r7, #7]
1047:D:/Git/VL53L1/lib/core/src\vl53l1_api_preset_modes.c **** 
1048:D:/Git/VL53L1/lib/core/src\vl53l1_api_preset_modes.c **** 		/* System control */
1049:D:/Git/VL53L1/lib/core/src\vl53l1_api_preset_modes.c **** 
1050:D:/Git/VL53L1/lib/core/src\vl53l1_api_preset_modes.c **** 		/* Configure Timed/Psuedo-solo mode */
1051:D:/Git/VL53L1/lib/core/src\vl53l1_api_preset_modes.c **** 		psystem->system__mode_start =
 1285              		.loc 1 1051 3 is_stmt 1 view .LVU539
 1286              		.loc 1 1051 31 is_stmt 0 view .LVU540
 1287 0036 4022     		movs	r2, #64
 1288 0038 2A71     		strb	r2, [r5, #4]
 1289              	.L30:
1052:D:/Git/VL53L1/lib/core/src\vl53l1_api_preset_modes.c **** 				VL53L1_DEVICESCHEDULERMODE_PSEUDO_SOLO | \
1053:D:/Git/VL53L1/lib/core/src\vl53l1_api_preset_modes.c **** 				VL53L1_DEVICEREADOUTMODE_SINGLE_SD     | \
1054:D:/Git/VL53L1/lib/core/src\vl53l1_api_preset_modes.c **** 				VL53L1_DEVICEMEASUREMENTMODE_TIMED;
1055:D:/Git/VL53L1/lib/core/src\vl53l1_api_preset_modes.c **** 	}
1056:D:/Git/VL53L1/lib/core/src\vl53l1_api_preset_modes.c **** 
1057:D:/Git/VL53L1/lib/core/src\vl53l1_api_preset_modes.c **** 	LOG_FUNCTION_END(status);
 1290              		.loc 1 1057 26 is_stmt 1 view .LVU541
1058:D:/Git/VL53L1/lib/core/src\vl53l1_api_preset_modes.c **** 
1059:D:/Git/VL53L1/lib/core/src\vl53l1_api_preset_modes.c **** 	return status;
 1291              		.loc 1 1059 2 view .LVU542
1060:D:/Git/VL53L1/lib/core/src\vl53l1_api_preset_modes.c **** }
 1292              		.loc 1 1060 1 is_stmt 0 view .LVU543
 1293 003a 1846     		mov	r0, r3
 1294              	.LVL47:
 1295              		.loc 1 1060 1 view .LVU544
 1296 003c 03B0     		add	sp, sp, #12
 1297              		.cfi_def_cfa_offset 20
 1298              		@ sp needed
 1299 003e F0BD     		pop	{r4, r5, r6, r7, pc}
 1300              		.loc 1 1060 1 view .LVU545
 1301              		.cfi_endproc
 1302              	.LFE137:
 1304              		.section	.text.VL53L1_preset_mode_timed_ranging_long_range,"ax",%progbits
 1305              		.align	1
 1306              		.global	VL53L1_preset_mode_timed_ranging_long_range
 1307              		.syntax unified
 1308              		.thumb
 1309              		.thumb_func
 1310              		.fpu fpv4-sp-d16
 1312              	VL53L1_preset_mode_timed_ranging_long_range:
 1313              	.LVL48:
 1314              	.LFB138:
1061:D:/Git/VL53L1/lib/core/src\vl53l1_api_preset_modes.c **** 
1062:D:/Git/VL53L1/lib/core/src\vl53l1_api_preset_modes.c **** VL53L1_Error VL53L1_preset_mode_timed_ranging_long_range(
1063:D:/Git/VL53L1/lib/core/src\vl53l1_api_preset_modes.c **** 
1064:D:/Git/VL53L1/lib/core/src\vl53l1_api_preset_modes.c **** 	VL53L1_static_config_t    *pstatic,
1065:D:/Git/VL53L1/lib/core/src\vl53l1_api_preset_modes.c **** 	VL53L1_general_config_t   *pgeneral,
1066:D:/Git/VL53L1/lib/core/src\vl53l1_api_preset_modes.c **** 	VL53L1_timing_config_t    *ptiming,
1067:D:/Git/VL53L1/lib/core/src\vl53l1_api_preset_modes.c **** 	VL53L1_dynamic_config_t   *pdynamic,
1068:D:/Git/VL53L1/lib/core/src\vl53l1_api_preset_modes.c **** 	VL53L1_system_control_t   *psystem,
1069:D:/Git/VL53L1/lib/core/src\vl53l1_api_preset_modes.c **** 	VL53L1_tuning_parm_storage_t *ptuning_parms)
ARM GAS  C:\Users\Berbardo\AppData\Local\Temp\ccQolnPL.s 			page 43


1070:D:/Git/VL53L1/lib/core/src\vl53l1_api_preset_modes.c **** {
 1315              		.loc 1 1070 1 is_stmt 1 view -0
 1316              		.cfi_startproc
 1317              		@ args = 8, pretend = 0, frame = 0
 1318              		@ frame_needed = 0, uses_anonymous_args = 0
 1319              		.loc 1 1070 1 is_stmt 0 view .LVU547
 1320 0000 F0B5     		push	{r4, r5, r6, r7, lr}
 1321              		.cfi_def_cfa_offset 20
 1322              		.cfi_offset 4, -20
 1323              		.cfi_offset 5, -16
 1324              		.cfi_offset 6, -12
 1325              		.cfi_offset 7, -8
 1326              		.cfi_offset 14, -4
 1327 0002 83B0     		sub	sp, sp, #12
 1328              		.cfi_def_cfa_offset 32
 1329 0004 1446     		mov	r4, r2
 1330 0006 1F46     		mov	r7, r3
 1331 0008 089D     		ldr	r5, [sp, #32]
 1332 000a 099E     		ldr	r6, [sp, #36]
1071:D:/Git/VL53L1/lib/core/src\vl53l1_api_preset_modes.c **** 	/*
1072:D:/Git/VL53L1/lib/core/src\vl53l1_api_preset_modes.c **** 	* Initializes static and dynamic data structures for
1073:D:/Git/VL53L1/lib/core/src\vl53l1_api_preset_modes.c **** 	* device preset mode
1074:D:/Git/VL53L1/lib/core/src\vl53l1_api_preset_modes.c **** 	*
1075:D:/Git/VL53L1/lib/core/src\vl53l1_api_preset_modes.c **** 	* VL53L1_DEVICEPRESETMODE_TIMED_RANGING_LONG_RANGE
1076:D:/Git/VL53L1/lib/core/src\vl53l1_api_preset_modes.c **** 	*
1077:D:/Git/VL53L1/lib/core/src\vl53l1_api_preset_modes.c **** 	*  - pseudo-solo
1078:D:/Git/VL53L1/lib/core/src\vl53l1_api_preset_modes.c **** 	*  - single sigma delta
1079:D:/Git/VL53L1/lib/core/src\vl53l1_api_preset_modes.c **** 	*  - timed
1080:D:/Git/VL53L1/lib/core/src\vl53l1_api_preset_modes.c **** 	*
1081:D:/Git/VL53L1/lib/core/src\vl53l1_api_preset_modes.c **** 	*  PLEASE NOTE THE SETTINGS BELOW AT PROVISIONAL AND WILL CHANGE!
1082:D:/Git/VL53L1/lib/core/src\vl53l1_api_preset_modes.c **** 	*/
1083:D:/Git/VL53L1/lib/core/src\vl53l1_api_preset_modes.c **** 
1084:D:/Git/VL53L1/lib/core/src\vl53l1_api_preset_modes.c **** 	VL53L1_Error  status = VL53L1_ERROR_NONE;
 1333              		.loc 1 1084 2 is_stmt 1 view .LVU548
 1334              	.LVL49:
1085:D:/Git/VL53L1/lib/core/src\vl53l1_api_preset_modes.c **** 
1086:D:/Git/VL53L1/lib/core/src\vl53l1_api_preset_modes.c **** 	LOG_FUNCTION_START("");
 1335              		.loc 1 1086 24 view .LVU549
1087:D:/Git/VL53L1/lib/core/src\vl53l1_api_preset_modes.c **** 
1088:D:/Git/VL53L1/lib/core/src\vl53l1_api_preset_modes.c **** 	/* Call standard ranging configuration */
1089:D:/Git/VL53L1/lib/core/src\vl53l1_api_preset_modes.c **** 
1090:D:/Git/VL53L1/lib/core/src\vl53l1_api_preset_modes.c **** 	status = VL53L1_preset_mode_standard_ranging_long_range(
 1336              		.loc 1 1090 2 view .LVU550
 1337              		.loc 1 1090 11 is_stmt 0 view .LVU551
 1338 000c 0196     		str	r6, [sp, #4]
 1339 000e 0095     		str	r5, [sp]
 1340 0010 FFF7FEFF 		bl	VL53L1_preset_mode_standard_ranging_long_range
 1341              	.LVL50:
1091:D:/Git/VL53L1/lib/core/src\vl53l1_api_preset_modes.c **** 					pstatic,
1092:D:/Git/VL53L1/lib/core/src\vl53l1_api_preset_modes.c **** 					pgeneral,
1093:D:/Git/VL53L1/lib/core/src\vl53l1_api_preset_modes.c **** 					ptiming,
1094:D:/Git/VL53L1/lib/core/src\vl53l1_api_preset_modes.c **** 					pdynamic,
1095:D:/Git/VL53L1/lib/core/src\vl53l1_api_preset_modes.c **** 					psystem,
1096:D:/Git/VL53L1/lib/core/src\vl53l1_api_preset_modes.c **** 					ptuning_parms);
1097:D:/Git/VL53L1/lib/core/src\vl53l1_api_preset_modes.c **** 
1098:D:/Git/VL53L1/lib/core/src\vl53l1_api_preset_modes.c **** 	/* now override standard ranging specific registers */
1099:D:/Git/VL53L1/lib/core/src\vl53l1_api_preset_modes.c **** 
ARM GAS  C:\Users\Berbardo\AppData\Local\Temp\ccQolnPL.s 			page 44


1100:D:/Git/VL53L1/lib/core/src\vl53l1_api_preset_modes.c **** 	if (status == VL53L1_ERROR_NONE) {
 1342              		.loc 1 1100 2 is_stmt 1 view .LVU552
 1343              		.loc 1 1100 5 is_stmt 0 view .LVU553
 1344 0014 0346     		mov	r3, r0
 1345 0016 78B9     		cbnz	r0, .L33
1101:D:/Git/VL53L1/lib/core/src\vl53l1_api_preset_modes.c **** 
1102:D:/Git/VL53L1/lib/core/src\vl53l1_api_preset_modes.c **** 		/* Dynamic Configuration */
1103:D:/Git/VL53L1/lib/core/src\vl53l1_api_preset_modes.c **** 
1104:D:/Git/VL53L1/lib/core/src\vl53l1_api_preset_modes.c **** 		/* Disable GPH  */
1105:D:/Git/VL53L1/lib/core/src\vl53l1_api_preset_modes.c **** 		pdynamic->system__grouped_parameter_hold = 0x00;
 1346              		.loc 1 1105 3 is_stmt 1 view .LVU554
 1347              		.loc 1 1105 44 is_stmt 0 view .LVU555
 1348 0018 0022     		movs	r2, #0
 1349 001a BA74     		strb	r2, [r7, #18]
1106:D:/Git/VL53L1/lib/core/src\vl53l1_api_preset_modes.c **** 
1107:D:/Git/VL53L1/lib/core/src\vl53l1_api_preset_modes.c **** 
1108:D:/Git/VL53L1/lib/core/src\vl53l1_api_preset_modes.c **** 		/* Timing Configuration */
1109:D:/Git/VL53L1/lib/core/src\vl53l1_api_preset_modes.c **** 
1110:D:/Git/VL53L1/lib/core/src\vl53l1_api_preset_modes.c **** 		/* Re-Configure timing budget default for 13ms */
1111:D:/Git/VL53L1/lib/core/src\vl53l1_api_preset_modes.c **** 		ptiming->range_config__timeout_macrop_a_hi                = 0x00;
 1350              		.loc 1 1111 3 is_stmt 1 view .LVU556
 1351              		.loc 1 1111 61 is_stmt 0 view .LVU557
 1352 001c 2271     		strb	r2, [r4, #4]
1112:D:/Git/VL53L1/lib/core/src\vl53l1_api_preset_modes.c **** 		ptiming->range_config__timeout_macrop_a_lo                = 0x97;
 1353              		.loc 1 1112 3 is_stmt 1 view .LVU558
 1354              		.loc 1 1112 61 is_stmt 0 view .LVU559
 1355 001e 9721     		movs	r1, #151
 1356 0020 6171     		strb	r1, [r4, #5]
1113:D:/Git/VL53L1/lib/core/src\vl53l1_api_preset_modes.c **** 		/* Setup for 13ms default */
1114:D:/Git/VL53L1/lib/core/src\vl53l1_api_preset_modes.c **** 		ptiming->range_config__timeout_macrop_b_hi                = 0x00;
 1357              		.loc 1 1114 3 is_stmt 1 view .LVU560
 1358              		.loc 1 1114 61 is_stmt 0 view .LVU561
 1359 0022 E271     		strb	r2, [r4, #7]
1115:D:/Git/VL53L1/lib/core/src\vl53l1_api_preset_modes.c **** 		ptiming->range_config__timeout_macrop_b_lo                = 0xB1;
 1360              		.loc 1 1115 3 is_stmt 1 view .LVU562
 1361              		.loc 1 1115 61 is_stmt 0 view .LVU563
 1362 0024 B122     		movs	r2, #177
 1363 0026 2272     		strb	r2, [r4, #8]
1116:D:/Git/VL53L1/lib/core/src\vl53l1_api_preset_modes.c **** 
1117:D:/Git/VL53L1/lib/core/src\vl53l1_api_preset_modes.c **** 		ptiming->system__intermeasurement_period = 0x00000600;
 1364              		.loc 1 1117 3 is_stmt 1 view .LVU564
 1365              		.loc 1 1117 44 is_stmt 0 view .LVU565
 1366 0028 4FF4C062 		mov	r2, #1536
 1367 002c 2261     		str	r2, [r4, #16]
1118:D:/Git/VL53L1/lib/core/src\vl53l1_api_preset_modes.c **** 		pdynamic->system__seed_config =
 1368              		.loc 1 1118 3 is_stmt 1 view .LVU566
1119:D:/Git/VL53L1/lib/core/src\vl53l1_api_preset_modes.c **** 				ptuning_parms->tp_timed_seed_cfg;
 1369              		.loc 1 1119 18 is_stmt 0 view .LVU567
 1370 002e 96F82220 		ldrb	r2, [r6, #34]	@ zero_extendqisi2
1118:D:/Git/VL53L1/lib/core/src\vl53l1_api_preset_modes.c **** 		pdynamic->system__seed_config =
 1371              		.loc 1 1118 33 view .LVU568
 1372 0032 FA71     		strb	r2, [r7, #7]
1120:D:/Git/VL53L1/lib/core/src\vl53l1_api_preset_modes.c **** 
1121:D:/Git/VL53L1/lib/core/src\vl53l1_api_preset_modes.c **** 		/* System control */
1122:D:/Git/VL53L1/lib/core/src\vl53l1_api_preset_modes.c **** 
1123:D:/Git/VL53L1/lib/core/src\vl53l1_api_preset_modes.c **** 		/* Configure Timed/Psuedo-solo mode */
1124:D:/Git/VL53L1/lib/core/src\vl53l1_api_preset_modes.c **** 		psystem->system__mode_start =
ARM GAS  C:\Users\Berbardo\AppData\Local\Temp\ccQolnPL.s 			page 45


 1373              		.loc 1 1124 3 is_stmt 1 view .LVU569
 1374              		.loc 1 1124 31 is_stmt 0 view .LVU570
 1375 0034 4022     		movs	r2, #64
 1376 0036 2A71     		strb	r2, [r5, #4]
 1377              	.L33:
1125:D:/Git/VL53L1/lib/core/src\vl53l1_api_preset_modes.c **** 				VL53L1_DEVICESCHEDULERMODE_PSEUDO_SOLO | \
1126:D:/Git/VL53L1/lib/core/src\vl53l1_api_preset_modes.c **** 				VL53L1_DEVICEREADOUTMODE_SINGLE_SD     | \
1127:D:/Git/VL53L1/lib/core/src\vl53l1_api_preset_modes.c **** 				VL53L1_DEVICEMEASUREMENTMODE_TIMED;
1128:D:/Git/VL53L1/lib/core/src\vl53l1_api_preset_modes.c **** 	}
1129:D:/Git/VL53L1/lib/core/src\vl53l1_api_preset_modes.c **** 
1130:D:/Git/VL53L1/lib/core/src\vl53l1_api_preset_modes.c **** 	LOG_FUNCTION_END(status);
 1378              		.loc 1 1130 26 is_stmt 1 view .LVU571
1131:D:/Git/VL53L1/lib/core/src\vl53l1_api_preset_modes.c **** 
1132:D:/Git/VL53L1/lib/core/src\vl53l1_api_preset_modes.c **** 	return status;
 1379              		.loc 1 1132 2 view .LVU572
1133:D:/Git/VL53L1/lib/core/src\vl53l1_api_preset_modes.c **** }
 1380              		.loc 1 1133 1 is_stmt 0 view .LVU573
 1381 0038 1846     		mov	r0, r3
 1382              	.LVL51:
 1383              		.loc 1 1133 1 view .LVU574
 1384 003a 03B0     		add	sp, sp, #12
 1385              		.cfi_def_cfa_offset 20
 1386              		@ sp needed
 1387 003c F0BD     		pop	{r4, r5, r6, r7, pc}
 1388              		.loc 1 1133 1 view .LVU575
 1389              		.cfi_endproc
 1390              	.LFE138:
 1392              		.section	.text.VL53L1_preset_mode_low_power_auto_ranging,"ax",%progbits
 1393              		.align	1
 1394              		.global	VL53L1_preset_mode_low_power_auto_ranging
 1395              		.syntax unified
 1396              		.thumb
 1397              		.thumb_func
 1398              		.fpu fpv4-sp-d16
 1400              	VL53L1_preset_mode_low_power_auto_ranging:
 1401              	.LVL52:
 1402              	.LFB139:
1134:D:/Git/VL53L1/lib/core/src\vl53l1_api_preset_modes.c **** 
1135:D:/Git/VL53L1/lib/core/src\vl53l1_api_preset_modes.c **** /* Start Patch_LowPowerAutoMode */
1136:D:/Git/VL53L1/lib/core/src\vl53l1_api_preset_modes.c **** VL53L1_Error VL53L1_preset_mode_low_power_auto_ranging(
1137:D:/Git/VL53L1/lib/core/src\vl53l1_api_preset_modes.c **** 
1138:D:/Git/VL53L1/lib/core/src\vl53l1_api_preset_modes.c **** 	VL53L1_static_config_t    *pstatic,
1139:D:/Git/VL53L1/lib/core/src\vl53l1_api_preset_modes.c **** 	VL53L1_general_config_t   *pgeneral,
1140:D:/Git/VL53L1/lib/core/src\vl53l1_api_preset_modes.c **** 	VL53L1_timing_config_t    *ptiming,
1141:D:/Git/VL53L1/lib/core/src\vl53l1_api_preset_modes.c **** 	VL53L1_dynamic_config_t   *pdynamic,
1142:D:/Git/VL53L1/lib/core/src\vl53l1_api_preset_modes.c **** 	VL53L1_system_control_t   *psystem,
1143:D:/Git/VL53L1/lib/core/src\vl53l1_api_preset_modes.c **** 	VL53L1_tuning_parm_storage_t *ptuning_parms,
1144:D:/Git/VL53L1/lib/core/src\vl53l1_api_preset_modes.c **** 	VL53L1_low_power_auto_data_t *plpadata)
1145:D:/Git/VL53L1/lib/core/src\vl53l1_api_preset_modes.c **** {
 1403              		.loc 1 1145 1 is_stmt 1 view -0
 1404              		.cfi_startproc
 1405              		@ args = 12, pretend = 0, frame = 0
 1406              		@ frame_needed = 0, uses_anonymous_args = 0
 1407              		.loc 1 1145 1 is_stmt 0 view .LVU577
 1408 0000 70B5     		push	{r4, r5, r6, lr}
 1409              		.cfi_def_cfa_offset 16
 1410              		.cfi_offset 4, -16
ARM GAS  C:\Users\Berbardo\AppData\Local\Temp\ccQolnPL.s 			page 46


 1411              		.cfi_offset 5, -12
 1412              		.cfi_offset 6, -8
 1413              		.cfi_offset 14, -4
 1414 0002 82B0     		sub	sp, sp, #8
 1415              		.cfi_def_cfa_offset 24
 1416 0004 0D46     		mov	r5, r1
 1417 0006 1E46     		mov	r6, r3
1146:D:/Git/VL53L1/lib/core/src\vl53l1_api_preset_modes.c **** 	/*
1147:D:/Git/VL53L1/lib/core/src\vl53l1_api_preset_modes.c **** 	* Initializes static and dynamic data structures for
1148:D:/Git/VL53L1/lib/core/src\vl53l1_api_preset_modes.c **** 	* device preset mode
1149:D:/Git/VL53L1/lib/core/src\vl53l1_api_preset_modes.c **** 	*
1150:D:/Git/VL53L1/lib/core/src\vl53l1_api_preset_modes.c **** 	* VL53L1_DEVICEPRESETMODE_LOWPOWERAUTO_MEDIUM_RANGE
1151:D:/Git/VL53L1/lib/core/src\vl53l1_api_preset_modes.c **** 	*
1152:D:/Git/VL53L1/lib/core/src\vl53l1_api_preset_modes.c **** 	*  - pseudo-solo
1153:D:/Git/VL53L1/lib/core/src\vl53l1_api_preset_modes.c **** 	*  - single sigma delta
1154:D:/Git/VL53L1/lib/core/src\vl53l1_api_preset_modes.c **** 	*  - timed
1155:D:/Git/VL53L1/lib/core/src\vl53l1_api_preset_modes.c **** 	*  - special low power auto mode for Presence application
1156:D:/Git/VL53L1/lib/core/src\vl53l1_api_preset_modes.c **** 	*
1157:D:/Git/VL53L1/lib/core/src\vl53l1_api_preset_modes.c **** 	*  PLEASE NOTE THE SETTINGS BELOW ARE PROVISIONAL AND WILL CHANGE!
1158:D:/Git/VL53L1/lib/core/src\vl53l1_api_preset_modes.c **** 	*/
1159:D:/Git/VL53L1/lib/core/src\vl53l1_api_preset_modes.c **** 
1160:D:/Git/VL53L1/lib/core/src\vl53l1_api_preset_modes.c **** 	VL53L1_Error  status = VL53L1_ERROR_NONE;
 1418              		.loc 1 1160 2 is_stmt 1 view .LVU578
 1419              	.LVL53:
1161:D:/Git/VL53L1/lib/core/src\vl53l1_api_preset_modes.c **** 
1162:D:/Git/VL53L1/lib/core/src\vl53l1_api_preset_modes.c **** 	LOG_FUNCTION_START("");
 1420              		.loc 1 1162 24 view .LVU579
1163:D:/Git/VL53L1/lib/core/src\vl53l1_api_preset_modes.c **** 
1164:D:/Git/VL53L1/lib/core/src\vl53l1_api_preset_modes.c **** 	/* Call standard ranging configuration */
1165:D:/Git/VL53L1/lib/core/src\vl53l1_api_preset_modes.c **** 
1166:D:/Git/VL53L1/lib/core/src\vl53l1_api_preset_modes.c **** 	status = VL53L1_preset_mode_timed_ranging(
 1421              		.loc 1 1166 2 view .LVU580
 1422              		.loc 1 1166 11 is_stmt 0 view .LVU581
 1423 0008 079C     		ldr	r4, [sp, #28]
 1424 000a 0194     		str	r4, [sp, #4]
 1425 000c 069C     		ldr	r4, [sp, #24]
 1426 000e 0094     		str	r4, [sp]
 1427 0010 FFF7FEFF 		bl	VL53L1_preset_mode_timed_ranging
 1428              	.LVL54:
1167:D:/Git/VL53L1/lib/core/src\vl53l1_api_preset_modes.c **** 					pstatic,
1168:D:/Git/VL53L1/lib/core/src\vl53l1_api_preset_modes.c **** 					pgeneral,
1169:D:/Git/VL53L1/lib/core/src\vl53l1_api_preset_modes.c **** 					ptiming,
1170:D:/Git/VL53L1/lib/core/src\vl53l1_api_preset_modes.c **** 					pdynamic,
1171:D:/Git/VL53L1/lib/core/src\vl53l1_api_preset_modes.c **** 					psystem,
1172:D:/Git/VL53L1/lib/core/src\vl53l1_api_preset_modes.c **** 					ptuning_parms);
1173:D:/Git/VL53L1/lib/core/src\vl53l1_api_preset_modes.c **** 
1174:D:/Git/VL53L1/lib/core/src\vl53l1_api_preset_modes.c **** 	/* now setup the low power auto mode */
1175:D:/Git/VL53L1/lib/core/src\vl53l1_api_preset_modes.c **** 
1176:D:/Git/VL53L1/lib/core/src\vl53l1_api_preset_modes.c **** 	if (status == VL53L1_ERROR_NONE) {
 1429              		.loc 1 1176 2 is_stmt 1 view .LVU582
 1430              		.loc 1 1176 5 is_stmt 0 view .LVU583
 1431 0014 0346     		mov	r3, r0
 1432 0016 10B1     		cbz	r0, .L38
 1433              	.LVL55:
 1434              	.L36:
1177:D:/Git/VL53L1/lib/core/src\vl53l1_api_preset_modes.c **** 		status = VL53L1_config_low_power_auto_mode(
1178:D:/Git/VL53L1/lib/core/src\vl53l1_api_preset_modes.c **** 				pgeneral,
ARM GAS  C:\Users\Berbardo\AppData\Local\Temp\ccQolnPL.s 			page 47


1179:D:/Git/VL53L1/lib/core/src\vl53l1_api_preset_modes.c **** 				pdynamic,
1180:D:/Git/VL53L1/lib/core/src\vl53l1_api_preset_modes.c **** 				plpadata
1181:D:/Git/VL53L1/lib/core/src\vl53l1_api_preset_modes.c **** 				);
1182:D:/Git/VL53L1/lib/core/src\vl53l1_api_preset_modes.c **** 	}
1183:D:/Git/VL53L1/lib/core/src\vl53l1_api_preset_modes.c **** 
1184:D:/Git/VL53L1/lib/core/src\vl53l1_api_preset_modes.c **** 	LOG_FUNCTION_END(status);
 1435              		.loc 1 1184 26 is_stmt 1 view .LVU584
1185:D:/Git/VL53L1/lib/core/src\vl53l1_api_preset_modes.c **** 
1186:D:/Git/VL53L1/lib/core/src\vl53l1_api_preset_modes.c **** 	return status;
 1436              		.loc 1 1186 2 view .LVU585
1187:D:/Git/VL53L1/lib/core/src\vl53l1_api_preset_modes.c **** }
 1437              		.loc 1 1187 1 is_stmt 0 view .LVU586
 1438 0018 1846     		mov	r0, r3
 1439 001a 02B0     		add	sp, sp, #8
 1440              		.cfi_remember_state
 1441              		.cfi_def_cfa_offset 16
 1442              		@ sp needed
 1443 001c 70BD     		pop	{r4, r5, r6, pc}
 1444              	.LVL56:
 1445              	.L38:
 1446              		.cfi_restore_state
1177:D:/Git/VL53L1/lib/core/src\vl53l1_api_preset_modes.c **** 		status = VL53L1_config_low_power_auto_mode(
 1447              		.loc 1 1177 3 is_stmt 1 view .LVU587
1177:D:/Git/VL53L1/lib/core/src\vl53l1_api_preset_modes.c **** 		status = VL53L1_config_low_power_auto_mode(
 1448              		.loc 1 1177 12 is_stmt 0 view .LVU588
 1449 001e 089A     		ldr	r2, [sp, #32]
 1450 0020 3146     		mov	r1, r6
 1451 0022 2846     		mov	r0, r5
 1452              	.LVL57:
1177:D:/Git/VL53L1/lib/core/src\vl53l1_api_preset_modes.c **** 		status = VL53L1_config_low_power_auto_mode(
 1453              		.loc 1 1177 12 view .LVU589
 1454 0024 FFF7FEFF 		bl	VL53L1_config_low_power_auto_mode
 1455              	.LVL58:
 1456 0028 0346     		mov	r3, r0
 1457              	.LVL59:
1177:D:/Git/VL53L1/lib/core/src\vl53l1_api_preset_modes.c **** 		status = VL53L1_config_low_power_auto_mode(
 1458              		.loc 1 1177 12 view .LVU590
 1459 002a F5E7     		b	.L36
 1460              		.cfi_endproc
 1461              	.LFE139:
 1463              		.section	.text.VL53L1_preset_mode_low_power_auto_short_ranging,"ax",%progbits
 1464              		.align	1
 1465              		.global	VL53L1_preset_mode_low_power_auto_short_ranging
 1466              		.syntax unified
 1467              		.thumb
 1468              		.thumb_func
 1469              		.fpu fpv4-sp-d16
 1471              	VL53L1_preset_mode_low_power_auto_short_ranging:
 1472              	.LVL60:
 1473              	.LFB140:
1188:D:/Git/VL53L1/lib/core/src\vl53l1_api_preset_modes.c **** 
1189:D:/Git/VL53L1/lib/core/src\vl53l1_api_preset_modes.c **** VL53L1_Error VL53L1_preset_mode_low_power_auto_short_ranging(
1190:D:/Git/VL53L1/lib/core/src\vl53l1_api_preset_modes.c **** 
1191:D:/Git/VL53L1/lib/core/src\vl53l1_api_preset_modes.c **** 	VL53L1_static_config_t    *pstatic,
1192:D:/Git/VL53L1/lib/core/src\vl53l1_api_preset_modes.c **** 	VL53L1_general_config_t   *pgeneral,
1193:D:/Git/VL53L1/lib/core/src\vl53l1_api_preset_modes.c **** 	VL53L1_timing_config_t    *ptiming,
1194:D:/Git/VL53L1/lib/core/src\vl53l1_api_preset_modes.c **** 	VL53L1_dynamic_config_t   *pdynamic,
ARM GAS  C:\Users\Berbardo\AppData\Local\Temp\ccQolnPL.s 			page 48


1195:D:/Git/VL53L1/lib/core/src\vl53l1_api_preset_modes.c **** 	VL53L1_system_control_t   *psystem,
1196:D:/Git/VL53L1/lib/core/src\vl53l1_api_preset_modes.c **** 	VL53L1_tuning_parm_storage_t *ptuning_parms,
1197:D:/Git/VL53L1/lib/core/src\vl53l1_api_preset_modes.c **** 	VL53L1_low_power_auto_data_t *plpadata)
1198:D:/Git/VL53L1/lib/core/src\vl53l1_api_preset_modes.c **** {
 1474              		.loc 1 1198 1 is_stmt 1 view -0
 1475              		.cfi_startproc
 1476              		@ args = 12, pretend = 0, frame = 0
 1477              		@ frame_needed = 0, uses_anonymous_args = 0
 1478              		.loc 1 1198 1 is_stmt 0 view .LVU592
 1479 0000 70B5     		push	{r4, r5, r6, lr}
 1480              		.cfi_def_cfa_offset 16
 1481              		.cfi_offset 4, -16
 1482              		.cfi_offset 5, -12
 1483              		.cfi_offset 6, -8
 1484              		.cfi_offset 14, -4
 1485 0002 82B0     		sub	sp, sp, #8
 1486              		.cfi_def_cfa_offset 24
 1487 0004 0D46     		mov	r5, r1
 1488 0006 1E46     		mov	r6, r3
1199:D:/Git/VL53L1/lib/core/src\vl53l1_api_preset_modes.c **** 	/*
1200:D:/Git/VL53L1/lib/core/src\vl53l1_api_preset_modes.c **** 	* Initializes static and dynamic data structures for
1201:D:/Git/VL53L1/lib/core/src\vl53l1_api_preset_modes.c **** 	* device preset mode
1202:D:/Git/VL53L1/lib/core/src\vl53l1_api_preset_modes.c **** 	*
1203:D:/Git/VL53L1/lib/core/src\vl53l1_api_preset_modes.c **** 	* VL53L1_DEVICEPRESETMODE_LOWPOWERAUTO_SHORT_RANGE
1204:D:/Git/VL53L1/lib/core/src\vl53l1_api_preset_modes.c **** 	*
1205:D:/Git/VL53L1/lib/core/src\vl53l1_api_preset_modes.c **** 	*  - pseudo-solo
1206:D:/Git/VL53L1/lib/core/src\vl53l1_api_preset_modes.c **** 	*  - single sigma delta
1207:D:/Git/VL53L1/lib/core/src\vl53l1_api_preset_modes.c **** 	*  - timed
1208:D:/Git/VL53L1/lib/core/src\vl53l1_api_preset_modes.c **** 	*  - special low power auto mode for Presence application
1209:D:/Git/VL53L1/lib/core/src\vl53l1_api_preset_modes.c **** 	*
1210:D:/Git/VL53L1/lib/core/src\vl53l1_api_preset_modes.c **** 	*  PLEASE NOTE THE SETTINGS BELOW ARE PROVISIONAL AND WILL CHANGE!
1211:D:/Git/VL53L1/lib/core/src\vl53l1_api_preset_modes.c **** 	*/
1212:D:/Git/VL53L1/lib/core/src\vl53l1_api_preset_modes.c **** 
1213:D:/Git/VL53L1/lib/core/src\vl53l1_api_preset_modes.c **** 	VL53L1_Error  status = VL53L1_ERROR_NONE;
 1489              		.loc 1 1213 2 is_stmt 1 view .LVU593
 1490              	.LVL61:
1214:D:/Git/VL53L1/lib/core/src\vl53l1_api_preset_modes.c **** 
1215:D:/Git/VL53L1/lib/core/src\vl53l1_api_preset_modes.c **** 	LOG_FUNCTION_START("");
 1491              		.loc 1 1215 24 view .LVU594
1216:D:/Git/VL53L1/lib/core/src\vl53l1_api_preset_modes.c **** 
1217:D:/Git/VL53L1/lib/core/src\vl53l1_api_preset_modes.c **** 	/* Call standard ranging configuration */
1218:D:/Git/VL53L1/lib/core/src\vl53l1_api_preset_modes.c **** 
1219:D:/Git/VL53L1/lib/core/src\vl53l1_api_preset_modes.c **** 	status = VL53L1_preset_mode_timed_ranging_short_range(
 1492              		.loc 1 1219 2 view .LVU595
 1493              		.loc 1 1219 11 is_stmt 0 view .LVU596
 1494 0008 079C     		ldr	r4, [sp, #28]
 1495 000a 0194     		str	r4, [sp, #4]
 1496 000c 069C     		ldr	r4, [sp, #24]
 1497 000e 0094     		str	r4, [sp]
 1498 0010 FFF7FEFF 		bl	VL53L1_preset_mode_timed_ranging_short_range
 1499              	.LVL62:
1220:D:/Git/VL53L1/lib/core/src\vl53l1_api_preset_modes.c **** 					pstatic,
1221:D:/Git/VL53L1/lib/core/src\vl53l1_api_preset_modes.c **** 					pgeneral,
1222:D:/Git/VL53L1/lib/core/src\vl53l1_api_preset_modes.c **** 					ptiming,
1223:D:/Git/VL53L1/lib/core/src\vl53l1_api_preset_modes.c **** 					pdynamic,
1224:D:/Git/VL53L1/lib/core/src\vl53l1_api_preset_modes.c **** 					psystem,
1225:D:/Git/VL53L1/lib/core/src\vl53l1_api_preset_modes.c **** 					ptuning_parms);
ARM GAS  C:\Users\Berbardo\AppData\Local\Temp\ccQolnPL.s 			page 49


1226:D:/Git/VL53L1/lib/core/src\vl53l1_api_preset_modes.c **** 
1227:D:/Git/VL53L1/lib/core/src\vl53l1_api_preset_modes.c **** 	/* now setup the low power auto mode */
1228:D:/Git/VL53L1/lib/core/src\vl53l1_api_preset_modes.c **** 
1229:D:/Git/VL53L1/lib/core/src\vl53l1_api_preset_modes.c **** 	if (status == VL53L1_ERROR_NONE) {
 1500              		.loc 1 1229 2 is_stmt 1 view .LVU597
 1501              		.loc 1 1229 5 is_stmt 0 view .LVU598
 1502 0014 0346     		mov	r3, r0
 1503 0016 10B1     		cbz	r0, .L42
 1504              	.LVL63:
 1505              	.L40:
1230:D:/Git/VL53L1/lib/core/src\vl53l1_api_preset_modes.c **** 		status = VL53L1_config_low_power_auto_mode(
1231:D:/Git/VL53L1/lib/core/src\vl53l1_api_preset_modes.c **** 				pgeneral,
1232:D:/Git/VL53L1/lib/core/src\vl53l1_api_preset_modes.c **** 				pdynamic,
1233:D:/Git/VL53L1/lib/core/src\vl53l1_api_preset_modes.c **** 				plpadata
1234:D:/Git/VL53L1/lib/core/src\vl53l1_api_preset_modes.c **** 				);
1235:D:/Git/VL53L1/lib/core/src\vl53l1_api_preset_modes.c **** 	}
1236:D:/Git/VL53L1/lib/core/src\vl53l1_api_preset_modes.c **** 
1237:D:/Git/VL53L1/lib/core/src\vl53l1_api_preset_modes.c **** 	LOG_FUNCTION_END(status);
 1506              		.loc 1 1237 26 is_stmt 1 view .LVU599
1238:D:/Git/VL53L1/lib/core/src\vl53l1_api_preset_modes.c **** 
1239:D:/Git/VL53L1/lib/core/src\vl53l1_api_preset_modes.c **** 	return status;
 1507              		.loc 1 1239 2 view .LVU600
1240:D:/Git/VL53L1/lib/core/src\vl53l1_api_preset_modes.c **** }
 1508              		.loc 1 1240 1 is_stmt 0 view .LVU601
 1509 0018 1846     		mov	r0, r3
 1510 001a 02B0     		add	sp, sp, #8
 1511              		.cfi_remember_state
 1512              		.cfi_def_cfa_offset 16
 1513              		@ sp needed
 1514 001c 70BD     		pop	{r4, r5, r6, pc}
 1515              	.LVL64:
 1516              	.L42:
 1517              		.cfi_restore_state
1230:D:/Git/VL53L1/lib/core/src\vl53l1_api_preset_modes.c **** 		status = VL53L1_config_low_power_auto_mode(
 1518              		.loc 1 1230 3 is_stmt 1 view .LVU602
1230:D:/Git/VL53L1/lib/core/src\vl53l1_api_preset_modes.c **** 		status = VL53L1_config_low_power_auto_mode(
 1519              		.loc 1 1230 12 is_stmt 0 view .LVU603
 1520 001e 089A     		ldr	r2, [sp, #32]
 1521 0020 3146     		mov	r1, r6
 1522 0022 2846     		mov	r0, r5
 1523              	.LVL65:
1230:D:/Git/VL53L1/lib/core/src\vl53l1_api_preset_modes.c **** 		status = VL53L1_config_low_power_auto_mode(
 1524              		.loc 1 1230 12 view .LVU604
 1525 0024 FFF7FEFF 		bl	VL53L1_config_low_power_auto_mode
 1526              	.LVL66:
 1527 0028 0346     		mov	r3, r0
 1528              	.LVL67:
1230:D:/Git/VL53L1/lib/core/src\vl53l1_api_preset_modes.c **** 		status = VL53L1_config_low_power_auto_mode(
 1529              		.loc 1 1230 12 view .LVU605
 1530 002a F5E7     		b	.L40
 1531              		.cfi_endproc
 1532              	.LFE140:
 1534              		.section	.text.VL53L1_preset_mode_low_power_auto_long_ranging,"ax",%progbits
 1535              		.align	1
 1536              		.global	VL53L1_preset_mode_low_power_auto_long_ranging
 1537              		.syntax unified
 1538              		.thumb
ARM GAS  C:\Users\Berbardo\AppData\Local\Temp\ccQolnPL.s 			page 50


 1539              		.thumb_func
 1540              		.fpu fpv4-sp-d16
 1542              	VL53L1_preset_mode_low_power_auto_long_ranging:
 1543              	.LVL68:
 1544              	.LFB141:
1241:D:/Git/VL53L1/lib/core/src\vl53l1_api_preset_modes.c **** 
1242:D:/Git/VL53L1/lib/core/src\vl53l1_api_preset_modes.c **** VL53L1_Error VL53L1_preset_mode_low_power_auto_long_ranging(
1243:D:/Git/VL53L1/lib/core/src\vl53l1_api_preset_modes.c **** 
1244:D:/Git/VL53L1/lib/core/src\vl53l1_api_preset_modes.c **** 	VL53L1_static_config_t    *pstatic,
1245:D:/Git/VL53L1/lib/core/src\vl53l1_api_preset_modes.c **** 	VL53L1_general_config_t   *pgeneral,
1246:D:/Git/VL53L1/lib/core/src\vl53l1_api_preset_modes.c **** 	VL53L1_timing_config_t    *ptiming,
1247:D:/Git/VL53L1/lib/core/src\vl53l1_api_preset_modes.c **** 	VL53L1_dynamic_config_t   *pdynamic,
1248:D:/Git/VL53L1/lib/core/src\vl53l1_api_preset_modes.c **** 	VL53L1_system_control_t   *psystem,
1249:D:/Git/VL53L1/lib/core/src\vl53l1_api_preset_modes.c **** 	VL53L1_tuning_parm_storage_t *ptuning_parms,
1250:D:/Git/VL53L1/lib/core/src\vl53l1_api_preset_modes.c **** 	VL53L1_low_power_auto_data_t *plpadata)
1251:D:/Git/VL53L1/lib/core/src\vl53l1_api_preset_modes.c **** {
 1545              		.loc 1 1251 1 is_stmt 1 view -0
 1546              		.cfi_startproc
 1547              		@ args = 12, pretend = 0, frame = 0
 1548              		@ frame_needed = 0, uses_anonymous_args = 0
 1549              		.loc 1 1251 1 is_stmt 0 view .LVU607
 1550 0000 70B5     		push	{r4, r5, r6, lr}
 1551              		.cfi_def_cfa_offset 16
 1552              		.cfi_offset 4, -16
 1553              		.cfi_offset 5, -12
 1554              		.cfi_offset 6, -8
 1555              		.cfi_offset 14, -4
 1556 0002 82B0     		sub	sp, sp, #8
 1557              		.cfi_def_cfa_offset 24
 1558 0004 0D46     		mov	r5, r1
 1559 0006 1E46     		mov	r6, r3
1252:D:/Git/VL53L1/lib/core/src\vl53l1_api_preset_modes.c **** 	/*
1253:D:/Git/VL53L1/lib/core/src\vl53l1_api_preset_modes.c **** 	* Initializes static and dynamic data structures for
1254:D:/Git/VL53L1/lib/core/src\vl53l1_api_preset_modes.c **** 	* device preset mode
1255:D:/Git/VL53L1/lib/core/src\vl53l1_api_preset_modes.c **** 	*
1256:D:/Git/VL53L1/lib/core/src\vl53l1_api_preset_modes.c **** 	* VL53L1_DEVICEPRESETMODE_LOWPOWERAUTO_LONG_RANGE
1257:D:/Git/VL53L1/lib/core/src\vl53l1_api_preset_modes.c **** 	*
1258:D:/Git/VL53L1/lib/core/src\vl53l1_api_preset_modes.c **** 	*  - pseudo-solo
1259:D:/Git/VL53L1/lib/core/src\vl53l1_api_preset_modes.c **** 	*  - single sigma delta
1260:D:/Git/VL53L1/lib/core/src\vl53l1_api_preset_modes.c **** 	*  - timed
1261:D:/Git/VL53L1/lib/core/src\vl53l1_api_preset_modes.c **** 	*  - special low power auto mode for Presence application
1262:D:/Git/VL53L1/lib/core/src\vl53l1_api_preset_modes.c **** 	*
1263:D:/Git/VL53L1/lib/core/src\vl53l1_api_preset_modes.c **** 	*  PLEASE NOTE THE SETTINGS BELOW ARE PROVISIONAL AND WILL CHANGE!
1264:D:/Git/VL53L1/lib/core/src\vl53l1_api_preset_modes.c **** 	*/
1265:D:/Git/VL53L1/lib/core/src\vl53l1_api_preset_modes.c **** 
1266:D:/Git/VL53L1/lib/core/src\vl53l1_api_preset_modes.c **** 	VL53L1_Error  status = VL53L1_ERROR_NONE;
 1560              		.loc 1 1266 2 is_stmt 1 view .LVU608
 1561              	.LVL69:
1267:D:/Git/VL53L1/lib/core/src\vl53l1_api_preset_modes.c **** 
1268:D:/Git/VL53L1/lib/core/src\vl53l1_api_preset_modes.c **** 	LOG_FUNCTION_START("");
 1562              		.loc 1 1268 24 view .LVU609
1269:D:/Git/VL53L1/lib/core/src\vl53l1_api_preset_modes.c **** 
1270:D:/Git/VL53L1/lib/core/src\vl53l1_api_preset_modes.c **** 	/* Call standard ranging configuration */
1271:D:/Git/VL53L1/lib/core/src\vl53l1_api_preset_modes.c **** 
1272:D:/Git/VL53L1/lib/core/src\vl53l1_api_preset_modes.c **** 	status = VL53L1_preset_mode_timed_ranging_long_range(
 1563              		.loc 1 1272 2 view .LVU610
 1564              		.loc 1 1272 11 is_stmt 0 view .LVU611
ARM GAS  C:\Users\Berbardo\AppData\Local\Temp\ccQolnPL.s 			page 51


 1565 0008 079C     		ldr	r4, [sp, #28]
 1566 000a 0194     		str	r4, [sp, #4]
 1567 000c 069C     		ldr	r4, [sp, #24]
 1568 000e 0094     		str	r4, [sp]
 1569 0010 FFF7FEFF 		bl	VL53L1_preset_mode_timed_ranging_long_range
 1570              	.LVL70:
1273:D:/Git/VL53L1/lib/core/src\vl53l1_api_preset_modes.c **** 					pstatic,
1274:D:/Git/VL53L1/lib/core/src\vl53l1_api_preset_modes.c **** 					pgeneral,
1275:D:/Git/VL53L1/lib/core/src\vl53l1_api_preset_modes.c **** 					ptiming,
1276:D:/Git/VL53L1/lib/core/src\vl53l1_api_preset_modes.c **** 					pdynamic,
1277:D:/Git/VL53L1/lib/core/src\vl53l1_api_preset_modes.c **** 					psystem,
1278:D:/Git/VL53L1/lib/core/src\vl53l1_api_preset_modes.c **** 					ptuning_parms);
1279:D:/Git/VL53L1/lib/core/src\vl53l1_api_preset_modes.c **** 
1280:D:/Git/VL53L1/lib/core/src\vl53l1_api_preset_modes.c **** 	/* now setup the low power auto mode */
1281:D:/Git/VL53L1/lib/core/src\vl53l1_api_preset_modes.c **** 
1282:D:/Git/VL53L1/lib/core/src\vl53l1_api_preset_modes.c **** 	if (status == VL53L1_ERROR_NONE) {
 1571              		.loc 1 1282 2 is_stmt 1 view .LVU612
 1572              		.loc 1 1282 5 is_stmt 0 view .LVU613
 1573 0014 0346     		mov	r3, r0
 1574 0016 10B1     		cbz	r0, .L46
 1575              	.LVL71:
 1576              	.L44:
1283:D:/Git/VL53L1/lib/core/src\vl53l1_api_preset_modes.c **** 		status = VL53L1_config_low_power_auto_mode(
1284:D:/Git/VL53L1/lib/core/src\vl53l1_api_preset_modes.c **** 				pgeneral,
1285:D:/Git/VL53L1/lib/core/src\vl53l1_api_preset_modes.c **** 				pdynamic,
1286:D:/Git/VL53L1/lib/core/src\vl53l1_api_preset_modes.c **** 				plpadata
1287:D:/Git/VL53L1/lib/core/src\vl53l1_api_preset_modes.c **** 				);
1288:D:/Git/VL53L1/lib/core/src\vl53l1_api_preset_modes.c **** 	}
1289:D:/Git/VL53L1/lib/core/src\vl53l1_api_preset_modes.c **** 
1290:D:/Git/VL53L1/lib/core/src\vl53l1_api_preset_modes.c **** 	LOG_FUNCTION_END(status);
 1577              		.loc 1 1290 26 is_stmt 1 view .LVU614
1291:D:/Git/VL53L1/lib/core/src\vl53l1_api_preset_modes.c **** 
1292:D:/Git/VL53L1/lib/core/src\vl53l1_api_preset_modes.c **** 	return status;
 1578              		.loc 1 1292 2 view .LVU615
1293:D:/Git/VL53L1/lib/core/src\vl53l1_api_preset_modes.c **** }
 1579              		.loc 1 1293 1 is_stmt 0 view .LVU616
 1580 0018 1846     		mov	r0, r3
 1581 001a 02B0     		add	sp, sp, #8
 1582              		.cfi_remember_state
 1583              		.cfi_def_cfa_offset 16
 1584              		@ sp needed
 1585 001c 70BD     		pop	{r4, r5, r6, pc}
 1586              	.LVL72:
 1587              	.L46:
 1588              		.cfi_restore_state
1283:D:/Git/VL53L1/lib/core/src\vl53l1_api_preset_modes.c **** 		status = VL53L1_config_low_power_auto_mode(
 1589              		.loc 1 1283 3 is_stmt 1 view .LVU617
1283:D:/Git/VL53L1/lib/core/src\vl53l1_api_preset_modes.c **** 		status = VL53L1_config_low_power_auto_mode(
 1590              		.loc 1 1283 12 is_stmt 0 view .LVU618
 1591 001e 089A     		ldr	r2, [sp, #32]
 1592 0020 3146     		mov	r1, r6
 1593 0022 2846     		mov	r0, r5
 1594              	.LVL73:
1283:D:/Git/VL53L1/lib/core/src\vl53l1_api_preset_modes.c **** 		status = VL53L1_config_low_power_auto_mode(
 1595              		.loc 1 1283 12 view .LVU619
 1596 0024 FFF7FEFF 		bl	VL53L1_config_low_power_auto_mode
 1597              	.LVL74:
ARM GAS  C:\Users\Berbardo\AppData\Local\Temp\ccQolnPL.s 			page 52


 1598 0028 0346     		mov	r3, r0
 1599              	.LVL75:
1283:D:/Git/VL53L1/lib/core/src\vl53l1_api_preset_modes.c **** 		status = VL53L1_config_low_power_auto_mode(
 1600              		.loc 1 1283 12 view .LVU620
 1601 002a F5E7     		b	.L44
 1602              		.cfi_endproc
 1603              	.LFE141:
 1605              		.section	.text.VL53L1_preset_mode_singleshot_ranging,"ax",%progbits
 1606              		.align	1
 1607              		.global	VL53L1_preset_mode_singleshot_ranging
 1608              		.syntax unified
 1609              		.thumb
 1610              		.thumb_func
 1611              		.fpu fpv4-sp-d16
 1613              	VL53L1_preset_mode_singleshot_ranging:
 1614              	.LVL76:
 1615              	.LFB142:
1294:D:/Git/VL53L1/lib/core/src\vl53l1_api_preset_modes.c **** 
1295:D:/Git/VL53L1/lib/core/src\vl53l1_api_preset_modes.c **** /* End Patch_LowPowerAutoMode */
1296:D:/Git/VL53L1/lib/core/src\vl53l1_api_preset_modes.c **** 
1297:D:/Git/VL53L1/lib/core/src\vl53l1_api_preset_modes.c **** VL53L1_Error VL53L1_preset_mode_singleshot_ranging(
1298:D:/Git/VL53L1/lib/core/src\vl53l1_api_preset_modes.c **** 
1299:D:/Git/VL53L1/lib/core/src\vl53l1_api_preset_modes.c **** 	VL53L1_static_config_t    *pstatic,
1300:D:/Git/VL53L1/lib/core/src\vl53l1_api_preset_modes.c **** 	VL53L1_general_config_t   *pgeneral,
1301:D:/Git/VL53L1/lib/core/src\vl53l1_api_preset_modes.c **** 	VL53L1_timing_config_t    *ptiming,
1302:D:/Git/VL53L1/lib/core/src\vl53l1_api_preset_modes.c **** 	VL53L1_dynamic_config_t   *pdynamic,
1303:D:/Git/VL53L1/lib/core/src\vl53l1_api_preset_modes.c **** 	VL53L1_system_control_t   *psystem,
1304:D:/Git/VL53L1/lib/core/src\vl53l1_api_preset_modes.c **** 	VL53L1_tuning_parm_storage_t *ptuning_parms)
1305:D:/Git/VL53L1/lib/core/src\vl53l1_api_preset_modes.c **** {
 1616              		.loc 1 1305 1 is_stmt 1 view -0
 1617              		.cfi_startproc
 1618              		@ args = 8, pretend = 0, frame = 0
 1619              		@ frame_needed = 0, uses_anonymous_args = 0
 1620              		.loc 1 1305 1 is_stmt 0 view .LVU622
 1621 0000 F0B5     		push	{r4, r5, r6, r7, lr}
 1622              		.cfi_def_cfa_offset 20
 1623              		.cfi_offset 4, -20
 1624              		.cfi_offset 5, -16
 1625              		.cfi_offset 6, -12
 1626              		.cfi_offset 7, -8
 1627              		.cfi_offset 14, -4
 1628 0002 83B0     		sub	sp, sp, #12
 1629              		.cfi_def_cfa_offset 32
 1630 0004 1446     		mov	r4, r2
 1631 0006 1F46     		mov	r7, r3
 1632 0008 089D     		ldr	r5, [sp, #32]
 1633 000a 099E     		ldr	r6, [sp, #36]
1306:D:/Git/VL53L1/lib/core/src\vl53l1_api_preset_modes.c **** 	/*
1307:D:/Git/VL53L1/lib/core/src\vl53l1_api_preset_modes.c **** 	* Initializes static and dynamic data structures for device preset mode
1308:D:/Git/VL53L1/lib/core/src\vl53l1_api_preset_modes.c **** 	* VL53L1_DEVICEPRESETMODE_TIMED_RANGING
1309:D:/Git/VL53L1/lib/core/src\vl53l1_api_preset_modes.c **** 	*
1310:D:/Git/VL53L1/lib/core/src\vl53l1_api_preset_modes.c **** 	*  - pseudo-solo
1311:D:/Git/VL53L1/lib/core/src\vl53l1_api_preset_modes.c **** 	*  - single sigma delta
1312:D:/Git/VL53L1/lib/core/src\vl53l1_api_preset_modes.c **** 	*  - timed
1313:D:/Git/VL53L1/lib/core/src\vl53l1_api_preset_modes.c **** 	*
1314:D:/Git/VL53L1/lib/core/src\vl53l1_api_preset_modes.c **** 	*  PLEASE NOTE THE SETTINGS BELOW AT PROVISIONAL AND WILL CHANGE!
1315:D:/Git/VL53L1/lib/core/src\vl53l1_api_preset_modes.c **** 	*/
ARM GAS  C:\Users\Berbardo\AppData\Local\Temp\ccQolnPL.s 			page 53


1316:D:/Git/VL53L1/lib/core/src\vl53l1_api_preset_modes.c **** 
1317:D:/Git/VL53L1/lib/core/src\vl53l1_api_preset_modes.c **** 	VL53L1_Error  status = VL53L1_ERROR_NONE;
 1634              		.loc 1 1317 2 is_stmt 1 view .LVU623
 1635              	.LVL77:
1318:D:/Git/VL53L1/lib/core/src\vl53l1_api_preset_modes.c **** 
1319:D:/Git/VL53L1/lib/core/src\vl53l1_api_preset_modes.c **** 	LOG_FUNCTION_START("");
 1636              		.loc 1 1319 24 view .LVU624
1320:D:/Git/VL53L1/lib/core/src\vl53l1_api_preset_modes.c **** 
1321:D:/Git/VL53L1/lib/core/src\vl53l1_api_preset_modes.c **** 	/* Call standard ranging configuration */
1322:D:/Git/VL53L1/lib/core/src\vl53l1_api_preset_modes.c **** 
1323:D:/Git/VL53L1/lib/core/src\vl53l1_api_preset_modes.c **** 	status = VL53L1_preset_mode_standard_ranging(
 1637              		.loc 1 1323 2 view .LVU625
 1638              		.loc 1 1323 11 is_stmt 0 view .LVU626
 1639 000c 0196     		str	r6, [sp, #4]
 1640 000e 0095     		str	r5, [sp]
 1641 0010 FFF7FEFF 		bl	VL53L1_preset_mode_standard_ranging
 1642              	.LVL78:
1324:D:/Git/VL53L1/lib/core/src\vl53l1_api_preset_modes.c **** 		pstatic,
1325:D:/Git/VL53L1/lib/core/src\vl53l1_api_preset_modes.c **** 		pgeneral,
1326:D:/Git/VL53L1/lib/core/src\vl53l1_api_preset_modes.c **** 		ptiming,
1327:D:/Git/VL53L1/lib/core/src\vl53l1_api_preset_modes.c **** 		pdynamic,
1328:D:/Git/VL53L1/lib/core/src\vl53l1_api_preset_modes.c **** 		psystem,
1329:D:/Git/VL53L1/lib/core/src\vl53l1_api_preset_modes.c **** 		ptuning_parms);
1330:D:/Git/VL53L1/lib/core/src\vl53l1_api_preset_modes.c **** 
1331:D:/Git/VL53L1/lib/core/src\vl53l1_api_preset_modes.c **** 	/* now override standard ranging specific registers */
1332:D:/Git/VL53L1/lib/core/src\vl53l1_api_preset_modes.c **** 
1333:D:/Git/VL53L1/lib/core/src\vl53l1_api_preset_modes.c **** 	if (status == VL53L1_ERROR_NONE) {
 1643              		.loc 1 1333 2 is_stmt 1 view .LVU627
 1644              		.loc 1 1333 5 is_stmt 0 view .LVU628
 1645 0014 0346     		mov	r3, r0
 1646 0016 60B9     		cbnz	r0, .L48
1334:D:/Git/VL53L1/lib/core/src\vl53l1_api_preset_modes.c **** 
1335:D:/Git/VL53L1/lib/core/src\vl53l1_api_preset_modes.c **** 		/* Dynamic Configuration */
1336:D:/Git/VL53L1/lib/core/src\vl53l1_api_preset_modes.c **** 
1337:D:/Git/VL53L1/lib/core/src\vl53l1_api_preset_modes.c **** 		/* Disable GPH  */
1338:D:/Git/VL53L1/lib/core/src\vl53l1_api_preset_modes.c **** 		pdynamic->system__grouped_parameter_hold = 0x00;
 1647              		.loc 1 1338 3 is_stmt 1 view .LVU629
 1648              		.loc 1 1338 44 is_stmt 0 view .LVU630
 1649 0018 0022     		movs	r2, #0
 1650 001a BA74     		strb	r2, [r7, #18]
1339:D:/Git/VL53L1/lib/core/src\vl53l1_api_preset_modes.c **** 
1340:D:/Git/VL53L1/lib/core/src\vl53l1_api_preset_modes.c **** 		/* Timing Configuration */
1341:D:/Git/VL53L1/lib/core/src\vl53l1_api_preset_modes.c **** 
1342:D:/Git/VL53L1/lib/core/src\vl53l1_api_preset_modes.c **** 		/* Re-Configure timing budget default for 13ms */
1343:D:/Git/VL53L1/lib/core/src\vl53l1_api_preset_modes.c **** 		ptiming->range_config__timeout_macrop_a_hi                = 0x00;
 1651              		.loc 1 1343 3 is_stmt 1 view .LVU631
 1652              		.loc 1 1343 61 is_stmt 0 view .LVU632
 1653 001c 2271     		strb	r2, [r4, #4]
1344:D:/Git/VL53L1/lib/core/src\vl53l1_api_preset_modes.c **** 		ptiming->range_config__timeout_macrop_a_lo                = 0xB1;
 1654              		.loc 1 1344 3 is_stmt 1 view .LVU633
 1655              		.loc 1 1344 61 is_stmt 0 view .LVU634
 1656 001e B121     		movs	r1, #177
 1657 0020 6171     		strb	r1, [r4, #5]
1345:D:/Git/VL53L1/lib/core/src\vl53l1_api_preset_modes.c **** 		/* Setup for 13ms default */
1346:D:/Git/VL53L1/lib/core/src\vl53l1_api_preset_modes.c **** 		ptiming->range_config__timeout_macrop_b_hi                = 0x00;
 1658              		.loc 1 1346 3 is_stmt 1 view .LVU635
 1659              		.loc 1 1346 61 is_stmt 0 view .LVU636
ARM GAS  C:\Users\Berbardo\AppData\Local\Temp\ccQolnPL.s 			page 54


 1660 0022 E271     		strb	r2, [r4, #7]
1347:D:/Git/VL53L1/lib/core/src\vl53l1_api_preset_modes.c **** 		ptiming->range_config__timeout_macrop_b_lo                = 0xD4;
 1661              		.loc 1 1347 3 is_stmt 1 view .LVU637
 1662              		.loc 1 1347 61 is_stmt 0 view .LVU638
 1663 0024 D422     		movs	r2, #212
 1664 0026 2272     		strb	r2, [r4, #8]
1348:D:/Git/VL53L1/lib/core/src\vl53l1_api_preset_modes.c **** 
1349:D:/Git/VL53L1/lib/core/src\vl53l1_api_preset_modes.c **** 		pdynamic->system__seed_config =
 1665              		.loc 1 1349 3 is_stmt 1 view .LVU639
1350:D:/Git/VL53L1/lib/core/src\vl53l1_api_preset_modes.c **** 				ptuning_parms->tp_timed_seed_cfg;
 1666              		.loc 1 1350 18 is_stmt 0 view .LVU640
 1667 0028 96F82220 		ldrb	r2, [r6, #34]	@ zero_extendqisi2
1349:D:/Git/VL53L1/lib/core/src\vl53l1_api_preset_modes.c **** 				ptuning_parms->tp_timed_seed_cfg;
 1668              		.loc 1 1349 33 view .LVU641
 1669 002c FA71     		strb	r2, [r7, #7]
1351:D:/Git/VL53L1/lib/core/src\vl53l1_api_preset_modes.c **** 
1352:D:/Git/VL53L1/lib/core/src\vl53l1_api_preset_modes.c **** 		/* System control */
1353:D:/Git/VL53L1/lib/core/src\vl53l1_api_preset_modes.c **** 
1354:D:/Git/VL53L1/lib/core/src\vl53l1_api_preset_modes.c **** 		/* Configure Timed/Psuedo-solo mode */
1355:D:/Git/VL53L1/lib/core/src\vl53l1_api_preset_modes.c **** 		psystem->system__mode_start = \
 1670              		.loc 1 1355 3 is_stmt 1 view .LVU642
 1671              		.loc 1 1355 31 is_stmt 0 view .LVU643
 1672 002e 1022     		movs	r2, #16
 1673 0030 2A71     		strb	r2, [r5, #4]
 1674              	.L48:
1356:D:/Git/VL53L1/lib/core/src\vl53l1_api_preset_modes.c **** 				VL53L1_DEVICESCHEDULERMODE_PSEUDO_SOLO | \
1357:D:/Git/VL53L1/lib/core/src\vl53l1_api_preset_modes.c **** 				VL53L1_DEVICEREADOUTMODE_SINGLE_SD     | \
1358:D:/Git/VL53L1/lib/core/src\vl53l1_api_preset_modes.c **** 				VL53L1_DEVICEMEASUREMENTMODE_SINGLESHOT;
1359:D:/Git/VL53L1/lib/core/src\vl53l1_api_preset_modes.c **** 	}
1360:D:/Git/VL53L1/lib/core/src\vl53l1_api_preset_modes.c **** 
1361:D:/Git/VL53L1/lib/core/src\vl53l1_api_preset_modes.c **** 	LOG_FUNCTION_END(status);
 1675              		.loc 1 1361 26 is_stmt 1 view .LVU644
1362:D:/Git/VL53L1/lib/core/src\vl53l1_api_preset_modes.c **** 
1363:D:/Git/VL53L1/lib/core/src\vl53l1_api_preset_modes.c **** 	return status;
 1676              		.loc 1 1363 2 view .LVU645
1364:D:/Git/VL53L1/lib/core/src\vl53l1_api_preset_modes.c **** }
 1677              		.loc 1 1364 1 is_stmt 0 view .LVU646
 1678 0032 1846     		mov	r0, r3
 1679              	.LVL79:
 1680              		.loc 1 1364 1 view .LVU647
 1681 0034 03B0     		add	sp, sp, #12
 1682              		.cfi_def_cfa_offset 20
 1683              		@ sp needed
 1684 0036 F0BD     		pop	{r4, r5, r6, r7, pc}
 1685              		.loc 1 1364 1 view .LVU648
 1686              		.cfi_endproc
 1687              	.LFE142:
 1689              		.section	.text.VL53L1_preset_mode_olt,"ax",%progbits
 1690              		.align	1
 1691              		.global	VL53L1_preset_mode_olt
 1692              		.syntax unified
 1693              		.thumb
 1694              		.thumb_func
 1695              		.fpu fpv4-sp-d16
 1697              	VL53L1_preset_mode_olt:
 1698              	.LVL80:
 1699              	.LFB143:
ARM GAS  C:\Users\Berbardo\AppData\Local\Temp\ccQolnPL.s 			page 55


1365:D:/Git/VL53L1/lib/core/src\vl53l1_api_preset_modes.c **** 
1366:D:/Git/VL53L1/lib/core/src\vl53l1_api_preset_modes.c **** 
1367:D:/Git/VL53L1/lib/core/src\vl53l1_api_preset_modes.c **** VL53L1_Error VL53L1_preset_mode_olt(
1368:D:/Git/VL53L1/lib/core/src\vl53l1_api_preset_modes.c **** 	VL53L1_static_config_t    *pstatic,
1369:D:/Git/VL53L1/lib/core/src\vl53l1_api_preset_modes.c **** 	VL53L1_general_config_t   *pgeneral,
1370:D:/Git/VL53L1/lib/core/src\vl53l1_api_preset_modes.c **** 	VL53L1_timing_config_t    *ptiming,
1371:D:/Git/VL53L1/lib/core/src\vl53l1_api_preset_modes.c **** 	VL53L1_dynamic_config_t   *pdynamic,
1372:D:/Git/VL53L1/lib/core/src\vl53l1_api_preset_modes.c **** 	VL53L1_system_control_t   *psystem,
1373:D:/Git/VL53L1/lib/core/src\vl53l1_api_preset_modes.c **** 	VL53L1_tuning_parm_storage_t *ptuning_parms)
1374:D:/Git/VL53L1/lib/core/src\vl53l1_api_preset_modes.c **** {
 1700              		.loc 1 1374 1 is_stmt 1 view -0
 1701              		.cfi_startproc
 1702              		@ args = 8, pretend = 0, frame = 0
 1703              		@ frame_needed = 0, uses_anonymous_args = 0
 1704              		.loc 1 1374 1 is_stmt 0 view .LVU650
 1705 0000 30B5     		push	{r4, r5, lr}
 1706              		.cfi_def_cfa_offset 12
 1707              		.cfi_offset 4, -12
 1708              		.cfi_offset 5, -8
 1709              		.cfi_offset 14, -4
 1710 0002 83B0     		sub	sp, sp, #12
 1711              		.cfi_def_cfa_offset 24
 1712 0004 069C     		ldr	r4, [sp, #24]
1375:D:/Git/VL53L1/lib/core/src\vl53l1_api_preset_modes.c **** 	/**
1376:D:/Git/VL53L1/lib/core/src\vl53l1_api_preset_modes.c **** 	 * Initializes static and dynamic data structures for device preset mode
1377:D:/Git/VL53L1/lib/core/src\vl53l1_api_preset_modes.c **** 	 * VL53L1_DEVICEPRESETMODE_OLT
1378:D:/Git/VL53L1/lib/core/src\vl53l1_api_preset_modes.c **** 	 *
1379:D:/Git/VL53L1/lib/core/src\vl53l1_api_preset_modes.c **** 	 *  PLEASE NOTE THE SETTINGS BELOW AT PROVISIONAL AND WILL CHANGE!
1380:D:/Git/VL53L1/lib/core/src\vl53l1_api_preset_modes.c **** 	 */
1381:D:/Git/VL53L1/lib/core/src\vl53l1_api_preset_modes.c **** 
1382:D:/Git/VL53L1/lib/core/src\vl53l1_api_preset_modes.c **** 	VL53L1_Error  status = VL53L1_ERROR_NONE;
 1713              		.loc 1 1382 2 is_stmt 1 view .LVU651
 1714              	.LVL81:
1383:D:/Git/VL53L1/lib/core/src\vl53l1_api_preset_modes.c **** 
1384:D:/Git/VL53L1/lib/core/src\vl53l1_api_preset_modes.c **** 	LOG_FUNCTION_START("");
 1715              		.loc 1 1384 24 view .LVU652
1385:D:/Git/VL53L1/lib/core/src\vl53l1_api_preset_modes.c **** 
1386:D:/Git/VL53L1/lib/core/src\vl53l1_api_preset_modes.c **** 	/* Call standard ranging configuration */
1387:D:/Git/VL53L1/lib/core/src\vl53l1_api_preset_modes.c **** 
1388:D:/Git/VL53L1/lib/core/src\vl53l1_api_preset_modes.c **** 	status = VL53L1_preset_mode_standard_ranging(
 1716              		.loc 1 1388 2 view .LVU653
 1717              		.loc 1 1388 11 is_stmt 0 view .LVU654
 1718 0006 079D     		ldr	r5, [sp, #28]
 1719 0008 0195     		str	r5, [sp, #4]
 1720 000a 0094     		str	r4, [sp]
 1721 000c FFF7FEFF 		bl	VL53L1_preset_mode_standard_ranging
 1722              	.LVL82:
1389:D:/Git/VL53L1/lib/core/src\vl53l1_api_preset_modes.c **** 					pstatic,
1390:D:/Git/VL53L1/lib/core/src\vl53l1_api_preset_modes.c **** 					pgeneral,
1391:D:/Git/VL53L1/lib/core/src\vl53l1_api_preset_modes.c **** 					ptiming,
1392:D:/Git/VL53L1/lib/core/src\vl53l1_api_preset_modes.c **** 					pdynamic,
1393:D:/Git/VL53L1/lib/core/src\vl53l1_api_preset_modes.c **** 					psystem,
1394:D:/Git/VL53L1/lib/core/src\vl53l1_api_preset_modes.c **** 					ptuning_parms);
1395:D:/Git/VL53L1/lib/core/src\vl53l1_api_preset_modes.c **** 
1396:D:/Git/VL53L1/lib/core/src\vl53l1_api_preset_modes.c **** 	/* now override OLT specific registers */
1397:D:/Git/VL53L1/lib/core/src\vl53l1_api_preset_modes.c **** 
1398:D:/Git/VL53L1/lib/core/src\vl53l1_api_preset_modes.c **** 	if (status == VL53L1_ERROR_NONE) {
ARM GAS  C:\Users\Berbardo\AppData\Local\Temp\ccQolnPL.s 			page 56


 1723              		.loc 1 1398 2 is_stmt 1 view .LVU655
 1724              		.loc 1 1398 5 is_stmt 0 view .LVU656
 1725 0010 0346     		mov	r3, r0
 1726 0012 08B9     		cbnz	r0, .L51
1399:D:/Git/VL53L1/lib/core/src\vl53l1_api_preset_modes.c **** 
1400:D:/Git/VL53L1/lib/core/src\vl53l1_api_preset_modes.c **** 		/* Disables requirement for host handshake */
1401:D:/Git/VL53L1/lib/core/src\vl53l1_api_preset_modes.c **** 		psystem->system__stream_count_ctrl  = 0x01;
 1727              		.loc 1 1401 3 is_stmt 1 view .LVU657
 1728              		.loc 1 1401 39 is_stmt 0 view .LVU658
 1729 0014 0122     		movs	r2, #1
 1730 0016 6270     		strb	r2, [r4, #1]
 1731              	.L51:
1402:D:/Git/VL53L1/lib/core/src\vl53l1_api_preset_modes.c **** 	}
1403:D:/Git/VL53L1/lib/core/src\vl53l1_api_preset_modes.c **** 
1404:D:/Git/VL53L1/lib/core/src\vl53l1_api_preset_modes.c **** 	LOG_FUNCTION_END(status);
 1732              		.loc 1 1404 26 is_stmt 1 view .LVU659
1405:D:/Git/VL53L1/lib/core/src\vl53l1_api_preset_modes.c **** 
1406:D:/Git/VL53L1/lib/core/src\vl53l1_api_preset_modes.c **** 	return status;
 1733              		.loc 1 1406 2 view .LVU660
1407:D:/Git/VL53L1/lib/core/src\vl53l1_api_preset_modes.c **** }
 1734              		.loc 1 1407 1 is_stmt 0 view .LVU661
 1735 0018 1846     		mov	r0, r3
 1736              	.LVL83:
 1737              		.loc 1 1407 1 view .LVU662
 1738 001a 03B0     		add	sp, sp, #12
 1739              		.cfi_def_cfa_offset 12
 1740              		@ sp needed
 1741 001c 30BD     		pop	{r4, r5, pc}
 1742              		.loc 1 1407 1 view .LVU663
 1743              		.cfi_endproc
 1744              	.LFE143:
 1746              		.text
 1747              	.Letext0:
 1748              		.file 2 "c:\\program files (x86)\\gnu tools arm embedded\\8 2019-q3-update\\arm-none-eabi\\include
 1749              		.file 3 "c:\\program files (x86)\\gnu tools arm embedded\\8 2019-q3-update\\arm-none-eabi\\include
 1750              		.file 4 "c:\\program files (x86)\\gnu tools arm embedded\\8 2019-q3-update\\lib\\gcc\\arm-none-eab
 1751              		.file 5 "c:\\program files (x86)\\gnu tools arm embedded\\8 2019-q3-update\\arm-none-eabi\\include
 1752              		.file 6 "c:\\program files (x86)\\gnu tools arm embedded\\8 2019-q3-update\\arm-none-eabi\\include
 1753              		.file 7 "c:\\program files (x86)\\gnu tools arm embedded\\8 2019-q3-update\\arm-none-eabi\\include
 1754              		.file 8 "D:/Git/VL53L1/lib/core/inc/vl53l1_ll_device.h"
 1755              		.file 9 "D:/Git/VL53L1/lib/core/inc/vl53l1_error_codes.h"
 1756              		.file 10 "D:/Git/VL53L1/lib/core/inc/vl53l1_register_structs.h"
 1757              		.file 11 "D:/Git/VL53L1/lib/core/inc/vl53l1_ll_def.h"
 1758              		.file 12 "cube/Drivers/CMSIS/Include/core_cm4.h"
 1759              		.file 13 "cube/Drivers/CMSIS/Device/ST/STM32F3xx/Include/system_stm32f3xx.h"
 1760              		.file 14 "cube/Drivers/STM32F3xx_HAL_Driver/Inc/stm32f3xx_hal.h"
 1761              		.file 15 "D:/Git/VL53L1/lib/core/inc/vl53l1_core.h"
ARM GAS  C:\Users\Berbardo\AppData\Local\Temp\ccQolnPL.s 			page 57

