ARM GAS  C:\Users\Berbardo\AppData\Local\Temp\cccrvqtk.s 			page 1


   1              		.cpu cortex-m4
   2              		.eabi_attribute 27, 1
   3              		.eabi_attribute 28, 1
   4              		.eabi_attribute 20, 1
   5              		.eabi_attribute 21, 1
   6              		.eabi_attribute 23, 3
   7              		.eabi_attribute 24, 1
   8              		.eabi_attribute 25, 1
   9              		.eabi_attribute 26, 1
  10              		.eabi_attribute 30, 1
  11              		.eabi_attribute 34, 1
  12              		.eabi_attribute 18, 4
  13              		.file	"vl53l1_api_strings.c"
  14              		.text
  15              	.Ltext0:
  16              		.cfi_sections	.debug_frame
  17              		.section	.text.VL53L1_get_range_status_string,"ax",%progbits
  18              		.align	1
  19              		.global	VL53L1_get_range_status_string
  20              		.arch armv7e-m
  21              		.syntax unified
  22              		.thumb
  23              		.thumb_func
  24              		.fpu fpv4-sp-d16
  26              	VL53L1_get_range_status_string:
  27              	.LVL0:
  28              	.LFB126:
  29              		.file 1 "D:/Git/VL53L1/lib/core/src/vl53l1_api_strings.c"
   1:D:/Git/VL53L1/lib/core/src\vl53l1_api_strings.c **** 
   2:D:/Git/VL53L1/lib/core/src\vl53l1_api_strings.c **** /*
   3:D:/Git/VL53L1/lib/core/src\vl53l1_api_strings.c **** * Copyright (c) 2017, STMicroelectronics - All Rights Reserved
   4:D:/Git/VL53L1/lib/core/src\vl53l1_api_strings.c **** *
   5:D:/Git/VL53L1/lib/core/src\vl53l1_api_strings.c **** * This file is part of VL53L1 Core and is dual licensed,
   6:D:/Git/VL53L1/lib/core/src\vl53l1_api_strings.c **** * either 'STMicroelectronics
   7:D:/Git/VL53L1/lib/core/src\vl53l1_api_strings.c **** * Proprietary license'
   8:D:/Git/VL53L1/lib/core/src\vl53l1_api_strings.c **** * or 'BSD 3-clause "New" or "Revised" License' , at your option.
   9:D:/Git/VL53L1/lib/core/src\vl53l1_api_strings.c **** *
  10:D:/Git/VL53L1/lib/core/src\vl53l1_api_strings.c **** ********************************************************************************
  11:D:/Git/VL53L1/lib/core/src\vl53l1_api_strings.c **** *
  12:D:/Git/VL53L1/lib/core/src\vl53l1_api_strings.c **** * 'STMicroelectronics Proprietary license'
  13:D:/Git/VL53L1/lib/core/src\vl53l1_api_strings.c **** *
  14:D:/Git/VL53L1/lib/core/src\vl53l1_api_strings.c **** ********************************************************************************
  15:D:/Git/VL53L1/lib/core/src\vl53l1_api_strings.c **** *
  16:D:/Git/VL53L1/lib/core/src\vl53l1_api_strings.c **** * License terms: STMicroelectronics Proprietary in accordance with licensing
  17:D:/Git/VL53L1/lib/core/src\vl53l1_api_strings.c **** * terms at www.st.com/sla0081
  18:D:/Git/VL53L1/lib/core/src\vl53l1_api_strings.c **** *
  19:D:/Git/VL53L1/lib/core/src\vl53l1_api_strings.c **** * STMicroelectronics confidential
  20:D:/Git/VL53L1/lib/core/src\vl53l1_api_strings.c **** * Reproduction and Communication of this document is strictly prohibited unless
  21:D:/Git/VL53L1/lib/core/src\vl53l1_api_strings.c **** * specifically authorized in writing by STMicroelectronics.
  22:D:/Git/VL53L1/lib/core/src\vl53l1_api_strings.c **** *
  23:D:/Git/VL53L1/lib/core/src\vl53l1_api_strings.c **** *
  24:D:/Git/VL53L1/lib/core/src\vl53l1_api_strings.c **** ********************************************************************************
  25:D:/Git/VL53L1/lib/core/src\vl53l1_api_strings.c **** *
  26:D:/Git/VL53L1/lib/core/src\vl53l1_api_strings.c **** * Alternatively, VL53L1 Core may be distributed under the terms of
  27:D:/Git/VL53L1/lib/core/src\vl53l1_api_strings.c **** * 'BSD 3-clause "New" or "Revised" License', in which case the following
  28:D:/Git/VL53L1/lib/core/src\vl53l1_api_strings.c **** * provisions apply instead of the ones mentioned above :
  29:D:/Git/VL53L1/lib/core/src\vl53l1_api_strings.c **** *
ARM GAS  C:\Users\Berbardo\AppData\Local\Temp\cccrvqtk.s 			page 2


  30:D:/Git/VL53L1/lib/core/src\vl53l1_api_strings.c **** ********************************************************************************
  31:D:/Git/VL53L1/lib/core/src\vl53l1_api_strings.c **** *
  32:D:/Git/VL53L1/lib/core/src\vl53l1_api_strings.c **** * License terms: BSD 3-clause "New" or "Revised" License.
  33:D:/Git/VL53L1/lib/core/src\vl53l1_api_strings.c **** *
  34:D:/Git/VL53L1/lib/core/src\vl53l1_api_strings.c **** * Redistribution and use in source and binary forms, with or without
  35:D:/Git/VL53L1/lib/core/src\vl53l1_api_strings.c **** * modification, are permitted provided that the following conditions are met:
  36:D:/Git/VL53L1/lib/core/src\vl53l1_api_strings.c **** *
  37:D:/Git/VL53L1/lib/core/src\vl53l1_api_strings.c **** * 1. Redistributions of source code must retain the above copyright notice, this
  38:D:/Git/VL53L1/lib/core/src\vl53l1_api_strings.c **** * list of conditions and the following disclaimer.
  39:D:/Git/VL53L1/lib/core/src\vl53l1_api_strings.c **** *
  40:D:/Git/VL53L1/lib/core/src\vl53l1_api_strings.c **** * 2. Redistributions in binary form must reproduce the above copyright notice,
  41:D:/Git/VL53L1/lib/core/src\vl53l1_api_strings.c **** * this list of conditions and the following disclaimer in the documentation
  42:D:/Git/VL53L1/lib/core/src\vl53l1_api_strings.c **** * and/or other materials provided with the distribution.
  43:D:/Git/VL53L1/lib/core/src\vl53l1_api_strings.c **** *
  44:D:/Git/VL53L1/lib/core/src\vl53l1_api_strings.c **** * 3. Neither the name of the copyright holder nor the names of its contributors
  45:D:/Git/VL53L1/lib/core/src\vl53l1_api_strings.c **** * may be used to endorse or promote products derived from this software
  46:D:/Git/VL53L1/lib/core/src\vl53l1_api_strings.c **** * without specific prior written permission.
  47:D:/Git/VL53L1/lib/core/src\vl53l1_api_strings.c **** *
  48:D:/Git/VL53L1/lib/core/src\vl53l1_api_strings.c **** * THIS SOFTWARE IS PROVIDED BY THE COPYRIGHT HOLDERS AND CONTRIBUTORS "AS IS"
  49:D:/Git/VL53L1/lib/core/src\vl53l1_api_strings.c **** * AND ANY EXPRESS OR IMPLIED WARRANTIES, INCLUDING, BUT NOT LIMITED TO, THE
  50:D:/Git/VL53L1/lib/core/src\vl53l1_api_strings.c **** * IMPLIED WARRANTIES OF MERCHANTABILITY AND FITNESS FOR A PARTICULAR PURPOSE ARE
  51:D:/Git/VL53L1/lib/core/src\vl53l1_api_strings.c **** * DISCLAIMED. IN NO EVENT SHALL THE COPYRIGHT HOLDER OR CONTRIBUTORS BE LIABLE
  52:D:/Git/VL53L1/lib/core/src\vl53l1_api_strings.c **** * FOR ANY DIRECT, INDIRECT, INCIDENTAL, SPECIAL, EXEMPLARY, OR CONSEQUENTIAL
  53:D:/Git/VL53L1/lib/core/src\vl53l1_api_strings.c **** * DAMAGES (INCLUDING, BUT NOT LIMITED TO, PROCUREMENT OF SUBSTITUTE GOODS OR
  54:D:/Git/VL53L1/lib/core/src\vl53l1_api_strings.c **** * SERVICES; LOSS OF USE, DATA, OR PROFITS; OR BUSINESS INTERRUPTION) HOWEVER
  55:D:/Git/VL53L1/lib/core/src\vl53l1_api_strings.c **** * CAUSED AND ON ANY THEORY OF LIABILITY, WHETHER IN CONTRACT, STRICT LIABILITY,
  56:D:/Git/VL53L1/lib/core/src\vl53l1_api_strings.c **** * OR TORT (INCLUDING NEGLIGENCE OR OTHERWISE) ARISING IN ANY WAY OUT OF THE USE
  57:D:/Git/VL53L1/lib/core/src\vl53l1_api_strings.c **** * OF THIS SOFTWARE, EVEN IF ADVISED OF THE POSSIBILITY OF SUCH DAMAGE.
  58:D:/Git/VL53L1/lib/core/src\vl53l1_api_strings.c **** *
  59:D:/Git/VL53L1/lib/core/src\vl53l1_api_strings.c **** *
  60:D:/Git/VL53L1/lib/core/src\vl53l1_api_strings.c **** ********************************************************************************
  61:D:/Git/VL53L1/lib/core/src\vl53l1_api_strings.c **** *
  62:D:/Git/VL53L1/lib/core/src\vl53l1_api_strings.c **** */
  63:D:/Git/VL53L1/lib/core/src\vl53l1_api_strings.c **** 
  64:D:/Git/VL53L1/lib/core/src\vl53l1_api_strings.c **** /**
  65:D:/Git/VL53L1/lib/core/src\vl53l1_api_strings.c ****  * @file   vl53l1_api_strings.c
  66:D:/Git/VL53L1/lib/core/src\vl53l1_api_strings.c ****  * @brief  VL53L1 API functions for decoding error codes to a text string
  67:D:/Git/VL53L1/lib/core/src\vl53l1_api_strings.c ****  */
  68:D:/Git/VL53L1/lib/core/src\vl53l1_api_strings.c **** 
  69:D:/Git/VL53L1/lib/core/src\vl53l1_api_strings.c **** #include "vl53l1_api_core.h"
  70:D:/Git/VL53L1/lib/core/src\vl53l1_api_strings.c **** #include "vl53l1_api_strings.h"
  71:D:/Git/VL53L1/lib/core/src\vl53l1_api_strings.c **** #include "vl53l1_error_codes.h"
  72:D:/Git/VL53L1/lib/core/src\vl53l1_api_strings.c **** #include "vl53l1_error_strings.h"
  73:D:/Git/VL53L1/lib/core/src\vl53l1_api_strings.c **** 
  74:D:/Git/VL53L1/lib/core/src\vl53l1_api_strings.c **** #define LOG_FUNCTION_START(fmt, ...) \
  75:D:/Git/VL53L1/lib/core/src\vl53l1_api_strings.c **** 	_LOG_FUNCTION_START(VL53L1_TRACE_MODULE_API, fmt, ##__VA_ARGS__)
  76:D:/Git/VL53L1/lib/core/src\vl53l1_api_strings.c **** #define LOG_FUNCTION_END(status, ...) \
  77:D:/Git/VL53L1/lib/core/src\vl53l1_api_strings.c **** 	_LOG_FUNCTION_END(VL53L1_TRACE_MODULE_API, status, ##__VA_ARGS__)
  78:D:/Git/VL53L1/lib/core/src\vl53l1_api_strings.c **** #define LOG_FUNCTION_END_FMT(status, fmt, ...) \
  79:D:/Git/VL53L1/lib/core/src\vl53l1_api_strings.c **** 	_LOG_FUNCTION_END_FMT(VL53L1_TRACE_MODULE_API, status, fmt, \
  80:D:/Git/VL53L1/lib/core/src\vl53l1_api_strings.c **** 			##__VA_ARGS__)
  81:D:/Git/VL53L1/lib/core/src\vl53l1_api_strings.c **** 
  82:D:/Git/VL53L1/lib/core/src\vl53l1_api_strings.c **** 
  83:D:/Git/VL53L1/lib/core/src\vl53l1_api_strings.c **** VL53L1_Error VL53L1_get_range_status_string(
  84:D:/Git/VL53L1/lib/core/src\vl53l1_api_strings.c **** 	uint8_t   RangeStatus,
  85:D:/Git/VL53L1/lib/core/src\vl53l1_api_strings.c **** 	char    *pRangeStatusString)
  86:D:/Git/VL53L1/lib/core/src\vl53l1_api_strings.c **** {
ARM GAS  C:\Users\Berbardo\AppData\Local\Temp\cccrvqtk.s 			page 3


  30              		.loc 1 86 1 view -0
  31              		.cfi_startproc
  32              		@ args = 0, pretend = 0, frame = 0
  33              		@ frame_needed = 0, uses_anonymous_args = 0
  34              		.loc 1 86 1 is_stmt 0 view .LVU1
  35 0000 08B5     		push	{r3, lr}
  36              		.cfi_def_cfa_offset 8
  37              		.cfi_offset 3, -8
  38              		.cfi_offset 14, -4
  39 0002 0B46     		mov	r3, r1
  87:D:/Git/VL53L1/lib/core/src\vl53l1_api_strings.c **** 	VL53L1_Error status = VL53L1_ERROR_NONE;
  40              		.loc 1 87 2 is_stmt 1 view .LVU2
  41              	.LVL1:
  88:D:/Git/VL53L1/lib/core/src\vl53l1_api_strings.c **** 
  89:D:/Git/VL53L1/lib/core/src\vl53l1_api_strings.c **** 	LOG_FUNCTION_START("");
  42              		.loc 1 89 24 view .LVU3
  90:D:/Git/VL53L1/lib/core/src\vl53l1_api_strings.c **** 
  91:D:/Git/VL53L1/lib/core/src\vl53l1_api_strings.c **** #ifdef VL53L1_USE_EMPTY_STRING
  92:D:/Git/VL53L1/lib/core/src\vl53l1_api_strings.c **** 	VL53L1_COPYSTRING(pRangeStatusString, "");
  93:D:/Git/VL53L1/lib/core/src\vl53l1_api_strings.c **** #else
  94:D:/Git/VL53L1/lib/core/src\vl53l1_api_strings.c **** 	switch (RangeStatus) {
  43              		.loc 1 94 2 view .LVU4
  44 0004 0528     		cmp	r0, #5
  45 0006 2FD8     		bhi	.L2
  46 0008 DFE800F0 		tbb	[pc, r0]
  47              	.L4:
  48 000c 03       		.byte	(.L9-.L4)/2
  49 000d 0B       		.byte	(.L8-.L4)/2
  50 000e 12       		.byte	(.L7-.L4)/2
  51 000f 19       		.byte	(.L6-.L4)/2
  52 0010 20       		.byte	(.L5-.L4)/2
  53 0011 27       		.byte	(.L3-.L4)/2
  54              		.p2align 1
  55              	.L9:
  95:D:/Git/VL53L1/lib/core/src\vl53l1_api_strings.c **** 	case 0:
  96:D:/Git/VL53L1/lib/core/src\vl53l1_api_strings.c **** 		VL53L1_COPYSTRING(pRangeStatusString,
  56              		.loc 1 96 3 view .LVU5
  57 0012 40F2FF12 		movw	r2, #511
  58 0016 1849     		ldr	r1, .L12
  59              	.LVL2:
  60              		.loc 1 96 3 is_stmt 0 view .LVU6
  61 0018 1846     		mov	r0, r3
  62              	.LVL3:
  63              		.loc 1 96 3 view .LVU7
  64 001a FFF7FEFF 		bl	strncpy
  65              	.LVL4:
  97:D:/Git/VL53L1/lib/core/src\vl53l1_api_strings.c **** 			VL53L1_STRING_RANGESTATUS_RANGEVALID);
  98:D:/Git/VL53L1/lib/core/src\vl53l1_api_strings.c **** 	break;
  66              		.loc 1 98 2 is_stmt 1 view .LVU8
  67              	.L10:
  99:D:/Git/VL53L1/lib/core/src\vl53l1_api_strings.c **** 	case 1:
 100:D:/Git/VL53L1/lib/core/src\vl53l1_api_strings.c **** 		VL53L1_COPYSTRING(pRangeStatusString,
 101:D:/Git/VL53L1/lib/core/src\vl53l1_api_strings.c **** 			VL53L1_STRING_RANGESTATUS_SIGMA);
 102:D:/Git/VL53L1/lib/core/src\vl53l1_api_strings.c **** 	break;
 103:D:/Git/VL53L1/lib/core/src\vl53l1_api_strings.c **** 	case 2:
 104:D:/Git/VL53L1/lib/core/src\vl53l1_api_strings.c **** 		VL53L1_COPYSTRING(pRangeStatusString,
 105:D:/Git/VL53L1/lib/core/src\vl53l1_api_strings.c **** 			VL53L1_STRING_RANGESTATUS_SIGNAL);
ARM GAS  C:\Users\Berbardo\AppData\Local\Temp\cccrvqtk.s 			page 4


 106:D:/Git/VL53L1/lib/core/src\vl53l1_api_strings.c **** 	break;
 107:D:/Git/VL53L1/lib/core/src\vl53l1_api_strings.c **** 	case 3:
 108:D:/Git/VL53L1/lib/core/src\vl53l1_api_strings.c **** 		VL53L1_COPYSTRING(pRangeStatusString,
 109:D:/Git/VL53L1/lib/core/src\vl53l1_api_strings.c **** 			VL53L1_STRING_RANGESTATUS_MINRANGE);
 110:D:/Git/VL53L1/lib/core/src\vl53l1_api_strings.c **** 	break;
 111:D:/Git/VL53L1/lib/core/src\vl53l1_api_strings.c **** 	case 4:
 112:D:/Git/VL53L1/lib/core/src\vl53l1_api_strings.c **** 		VL53L1_COPYSTRING(pRangeStatusString,
 113:D:/Git/VL53L1/lib/core/src\vl53l1_api_strings.c **** 			VL53L1_STRING_RANGESTATUS_PHASE);
 114:D:/Git/VL53L1/lib/core/src\vl53l1_api_strings.c **** 	break;
 115:D:/Git/VL53L1/lib/core/src\vl53l1_api_strings.c **** 	case 5:
 116:D:/Git/VL53L1/lib/core/src\vl53l1_api_strings.c **** 		VL53L1_COPYSTRING(pRangeStatusString,
 117:D:/Git/VL53L1/lib/core/src\vl53l1_api_strings.c **** 			VL53L1_STRING_RANGESTATUS_HW);
 118:D:/Git/VL53L1/lib/core/src\vl53l1_api_strings.c **** 	break;
 119:D:/Git/VL53L1/lib/core/src\vl53l1_api_strings.c **** 
 120:D:/Git/VL53L1/lib/core/src\vl53l1_api_strings.c **** 	default: /**/
 121:D:/Git/VL53L1/lib/core/src\vl53l1_api_strings.c **** 		VL53L1_COPYSTRING(pRangeStatusString,
 122:D:/Git/VL53L1/lib/core/src\vl53l1_api_strings.c **** 			VL53L1_STRING_RANGESTATUS_NONE);
 123:D:/Git/VL53L1/lib/core/src\vl53l1_api_strings.c **** 	}
 124:D:/Git/VL53L1/lib/core/src\vl53l1_api_strings.c **** #endif
 125:D:/Git/VL53L1/lib/core/src\vl53l1_api_strings.c **** 
 126:D:/Git/VL53L1/lib/core/src\vl53l1_api_strings.c **** 	LOG_FUNCTION_END(status);
  68              		.loc 1 126 26 view .LVU9
 127:D:/Git/VL53L1/lib/core/src\vl53l1_api_strings.c **** 	return status;
  69              		.loc 1 127 2 view .LVU10
 128:D:/Git/VL53L1/lib/core/src\vl53l1_api_strings.c **** }
  70              		.loc 1 128 1 is_stmt 0 view .LVU11
  71 001e 0020     		movs	r0, #0
  72 0020 08BD     		pop	{r3, pc}
  73              	.LVL5:
  74              	.L8:
 100:D:/Git/VL53L1/lib/core/src\vl53l1_api_strings.c **** 			VL53L1_STRING_RANGESTATUS_SIGMA);
  75              		.loc 1 100 3 is_stmt 1 view .LVU12
  76 0022 40F2FF12 		movw	r2, #511
  77 0026 1549     		ldr	r1, .L12+4
  78              	.LVL6:
 100:D:/Git/VL53L1/lib/core/src\vl53l1_api_strings.c **** 			VL53L1_STRING_RANGESTATUS_SIGMA);
  79              		.loc 1 100 3 is_stmt 0 view .LVU13
  80 0028 1846     		mov	r0, r3
  81              	.LVL7:
 100:D:/Git/VL53L1/lib/core/src\vl53l1_api_strings.c **** 			VL53L1_STRING_RANGESTATUS_SIGMA);
  82              		.loc 1 100 3 view .LVU14
  83 002a FFF7FEFF 		bl	strncpy
  84              	.LVL8:
 102:D:/Git/VL53L1/lib/core/src\vl53l1_api_strings.c **** 	case 2:
  85              		.loc 1 102 2 is_stmt 1 view .LVU15
  86 002e F6E7     		b	.L10
  87              	.LVL9:
  88              	.L7:
 104:D:/Git/VL53L1/lib/core/src\vl53l1_api_strings.c **** 			VL53L1_STRING_RANGESTATUS_SIGNAL);
  89              		.loc 1 104 3 view .LVU16
  90 0030 40F2FF12 		movw	r2, #511
  91 0034 1249     		ldr	r1, .L12+8
  92              	.LVL10:
 104:D:/Git/VL53L1/lib/core/src\vl53l1_api_strings.c **** 			VL53L1_STRING_RANGESTATUS_SIGNAL);
  93              		.loc 1 104 3 is_stmt 0 view .LVU17
  94 0036 1846     		mov	r0, r3
  95              	.LVL11:
ARM GAS  C:\Users\Berbardo\AppData\Local\Temp\cccrvqtk.s 			page 5


 104:D:/Git/VL53L1/lib/core/src\vl53l1_api_strings.c **** 			VL53L1_STRING_RANGESTATUS_SIGNAL);
  96              		.loc 1 104 3 view .LVU18
  97 0038 FFF7FEFF 		bl	strncpy
  98              	.LVL12:
 106:D:/Git/VL53L1/lib/core/src\vl53l1_api_strings.c **** 	case 3:
  99              		.loc 1 106 2 is_stmt 1 view .LVU19
 100 003c EFE7     		b	.L10
 101              	.LVL13:
 102              	.L6:
 108:D:/Git/VL53L1/lib/core/src\vl53l1_api_strings.c **** 			VL53L1_STRING_RANGESTATUS_MINRANGE);
 103              		.loc 1 108 3 view .LVU20
 104 003e 40F2FF12 		movw	r2, #511
 105 0042 1049     		ldr	r1, .L12+12
 106              	.LVL14:
 108:D:/Git/VL53L1/lib/core/src\vl53l1_api_strings.c **** 			VL53L1_STRING_RANGESTATUS_MINRANGE);
 107              		.loc 1 108 3 is_stmt 0 view .LVU21
 108 0044 1846     		mov	r0, r3
 109              	.LVL15:
 108:D:/Git/VL53L1/lib/core/src\vl53l1_api_strings.c **** 			VL53L1_STRING_RANGESTATUS_MINRANGE);
 110              		.loc 1 108 3 view .LVU22
 111 0046 FFF7FEFF 		bl	strncpy
 112              	.LVL16:
 110:D:/Git/VL53L1/lib/core/src\vl53l1_api_strings.c **** 	case 4:
 113              		.loc 1 110 2 is_stmt 1 view .LVU23
 114 004a E8E7     		b	.L10
 115              	.LVL17:
 116              	.L5:
 112:D:/Git/VL53L1/lib/core/src\vl53l1_api_strings.c **** 			VL53L1_STRING_RANGESTATUS_PHASE);
 117              		.loc 1 112 3 view .LVU24
 118 004c 40F2FF12 		movw	r2, #511
 119 0050 0D49     		ldr	r1, .L12+16
 120              	.LVL18:
 112:D:/Git/VL53L1/lib/core/src\vl53l1_api_strings.c **** 			VL53L1_STRING_RANGESTATUS_PHASE);
 121              		.loc 1 112 3 is_stmt 0 view .LVU25
 122 0052 1846     		mov	r0, r3
 123              	.LVL19:
 112:D:/Git/VL53L1/lib/core/src\vl53l1_api_strings.c **** 			VL53L1_STRING_RANGESTATUS_PHASE);
 124              		.loc 1 112 3 view .LVU26
 125 0054 FFF7FEFF 		bl	strncpy
 126              	.LVL20:
 114:D:/Git/VL53L1/lib/core/src\vl53l1_api_strings.c **** 	case 5:
 127              		.loc 1 114 2 is_stmt 1 view .LVU27
 128 0058 E1E7     		b	.L10
 129              	.LVL21:
 130              	.L3:
 116:D:/Git/VL53L1/lib/core/src\vl53l1_api_strings.c **** 			VL53L1_STRING_RANGESTATUS_HW);
 131              		.loc 1 116 3 view .LVU28
 132 005a 40F2FF12 		movw	r2, #511
 133 005e 0B49     		ldr	r1, .L12+20
 134              	.LVL22:
 116:D:/Git/VL53L1/lib/core/src\vl53l1_api_strings.c **** 			VL53L1_STRING_RANGESTATUS_HW);
 135              		.loc 1 116 3 is_stmt 0 view .LVU29
 136 0060 1846     		mov	r0, r3
 137              	.LVL23:
 116:D:/Git/VL53L1/lib/core/src\vl53l1_api_strings.c **** 			VL53L1_STRING_RANGESTATUS_HW);
 138              		.loc 1 116 3 view .LVU30
 139 0062 FFF7FEFF 		bl	strncpy
ARM GAS  C:\Users\Berbardo\AppData\Local\Temp\cccrvqtk.s 			page 6


 140              	.LVL24:
 118:D:/Git/VL53L1/lib/core/src\vl53l1_api_strings.c **** 
 141              		.loc 1 118 2 is_stmt 1 view .LVU31
 142 0066 DAE7     		b	.L10
 143              	.LVL25:
 144              	.L2:
 121:D:/Git/VL53L1/lib/core/src\vl53l1_api_strings.c **** 			VL53L1_STRING_RANGESTATUS_NONE);
 145              		.loc 1 121 3 view .LVU32
 146 0068 40F2FF12 		movw	r2, #511
 147 006c 0849     		ldr	r1, .L12+24
 148              	.LVL26:
 121:D:/Git/VL53L1/lib/core/src\vl53l1_api_strings.c **** 			VL53L1_STRING_RANGESTATUS_NONE);
 149              		.loc 1 121 3 is_stmt 0 view .LVU33
 150 006e 1846     		mov	r0, r3
 151              	.LVL27:
 121:D:/Git/VL53L1/lib/core/src\vl53l1_api_strings.c **** 			VL53L1_STRING_RANGESTATUS_NONE);
 152              		.loc 1 121 3 view .LVU34
 153 0070 FFF7FEFF 		bl	strncpy
 154              	.LVL28:
 121:D:/Git/VL53L1/lib/core/src\vl53l1_api_strings.c **** 			VL53L1_STRING_RANGESTATUS_NONE);
 155              		.loc 1 121 3 view .LVU35
 156 0074 D3E7     		b	.L10
 157              	.L13:
 158 0076 00BF     		.align	2
 159              	.L12:
 160 0078 00000000 		.word	.LC0
 161 007c 0C000000 		.word	.LC1
 162 0080 18000000 		.word	.LC2
 163 0084 24000000 		.word	.LC3
 164 0088 34000000 		.word	.LC4
 165 008c 40000000 		.word	.LC5
 166 0090 50000000 		.word	.LC6
 167              		.cfi_endproc
 168              	.LFE126:
 170              		.section	.text.VL53L1_get_pal_state_string,"ax",%progbits
 171              		.align	1
 172              		.global	VL53L1_get_pal_state_string
 173              		.syntax unified
 174              		.thumb
 175              		.thumb_func
 176              		.fpu fpv4-sp-d16
 178              	VL53L1_get_pal_state_string:
 179              	.LVL29:
 180              	.LFB127:
 129:D:/Git/VL53L1/lib/core/src\vl53l1_api_strings.c **** 
 130:D:/Git/VL53L1/lib/core/src\vl53l1_api_strings.c **** 
 131:D:/Git/VL53L1/lib/core/src\vl53l1_api_strings.c **** VL53L1_Error VL53L1_get_pal_state_string(
 132:D:/Git/VL53L1/lib/core/src\vl53l1_api_strings.c **** 	VL53L1_State PalStateCode,
 133:D:/Git/VL53L1/lib/core/src\vl53l1_api_strings.c **** 	char *pPalStateString)
 134:D:/Git/VL53L1/lib/core/src\vl53l1_api_strings.c **** {
 181              		.loc 1 134 1 is_stmt 1 view -0
 182              		.cfi_startproc
 183              		@ args = 0, pretend = 0, frame = 0
 184              		@ frame_needed = 0, uses_anonymous_args = 0
 185              		.loc 1 134 1 is_stmt 0 view .LVU37
 186 0000 08B5     		push	{r3, lr}
 187              		.cfi_def_cfa_offset 8
ARM GAS  C:\Users\Berbardo\AppData\Local\Temp\cccrvqtk.s 			page 7


 188              		.cfi_offset 3, -8
 189              		.cfi_offset 14, -4
 190 0002 0B46     		mov	r3, r1
 135:D:/Git/VL53L1/lib/core/src\vl53l1_api_strings.c **** 	VL53L1_Error status = VL53L1_ERROR_NONE;
 191              		.loc 1 135 2 is_stmt 1 view .LVU38
 192              	.LVL30:
 136:D:/Git/VL53L1/lib/core/src\vl53l1_api_strings.c **** 
 137:D:/Git/VL53L1/lib/core/src\vl53l1_api_strings.c **** 	LOG_FUNCTION_START("");
 193              		.loc 1 137 24 view .LVU39
 138:D:/Git/VL53L1/lib/core/src\vl53l1_api_strings.c **** 
 139:D:/Git/VL53L1/lib/core/src\vl53l1_api_strings.c **** #ifdef VL53L1_USE_EMPTY_STRING
 140:D:/Git/VL53L1/lib/core/src\vl53l1_api_strings.c **** 	VL53L1_COPYSTRING(pPalStateString, "");
 141:D:/Git/VL53L1/lib/core/src\vl53l1_api_strings.c **** #else
 142:D:/Git/VL53L1/lib/core/src\vl53l1_api_strings.c **** 	switch (PalStateCode) {
 194              		.loc 1 142 2 view .LVU40
 195 0004 0328     		cmp	r0, #3
 196 0006 27D0     		beq	.L15
 197 0008 0DD9     		bls	.L29
 198 000a 0528     		cmp	r0, #5
 199 000c 32D0     		beq	.L20
 200 000e 2AD3     		bcc	.L21
 201 0010 6228     		cmp	r0, #98
 202 0012 36D0     		beq	.L22
 203 0014 6328     		cmp	r0, #99
 204 0016 3BD1     		bne	.L30
 143:D:/Git/VL53L1/lib/core/src\vl53l1_api_strings.c **** 	case VL53L1_STATE_POWERDOWN:
 144:D:/Git/VL53L1/lib/core/src\vl53l1_api_strings.c **** 		VL53L1_COPYSTRING(pPalStateString,
 145:D:/Git/VL53L1/lib/core/src\vl53l1_api_strings.c **** 			VL53L1_STRING_STATE_POWERDOWN);
 146:D:/Git/VL53L1/lib/core/src\vl53l1_api_strings.c **** 	break;
 147:D:/Git/VL53L1/lib/core/src\vl53l1_api_strings.c **** 	case VL53L1_STATE_WAIT_STATICINIT:
 148:D:/Git/VL53L1/lib/core/src\vl53l1_api_strings.c **** 		VL53L1_COPYSTRING(pPalStateString,
 149:D:/Git/VL53L1/lib/core/src\vl53l1_api_strings.c **** 			VL53L1_STRING_STATE_WAIT_STATICINIT);
 150:D:/Git/VL53L1/lib/core/src\vl53l1_api_strings.c **** 	break;
 151:D:/Git/VL53L1/lib/core/src\vl53l1_api_strings.c **** 	case VL53L1_STATE_STANDBY:
 152:D:/Git/VL53L1/lib/core/src\vl53l1_api_strings.c **** 		VL53L1_COPYSTRING(pPalStateString,
 153:D:/Git/VL53L1/lib/core/src\vl53l1_api_strings.c **** 			VL53L1_STRING_STATE_STANDBY);
 154:D:/Git/VL53L1/lib/core/src\vl53l1_api_strings.c **** 	break;
 155:D:/Git/VL53L1/lib/core/src\vl53l1_api_strings.c **** 	case VL53L1_STATE_IDLE:
 156:D:/Git/VL53L1/lib/core/src\vl53l1_api_strings.c **** 		VL53L1_COPYSTRING(pPalStateString,
 157:D:/Git/VL53L1/lib/core/src\vl53l1_api_strings.c **** 			VL53L1_STRING_STATE_IDLE);
 158:D:/Git/VL53L1/lib/core/src\vl53l1_api_strings.c **** 	break;
 159:D:/Git/VL53L1/lib/core/src\vl53l1_api_strings.c **** 	case VL53L1_STATE_RUNNING:
 160:D:/Git/VL53L1/lib/core/src\vl53l1_api_strings.c **** 		VL53L1_COPYSTRING(pPalStateString,
 161:D:/Git/VL53L1/lib/core/src\vl53l1_api_strings.c **** 			VL53L1_STRING_STATE_RUNNING);
 162:D:/Git/VL53L1/lib/core/src\vl53l1_api_strings.c **** 	break;
 163:D:/Git/VL53L1/lib/core/src\vl53l1_api_strings.c **** 	case VL53L1_STATE_RESET:
 164:D:/Git/VL53L1/lib/core/src\vl53l1_api_strings.c **** 		VL53L1_COPYSTRING(pPalStateString,
 165:D:/Git/VL53L1/lib/core/src\vl53l1_api_strings.c **** 			VL53L1_STRING_STATE_RESET);
 166:D:/Git/VL53L1/lib/core/src\vl53l1_api_strings.c **** 	break;
 167:D:/Git/VL53L1/lib/core/src\vl53l1_api_strings.c **** 	case VL53L1_STATE_UNKNOWN:
 168:D:/Git/VL53L1/lib/core/src\vl53l1_api_strings.c **** 		VL53L1_COPYSTRING(pPalStateString,
 169:D:/Git/VL53L1/lib/core/src\vl53l1_api_strings.c **** 			VL53L1_STRING_STATE_UNKNOWN);
 170:D:/Git/VL53L1/lib/core/src\vl53l1_api_strings.c **** 	break;
 171:D:/Git/VL53L1/lib/core/src\vl53l1_api_strings.c **** 	case VL53L1_STATE_ERROR:
 172:D:/Git/VL53L1/lib/core/src\vl53l1_api_strings.c **** 		VL53L1_COPYSTRING(pPalStateString,
 205              		.loc 1 172 3 view .LVU41
 206 0018 40F2FF12 		movw	r2, #511
ARM GAS  C:\Users\Berbardo\AppData\Local\Temp\cccrvqtk.s 			page 8


 207 001c 2049     		ldr	r1, .L32
 208              	.LVL31:
 209              		.loc 1 172 3 is_stmt 0 view .LVU42
 210 001e 1846     		mov	r0, r3
 211              	.LVL32:
 212              		.loc 1 172 3 view .LVU43
 213 0020 FFF7FEFF 		bl	strncpy
 214              	.LVL33:
 173:D:/Git/VL53L1/lib/core/src\vl53l1_api_strings.c **** 			VL53L1_STRING_STATE_ERROR);
 174:D:/Git/VL53L1/lib/core/src\vl53l1_api_strings.c **** 	break;
 215              		.loc 1 174 2 is_stmt 1 view .LVU44
 216 0024 08E0     		b	.L25
 217              	.LVL34:
 218              	.L29:
 142:D:/Git/VL53L1/lib/core/src\vl53l1_api_strings.c **** 	case VL53L1_STATE_POWERDOWN:
 219              		.loc 1 142 2 is_stmt 0 view .LVU45
 220 0026 0128     		cmp	r0, #1
 221 0028 08D0     		beq	.L17
 222 002a 0ED8     		bhi	.L31
 144:D:/Git/VL53L1/lib/core/src\vl53l1_api_strings.c **** 			VL53L1_STRING_STATE_POWERDOWN);
 223              		.loc 1 144 3 is_stmt 1 view .LVU46
 224 002c 40F2FF12 		movw	r2, #511
 225 0030 1C49     		ldr	r1, .L32+4
 226              	.LVL35:
 144:D:/Git/VL53L1/lib/core/src\vl53l1_api_strings.c **** 			VL53L1_STRING_STATE_POWERDOWN);
 227              		.loc 1 144 3 is_stmt 0 view .LVU47
 228 0032 1846     		mov	r0, r3
 229              	.LVL36:
 144:D:/Git/VL53L1/lib/core/src\vl53l1_api_strings.c **** 			VL53L1_STRING_STATE_POWERDOWN);
 230              		.loc 1 144 3 view .LVU48
 231 0034 FFF7FEFF 		bl	strncpy
 232              	.LVL37:
 146:D:/Git/VL53L1/lib/core/src\vl53l1_api_strings.c **** 	case VL53L1_STATE_WAIT_STATICINIT:
 233              		.loc 1 146 2 is_stmt 1 view .LVU49
 234              	.L25:
 175:D:/Git/VL53L1/lib/core/src\vl53l1_api_strings.c **** 
 176:D:/Git/VL53L1/lib/core/src\vl53l1_api_strings.c **** 	default:
 177:D:/Git/VL53L1/lib/core/src\vl53l1_api_strings.c **** 		VL53L1_COPYSTRING(pPalStateString,
 178:D:/Git/VL53L1/lib/core/src\vl53l1_api_strings.c **** 			VL53L1_STRING_STATE_UNKNOWN);
 179:D:/Git/VL53L1/lib/core/src\vl53l1_api_strings.c **** 	}
 180:D:/Git/VL53L1/lib/core/src\vl53l1_api_strings.c **** #endif
 181:D:/Git/VL53L1/lib/core/src\vl53l1_api_strings.c **** 
 182:D:/Git/VL53L1/lib/core/src\vl53l1_api_strings.c **** 	LOG_FUNCTION_END(status);
 235              		.loc 1 182 26 view .LVU50
 183:D:/Git/VL53L1/lib/core/src\vl53l1_api_strings.c **** 	return status;
 236              		.loc 1 183 2 view .LVU51
 184:D:/Git/VL53L1/lib/core/src\vl53l1_api_strings.c **** }
 237              		.loc 1 184 1 is_stmt 0 view .LVU52
 238 0038 0020     		movs	r0, #0
 239 003a 08BD     		pop	{r3, pc}
 240              	.LVL38:
 241              	.L17:
 148:D:/Git/VL53L1/lib/core/src\vl53l1_api_strings.c **** 			VL53L1_STRING_STATE_WAIT_STATICINIT);
 242              		.loc 1 148 3 is_stmt 1 view .LVU53
 243 003c 40F2FF12 		movw	r2, #511
 244 0040 1949     		ldr	r1, .L32+8
 245              	.LVL39:
ARM GAS  C:\Users\Berbardo\AppData\Local\Temp\cccrvqtk.s 			page 9


 148:D:/Git/VL53L1/lib/core/src\vl53l1_api_strings.c **** 			VL53L1_STRING_STATE_WAIT_STATICINIT);
 246              		.loc 1 148 3 is_stmt 0 view .LVU54
 247 0042 1846     		mov	r0, r3
 248              	.LVL40:
 148:D:/Git/VL53L1/lib/core/src\vl53l1_api_strings.c **** 			VL53L1_STRING_STATE_WAIT_STATICINIT);
 249              		.loc 1 148 3 view .LVU55
 250 0044 FFF7FEFF 		bl	strncpy
 251              	.LVL41:
 150:D:/Git/VL53L1/lib/core/src\vl53l1_api_strings.c **** 	case VL53L1_STATE_STANDBY:
 252              		.loc 1 150 2 is_stmt 1 view .LVU56
 253 0048 F6E7     		b	.L25
 254              	.LVL42:
 255              	.L31:
 152:D:/Git/VL53L1/lib/core/src\vl53l1_api_strings.c **** 			VL53L1_STRING_STATE_STANDBY);
 256              		.loc 1 152 3 view .LVU57
 257 004a 40F2FF12 		movw	r2, #511
 258 004e 1749     		ldr	r1, .L32+12
 259              	.LVL43:
 152:D:/Git/VL53L1/lib/core/src\vl53l1_api_strings.c **** 			VL53L1_STRING_STATE_STANDBY);
 260              		.loc 1 152 3 is_stmt 0 view .LVU58
 261 0050 1846     		mov	r0, r3
 262              	.LVL44:
 152:D:/Git/VL53L1/lib/core/src\vl53l1_api_strings.c **** 			VL53L1_STRING_STATE_STANDBY);
 263              		.loc 1 152 3 view .LVU59
 264 0052 FFF7FEFF 		bl	strncpy
 265              	.LVL45:
 154:D:/Git/VL53L1/lib/core/src\vl53l1_api_strings.c **** 	case VL53L1_STATE_IDLE:
 266              		.loc 1 154 2 is_stmt 1 view .LVU60
 267 0056 EFE7     		b	.L25
 268              	.LVL46:
 269              	.L15:
 156:D:/Git/VL53L1/lib/core/src\vl53l1_api_strings.c **** 			VL53L1_STRING_STATE_IDLE);
 270              		.loc 1 156 3 view .LVU61
 271 0058 40F2FF12 		movw	r2, #511
 272 005c 1449     		ldr	r1, .L32+16
 273              	.LVL47:
 156:D:/Git/VL53L1/lib/core/src\vl53l1_api_strings.c **** 			VL53L1_STRING_STATE_IDLE);
 274              		.loc 1 156 3 is_stmt 0 view .LVU62
 275 005e 1846     		mov	r0, r3
 276              	.LVL48:
 156:D:/Git/VL53L1/lib/core/src\vl53l1_api_strings.c **** 			VL53L1_STRING_STATE_IDLE);
 277              		.loc 1 156 3 view .LVU63
 278 0060 FFF7FEFF 		bl	strncpy
 279              	.LVL49:
 158:D:/Git/VL53L1/lib/core/src\vl53l1_api_strings.c **** 	case VL53L1_STATE_RUNNING:
 280              		.loc 1 158 2 is_stmt 1 view .LVU64
 281 0064 E8E7     		b	.L25
 282              	.LVL50:
 283              	.L21:
 160:D:/Git/VL53L1/lib/core/src\vl53l1_api_strings.c **** 			VL53L1_STRING_STATE_RUNNING);
 284              		.loc 1 160 3 view .LVU65
 285 0066 40F2FF12 		movw	r2, #511
 286 006a 1249     		ldr	r1, .L32+20
 287              	.LVL51:
 160:D:/Git/VL53L1/lib/core/src\vl53l1_api_strings.c **** 			VL53L1_STRING_STATE_RUNNING);
 288              		.loc 1 160 3 is_stmt 0 view .LVU66
 289 006c 1846     		mov	r0, r3
ARM GAS  C:\Users\Berbardo\AppData\Local\Temp\cccrvqtk.s 			page 10


 290              	.LVL52:
 160:D:/Git/VL53L1/lib/core/src\vl53l1_api_strings.c **** 			VL53L1_STRING_STATE_RUNNING);
 291              		.loc 1 160 3 view .LVU67
 292 006e FFF7FEFF 		bl	strncpy
 293              	.LVL53:
 162:D:/Git/VL53L1/lib/core/src\vl53l1_api_strings.c **** 	case VL53L1_STATE_RESET:
 294              		.loc 1 162 2 is_stmt 1 view .LVU68
 295 0072 E1E7     		b	.L25
 296              	.LVL54:
 297              	.L20:
 164:D:/Git/VL53L1/lib/core/src\vl53l1_api_strings.c **** 			VL53L1_STRING_STATE_RESET);
 298              		.loc 1 164 3 view .LVU69
 299 0074 40F2FF12 		movw	r2, #511
 300 0078 0F49     		ldr	r1, .L32+24
 301              	.LVL55:
 164:D:/Git/VL53L1/lib/core/src\vl53l1_api_strings.c **** 			VL53L1_STRING_STATE_RESET);
 302              		.loc 1 164 3 is_stmt 0 view .LVU70
 303 007a 1846     		mov	r0, r3
 304              	.LVL56:
 164:D:/Git/VL53L1/lib/core/src\vl53l1_api_strings.c **** 			VL53L1_STRING_STATE_RESET);
 305              		.loc 1 164 3 view .LVU71
 306 007c FFF7FEFF 		bl	strncpy
 307              	.LVL57:
 166:D:/Git/VL53L1/lib/core/src\vl53l1_api_strings.c **** 	case VL53L1_STATE_UNKNOWN:
 308              		.loc 1 166 2 is_stmt 1 view .LVU72
 309 0080 DAE7     		b	.L25
 310              	.LVL58:
 311              	.L22:
 168:D:/Git/VL53L1/lib/core/src\vl53l1_api_strings.c **** 			VL53L1_STRING_STATE_UNKNOWN);
 312              		.loc 1 168 3 view .LVU73
 313 0082 40F2FF12 		movw	r2, #511
 314 0086 0D49     		ldr	r1, .L32+28
 315              	.LVL59:
 168:D:/Git/VL53L1/lib/core/src\vl53l1_api_strings.c **** 			VL53L1_STRING_STATE_UNKNOWN);
 316              		.loc 1 168 3 is_stmt 0 view .LVU74
 317 0088 1846     		mov	r0, r3
 318              	.LVL60:
 168:D:/Git/VL53L1/lib/core/src\vl53l1_api_strings.c **** 			VL53L1_STRING_STATE_UNKNOWN);
 319              		.loc 1 168 3 view .LVU75
 320 008a FFF7FEFF 		bl	strncpy
 321              	.LVL61:
 170:D:/Git/VL53L1/lib/core/src\vl53l1_api_strings.c **** 	case VL53L1_STATE_ERROR:
 322              		.loc 1 170 2 is_stmt 1 view .LVU76
 323 008e D3E7     		b	.L25
 324              	.LVL62:
 325              	.L30:
 177:D:/Git/VL53L1/lib/core/src\vl53l1_api_strings.c **** 			VL53L1_STRING_STATE_UNKNOWN);
 326              		.loc 1 177 3 view .LVU77
 327 0090 40F2FF12 		movw	r2, #511
 328 0094 0949     		ldr	r1, .L32+28
 329              	.LVL63:
 177:D:/Git/VL53L1/lib/core/src\vl53l1_api_strings.c **** 			VL53L1_STRING_STATE_UNKNOWN);
 330              		.loc 1 177 3 is_stmt 0 view .LVU78
 331 0096 1846     		mov	r0, r3
 332              	.LVL64:
 177:D:/Git/VL53L1/lib/core/src\vl53l1_api_strings.c **** 			VL53L1_STRING_STATE_UNKNOWN);
 333              		.loc 1 177 3 view .LVU79
ARM GAS  C:\Users\Berbardo\AppData\Local\Temp\cccrvqtk.s 			page 11


 334 0098 FFF7FEFF 		bl	strncpy
 335              	.LVL65:
 177:D:/Git/VL53L1/lib/core/src\vl53l1_api_strings.c **** 			VL53L1_STRING_STATE_UNKNOWN);
 336              		.loc 1 177 3 view .LVU80
 337 009c CCE7     		b	.L25
 338              	.L33:
 339 009e 00BF     		.align	2
 340              	.L32:
 341 00a0 74000000 		.word	.LC14
 342 00a4 00000000 		.word	.LC7
 343 00a8 10000000 		.word	.LC8
 344 00ac 2C000000 		.word	.LC9
 345 00b0 3C000000 		.word	.LC10
 346 00b4 48000000 		.word	.LC11
 347 00b8 58000000 		.word	.LC12
 348 00bc 64000000 		.word	.LC13
 349              		.cfi_endproc
 350              	.LFE127:
 352              		.section	.text.VL53L1_get_sequence_steps_info,"ax",%progbits
 353              		.align	1
 354              		.global	VL53L1_get_sequence_steps_info
 355              		.syntax unified
 356              		.thumb
 357              		.thumb_func
 358              		.fpu fpv4-sp-d16
 360              	VL53L1_get_sequence_steps_info:
 361              	.LVL66:
 362              	.LFB128:
 185:D:/Git/VL53L1/lib/core/src\vl53l1_api_strings.c **** 
 186:D:/Git/VL53L1/lib/core/src\vl53l1_api_strings.c **** VL53L1_Error VL53L1_get_sequence_steps_info(
 187:D:/Git/VL53L1/lib/core/src\vl53l1_api_strings.c **** 		VL53L1_SequenceStepId SequenceStepId,
 188:D:/Git/VL53L1/lib/core/src\vl53l1_api_strings.c **** 		char *pSequenceStepsString)
 189:D:/Git/VL53L1/lib/core/src\vl53l1_api_strings.c **** {
 363              		.loc 1 189 1 is_stmt 1 view -0
 364              		.cfi_startproc
 365              		@ args = 0, pretend = 0, frame = 0
 366              		@ frame_needed = 0, uses_anonymous_args = 0
 367              		.loc 1 189 1 is_stmt 0 view .LVU82
 368 0000 08B5     		push	{r3, lr}
 369              		.cfi_def_cfa_offset 8
 370              		.cfi_offset 3, -8
 371              		.cfi_offset 14, -4
 372 0002 0B46     		mov	r3, r1
 190:D:/Git/VL53L1/lib/core/src\vl53l1_api_strings.c **** 	VL53L1_Error Status = VL53L1_ERROR_NONE;
 373              		.loc 1 190 2 is_stmt 1 view .LVU83
 374              	.LVL67:
 191:D:/Git/VL53L1/lib/core/src\vl53l1_api_strings.c **** 
 192:D:/Git/VL53L1/lib/core/src\vl53l1_api_strings.c **** 	LOG_FUNCTION_START("");
 375              		.loc 1 192 24 view .LVU84
 193:D:/Git/VL53L1/lib/core/src\vl53l1_api_strings.c **** 
 194:D:/Git/VL53L1/lib/core/src\vl53l1_api_strings.c **** #ifdef VL53L1_USE_EMPTY_STRING
 195:D:/Git/VL53L1/lib/core/src\vl53l1_api_strings.c **** 	VL53L1_COPYSTRING(pSequenceStepsString, "");
 196:D:/Git/VL53L1/lib/core/src\vl53l1_api_strings.c **** #else
 197:D:/Git/VL53L1/lib/core/src\vl53l1_api_strings.c **** 	switch (SequenceStepId) {
 376              		.loc 1 197 2 view .LVU85
 377 0004 0728     		cmp	r0, #7
 378 0006 45D8     		bhi	.L45
ARM GAS  C:\Users\Berbardo\AppData\Local\Temp\cccrvqtk.s 			page 12


 379 0008 DFE800F0 		tbb	[pc, r0]
 380              	.L37:
 381 000c 04       		.byte	(.L44-.L37)/2
 382 000d 0C       		.byte	(.L43-.L37)/2
 383 000e 14       		.byte	(.L42-.L37)/2
 384 000f 1C       		.byte	(.L41-.L37)/2
 385 0010 24       		.byte	(.L40-.L37)/2
 386 0011 2C       		.byte	(.L39-.L37)/2
 387 0012 34       		.byte	(.L38-.L37)/2
 388 0013 3C       		.byte	(.L36-.L37)/2
 389              		.p2align 1
 390              	.L44:
 198:D:/Git/VL53L1/lib/core/src\vl53l1_api_strings.c **** 	case VL53L1_SEQUENCESTEP_VHV:
 199:D:/Git/VL53L1/lib/core/src\vl53l1_api_strings.c **** 		VL53L1_COPYSTRING(pSequenceStepsString,
 391              		.loc 1 199 3 view .LVU86
 392 0014 40F2FF12 		movw	r2, #511
 393 0018 2049     		ldr	r1, .L47
 394              	.LVL68:
 395              		.loc 1 199 3 is_stmt 0 view .LVU87
 396 001a 1846     		mov	r0, r3
 397              	.LVL69:
 398              		.loc 1 199 3 view .LVU88
 399 001c FFF7FEFF 		bl	strncpy
 400              	.LVL70:
 200:D:/Git/VL53L1/lib/core/src\vl53l1_api_strings.c **** 				VL53L1_STRING_SEQUENCESTEP_VHV);
 201:D:/Git/VL53L1/lib/core/src\vl53l1_api_strings.c **** 	break;
 401              		.loc 1 201 2 is_stmt 1 view .LVU89
 190:D:/Git/VL53L1/lib/core/src\vl53l1_api_strings.c **** 
 402              		.loc 1 190 15 is_stmt 0 view .LVU90
 403 0020 0020     		movs	r0, #0
 404              	.L35:
 405              	.LVL71:
 202:D:/Git/VL53L1/lib/core/src\vl53l1_api_strings.c **** 	case VL53L1_SEQUENCESTEP_PHASECAL:
 203:D:/Git/VL53L1/lib/core/src\vl53l1_api_strings.c **** 		VL53L1_COPYSTRING(pSequenceStepsString,
 204:D:/Git/VL53L1/lib/core/src\vl53l1_api_strings.c **** 				VL53L1_STRING_SEQUENCESTEP_PHASECAL);
 205:D:/Git/VL53L1/lib/core/src\vl53l1_api_strings.c **** 	break;
 206:D:/Git/VL53L1/lib/core/src\vl53l1_api_strings.c **** 	case VL53L1_SEQUENCESTEP_REFPHASE:
 207:D:/Git/VL53L1/lib/core/src\vl53l1_api_strings.c **** 		VL53L1_COPYSTRING(pSequenceStepsString,
 208:D:/Git/VL53L1/lib/core/src\vl53l1_api_strings.c **** 				VL53L1_STRING_SEQUENCESTEP_DSS1);
 209:D:/Git/VL53L1/lib/core/src\vl53l1_api_strings.c **** 	break;
 210:D:/Git/VL53L1/lib/core/src\vl53l1_api_strings.c **** 	case VL53L1_SEQUENCESTEP_DSS1:
 211:D:/Git/VL53L1/lib/core/src\vl53l1_api_strings.c **** 		VL53L1_COPYSTRING(pSequenceStepsString,
 212:D:/Git/VL53L1/lib/core/src\vl53l1_api_strings.c **** 				VL53L1_STRING_SEQUENCESTEP_DSS1);
 213:D:/Git/VL53L1/lib/core/src\vl53l1_api_strings.c **** 	break;
 214:D:/Git/VL53L1/lib/core/src\vl53l1_api_strings.c **** 	case VL53L1_SEQUENCESTEP_DSS2:
 215:D:/Git/VL53L1/lib/core/src\vl53l1_api_strings.c **** 		VL53L1_COPYSTRING(pSequenceStepsString,
 216:D:/Git/VL53L1/lib/core/src\vl53l1_api_strings.c **** 				VL53L1_STRING_SEQUENCESTEP_DSS2);
 217:D:/Git/VL53L1/lib/core/src\vl53l1_api_strings.c **** 	break;
 218:D:/Git/VL53L1/lib/core/src\vl53l1_api_strings.c **** 	case VL53L1_SEQUENCESTEP_MM1:
 219:D:/Git/VL53L1/lib/core/src\vl53l1_api_strings.c **** 		VL53L1_COPYSTRING(pSequenceStepsString,
 220:D:/Git/VL53L1/lib/core/src\vl53l1_api_strings.c **** 				VL53L1_STRING_SEQUENCESTEP_MM1);
 221:D:/Git/VL53L1/lib/core/src\vl53l1_api_strings.c **** 	break;
 222:D:/Git/VL53L1/lib/core/src\vl53l1_api_strings.c **** 	case VL53L1_SEQUENCESTEP_MM2:
 223:D:/Git/VL53L1/lib/core/src\vl53l1_api_strings.c **** 		VL53L1_COPYSTRING(pSequenceStepsString,
 224:D:/Git/VL53L1/lib/core/src\vl53l1_api_strings.c **** 				VL53L1_STRING_SEQUENCESTEP_MM2);
 225:D:/Git/VL53L1/lib/core/src\vl53l1_api_strings.c **** 	break;
 226:D:/Git/VL53L1/lib/core/src\vl53l1_api_strings.c **** 	case VL53L1_SEQUENCESTEP_RANGE:
ARM GAS  C:\Users\Berbardo\AppData\Local\Temp\cccrvqtk.s 			page 13


 227:D:/Git/VL53L1/lib/core/src\vl53l1_api_strings.c **** 		VL53L1_COPYSTRING(pSequenceStepsString,
 228:D:/Git/VL53L1/lib/core/src\vl53l1_api_strings.c **** 				VL53L1_STRING_SEQUENCESTEP_RANGE);
 229:D:/Git/VL53L1/lib/core/src\vl53l1_api_strings.c **** 	break;
 230:D:/Git/VL53L1/lib/core/src\vl53l1_api_strings.c **** 	default:
 231:D:/Git/VL53L1/lib/core/src\vl53l1_api_strings.c **** 		Status = VL53L1_ERROR_INVALID_PARAMS;
 232:D:/Git/VL53L1/lib/core/src\vl53l1_api_strings.c **** 	}
 233:D:/Git/VL53L1/lib/core/src\vl53l1_api_strings.c **** #endif
 234:D:/Git/VL53L1/lib/core/src\vl53l1_api_strings.c **** 
 235:D:/Git/VL53L1/lib/core/src\vl53l1_api_strings.c **** 	LOG_FUNCTION_END(Status);
 406              		.loc 1 235 26 is_stmt 1 view .LVU91
 236:D:/Git/VL53L1/lib/core/src\vl53l1_api_strings.c **** 
 237:D:/Git/VL53L1/lib/core/src\vl53l1_api_strings.c **** 	return Status;
 407              		.loc 1 237 2 view .LVU92
 238:D:/Git/VL53L1/lib/core/src\vl53l1_api_strings.c **** }
 408              		.loc 1 238 1 is_stmt 0 view .LVU93
 409 0022 08BD     		pop	{r3, pc}
 410              	.LVL72:
 411              	.L43:
 203:D:/Git/VL53L1/lib/core/src\vl53l1_api_strings.c **** 				VL53L1_STRING_SEQUENCESTEP_PHASECAL);
 412              		.loc 1 203 3 is_stmt 1 view .LVU94
 413 0024 40F2FF12 		movw	r2, #511
 414 0028 1D49     		ldr	r1, .L47+4
 415              	.LVL73:
 203:D:/Git/VL53L1/lib/core/src\vl53l1_api_strings.c **** 				VL53L1_STRING_SEQUENCESTEP_PHASECAL);
 416              		.loc 1 203 3 is_stmt 0 view .LVU95
 417 002a 1846     		mov	r0, r3
 418              	.LVL74:
 203:D:/Git/VL53L1/lib/core/src\vl53l1_api_strings.c **** 				VL53L1_STRING_SEQUENCESTEP_PHASECAL);
 419              		.loc 1 203 3 view .LVU96
 420 002c FFF7FEFF 		bl	strncpy
 421              	.LVL75:
 205:D:/Git/VL53L1/lib/core/src\vl53l1_api_strings.c **** 	case VL53L1_SEQUENCESTEP_REFPHASE:
 422              		.loc 1 205 2 is_stmt 1 view .LVU97
 190:D:/Git/VL53L1/lib/core/src\vl53l1_api_strings.c **** 
 423              		.loc 1 190 15 is_stmt 0 view .LVU98
 424 0030 0020     		movs	r0, #0
 205:D:/Git/VL53L1/lib/core/src\vl53l1_api_strings.c **** 	case VL53L1_SEQUENCESTEP_REFPHASE:
 425              		.loc 1 205 2 view .LVU99
 426 0032 F6E7     		b	.L35
 427              	.LVL76:
 428              	.L42:
 207:D:/Git/VL53L1/lib/core/src\vl53l1_api_strings.c **** 				VL53L1_STRING_SEQUENCESTEP_DSS1);
 429              		.loc 1 207 3 is_stmt 1 view .LVU100
 430 0034 40F2FF12 		movw	r2, #511
 431 0038 1A49     		ldr	r1, .L47+8
 432              	.LVL77:
 207:D:/Git/VL53L1/lib/core/src\vl53l1_api_strings.c **** 				VL53L1_STRING_SEQUENCESTEP_DSS1);
 433              		.loc 1 207 3 is_stmt 0 view .LVU101
 434 003a 1846     		mov	r0, r3
 435              	.LVL78:
 207:D:/Git/VL53L1/lib/core/src\vl53l1_api_strings.c **** 				VL53L1_STRING_SEQUENCESTEP_DSS1);
 436              		.loc 1 207 3 view .LVU102
 437 003c FFF7FEFF 		bl	strncpy
 438              	.LVL79:
 209:D:/Git/VL53L1/lib/core/src\vl53l1_api_strings.c **** 	case VL53L1_SEQUENCESTEP_DSS1:
 439              		.loc 1 209 2 is_stmt 1 view .LVU103
 190:D:/Git/VL53L1/lib/core/src\vl53l1_api_strings.c **** 
ARM GAS  C:\Users\Berbardo\AppData\Local\Temp\cccrvqtk.s 			page 14


 440              		.loc 1 190 15 is_stmt 0 view .LVU104
 441 0040 0020     		movs	r0, #0
 209:D:/Git/VL53L1/lib/core/src\vl53l1_api_strings.c **** 	case VL53L1_SEQUENCESTEP_DSS1:
 442              		.loc 1 209 2 view .LVU105
 443 0042 EEE7     		b	.L35
 444              	.LVL80:
 445              	.L41:
 211:D:/Git/VL53L1/lib/core/src\vl53l1_api_strings.c **** 				VL53L1_STRING_SEQUENCESTEP_DSS1);
 446              		.loc 1 211 3 is_stmt 1 view .LVU106
 447 0044 40F2FF12 		movw	r2, #511
 448 0048 1649     		ldr	r1, .L47+8
 449              	.LVL81:
 211:D:/Git/VL53L1/lib/core/src\vl53l1_api_strings.c **** 				VL53L1_STRING_SEQUENCESTEP_DSS1);
 450              		.loc 1 211 3 is_stmt 0 view .LVU107
 451 004a 1846     		mov	r0, r3
 452              	.LVL82:
 211:D:/Git/VL53L1/lib/core/src\vl53l1_api_strings.c **** 				VL53L1_STRING_SEQUENCESTEP_DSS1);
 453              		.loc 1 211 3 view .LVU108
 454 004c FFF7FEFF 		bl	strncpy
 455              	.LVL83:
 213:D:/Git/VL53L1/lib/core/src\vl53l1_api_strings.c **** 	case VL53L1_SEQUENCESTEP_DSS2:
 456              		.loc 1 213 2 is_stmt 1 view .LVU109
 190:D:/Git/VL53L1/lib/core/src\vl53l1_api_strings.c **** 
 457              		.loc 1 190 15 is_stmt 0 view .LVU110
 458 0050 0020     		movs	r0, #0
 213:D:/Git/VL53L1/lib/core/src\vl53l1_api_strings.c **** 	case VL53L1_SEQUENCESTEP_DSS2:
 459              		.loc 1 213 2 view .LVU111
 460 0052 E6E7     		b	.L35
 461              	.LVL84:
 462              	.L40:
 215:D:/Git/VL53L1/lib/core/src\vl53l1_api_strings.c **** 				VL53L1_STRING_SEQUENCESTEP_DSS2);
 463              		.loc 1 215 3 is_stmt 1 view .LVU112
 464 0054 40F2FF12 		movw	r2, #511
 465 0058 1349     		ldr	r1, .L47+12
 466              	.LVL85:
 215:D:/Git/VL53L1/lib/core/src\vl53l1_api_strings.c **** 				VL53L1_STRING_SEQUENCESTEP_DSS2);
 467              		.loc 1 215 3 is_stmt 0 view .LVU113
 468 005a 1846     		mov	r0, r3
 469              	.LVL86:
 215:D:/Git/VL53L1/lib/core/src\vl53l1_api_strings.c **** 				VL53L1_STRING_SEQUENCESTEP_DSS2);
 470              		.loc 1 215 3 view .LVU114
 471 005c FFF7FEFF 		bl	strncpy
 472              	.LVL87:
 217:D:/Git/VL53L1/lib/core/src\vl53l1_api_strings.c **** 	case VL53L1_SEQUENCESTEP_MM1:
 473              		.loc 1 217 2 is_stmt 1 view .LVU115
 190:D:/Git/VL53L1/lib/core/src\vl53l1_api_strings.c **** 
 474              		.loc 1 190 15 is_stmt 0 view .LVU116
 475 0060 0020     		movs	r0, #0
 217:D:/Git/VL53L1/lib/core/src\vl53l1_api_strings.c **** 	case VL53L1_SEQUENCESTEP_MM1:
 476              		.loc 1 217 2 view .LVU117
 477 0062 DEE7     		b	.L35
 478              	.LVL88:
 479              	.L39:
 219:D:/Git/VL53L1/lib/core/src\vl53l1_api_strings.c **** 				VL53L1_STRING_SEQUENCESTEP_MM1);
 480              		.loc 1 219 3 is_stmt 1 view .LVU118
 481 0064 40F2FF12 		movw	r2, #511
 482 0068 1049     		ldr	r1, .L47+16
ARM GAS  C:\Users\Berbardo\AppData\Local\Temp\cccrvqtk.s 			page 15


 483              	.LVL89:
 219:D:/Git/VL53L1/lib/core/src\vl53l1_api_strings.c **** 				VL53L1_STRING_SEQUENCESTEP_MM1);
 484              		.loc 1 219 3 is_stmt 0 view .LVU119
 485 006a 1846     		mov	r0, r3
 486              	.LVL90:
 219:D:/Git/VL53L1/lib/core/src\vl53l1_api_strings.c **** 				VL53L1_STRING_SEQUENCESTEP_MM1);
 487              		.loc 1 219 3 view .LVU120
 488 006c FFF7FEFF 		bl	strncpy
 489              	.LVL91:
 221:D:/Git/VL53L1/lib/core/src\vl53l1_api_strings.c **** 	case VL53L1_SEQUENCESTEP_MM2:
 490              		.loc 1 221 2 is_stmt 1 view .LVU121
 190:D:/Git/VL53L1/lib/core/src\vl53l1_api_strings.c **** 
 491              		.loc 1 190 15 is_stmt 0 view .LVU122
 492 0070 0020     		movs	r0, #0
 221:D:/Git/VL53L1/lib/core/src\vl53l1_api_strings.c **** 	case VL53L1_SEQUENCESTEP_MM2:
 493              		.loc 1 221 2 view .LVU123
 494 0072 D6E7     		b	.L35
 495              	.LVL92:
 496              	.L38:
 223:D:/Git/VL53L1/lib/core/src\vl53l1_api_strings.c **** 				VL53L1_STRING_SEQUENCESTEP_MM2);
 497              		.loc 1 223 3 is_stmt 1 view .LVU124
 498 0074 40F2FF12 		movw	r2, #511
 499 0078 0D49     		ldr	r1, .L47+20
 500              	.LVL93:
 223:D:/Git/VL53L1/lib/core/src\vl53l1_api_strings.c **** 				VL53L1_STRING_SEQUENCESTEP_MM2);
 501              		.loc 1 223 3 is_stmt 0 view .LVU125
 502 007a 1846     		mov	r0, r3
 503              	.LVL94:
 223:D:/Git/VL53L1/lib/core/src\vl53l1_api_strings.c **** 				VL53L1_STRING_SEQUENCESTEP_MM2);
 504              		.loc 1 223 3 view .LVU126
 505 007c FFF7FEFF 		bl	strncpy
 506              	.LVL95:
 225:D:/Git/VL53L1/lib/core/src\vl53l1_api_strings.c **** 	case VL53L1_SEQUENCESTEP_RANGE:
 507              		.loc 1 225 2 is_stmt 1 view .LVU127
 190:D:/Git/VL53L1/lib/core/src\vl53l1_api_strings.c **** 
 508              		.loc 1 190 15 is_stmt 0 view .LVU128
 509 0080 0020     		movs	r0, #0
 225:D:/Git/VL53L1/lib/core/src\vl53l1_api_strings.c **** 	case VL53L1_SEQUENCESTEP_RANGE:
 510              		.loc 1 225 2 view .LVU129
 511 0082 CEE7     		b	.L35
 512              	.LVL96:
 513              	.L36:
 227:D:/Git/VL53L1/lib/core/src\vl53l1_api_strings.c **** 				VL53L1_STRING_SEQUENCESTEP_RANGE);
 514              		.loc 1 227 3 is_stmt 1 view .LVU130
 515 0084 40F2FF12 		movw	r2, #511
 516 0088 0A49     		ldr	r1, .L47+24
 517              	.LVL97:
 227:D:/Git/VL53L1/lib/core/src\vl53l1_api_strings.c **** 				VL53L1_STRING_SEQUENCESTEP_RANGE);
 518              		.loc 1 227 3 is_stmt 0 view .LVU131
 519 008a 1846     		mov	r0, r3
 520              	.LVL98:
 227:D:/Git/VL53L1/lib/core/src\vl53l1_api_strings.c **** 				VL53L1_STRING_SEQUENCESTEP_RANGE);
 521              		.loc 1 227 3 view .LVU132
 522 008c FFF7FEFF 		bl	strncpy
 523              	.LVL99:
 229:D:/Git/VL53L1/lib/core/src\vl53l1_api_strings.c **** 	default:
 524              		.loc 1 229 2 is_stmt 1 view .LVU133
ARM GAS  C:\Users\Berbardo\AppData\Local\Temp\cccrvqtk.s 			page 16


 190:D:/Git/VL53L1/lib/core/src\vl53l1_api_strings.c **** 
 525              		.loc 1 190 15 is_stmt 0 view .LVU134
 526 0090 0020     		movs	r0, #0
 229:D:/Git/VL53L1/lib/core/src\vl53l1_api_strings.c **** 	default:
 527              		.loc 1 229 2 view .LVU135
 528 0092 C6E7     		b	.L35
 529              	.LVL100:
 530              	.L45:
 231:D:/Git/VL53L1/lib/core/src\vl53l1_api_strings.c **** 	}
 531              		.loc 1 231 10 view .LVU136
 532 0094 6FF00300 		mvn	r0, #3
 533              	.LVL101:
 231:D:/Git/VL53L1/lib/core/src\vl53l1_api_strings.c **** 	}
 534              		.loc 1 231 10 view .LVU137
 535 0098 C3E7     		b	.L35
 536              	.L48:
 537 009a 00BF     		.align	2
 538              	.L47:
 539 009c 00000000 		.word	.LC15
 540 00a0 04000000 		.word	.LC16
 541 00a4 10000000 		.word	.LC17
 542 00a8 18000000 		.word	.LC18
 543 00ac 20000000 		.word	.LC19
 544 00b0 24000000 		.word	.LC20
 545 00b4 28000000 		.word	.LC21
 546              		.cfi_endproc
 547              	.LFE128:
 549              		.section	.text.VL53L1_get_limit_check_info,"ax",%progbits
 550              		.align	1
 551              		.global	VL53L1_get_limit_check_info
 552              		.syntax unified
 553              		.thumb
 554              		.thumb_func
 555              		.fpu fpv4-sp-d16
 557              	VL53L1_get_limit_check_info:
 558              	.LVL102:
 559              	.LFB129:
 239:D:/Git/VL53L1/lib/core/src\vl53l1_api_strings.c **** 
 240:D:/Git/VL53L1/lib/core/src\vl53l1_api_strings.c **** VL53L1_Error VL53L1_get_limit_check_info(uint16_t LimitCheckId,
 241:D:/Git/VL53L1/lib/core/src\vl53l1_api_strings.c **** 	char *pLimitCheckString)
 242:D:/Git/VL53L1/lib/core/src\vl53l1_api_strings.c **** {
 560              		.loc 1 242 1 is_stmt 1 view -0
 561              		.cfi_startproc
 562              		@ args = 0, pretend = 0, frame = 0
 563              		@ frame_needed = 0, uses_anonymous_args = 0
 564              		.loc 1 242 1 is_stmt 0 view .LVU139
 565 0000 10B5     		push	{r4, lr}
 566              		.cfi_def_cfa_offset 8
 567              		.cfi_offset 4, -8
 568              		.cfi_offset 14, -4
 569 0002 0C46     		mov	r4, r1
 243:D:/Git/VL53L1/lib/core/src\vl53l1_api_strings.c **** 	VL53L1_Error Status = VL53L1_ERROR_NONE;
 570              		.loc 1 243 2 is_stmt 1 view .LVU140
 571              	.LVL103:
 244:D:/Git/VL53L1/lib/core/src\vl53l1_api_strings.c **** 
 245:D:/Git/VL53L1/lib/core/src\vl53l1_api_strings.c **** 	LOG_FUNCTION_START("");
 572              		.loc 1 245 24 view .LVU141
ARM GAS  C:\Users\Berbardo\AppData\Local\Temp\cccrvqtk.s 			page 17


 246:D:/Git/VL53L1/lib/core/src\vl53l1_api_strings.c **** 
 247:D:/Git/VL53L1/lib/core/src\vl53l1_api_strings.c **** #ifdef VL53L1_USE_EMPTY_STRING
 248:D:/Git/VL53L1/lib/core/src\vl53l1_api_strings.c **** 	VL53L1_COPYSTRING(pLimitCheckString, "");
 249:D:/Git/VL53L1/lib/core/src\vl53l1_api_strings.c **** #else
 250:D:/Git/VL53L1/lib/core/src\vl53l1_api_strings.c **** 	switch (LimitCheckId) {
 573              		.loc 1 250 2 view .LVU142
 574 0004 40B1     		cbz	r0, .L50
 575 0006 0128     		cmp	r0, #1
 576 0008 0ED0     		beq	.L51
 251:D:/Git/VL53L1/lib/core/src\vl53l1_api_strings.c **** 	case VL53L1_CHECKENABLE_SIGMA_FINAL_RANGE:
 252:D:/Git/VL53L1/lib/core/src\vl53l1_api_strings.c **** 		VL53L1_COPYSTRING(pLimitCheckString,
 253:D:/Git/VL53L1/lib/core/src\vl53l1_api_strings.c **** 			VL53L1_STRING_CHECKENABLE_SIGMA_FINAL_RANGE);
 254:D:/Git/VL53L1/lib/core/src\vl53l1_api_strings.c **** 	break;
 255:D:/Git/VL53L1/lib/core/src\vl53l1_api_strings.c **** 	case VL53L1_CHECKENABLE_SIGNAL_RATE_FINAL_RANGE:
 256:D:/Git/VL53L1/lib/core/src\vl53l1_api_strings.c **** 		VL53L1_COPYSTRING(pLimitCheckString,
 257:D:/Git/VL53L1/lib/core/src\vl53l1_api_strings.c **** 			VL53L1_STRING_CHECKENABLE_SIGNAL_RATE_FINAL_RANGE);
 258:D:/Git/VL53L1/lib/core/src\vl53l1_api_strings.c **** 	break;
 259:D:/Git/VL53L1/lib/core/src\vl53l1_api_strings.c **** 	default:
 260:D:/Git/VL53L1/lib/core/src\vl53l1_api_strings.c **** 		VL53L1_COPYSTRING(pLimitCheckString,
 577              		.loc 1 260 3 view .LVU143
 578 000a 40F2FF12 		movw	r2, #511
 579 000e 0A49     		ldr	r1, .L56
 580              	.LVL104:
 581              		.loc 1 260 3 is_stmt 0 view .LVU144
 582 0010 2046     		mov	r0, r4
 583              	.LVL105:
 584              		.loc 1 260 3 view .LVU145
 585 0012 FFF7FEFF 		bl	strncpy
 586              	.LVL106:
 587 0016 05E0     		b	.L53
 588              	.LVL107:
 589              	.L50:
 252:D:/Git/VL53L1/lib/core/src\vl53l1_api_strings.c **** 			VL53L1_STRING_CHECKENABLE_SIGMA_FINAL_RANGE);
 590              		.loc 1 252 3 is_stmt 1 view .LVU146
 591 0018 40F2FF12 		movw	r2, #511
 592 001c 0749     		ldr	r1, .L56+4
 593              	.LVL108:
 252:D:/Git/VL53L1/lib/core/src\vl53l1_api_strings.c **** 			VL53L1_STRING_CHECKENABLE_SIGMA_FINAL_RANGE);
 594              		.loc 1 252 3 is_stmt 0 view .LVU147
 595 001e 2046     		mov	r0, r4
 596              	.LVL109:
 252:D:/Git/VL53L1/lib/core/src\vl53l1_api_strings.c **** 			VL53L1_STRING_CHECKENABLE_SIGMA_FINAL_RANGE);
 597              		.loc 1 252 3 view .LVU148
 598 0020 FFF7FEFF 		bl	strncpy
 599              	.LVL110:
 254:D:/Git/VL53L1/lib/core/src\vl53l1_api_strings.c **** 	case VL53L1_CHECKENABLE_SIGNAL_RATE_FINAL_RANGE:
 600              		.loc 1 254 2 is_stmt 1 view .LVU149
 601              	.L53:
 261:D:/Git/VL53L1/lib/core/src\vl53l1_api_strings.c **** 			VL53L1_STRING_UNKNOW_ERROR_CODE);
 262:D:/Git/VL53L1/lib/core/src\vl53l1_api_strings.c **** 	}
 263:D:/Git/VL53L1/lib/core/src\vl53l1_api_strings.c **** #endif
 264:D:/Git/VL53L1/lib/core/src\vl53l1_api_strings.c **** 
 265:D:/Git/VL53L1/lib/core/src\vl53l1_api_strings.c **** 	LOG_FUNCTION_END(Status);
 602              		.loc 1 265 26 view .LVU150
 266:D:/Git/VL53L1/lib/core/src\vl53l1_api_strings.c **** 	return Status;
 603              		.loc 1 266 2 view .LVU151
 267:D:/Git/VL53L1/lib/core/src\vl53l1_api_strings.c **** }
ARM GAS  C:\Users\Berbardo\AppData\Local\Temp\cccrvqtk.s 			page 18


 604              		.loc 1 267 1 is_stmt 0 view .LVU152
 605 0024 0020     		movs	r0, #0
 606 0026 10BD     		pop	{r4, pc}
 607              	.LVL111:
 608              	.L51:
 256:D:/Git/VL53L1/lib/core/src\vl53l1_api_strings.c **** 			VL53L1_STRING_CHECKENABLE_SIGNAL_RATE_FINAL_RANGE);
 609              		.loc 1 256 3 is_stmt 1 view .LVU153
 610 0028 40F2FF12 		movw	r2, #511
 611 002c 0449     		ldr	r1, .L56+8
 612              	.LVL112:
 256:D:/Git/VL53L1/lib/core/src\vl53l1_api_strings.c **** 			VL53L1_STRING_CHECKENABLE_SIGNAL_RATE_FINAL_RANGE);
 613              		.loc 1 256 3 is_stmt 0 view .LVU154
 614 002e 2046     		mov	r0, r4
 615              	.LVL113:
 256:D:/Git/VL53L1/lib/core/src\vl53l1_api_strings.c **** 			VL53L1_STRING_CHECKENABLE_SIGNAL_RATE_FINAL_RANGE);
 616              		.loc 1 256 3 view .LVU155
 617 0030 FFF7FEFF 		bl	strncpy
 618              	.LVL114:
 258:D:/Git/VL53L1/lib/core/src\vl53l1_api_strings.c **** 	default:
 619              		.loc 1 258 2 is_stmt 1 view .LVU156
 620 0034 F6E7     		b	.L53
 621              	.L57:
 622 0036 00BF     		.align	2
 623              	.L56:
 624 0038 2C000000 		.word	.LC24
 625 003c 00000000 		.word	.LC22
 626 0040 14000000 		.word	.LC23
 627              		.cfi_endproc
 628              	.LFE129:
 630              		.section	.rodata.VL53L1_get_limit_check_info.str1.4,"aMS",%progbits,1
 631              		.align	2
 632              	.LC22:
 633 0000 5349474D 		.ascii	"SIGMA FINAL RANGE\000"
 633      41204649 
 633      4E414C20 
 633      52414E47 
 633      4500
 634 0012 0000     		.space	2
 635              	.LC23:
 636 0014 5349474E 		.ascii	"SIGNAL RATE FINAL RANGE\000"
 636      414C2052 
 636      41544520 
 636      46494E41 
 636      4C205241 
 637              	.LC24:
 638 002c 556E6B6E 		.ascii	"Unknown Error Code\000"
 638      6F776E20 
 638      4572726F 
 638      7220436F 
 638      646500
 639              		.section	.rodata.VL53L1_get_pal_state_string.str1.4,"aMS",%progbits,1
 640              		.align	2
 641              	.LC7:
 642 0000 504F5745 		.ascii	"POWERDOWN State\000"
 642      52444F57 
 642      4E205374 
 642      61746500 
ARM GAS  C:\Users\Berbardo\AppData\Local\Temp\cccrvqtk.s 			page 19


 643              	.LC8:
 644 0010 57616974 		.ascii	"Wait for staticinit State\000"
 644      20666F72 
 644      20737461 
 644      74696369 
 644      6E697420 
 645 002a 0000     		.space	2
 646              	.LC9:
 647 002c 5354414E 		.ascii	"STANDBY State\000"
 647      44425920 
 647      53746174 
 647      6500
 648 003a 0000     		.space	2
 649              	.LC10:
 650 003c 49444C45 		.ascii	"IDLE State\000"
 650      20537461 
 650      746500
 651 0047 00       		.space	1
 652              	.LC11:
 653 0048 52554E4E 		.ascii	"RUNNING State\000"
 653      494E4720 
 653      53746174 
 653      6500
 654 0056 0000     		.space	2
 655              	.LC12:
 656 0058 52455345 		.ascii	"RESET State\000"
 656      54205374 
 656      61746500 
 657              	.LC13:
 658 0064 554E4B4E 		.ascii	"UNKNOWN State\000"
 658      4F574E20 
 658      53746174 
 658      6500
 659 0072 0000     		.space	2
 660              	.LC14:
 661 0074 4552524F 		.ascii	"ERROR State\000"
 661      52205374 
 661      61746500 
 662              		.section	.rodata.VL53L1_get_range_status_string.str1.4,"aMS",%progbits,1
 663              		.align	2
 664              	.LC0:
 665 0000 52616E67 		.ascii	"Range Valid\000"
 665      65205661 
 665      6C696400 
 666              	.LC1:
 667 000c 5369676D 		.ascii	"Sigma Fail\000"
 667      61204661 
 667      696C00
 668 0017 00       		.space	1
 669              	.LC2:
 670 0018 5369676E 		.ascii	"Signal Fail\000"
 670      616C2046 
 670      61696C00 
 671              	.LC3:
 672 0024 4D696E20 		.ascii	"Min Range Fail\000"
 672      52616E67 
 672      65204661 
ARM GAS  C:\Users\Berbardo\AppData\Local\Temp\cccrvqtk.s 			page 20


 672      696C00
 673 0033 00       		.space	1
 674              	.LC4:
 675 0034 50686173 		.ascii	"Phase Fail\000"
 675      65204661 
 675      696C00
 676 003f 00       		.space	1
 677              	.LC5:
 678 0040 48617264 		.ascii	"Hardware Fail\000"
 678      77617265 
 678      20466169 
 678      6C00
 679 004e 0000     		.space	2
 680              	.LC6:
 681 0050 4E6F2055 		.ascii	"No Update\000"
 681      70646174 
 681      6500
 682              		.section	.rodata.VL53L1_get_sequence_steps_info.str1.4,"aMS",%progbits,1
 683              		.align	2
 684              	.LC15:
 685 0000 56485600 		.ascii	"VHV\000"
 686              	.LC16:
 687 0004 50484153 		.ascii	"PHASE CAL\000"
 687      45204341 
 687      4C00
 688 000e 0000     		.space	2
 689              	.LC17:
 690 0010 44535331 		.ascii	"DSS1\000"
 690      00
 691 0015 000000   		.space	3
 692              	.LC18:
 693 0018 44535332 		.ascii	"DSS2\000"
 693      00
 694 001d 000000   		.space	3
 695              	.LC19:
 696 0020 4D4D3100 		.ascii	"MM1\000"
 697              	.LC20:
 698 0024 4D4D3200 		.ascii	"MM2\000"
 699              	.LC21:
 700 0028 52414E47 		.ascii	"RANGE\000"
 700      4500
 701              		.text
 702              	.Letext0:
 703              		.file 2 "c:\\program files (x86)\\gnu tools arm embedded\\8 2019-q3-update\\arm-none-eabi\\include
 704              		.file 3 "c:\\program files (x86)\\gnu tools arm embedded\\8 2019-q3-update\\arm-none-eabi\\include
 705              		.file 4 "c:\\program files (x86)\\gnu tools arm embedded\\8 2019-q3-update\\lib\\gcc\\arm-none-eab
 706              		.file 5 "c:\\program files (x86)\\gnu tools arm embedded\\8 2019-q3-update\\arm-none-eabi\\include
 707              		.file 6 "c:\\program files (x86)\\gnu tools arm embedded\\8 2019-q3-update\\arm-none-eabi\\include
 708              		.file 7 "c:\\program files (x86)\\gnu tools arm embedded\\8 2019-q3-update\\arm-none-eabi\\include
 709              		.file 8 "D:/Git/VL53L1/lib/core/inc/vl53l1_error_codes.h"
 710              		.file 9 "cube/Drivers/CMSIS/Include/core_cm4.h"
 711              		.file 10 "cube/Drivers/CMSIS/Device/ST/STM32F3xx/Include/system_stm32f3xx.h"
 712              		.file 11 "cube/Drivers/STM32F3xx_HAL_Driver/Inc/stm32f3xx_hal.h"
 713              		.file 12 "D:/Git/VL53L1/lib/core/inc/vl53l1_def.h"
 714              		.file 13 "c:\\program files (x86)\\gnu tools arm embedded\\8 2019-q3-update\\arm-none-eabi\\includ
ARM GAS  C:\Users\Berbardo\AppData\Local\Temp\cccrvqtk.s 			page 21

