ARM GAS  C:\Users\Berbardo\AppData\Local\Temp\ccpaHgls.s 			page 1


   1              		.cpu cortex-m4
   2              		.eabi_attribute 27, 1
   3              		.eabi_attribute 28, 1
   4              		.eabi_attribute 20, 1
   5              		.eabi_attribute 21, 1
   6              		.eabi_attribute 23, 3
   7              		.eabi_attribute 24, 1
   8              		.eabi_attribute 25, 1
   9              		.eabi_attribute 26, 1
  10              		.eabi_attribute 30, 1
  11              		.eabi_attribute 34, 1
  12              		.eabi_attribute 18, 4
  13              		.file	"vl53l1_api.c"
  14              		.text
  15              	.Ltext0:
  16              		.cfi_sections	.debug_frame
  17              		.section	.text.CheckValidRectRoi,"ax",%progbits
  18              		.align	1
  19              		.arch armv7e-m
  20              		.syntax unified
  21              		.thumb
  22              		.thumb_func
  23              		.fpu fpv4-sp-d16
  25              	CheckValidRectRoi:
  26              	.LFB131:
  27              		.file 1 "D:/Git/VL53L1/lib/core/src/vl53l1_api.c"
   1:D:/Git/VL53L1/lib/core/src\vl53l1_api.c **** 
   2:D:/Git/VL53L1/lib/core/src\vl53l1_api.c **** /*
   3:D:/Git/VL53L1/lib/core/src\vl53l1_api.c **** * Copyright (c) 2017, STMicroelectronics - All Rights Reserved
   4:D:/Git/VL53L1/lib/core/src\vl53l1_api.c **** *
   5:D:/Git/VL53L1/lib/core/src\vl53l1_api.c **** * This file is part of VL53L1 Core and is dual licensed,
   6:D:/Git/VL53L1/lib/core/src\vl53l1_api.c **** * either 'STMicroelectronics
   7:D:/Git/VL53L1/lib/core/src\vl53l1_api.c **** * Proprietary license'
   8:D:/Git/VL53L1/lib/core/src\vl53l1_api.c **** * or 'BSD 3-clause "New" or "Revised" License' , at your option.
   9:D:/Git/VL53L1/lib/core/src\vl53l1_api.c **** *
  10:D:/Git/VL53L1/lib/core/src\vl53l1_api.c **** ********************************************************************************
  11:D:/Git/VL53L1/lib/core/src\vl53l1_api.c **** *
  12:D:/Git/VL53L1/lib/core/src\vl53l1_api.c **** * 'STMicroelectronics Proprietary license'
  13:D:/Git/VL53L1/lib/core/src\vl53l1_api.c **** *
  14:D:/Git/VL53L1/lib/core/src\vl53l1_api.c **** ********************************************************************************
  15:D:/Git/VL53L1/lib/core/src\vl53l1_api.c **** *
  16:D:/Git/VL53L1/lib/core/src\vl53l1_api.c **** * License terms: STMicroelectronics Proprietary in accordance with licensing
  17:D:/Git/VL53L1/lib/core/src\vl53l1_api.c **** * terms at www.st.com/sla0081
  18:D:/Git/VL53L1/lib/core/src\vl53l1_api.c **** *
  19:D:/Git/VL53L1/lib/core/src\vl53l1_api.c **** * STMicroelectronics confidential
  20:D:/Git/VL53L1/lib/core/src\vl53l1_api.c **** * Reproduction and Communication of this document is strictly prohibited unless
  21:D:/Git/VL53L1/lib/core/src\vl53l1_api.c **** * specifically authorized in writing by STMicroelectronics.
  22:D:/Git/VL53L1/lib/core/src\vl53l1_api.c **** *
  23:D:/Git/VL53L1/lib/core/src\vl53l1_api.c **** *
  24:D:/Git/VL53L1/lib/core/src\vl53l1_api.c **** ********************************************************************************
  25:D:/Git/VL53L1/lib/core/src\vl53l1_api.c **** *
  26:D:/Git/VL53L1/lib/core/src\vl53l1_api.c **** * Alternatively, VL53L1 Core may be distributed under the terms of
  27:D:/Git/VL53L1/lib/core/src\vl53l1_api.c **** * 'BSD 3-clause "New" or "Revised" License', in which case the following
  28:D:/Git/VL53L1/lib/core/src\vl53l1_api.c **** * provisions apply instead of the ones mentioned above :
  29:D:/Git/VL53L1/lib/core/src\vl53l1_api.c **** *
  30:D:/Git/VL53L1/lib/core/src\vl53l1_api.c **** ********************************************************************************
  31:D:/Git/VL53L1/lib/core/src\vl53l1_api.c **** *
ARM GAS  C:\Users\Berbardo\AppData\Local\Temp\ccpaHgls.s 			page 2


  32:D:/Git/VL53L1/lib/core/src\vl53l1_api.c **** * License terms: BSD 3-clause "New" or "Revised" License.
  33:D:/Git/VL53L1/lib/core/src\vl53l1_api.c **** *
  34:D:/Git/VL53L1/lib/core/src\vl53l1_api.c **** * Redistribution and use in source and binary forms, with or without
  35:D:/Git/VL53L1/lib/core/src\vl53l1_api.c **** * modification, are permitted provided that the following conditions are met:
  36:D:/Git/VL53L1/lib/core/src\vl53l1_api.c **** *
  37:D:/Git/VL53L1/lib/core/src\vl53l1_api.c **** * 1. Redistributions of source code must retain the above copyright notice, this
  38:D:/Git/VL53L1/lib/core/src\vl53l1_api.c **** * list of conditions and the following disclaimer.
  39:D:/Git/VL53L1/lib/core/src\vl53l1_api.c **** *
  40:D:/Git/VL53L1/lib/core/src\vl53l1_api.c **** * 2. Redistributions in binary form must reproduce the above copyright notice,
  41:D:/Git/VL53L1/lib/core/src\vl53l1_api.c **** * this list of conditions and the following disclaimer in the documentation
  42:D:/Git/VL53L1/lib/core/src\vl53l1_api.c **** * and/or other materials provided with the distribution.
  43:D:/Git/VL53L1/lib/core/src\vl53l1_api.c **** *
  44:D:/Git/VL53L1/lib/core/src\vl53l1_api.c **** * 3. Neither the name of the copyright holder nor the names of its contributors
  45:D:/Git/VL53L1/lib/core/src\vl53l1_api.c **** * may be used to endorse or promote products derived from this software
  46:D:/Git/VL53L1/lib/core/src\vl53l1_api.c **** * without specific prior written permission.
  47:D:/Git/VL53L1/lib/core/src\vl53l1_api.c **** *
  48:D:/Git/VL53L1/lib/core/src\vl53l1_api.c **** * THIS SOFTWARE IS PROVIDED BY THE COPYRIGHT HOLDERS AND CONTRIBUTORS "AS IS"
  49:D:/Git/VL53L1/lib/core/src\vl53l1_api.c **** * AND ANY EXPRESS OR IMPLIED WARRANTIES, INCLUDING, BUT NOT LIMITED TO, THE
  50:D:/Git/VL53L1/lib/core/src\vl53l1_api.c **** * IMPLIED WARRANTIES OF MERCHANTABILITY AND FITNESS FOR A PARTICULAR PURPOSE ARE
  51:D:/Git/VL53L1/lib/core/src\vl53l1_api.c **** * DISCLAIMED. IN NO EVENT SHALL THE COPYRIGHT HOLDER OR CONTRIBUTORS BE LIABLE
  52:D:/Git/VL53L1/lib/core/src\vl53l1_api.c **** * FOR ANY DIRECT, INDIRECT, INCIDENTAL, SPECIAL, EXEMPLARY, OR CONSEQUENTIAL
  53:D:/Git/VL53L1/lib/core/src\vl53l1_api.c **** * DAMAGES (INCLUDING, BUT NOT LIMITED TO, PROCUREMENT OF SUBSTITUTE GOODS OR
  54:D:/Git/VL53L1/lib/core/src\vl53l1_api.c **** * SERVICES; LOSS OF USE, DATA, OR PROFITS; OR BUSINESS INTERRUPTION) HOWEVER
  55:D:/Git/VL53L1/lib/core/src\vl53l1_api.c **** * CAUSED AND ON ANY THEORY OF LIABILITY, WHETHER IN CONTRACT, STRICT LIABILITY,
  56:D:/Git/VL53L1/lib/core/src\vl53l1_api.c **** * OR TORT (INCLUDING NEGLIGENCE OR OTHERWISE) ARISING IN ANY WAY OUT OF THE USE
  57:D:/Git/VL53L1/lib/core/src\vl53l1_api.c **** * OF THIS SOFTWARE, EVEN IF ADVISED OF THE POSSIBILITY OF SUCH DAMAGE.
  58:D:/Git/VL53L1/lib/core/src\vl53l1_api.c **** *
  59:D:/Git/VL53L1/lib/core/src\vl53l1_api.c **** *
  60:D:/Git/VL53L1/lib/core/src\vl53l1_api.c **** ********************************************************************************
  61:D:/Git/VL53L1/lib/core/src\vl53l1_api.c **** *
  62:D:/Git/VL53L1/lib/core/src\vl53l1_api.c **** */
  63:D:/Git/VL53L1/lib/core/src\vl53l1_api.c **** #include "vl53l1_api.h"
  64:D:/Git/VL53L1/lib/core/src\vl53l1_api.c **** #include "vl53l1_api_strings.h"
  65:D:/Git/VL53L1/lib/core/src\vl53l1_api.c **** #include "vl53l1_register_settings.h"
  66:D:/Git/VL53L1/lib/core/src\vl53l1_api.c **** #include "vl53l1_register_funcs.h"
  67:D:/Git/VL53L1/lib/core/src\vl53l1_api.c **** #include "vl53l1_core.h"
  68:D:/Git/VL53L1/lib/core/src\vl53l1_api.c **** #include "vl53l1_api_calibration.h"
  69:D:/Git/VL53L1/lib/core/src\vl53l1_api.c **** #include "vl53l1_wait.h"
  70:D:/Git/VL53L1/lib/core/src\vl53l1_api.c **** #include "vl53l1_preset_setup.h"
  71:D:/Git/VL53L1/lib/core/src\vl53l1_api.c **** #include "vl53l1_api_debug.h"
  72:D:/Git/VL53L1/lib/core/src\vl53l1_api.c **** #include "vl53l1_api_core.h"
  73:D:/Git/VL53L1/lib/core/src\vl53l1_api.c **** 
  74:D:/Git/VL53L1/lib/core/src\vl53l1_api.c **** /* Check for minimum user zone requested by Xtalk calibration */
  75:D:/Git/VL53L1/lib/core/src\vl53l1_api.c **** /* no need for VL53L1_MAX_USER_ZONES check, set 5 to pass the test */
  76:D:/Git/VL53L1/lib/core/src\vl53l1_api.c **** #define ZONE_CHECK 5
  77:D:/Git/VL53L1/lib/core/src\vl53l1_api.c **** 
  78:D:/Git/VL53L1/lib/core/src\vl53l1_api.c **** #if ZONE_CHECK < 5
  79:D:/Git/VL53L1/lib/core/src\vl53l1_api.c **** #error Must define at least 5 zones in MAX_USER_ZONES constant
  80:D:/Git/VL53L1/lib/core/src\vl53l1_api.c **** #endif
  81:D:/Git/VL53L1/lib/core/src\vl53l1_api.c **** 
  82:D:/Git/VL53L1/lib/core/src\vl53l1_api.c **** 
  83:D:/Git/VL53L1/lib/core/src\vl53l1_api.c **** #ifdef VL53L1_NOCALIB
  84:D:/Git/VL53L1/lib/core/src\vl53l1_api.c **** #define OFFSET_CALIB_EMPTY
  85:D:/Git/VL53L1/lib/core/src\vl53l1_api.c **** #endif
  86:D:/Git/VL53L1/lib/core/src\vl53l1_api.c **** 
  87:D:/Git/VL53L1/lib/core/src\vl53l1_api.c **** #ifndef VL53L1_NOCALIB
  88:D:/Git/VL53L1/lib/core/src\vl53l1_api.c **** #define OFFSET_CALIB
ARM GAS  C:\Users\Berbardo\AppData\Local\Temp\ccpaHgls.s 			page 3


  89:D:/Git/VL53L1/lib/core/src\vl53l1_api.c **** #endif
  90:D:/Git/VL53L1/lib/core/src\vl53l1_api.c **** 
  91:D:/Git/VL53L1/lib/core/src\vl53l1_api.c **** #define LOG_FUNCTION_START(fmt, ...) \
  92:D:/Git/VL53L1/lib/core/src\vl53l1_api.c **** 	_LOG_FUNCTION_START(VL53L1_TRACE_MODULE_API, fmt, ##__VA_ARGS__)
  93:D:/Git/VL53L1/lib/core/src\vl53l1_api.c **** #define LOG_FUNCTION_END(status, ...) \
  94:D:/Git/VL53L1/lib/core/src\vl53l1_api.c **** 	_LOG_FUNCTION_END(VL53L1_TRACE_MODULE_API, status, ##__VA_ARGS__)
  95:D:/Git/VL53L1/lib/core/src\vl53l1_api.c **** #define LOG_FUNCTION_END_FMT(status, fmt, ...) \
  96:D:/Git/VL53L1/lib/core/src\vl53l1_api.c **** 	_LOG_FUNCTION_END_FMT(VL53L1_TRACE_MODULE_API, status, \
  97:D:/Git/VL53L1/lib/core/src\vl53l1_api.c **** 			fmt, ##__VA_ARGS__)
  98:D:/Git/VL53L1/lib/core/src\vl53l1_api.c **** 
  99:D:/Git/VL53L1/lib/core/src\vl53l1_api.c **** #ifdef VL53L1_LOG_ENABLE
 100:D:/Git/VL53L1/lib/core/src\vl53l1_api.c **** #define trace_print(level, ...) trace_print_module_function(\
 101:D:/Git/VL53L1/lib/core/src\vl53l1_api.c **** 		VL53L1_TRACE_MODULE_API, level, VL53L1_TRACE_FUNCTION_NONE, \
 102:D:/Git/VL53L1/lib/core/src\vl53l1_api.c **** 		##__VA_ARGS__)
 103:D:/Git/VL53L1/lib/core/src\vl53l1_api.c **** #endif
 104:D:/Git/VL53L1/lib/core/src\vl53l1_api.c **** 
 105:D:/Git/VL53L1/lib/core/src\vl53l1_api.c **** #ifndef MIN
 106:D:/Git/VL53L1/lib/core/src\vl53l1_api.c **** #define MIN(v1, v2) ((v1) < (v2) ? (v1) : (v2))
 107:D:/Git/VL53L1/lib/core/src\vl53l1_api.c **** #endif
 108:D:/Git/VL53L1/lib/core/src\vl53l1_api.c **** #ifndef MAX
 109:D:/Git/VL53L1/lib/core/src\vl53l1_api.c **** #define MAX(v1, v2) ((v1) < (v2) ? (v2) : (v1))
 110:D:/Git/VL53L1/lib/core/src\vl53l1_api.c **** #endif
 111:D:/Git/VL53L1/lib/core/src\vl53l1_api.c **** 
 112:D:/Git/VL53L1/lib/core/src\vl53l1_api.c **** #define DMAX_REFLECTANCE_IDX 2
 113:D:/Git/VL53L1/lib/core/src\vl53l1_api.c **** /* Use Dmax index 2 because it's the 50% reflectance case by default */
 114:D:/Git/VL53L1/lib/core/src\vl53l1_api.c **** 
 115:D:/Git/VL53L1/lib/core/src\vl53l1_api.c **** /* Following LOWPOWER_AUTO figures have been measured observing vcsel
 116:D:/Git/VL53L1/lib/core/src\vl53l1_api.c ****  * emissions on an actual device
 117:D:/Git/VL53L1/lib/core/src\vl53l1_api.c ****  */
 118:D:/Git/VL53L1/lib/core/src\vl53l1_api.c **** #define LOWPOWER_AUTO_VHV_LOOP_DURATION_US 245
 119:D:/Git/VL53L1/lib/core/src\vl53l1_api.c **** #define LOWPOWER_AUTO_OVERHEAD_BEFORE_A_RANGING 1448
 120:D:/Git/VL53L1/lib/core/src\vl53l1_api.c **** #define LOWPOWER_AUTO_OVERHEAD_BETWEEN_A_B_RANGING 2100
 121:D:/Git/VL53L1/lib/core/src\vl53l1_api.c **** 
 122:D:/Git/VL53L1/lib/core/src\vl53l1_api.c **** #define FDA_MAX_TIMING_BUDGET_US 550000
 123:D:/Git/VL53L1/lib/core/src\vl53l1_api.c **** /* Maximum timing budget allowed codex #456189*/
 124:D:/Git/VL53L1/lib/core/src\vl53l1_api.c **** 
 125:D:/Git/VL53L1/lib/core/src\vl53l1_api.c **** 
 126:D:/Git/VL53L1/lib/core/src\vl53l1_api.c **** /* local static utilities functions */
 127:D:/Git/VL53L1/lib/core/src\vl53l1_api.c **** 
 128:D:/Git/VL53L1/lib/core/src\vl53l1_api.c **** /* Bare Driver Tuning parameter table indexed with VL53L1_Tuning_t */
 129:D:/Git/VL53L1/lib/core/src\vl53l1_api.c **** static int32_t BDTable[VL53L1_TUNING_MAX_TUNABLE_KEY] = {
 130:D:/Git/VL53L1/lib/core/src\vl53l1_api.c **** 		TUNING_VERSION,
 131:D:/Git/VL53L1/lib/core/src\vl53l1_api.c **** 		TUNING_PROXY_MIN,
 132:D:/Git/VL53L1/lib/core/src\vl53l1_api.c **** 		TUNING_SINGLE_TARGET_XTALK_TARGET_DISTANCE_MM,
 133:D:/Git/VL53L1/lib/core/src\vl53l1_api.c **** 		TUNING_SINGLE_TARGET_XTALK_SAMPLE_NUMBER,
 134:D:/Git/VL53L1/lib/core/src\vl53l1_api.c **** 		TUNING_MIN_AMBIENT_DMAX_VALID,
 135:D:/Git/VL53L1/lib/core/src\vl53l1_api.c **** 		TUNING_MAX_SIMPLE_OFFSET_CALIBRATION_SAMPLE_NUMBER,
 136:D:/Git/VL53L1/lib/core/src\vl53l1_api.c **** 		TUNING_XTALK_FULL_ROI_TARGET_DISTANCE_MM,
 137:D:/Git/VL53L1/lib/core/src\vl53l1_api.c **** 		TUNING_SIMPLE_OFFSET_CALIBRATION_REPEAT
 138:D:/Git/VL53L1/lib/core/src\vl53l1_api.c **** };
 139:D:/Git/VL53L1/lib/core/src\vl53l1_api.c **** 
 140:D:/Git/VL53L1/lib/core/src\vl53l1_api.c **** 
 141:D:/Git/VL53L1/lib/core/src\vl53l1_api.c **** #define VL53L1_NVM_POWER_UP_DELAY_US             50
 142:D:/Git/VL53L1/lib/core/src\vl53l1_api.c **** #define VL53L1_NVM_READ_TRIGGER_DELAY_US          5
 143:D:/Git/VL53L1/lib/core/src\vl53l1_api.c **** 
 144:D:/Git/VL53L1/lib/core/src\vl53l1_api.c **** static VL53L1_Error VL53L1_nvm_enable(
 145:D:/Git/VL53L1/lib/core/src\vl53l1_api.c **** 	VL53L1_DEV      Dev,
ARM GAS  C:\Users\Berbardo\AppData\Local\Temp\ccpaHgls.s 			page 4


 146:D:/Git/VL53L1/lib/core/src\vl53l1_api.c **** 	uint16_t        nvm_ctrl_pulse_width,
 147:D:/Git/VL53L1/lib/core/src\vl53l1_api.c **** 	int32_t         nvm_power_up_delay_us)
 148:D:/Git/VL53L1/lib/core/src\vl53l1_api.c **** {
 149:D:/Git/VL53L1/lib/core/src\vl53l1_api.c **** 	/*
 150:D:/Git/VL53L1/lib/core/src\vl53l1_api.c **** 	 * Sequence below enables NVM for reading
 151:D:/Git/VL53L1/lib/core/src\vl53l1_api.c **** 	 *
 152:D:/Git/VL53L1/lib/core/src\vl53l1_api.c **** 	 *  - Enable power force
 153:D:/Git/VL53L1/lib/core/src\vl53l1_api.c **** 	 *  - Disable firmware
 154:D:/Git/VL53L1/lib/core/src\vl53l1_api.c **** 	 *  - Power up NVM
 155:D:/Git/VL53L1/lib/core/src\vl53l1_api.c **** 	 *  - Wait for 50us while the NVM powers up
 156:D:/Git/VL53L1/lib/core/src\vl53l1_api.c **** 	 *  - Configure for reading and set the pulse width (16-bit)
 157:D:/Git/VL53L1/lib/core/src\vl53l1_api.c **** 	 */
 158:D:/Git/VL53L1/lib/core/src\vl53l1_api.c **** 
 159:D:/Git/VL53L1/lib/core/src\vl53l1_api.c **** 	VL53L1_Error status = VL53L1_ERROR_NONE;
 160:D:/Git/VL53L1/lib/core/src\vl53l1_api.c **** 
 161:D:/Git/VL53L1/lib/core/src\vl53l1_api.c **** 	LOG_FUNCTION_START("");
 162:D:/Git/VL53L1/lib/core/src\vl53l1_api.c **** 
 163:D:/Git/VL53L1/lib/core/src\vl53l1_api.c **** 
 164:D:/Git/VL53L1/lib/core/src\vl53l1_api.c **** 	/* Disable Firmware */
 165:D:/Git/VL53L1/lib/core/src\vl53l1_api.c **** 
 166:D:/Git/VL53L1/lib/core/src\vl53l1_api.c **** 	if (status == VL53L1_ERROR_NONE) /*lint !e774 always true*/
 167:D:/Git/VL53L1/lib/core/src\vl53l1_api.c **** 		status = VL53L1_disable_firmware(Dev);
 168:D:/Git/VL53L1/lib/core/src\vl53l1_api.c **** 
 169:D:/Git/VL53L1/lib/core/src\vl53l1_api.c **** 
 170:D:/Git/VL53L1/lib/core/src\vl53l1_api.c **** 	/* Enable Power Force  */
 171:D:/Git/VL53L1/lib/core/src\vl53l1_api.c **** 
 172:D:/Git/VL53L1/lib/core/src\vl53l1_api.c **** 	if (status == VL53L1_ERROR_NONE)
 173:D:/Git/VL53L1/lib/core/src\vl53l1_api.c **** 		status = VL53L1_enable_powerforce(Dev);
 174:D:/Git/VL53L1/lib/core/src\vl53l1_api.c **** 
 175:D:/Git/VL53L1/lib/core/src\vl53l1_api.c **** 	/* Wait the required time for the regulators, bandgap,
 176:D:/Git/VL53L1/lib/core/src\vl53l1_api.c **** 	 * oscillator to wake up and settle
 177:D:/Git/VL53L1/lib/core/src\vl53l1_api.c **** 	 */
 178:D:/Git/VL53L1/lib/core/src\vl53l1_api.c **** 
 179:D:/Git/VL53L1/lib/core/src\vl53l1_api.c **** 	if (status == VL53L1_ERROR_NONE)
 180:D:/Git/VL53L1/lib/core/src\vl53l1_api.c **** 		status = VL53L1_WaitUs(
 181:D:/Git/VL53L1/lib/core/src\vl53l1_api.c **** 					Dev,
 182:D:/Git/VL53L1/lib/core/src\vl53l1_api.c **** 					VL53L1_ENABLE_POWERFORCE_SETTLING_TIME_US);
 183:D:/Git/VL53L1/lib/core/src\vl53l1_api.c **** 
 184:D:/Git/VL53L1/lib/core/src\vl53l1_api.c **** 	/*  Power up NVM */
 185:D:/Git/VL53L1/lib/core/src\vl53l1_api.c **** 
 186:D:/Git/VL53L1/lib/core/src\vl53l1_api.c **** 	if (status == VL53L1_ERROR_NONE)
 187:D:/Git/VL53L1/lib/core/src\vl53l1_api.c **** 		status = VL53L1_WrByte(
 188:D:/Git/VL53L1/lib/core/src\vl53l1_api.c **** 					Dev,
 189:D:/Git/VL53L1/lib/core/src\vl53l1_api.c **** 					VL53L1_RANGING_CORE__NVM_CTRL__PDN,
 190:D:/Git/VL53L1/lib/core/src\vl53l1_api.c **** 					0x01);
 191:D:/Git/VL53L1/lib/core/src\vl53l1_api.c **** 
 192:D:/Git/VL53L1/lib/core/src\vl53l1_api.c **** 	/* Enable NVM Clock */
 193:D:/Git/VL53L1/lib/core/src\vl53l1_api.c **** 
 194:D:/Git/VL53L1/lib/core/src\vl53l1_api.c **** 	if (status == VL53L1_ERROR_NONE)
 195:D:/Git/VL53L1/lib/core/src\vl53l1_api.c **** 		status = VL53L1_WrByte(
 196:D:/Git/VL53L1/lib/core/src\vl53l1_api.c **** 					Dev,
 197:D:/Git/VL53L1/lib/core/src\vl53l1_api.c **** 					VL53L1_RANGING_CORE__CLK_CTRL1,
 198:D:/Git/VL53L1/lib/core/src\vl53l1_api.c **** 					0x05);
 199:D:/Git/VL53L1/lib/core/src\vl53l1_api.c **** 
 200:D:/Git/VL53L1/lib/core/src\vl53l1_api.c **** 	/* Wait the required time for NVM to power up*/
 201:D:/Git/VL53L1/lib/core/src\vl53l1_api.c **** 
 202:D:/Git/VL53L1/lib/core/src\vl53l1_api.c **** 	if (status == VL53L1_ERROR_NONE)
ARM GAS  C:\Users\Berbardo\AppData\Local\Temp\ccpaHgls.s 			page 5


 203:D:/Git/VL53L1/lib/core/src\vl53l1_api.c **** 		status = VL53L1_WaitUs(
 204:D:/Git/VL53L1/lib/core/src\vl53l1_api.c **** 					Dev,
 205:D:/Git/VL53L1/lib/core/src\vl53l1_api.c **** 					nvm_power_up_delay_us);
 206:D:/Git/VL53L1/lib/core/src\vl53l1_api.c **** 
 207:D:/Git/VL53L1/lib/core/src\vl53l1_api.c **** 	/* Select read mode and set control pulse width */
 208:D:/Git/VL53L1/lib/core/src\vl53l1_api.c **** 
 209:D:/Git/VL53L1/lib/core/src\vl53l1_api.c **** 	if (status == VL53L1_ERROR_NONE)
 210:D:/Git/VL53L1/lib/core/src\vl53l1_api.c **** 		status = VL53L1_WrByte(
 211:D:/Git/VL53L1/lib/core/src\vl53l1_api.c **** 					Dev,
 212:D:/Git/VL53L1/lib/core/src\vl53l1_api.c **** 					VL53L1_RANGING_CORE__NVM_CTRL__MODE,
 213:D:/Git/VL53L1/lib/core/src\vl53l1_api.c **** 					0x01);
 214:D:/Git/VL53L1/lib/core/src\vl53l1_api.c **** 
 215:D:/Git/VL53L1/lib/core/src\vl53l1_api.c **** 	if (status == VL53L1_ERROR_NONE)
 216:D:/Git/VL53L1/lib/core/src\vl53l1_api.c **** 		status = VL53L1_WrWord(
 217:D:/Git/VL53L1/lib/core/src\vl53l1_api.c **** 					Dev,
 218:D:/Git/VL53L1/lib/core/src\vl53l1_api.c **** 					VL53L1_RANGING_CORE__NVM_CTRL__PULSE_WIDTH_MSB,
 219:D:/Git/VL53L1/lib/core/src\vl53l1_api.c **** 					nvm_ctrl_pulse_width);
 220:D:/Git/VL53L1/lib/core/src\vl53l1_api.c **** 
 221:D:/Git/VL53L1/lib/core/src\vl53l1_api.c **** 	LOG_FUNCTION_END(status);
 222:D:/Git/VL53L1/lib/core/src\vl53l1_api.c **** 
 223:D:/Git/VL53L1/lib/core/src\vl53l1_api.c **** 	return status;
 224:D:/Git/VL53L1/lib/core/src\vl53l1_api.c **** 
 225:D:/Git/VL53L1/lib/core/src\vl53l1_api.c **** }
 226:D:/Git/VL53L1/lib/core/src\vl53l1_api.c **** 
 227:D:/Git/VL53L1/lib/core/src\vl53l1_api.c **** 
 228:D:/Git/VL53L1/lib/core/src\vl53l1_api.c **** static VL53L1_Error VL53L1_nvm_read(
 229:D:/Git/VL53L1/lib/core/src\vl53l1_api.c **** 	VL53L1_DEV    Dev,
 230:D:/Git/VL53L1/lib/core/src\vl53l1_api.c **** 	uint8_t       start_address,
 231:D:/Git/VL53L1/lib/core/src\vl53l1_api.c **** 	uint8_t       count,
 232:D:/Git/VL53L1/lib/core/src\vl53l1_api.c **** 	uint8_t      *pdata)
 233:D:/Git/VL53L1/lib/core/src\vl53l1_api.c **** {
 234:D:/Git/VL53L1/lib/core/src\vl53l1_api.c **** 	/*
 235:D:/Git/VL53L1/lib/core/src\vl53l1_api.c **** 	 * Sequence per 32-bit NVM read access:
 236:D:/Git/VL53L1/lib/core/src\vl53l1_api.c **** 	 *
 237:D:/Git/VL53L1/lib/core/src\vl53l1_api.c **** 	 * - Set up the 5-bit (0-127) NVM Address
 238:D:/Git/VL53L1/lib/core/src\vl53l1_api.c **** 	 * - Trigger the read of the NVM data by toggling NVM_CTRL__READN
 239:D:/Git/VL53L1/lib/core/src\vl53l1_api.c **** 	 * - Read the NVM data - 4 bytes wide read/write interface
 240:D:/Git/VL53L1/lib/core/src\vl53l1_api.c **** 	 * - Increment data byte pointer by 4 ready for the next loop
 241:D:/Git/VL53L1/lib/core/src\vl53l1_api.c **** 	 */
 242:D:/Git/VL53L1/lib/core/src\vl53l1_api.c **** 
 243:D:/Git/VL53L1/lib/core/src\vl53l1_api.c **** 	VL53L1_Error status   = VL53L1_ERROR_NONE;
 244:D:/Git/VL53L1/lib/core/src\vl53l1_api.c **** 	uint8_t      nvm_addr = 0;
 245:D:/Git/VL53L1/lib/core/src\vl53l1_api.c **** 
 246:D:/Git/VL53L1/lib/core/src\vl53l1_api.c **** 	LOG_FUNCTION_START("");
 247:D:/Git/VL53L1/lib/core/src\vl53l1_api.c **** 
 248:D:/Git/VL53L1/lib/core/src\vl53l1_api.c **** 	for (nvm_addr = start_address; nvm_addr < (start_address+count) ; nvm_addr++) {
 249:D:/Git/VL53L1/lib/core/src\vl53l1_api.c **** 
 250:D:/Git/VL53L1/lib/core/src\vl53l1_api.c **** 		/* Step 1 : set address */
 251:D:/Git/VL53L1/lib/core/src\vl53l1_api.c **** 
 252:D:/Git/VL53L1/lib/core/src\vl53l1_api.c **** 		if (status == VL53L1_ERROR_NONE)
 253:D:/Git/VL53L1/lib/core/src\vl53l1_api.c **** 			status = VL53L1_WrByte(
 254:D:/Git/VL53L1/lib/core/src\vl53l1_api.c **** 						Dev,
 255:D:/Git/VL53L1/lib/core/src\vl53l1_api.c **** 						VL53L1_RANGING_CORE__NVM_CTRL__ADDR,
 256:D:/Git/VL53L1/lib/core/src\vl53l1_api.c **** 						nvm_addr);
 257:D:/Git/VL53L1/lib/core/src\vl53l1_api.c **** 
 258:D:/Git/VL53L1/lib/core/src\vl53l1_api.c **** 		/* Step 2 : trigger reading of data */
 259:D:/Git/VL53L1/lib/core/src\vl53l1_api.c **** 
ARM GAS  C:\Users\Berbardo\AppData\Local\Temp\ccpaHgls.s 			page 6


 260:D:/Git/VL53L1/lib/core/src\vl53l1_api.c **** 		if (status == VL53L1_ERROR_NONE)
 261:D:/Git/VL53L1/lib/core/src\vl53l1_api.c **** 			status = VL53L1_WrByte(
 262:D:/Git/VL53L1/lib/core/src\vl53l1_api.c **** 						Dev,
 263:D:/Git/VL53L1/lib/core/src\vl53l1_api.c **** 						VL53L1_RANGING_CORE__NVM_CTRL__READN,
 264:D:/Git/VL53L1/lib/core/src\vl53l1_api.c **** 						0x00);
 265:D:/Git/VL53L1/lib/core/src\vl53l1_api.c **** 
 266:D:/Git/VL53L1/lib/core/src\vl53l1_api.c **** 		/* Step 3 : wait the required time */
 267:D:/Git/VL53L1/lib/core/src\vl53l1_api.c **** 
 268:D:/Git/VL53L1/lib/core/src\vl53l1_api.c **** 		if (status == VL53L1_ERROR_NONE)
 269:D:/Git/VL53L1/lib/core/src\vl53l1_api.c **** 			status = VL53L1_WaitUs(
 270:D:/Git/VL53L1/lib/core/src\vl53l1_api.c **** 						Dev,
 271:D:/Git/VL53L1/lib/core/src\vl53l1_api.c **** 						VL53L1_NVM_READ_TRIGGER_DELAY_US);
 272:D:/Git/VL53L1/lib/core/src\vl53l1_api.c **** 
 273:D:/Git/VL53L1/lib/core/src\vl53l1_api.c **** 		if (status == VL53L1_ERROR_NONE)
 274:D:/Git/VL53L1/lib/core/src\vl53l1_api.c **** 			status = VL53L1_WrByte(
 275:D:/Git/VL53L1/lib/core/src\vl53l1_api.c **** 						Dev,
 276:D:/Git/VL53L1/lib/core/src\vl53l1_api.c **** 						VL53L1_RANGING_CORE__NVM_CTRL__READN,
 277:D:/Git/VL53L1/lib/core/src\vl53l1_api.c **** 						0x01);
 278:D:/Git/VL53L1/lib/core/src\vl53l1_api.c **** 
 279:D:/Git/VL53L1/lib/core/src\vl53l1_api.c **** 		/* Step 3 : read 4-byte wide data register */
 280:D:/Git/VL53L1/lib/core/src\vl53l1_api.c **** 		if (status == VL53L1_ERROR_NONE)
 281:D:/Git/VL53L1/lib/core/src\vl53l1_api.c **** 			status = VL53L1_ReadMulti(
 282:D:/Git/VL53L1/lib/core/src\vl53l1_api.c **** 						Dev,
 283:D:/Git/VL53L1/lib/core/src\vl53l1_api.c **** 						VL53L1_RANGING_CORE__NVM_CTRL__DATAOUT_MMM,
 284:D:/Git/VL53L1/lib/core/src\vl53l1_api.c **** 						pdata,
 285:D:/Git/VL53L1/lib/core/src\vl53l1_api.c **** 						4);
 286:D:/Git/VL53L1/lib/core/src\vl53l1_api.c **** 
 287:D:/Git/VL53L1/lib/core/src\vl53l1_api.c **** 		/* Step 4 : increment byte buffer pointer */
 288:D:/Git/VL53L1/lib/core/src\vl53l1_api.c **** 
 289:D:/Git/VL53L1/lib/core/src\vl53l1_api.c **** 		pdata = pdata + 4;
 290:D:/Git/VL53L1/lib/core/src\vl53l1_api.c **** 
 291:D:/Git/VL53L1/lib/core/src\vl53l1_api.c **** 
 292:D:/Git/VL53L1/lib/core/src\vl53l1_api.c **** 	}
 293:D:/Git/VL53L1/lib/core/src\vl53l1_api.c **** 
 294:D:/Git/VL53L1/lib/core/src\vl53l1_api.c **** 	LOG_FUNCTION_END(status);
 295:D:/Git/VL53L1/lib/core/src\vl53l1_api.c **** 
 296:D:/Git/VL53L1/lib/core/src\vl53l1_api.c **** 	return status;
 297:D:/Git/VL53L1/lib/core/src\vl53l1_api.c **** }
 298:D:/Git/VL53L1/lib/core/src\vl53l1_api.c **** 
 299:D:/Git/VL53L1/lib/core/src\vl53l1_api.c **** static VL53L1_Error VL53L1_nvm_disable(
 300:D:/Git/VL53L1/lib/core/src\vl53l1_api.c **** 	VL53L1_DEV    Dev)
 301:D:/Git/VL53L1/lib/core/src\vl53l1_api.c **** {
 302:D:/Git/VL53L1/lib/core/src\vl53l1_api.c **** 	/*
 303:D:/Git/VL53L1/lib/core/src\vl53l1_api.c **** 	 * Power down NVM (OTP) to extend lifetime
 304:D:/Git/VL53L1/lib/core/src\vl53l1_api.c **** 	 */
 305:D:/Git/VL53L1/lib/core/src\vl53l1_api.c **** 
 306:D:/Git/VL53L1/lib/core/src\vl53l1_api.c **** 	VL53L1_Error status = VL53L1_ERROR_NONE;
 307:D:/Git/VL53L1/lib/core/src\vl53l1_api.c **** 
 308:D:/Git/VL53L1/lib/core/src\vl53l1_api.c **** 	LOG_FUNCTION_START("");
 309:D:/Git/VL53L1/lib/core/src\vl53l1_api.c **** 
 310:D:/Git/VL53L1/lib/core/src\vl53l1_api.c **** 	if (status == VL53L1_ERROR_NONE) /*lint !e774 always true*/
 311:D:/Git/VL53L1/lib/core/src\vl53l1_api.c **** 		status = VL53L1_WrByte(
 312:D:/Git/VL53L1/lib/core/src\vl53l1_api.c **** 					Dev,
 313:D:/Git/VL53L1/lib/core/src\vl53l1_api.c **** 					VL53L1_RANGING_CORE__NVM_CTRL__READN,
 314:D:/Git/VL53L1/lib/core/src\vl53l1_api.c **** 					0x01);
 315:D:/Git/VL53L1/lib/core/src\vl53l1_api.c **** 
 316:D:/Git/VL53L1/lib/core/src\vl53l1_api.c **** 	/* Power down NVM */
ARM GAS  C:\Users\Berbardo\AppData\Local\Temp\ccpaHgls.s 			page 7


 317:D:/Git/VL53L1/lib/core/src\vl53l1_api.c **** 
 318:D:/Git/VL53L1/lib/core/src\vl53l1_api.c **** 	if (status == VL53L1_ERROR_NONE)
 319:D:/Git/VL53L1/lib/core/src\vl53l1_api.c **** 		status = VL53L1_WrByte(
 320:D:/Git/VL53L1/lib/core/src\vl53l1_api.c **** 					Dev,
 321:D:/Git/VL53L1/lib/core/src\vl53l1_api.c **** 					VL53L1_RANGING_CORE__NVM_CTRL__PDN,
 322:D:/Git/VL53L1/lib/core/src\vl53l1_api.c **** 					0x00);
 323:D:/Git/VL53L1/lib/core/src\vl53l1_api.c **** 
 324:D:/Git/VL53L1/lib/core/src\vl53l1_api.c **** 	/* Keep power force enabled */
 325:D:/Git/VL53L1/lib/core/src\vl53l1_api.c **** 
 326:D:/Git/VL53L1/lib/core/src\vl53l1_api.c **** 	if (status == VL53L1_ERROR_NONE)
 327:D:/Git/VL53L1/lib/core/src\vl53l1_api.c **** 		status = VL53L1_disable_powerforce(Dev);
 328:D:/Git/VL53L1/lib/core/src\vl53l1_api.c **** 
 329:D:/Git/VL53L1/lib/core/src\vl53l1_api.c **** 	/* (Re)Enable Firmware */
 330:D:/Git/VL53L1/lib/core/src\vl53l1_api.c **** 
 331:D:/Git/VL53L1/lib/core/src\vl53l1_api.c **** 	if (status == VL53L1_ERROR_NONE)
 332:D:/Git/VL53L1/lib/core/src\vl53l1_api.c **** 		status = VL53L1_enable_firmware(Dev);
 333:D:/Git/VL53L1/lib/core/src\vl53l1_api.c **** 
 334:D:/Git/VL53L1/lib/core/src\vl53l1_api.c **** 	LOG_FUNCTION_END(status);
 335:D:/Git/VL53L1/lib/core/src\vl53l1_api.c **** 
 336:D:/Git/VL53L1/lib/core/src\vl53l1_api.c **** 	return status;
 337:D:/Git/VL53L1/lib/core/src\vl53l1_api.c **** 
 338:D:/Git/VL53L1/lib/core/src\vl53l1_api.c **** }
 339:D:/Git/VL53L1/lib/core/src\vl53l1_api.c **** 
 340:D:/Git/VL53L1/lib/core/src\vl53l1_api.c **** static VL53L1_Error VL53L1_read_nvm_raw_data(
 341:D:/Git/VL53L1/lib/core/src\vl53l1_api.c **** 	VL53L1_DEV     Dev,
 342:D:/Git/VL53L1/lib/core/src\vl53l1_api.c **** 	uint8_t        start_address,
 343:D:/Git/VL53L1/lib/core/src\vl53l1_api.c **** 	uint8_t        count,
 344:D:/Git/VL53L1/lib/core/src\vl53l1_api.c **** 	uint8_t       *pnvm_raw_data)
 345:D:/Git/VL53L1/lib/core/src\vl53l1_api.c **** {
 346:D:/Git/VL53L1/lib/core/src\vl53l1_api.c **** 
 347:D:/Git/VL53L1/lib/core/src\vl53l1_api.c **** 	/*
 348:D:/Git/VL53L1/lib/core/src\vl53l1_api.c **** 	 * Reads ALL 512 bytes of NVM data
 349:D:/Git/VL53L1/lib/core/src\vl53l1_api.c **** 	 */
 350:D:/Git/VL53L1/lib/core/src\vl53l1_api.c **** 
 351:D:/Git/VL53L1/lib/core/src\vl53l1_api.c **** 	VL53L1_Error status = VL53L1_ERROR_NONE;
 352:D:/Git/VL53L1/lib/core/src\vl53l1_api.c **** 
 353:D:/Git/VL53L1/lib/core/src\vl53l1_api.c **** 	LOG_FUNCTION_START("");
 354:D:/Git/VL53L1/lib/core/src\vl53l1_api.c **** 
 355:D:/Git/VL53L1/lib/core/src\vl53l1_api.c **** 	/*
 356:D:/Git/VL53L1/lib/core/src\vl53l1_api.c **** 	 *   Enable NVM and set control pulse width
 357:D:/Git/VL53L1/lib/core/src\vl53l1_api.c **** 	 */
 358:D:/Git/VL53L1/lib/core/src\vl53l1_api.c **** 
 359:D:/Git/VL53L1/lib/core/src\vl53l1_api.c **** 	if (status == VL53L1_ERROR_NONE) /*lint !e774 always true*/
 360:D:/Git/VL53L1/lib/core/src\vl53l1_api.c **** 		status = VL53L1_nvm_enable(
 361:D:/Git/VL53L1/lib/core/src\vl53l1_api.c **** 					Dev,
 362:D:/Git/VL53L1/lib/core/src\vl53l1_api.c **** 					0x0004,
 363:D:/Git/VL53L1/lib/core/src\vl53l1_api.c **** 					VL53L1_NVM_POWER_UP_DELAY_US);
 364:D:/Git/VL53L1/lib/core/src\vl53l1_api.c **** 
 365:D:/Git/VL53L1/lib/core/src\vl53l1_api.c **** 	/*
 366:D:/Git/VL53L1/lib/core/src\vl53l1_api.c **** 	 *  Read the raw NVM data
 367:D:/Git/VL53L1/lib/core/src\vl53l1_api.c **** 	 *        - currently all of 128 * 4 bytes = 512 bytes are read
 368:D:/Git/VL53L1/lib/core/src\vl53l1_api.c **** 	 */
 369:D:/Git/VL53L1/lib/core/src\vl53l1_api.c **** 
 370:D:/Git/VL53L1/lib/core/src\vl53l1_api.c **** 	if (status == VL53L1_ERROR_NONE)
 371:D:/Git/VL53L1/lib/core/src\vl53l1_api.c **** 		status = VL53L1_nvm_read(
 372:D:/Git/VL53L1/lib/core/src\vl53l1_api.c **** 			Dev,
 373:D:/Git/VL53L1/lib/core/src\vl53l1_api.c **** 			start_address,
ARM GAS  C:\Users\Berbardo\AppData\Local\Temp\ccpaHgls.s 			page 8


 374:D:/Git/VL53L1/lib/core/src\vl53l1_api.c **** 			count,
 375:D:/Git/VL53L1/lib/core/src\vl53l1_api.c **** 			pnvm_raw_data);
 376:D:/Git/VL53L1/lib/core/src\vl53l1_api.c **** 
 377:D:/Git/VL53L1/lib/core/src\vl53l1_api.c **** 	/*
 378:D:/Git/VL53L1/lib/core/src\vl53l1_api.c **** 	 *   Disable NVM
 379:D:/Git/VL53L1/lib/core/src\vl53l1_api.c **** 	 */
 380:D:/Git/VL53L1/lib/core/src\vl53l1_api.c **** 
 381:D:/Git/VL53L1/lib/core/src\vl53l1_api.c **** 	if (status == VL53L1_ERROR_NONE)
 382:D:/Git/VL53L1/lib/core/src\vl53l1_api.c **** 		status = VL53L1_nvm_disable(Dev);
 383:D:/Git/VL53L1/lib/core/src\vl53l1_api.c **** 
 384:D:/Git/VL53L1/lib/core/src\vl53l1_api.c **** 	LOG_FUNCTION_END(status);
 385:D:/Git/VL53L1/lib/core/src\vl53l1_api.c **** 
 386:D:/Git/VL53L1/lib/core/src\vl53l1_api.c **** 	return status;
 387:D:/Git/VL53L1/lib/core/src\vl53l1_api.c **** 
 388:D:/Git/VL53L1/lib/core/src\vl53l1_api.c **** }
 389:D:/Git/VL53L1/lib/core/src\vl53l1_api.c **** 
 390:D:/Git/VL53L1/lib/core/src\vl53l1_api.c **** static VL53L1_Error SingleTargetXTalkCalibration(VL53L1_DEV Dev)
 391:D:/Git/VL53L1/lib/core/src\vl53l1_api.c **** {
 392:D:/Git/VL53L1/lib/core/src\vl53l1_api.c **** 	VL53L1_Error Status = VL53L1_ERROR_NONE;
 393:D:/Git/VL53L1/lib/core/src\vl53l1_api.c **** 
 394:D:/Git/VL53L1/lib/core/src\vl53l1_api.c **** 	uint32_t sum_ranging = 0;
 395:D:/Git/VL53L1/lib/core/src\vl53l1_api.c **** 	uint32_t sum_spads = 0;
 396:D:/Git/VL53L1/lib/core/src\vl53l1_api.c **** 	FixPoint1616_t sum_signalRate = 0;
 397:D:/Git/VL53L1/lib/core/src\vl53l1_api.c **** 	FixPoint1616_t total_count = 0;
 398:D:/Git/VL53L1/lib/core/src\vl53l1_api.c **** 	uint8_t xtalk_meas = 0;
 399:D:/Git/VL53L1/lib/core/src\vl53l1_api.c **** 	uint8_t xtalk_measmax =
 400:D:/Git/VL53L1/lib/core/src\vl53l1_api.c **** 		BDTable[VL53L1_TUNING_SINGLE_TARGET_XTALK_SAMPLE_NUMBER];
 401:D:/Git/VL53L1/lib/core/src\vl53l1_api.c **** 	VL53L1_RangingMeasurementData_t RMData;
 402:D:/Git/VL53L1/lib/core/src\vl53l1_api.c **** 	FixPoint1616_t xTalkStoredMeanSignalRate;
 403:D:/Git/VL53L1/lib/core/src\vl53l1_api.c **** 	FixPoint1616_t xTalkStoredMeanRange;
 404:D:/Git/VL53L1/lib/core/src\vl53l1_api.c **** 	FixPoint1616_t xTalkStoredMeanRtnSpads;
 405:D:/Git/VL53L1/lib/core/src\vl53l1_api.c **** 	uint32_t xTalkStoredMeanRtnSpadsAsInt;
 406:D:/Git/VL53L1/lib/core/src\vl53l1_api.c **** 	uint32_t xTalkCalDistanceAsInt;
 407:D:/Git/VL53L1/lib/core/src\vl53l1_api.c **** 	FixPoint1616_t XTalkCompensationRateMegaCps;
 408:D:/Git/VL53L1/lib/core/src\vl53l1_api.c **** 	uint32_t signalXTalkTotalPerSpad;
 409:D:/Git/VL53L1/lib/core/src\vl53l1_api.c **** 	VL53L1_PresetModes PresetMode;
 410:D:/Git/VL53L1/lib/core/src\vl53l1_api.c **** 	VL53L1_CalibrationData_t  CalibrationData;
 411:D:/Git/VL53L1/lib/core/src\vl53l1_api.c **** 	VL53L1_CustomerNvmManaged_t *pC;
 412:D:/Git/VL53L1/lib/core/src\vl53l1_api.c **** 
 413:D:/Git/VL53L1/lib/core/src\vl53l1_api.c **** 
 414:D:/Git/VL53L1/lib/core/src\vl53l1_api.c **** 	LOG_FUNCTION_START("");
 415:D:/Git/VL53L1/lib/core/src\vl53l1_api.c **** 
 416:D:/Git/VL53L1/lib/core/src\vl53l1_api.c **** 	/* check if the following are selected
 417:D:/Git/VL53L1/lib/core/src\vl53l1_api.c **** 	 * VL53L1_PRESETMODE_AUTONOMOUS,
 418:D:/Git/VL53L1/lib/core/src\vl53l1_api.c **** 	 * VL53L1_PRESETMODE_LOWPOWER_AUTONOMOUS
 419:D:/Git/VL53L1/lib/core/src\vl53l1_api.c **** 	 * VL53L1_PRESETMODE_LITE_RANGING
 420:D:/Git/VL53L1/lib/core/src\vl53l1_api.c **** 	 */
 421:D:/Git/VL53L1/lib/core/src\vl53l1_api.c **** 	PresetMode = VL53L1DevDataGet(Dev, CurrentParameters.PresetMode);
 422:D:/Git/VL53L1/lib/core/src\vl53l1_api.c **** 
 423:D:/Git/VL53L1/lib/core/src\vl53l1_api.c **** 	if ((PresetMode != VL53L1_PRESETMODE_AUTONOMOUS) &&
 424:D:/Git/VL53L1/lib/core/src\vl53l1_api.c **** 		(PresetMode != VL53L1_PRESETMODE_LOWPOWER_AUTONOMOUS) &&
 425:D:/Git/VL53L1/lib/core/src\vl53l1_api.c **** 		(PresetMode != VL53L1_PRESETMODE_LITE_RANGING)) {
 426:D:/Git/VL53L1/lib/core/src\vl53l1_api.c **** 		Status = VL53L1_ERROR_MODE_NOT_SUPPORTED;
 427:D:/Git/VL53L1/lib/core/src\vl53l1_api.c **** 		goto ENDFUNC;
 428:D:/Git/VL53L1/lib/core/src\vl53l1_api.c **** 	}
 429:D:/Git/VL53L1/lib/core/src\vl53l1_api.c **** 
 430:D:/Git/VL53L1/lib/core/src\vl53l1_api.c **** 	/* disable crosstalk calibration */
ARM GAS  C:\Users\Berbardo\AppData\Local\Temp\ccpaHgls.s 			page 9


 431:D:/Git/VL53L1/lib/core/src\vl53l1_api.c **** 	Status = VL53L1_disable_xtalk_compensation(Dev);
 432:D:/Git/VL53L1/lib/core/src\vl53l1_api.c **** 	CHECK_ERROR_GO_ENDFUNC;
 433:D:/Git/VL53L1/lib/core/src\vl53l1_api.c **** 
 434:D:/Git/VL53L1/lib/core/src\vl53l1_api.c **** 	Status = VL53L1_StartMeasurement(Dev);
 435:D:/Git/VL53L1/lib/core/src\vl53l1_api.c **** 	CHECK_ERROR_GO_ENDFUNC;
 436:D:/Git/VL53L1/lib/core/src\vl53l1_api.c **** 
 437:D:/Git/VL53L1/lib/core/src\vl53l1_api.c **** 	sum_ranging = 0;
 438:D:/Git/VL53L1/lib/core/src\vl53l1_api.c **** 	sum_spads = 0;
 439:D:/Git/VL53L1/lib/core/src\vl53l1_api.c **** 	sum_signalRate = 0;
 440:D:/Git/VL53L1/lib/core/src\vl53l1_api.c **** 	total_count = 0;
 441:D:/Git/VL53L1/lib/core/src\vl53l1_api.c **** 	for (xtalk_meas = 0; xtalk_meas < xtalk_measmax; xtalk_meas++) {
 442:D:/Git/VL53L1/lib/core/src\vl53l1_api.c **** 		VL53L1_WaitMeasurementDataReady(Dev);
 443:D:/Git/VL53L1/lib/core/src\vl53l1_api.c **** 		VL53L1_GetRangingMeasurementData(Dev, &RMData);
 444:D:/Git/VL53L1/lib/core/src\vl53l1_api.c **** 		VL53L1_ClearInterruptAndStartMeasurement(Dev);
 445:D:/Git/VL53L1/lib/core/src\vl53l1_api.c **** 		if (RMData.RangeStatus == VL53L1_RANGESTATUS_RANGE_VALID) {
 446:D:/Git/VL53L1/lib/core/src\vl53l1_api.c **** 			sum_ranging += RMData.RangeMilliMeter;
 447:D:/Git/VL53L1/lib/core/src\vl53l1_api.c **** 			sum_signalRate += RMData.SignalRateRtnMegaCps;
 448:D:/Git/VL53L1/lib/core/src\vl53l1_api.c **** 			sum_spads += RMData.EffectiveSpadRtnCount / 256;
 449:D:/Git/VL53L1/lib/core/src\vl53l1_api.c **** 			total_count++;
 450:D:/Git/VL53L1/lib/core/src\vl53l1_api.c **** 		}
 451:D:/Git/VL53L1/lib/core/src\vl53l1_api.c **** 	}
 452:D:/Git/VL53L1/lib/core/src\vl53l1_api.c **** 	Status = VL53L1_StopMeasurement(Dev);
 453:D:/Git/VL53L1/lib/core/src\vl53l1_api.c **** 
 454:D:/Git/VL53L1/lib/core/src\vl53l1_api.c **** 	if (total_count > 0) {
 455:D:/Git/VL53L1/lib/core/src\vl53l1_api.c **** 		/* FixPoint1616_t / uint16_t = FixPoint1616_t */
 456:D:/Git/VL53L1/lib/core/src\vl53l1_api.c **** 		xTalkStoredMeanSignalRate = sum_signalRate / total_count;
 457:D:/Git/VL53L1/lib/core/src\vl53l1_api.c **** 		xTalkStoredMeanRange = (FixPoint1616_t)(sum_ranging << 16);
 458:D:/Git/VL53L1/lib/core/src\vl53l1_api.c **** 		xTalkStoredMeanRange /= total_count;
 459:D:/Git/VL53L1/lib/core/src\vl53l1_api.c **** 		xTalkStoredMeanRtnSpads = (FixPoint1616_t)(sum_spads << 16);
 460:D:/Git/VL53L1/lib/core/src\vl53l1_api.c **** 		xTalkStoredMeanRtnSpads /= total_count;
 461:D:/Git/VL53L1/lib/core/src\vl53l1_api.c **** 
 462:D:/Git/VL53L1/lib/core/src\vl53l1_api.c **** 		/* Round Mean Spads to Whole Number.
 463:D:/Git/VL53L1/lib/core/src\vl53l1_api.c **** 		 * Typically the calculated mean SPAD count is a whole number
 464:D:/Git/VL53L1/lib/core/src\vl53l1_api.c **** 		 * or very close to a whole
 465:D:/Git/VL53L1/lib/core/src\vl53l1_api.c **** 		 * number, therefore any truncation will not result in a
 466:D:/Git/VL53L1/lib/core/src\vl53l1_api.c **** 		 * significant loss in accuracy.
 467:D:/Git/VL53L1/lib/core/src\vl53l1_api.c **** 		 * Also, for a grey target at a typical distance of around
 468:D:/Git/VL53L1/lib/core/src\vl53l1_api.c **** 		 * 400mm, around 220 SPADs will
 469:D:/Git/VL53L1/lib/core/src\vl53l1_api.c **** 		 * be enabled, therefore, any truncation will result in a loss
 470:D:/Git/VL53L1/lib/core/src\vl53l1_api.c **** 		 * of accuracy of less than
 471:D:/Git/VL53L1/lib/core/src\vl53l1_api.c **** 		 * 0.5%.
 472:D:/Git/VL53L1/lib/core/src\vl53l1_api.c **** 		 */
 473:D:/Git/VL53L1/lib/core/src\vl53l1_api.c **** 		xTalkStoredMeanRtnSpadsAsInt = (xTalkStoredMeanRtnSpads +
 474:D:/Git/VL53L1/lib/core/src\vl53l1_api.c **** 			0x8000) >> 16;
 475:D:/Git/VL53L1/lib/core/src\vl53l1_api.c **** 
 476:D:/Git/VL53L1/lib/core/src\vl53l1_api.c **** 		/* Round Cal Distance to Whole Number.
 477:D:/Git/VL53L1/lib/core/src\vl53l1_api.c **** 		 * Note that the cal distance is in mm, therefore no resolution
 478:D:/Git/VL53L1/lib/core/src\vl53l1_api.c **** 		 * is lost.
 479:D:/Git/VL53L1/lib/core/src\vl53l1_api.c **** 		 */
 480:D:/Git/VL53L1/lib/core/src\vl53l1_api.c **** 		 xTalkCalDistanceAsInt = ((uint32_t)BDTable[
 481:D:/Git/VL53L1/lib/core/src\vl53l1_api.c **** 			VL53L1_TUNING_SINGLE_TARGET_XTALK_TARGET_DISTANCE_MM]);
 482:D:/Git/VL53L1/lib/core/src\vl53l1_api.c **** 		if (xTalkStoredMeanRtnSpadsAsInt == 0 ||
 483:D:/Git/VL53L1/lib/core/src\vl53l1_api.c **** 		xTalkCalDistanceAsInt == 0 ||
 484:D:/Git/VL53L1/lib/core/src\vl53l1_api.c **** 		xTalkStoredMeanRange >= (xTalkCalDistanceAsInt << 16)) {
 485:D:/Git/VL53L1/lib/core/src\vl53l1_api.c **** 			XTalkCompensationRateMegaCps = 0;
 486:D:/Git/VL53L1/lib/core/src\vl53l1_api.c **** 		} else {
 487:D:/Git/VL53L1/lib/core/src\vl53l1_api.c **** 			/* Apply division by mean spad count early in the
ARM GAS  C:\Users\Berbardo\AppData\Local\Temp\ccpaHgls.s 			page 10


 488:D:/Git/VL53L1/lib/core/src\vl53l1_api.c **** 			 * calculation to keep the numbers small.
 489:D:/Git/VL53L1/lib/core/src\vl53l1_api.c **** 			 * This ensures we can maintain a 32bit calculation.
 490:D:/Git/VL53L1/lib/core/src\vl53l1_api.c **** 			 * Fixed1616 / int := Fixed1616
 491:D:/Git/VL53L1/lib/core/src\vl53l1_api.c **** 			 */
 492:D:/Git/VL53L1/lib/core/src\vl53l1_api.c **** 			signalXTalkTotalPerSpad = (xTalkStoredMeanSignalRate) /
 493:D:/Git/VL53L1/lib/core/src\vl53l1_api.c **** 				xTalkStoredMeanRtnSpadsAsInt;
 494:D:/Git/VL53L1/lib/core/src\vl53l1_api.c **** 
 495:D:/Git/VL53L1/lib/core/src\vl53l1_api.c **** 			/* Complete the calculation for total Signal XTalk per
 496:D:/Git/VL53L1/lib/core/src\vl53l1_api.c **** 			 * SPAD
 497:D:/Git/VL53L1/lib/core/src\vl53l1_api.c **** 			 * Fixed1616 * (Fixed1616 - Fixed1616/int) :=
 498:D:/Git/VL53L1/lib/core/src\vl53l1_api.c **** 			 * (2^16 * Fixed1616)
 499:D:/Git/VL53L1/lib/core/src\vl53l1_api.c **** 			 */
 500:D:/Git/VL53L1/lib/core/src\vl53l1_api.c **** 			signalXTalkTotalPerSpad *= (((uint32_t)1 << 16) -
 501:D:/Git/VL53L1/lib/core/src\vl53l1_api.c **** 				(xTalkStoredMeanRange / xTalkCalDistanceAsInt));
 502:D:/Git/VL53L1/lib/core/src\vl53l1_api.c **** 
 503:D:/Git/VL53L1/lib/core/src\vl53l1_api.c **** 			/* Round from 2^16 * Fixed1616, to Fixed1616. */
 504:D:/Git/VL53L1/lib/core/src\vl53l1_api.c **** 			XTalkCompensationRateMegaCps = (signalXTalkTotalPerSpad
 505:D:/Git/VL53L1/lib/core/src\vl53l1_api.c **** 				+ 0x8000) >> 16;
 506:D:/Git/VL53L1/lib/core/src\vl53l1_api.c **** 		}
 507:D:/Git/VL53L1/lib/core/src\vl53l1_api.c **** 
 508:D:/Git/VL53L1/lib/core/src\vl53l1_api.c **** 
 509:D:/Git/VL53L1/lib/core/src\vl53l1_api.c **** 		Status = VL53L1_GetCalibrationData(Dev, &CalibrationData);
 510:D:/Git/VL53L1/lib/core/src\vl53l1_api.c **** 		CHECK_ERROR_GO_ENDFUNC;
 511:D:/Git/VL53L1/lib/core/src\vl53l1_api.c **** 
 512:D:/Git/VL53L1/lib/core/src\vl53l1_api.c **** 		pC = &CalibrationData.customer;
 513:D:/Git/VL53L1/lib/core/src\vl53l1_api.c **** 
 514:D:/Git/VL53L1/lib/core/src\vl53l1_api.c **** 		pC->algo__crosstalk_compensation_plane_offset_kcps =
 515:D:/Git/VL53L1/lib/core/src\vl53l1_api.c **** 			(uint32_t)(1000 * ((XTalkCompensationRateMegaCps  +
 516:D:/Git/VL53L1/lib/core/src\vl53l1_api.c **** 				((uint32_t)1<<6)) >> (16-9)));
 517:D:/Git/VL53L1/lib/core/src\vl53l1_api.c **** 
 518:D:/Git/VL53L1/lib/core/src\vl53l1_api.c **** 		Status = VL53L1_SetCalibrationData(Dev, &CalibrationData);
 519:D:/Git/VL53L1/lib/core/src\vl53l1_api.c **** 		CHECK_ERROR_GO_ENDFUNC;
 520:D:/Git/VL53L1/lib/core/src\vl53l1_api.c **** 
 521:D:/Git/VL53L1/lib/core/src\vl53l1_api.c **** 		Status = VL53L1_enable_xtalk_compensation(Dev);
 522:D:/Git/VL53L1/lib/core/src\vl53l1_api.c **** 
 523:D:/Git/VL53L1/lib/core/src\vl53l1_api.c **** 	} else
 524:D:/Git/VL53L1/lib/core/src\vl53l1_api.c **** 		/* return error because no valid data found */
 525:D:/Git/VL53L1/lib/core/src\vl53l1_api.c **** 		Status = VL53L1_ERROR_XTALK_EXTRACTION_NO_SAMPLE_FAIL;
 526:D:/Git/VL53L1/lib/core/src\vl53l1_api.c **** 
 527:D:/Git/VL53L1/lib/core/src\vl53l1_api.c **** ENDFUNC:
 528:D:/Git/VL53L1/lib/core/src\vl53l1_api.c **** 	LOG_FUNCTION_END(Status);
 529:D:/Git/VL53L1/lib/core/src\vl53l1_api.c **** 	return Status;
 530:D:/Git/VL53L1/lib/core/src\vl53l1_api.c **** 
 531:D:/Git/VL53L1/lib/core/src\vl53l1_api.c **** }
 532:D:/Git/VL53L1/lib/core/src\vl53l1_api.c **** 
 533:D:/Git/VL53L1/lib/core/src\vl53l1_api.c **** /* Check Rectangle in user's coordinate system:
 534:D:/Git/VL53L1/lib/core/src\vl53l1_api.c ****  *	15	TL(x,y) o-----*
 535:D:/Git/VL53L1/lib/core/src\vl53l1_api.c ****  *   ^			|     |
 536:D:/Git/VL53L1/lib/core/src\vl53l1_api.c ****  *   |			*-----o BR(x,y)
 537:D:/Git/VL53L1/lib/core/src\vl53l1_api.c ****  *   0------------------------- >15
 538:D:/Git/VL53L1/lib/core/src\vl53l1_api.c ****  *   check Rectangle definition conforms to the (0,15,15) coordinate system
 539:D:/Git/VL53L1/lib/core/src\vl53l1_api.c ****  *   with a minimum of 4x4 size
 540:D:/Git/VL53L1/lib/core/src\vl53l1_api.c ****  */
 541:D:/Git/VL53L1/lib/core/src\vl53l1_api.c **** static VL53L1_Error CheckValidRectRoi(VL53L1_UserRoi_t ROI)
 542:D:/Git/VL53L1/lib/core/src\vl53l1_api.c **** {
  28              		.loc 1 542 1 view -0
  29              		.cfi_startproc
ARM GAS  C:\Users\Berbardo\AppData\Local\Temp\ccpaHgls.s 			page 11


  30              		@ args = 0, pretend = 0, frame = 8
  31              		@ frame_needed = 0, uses_anonymous_args = 0
  32              		@ link register save eliminated.
  33 0000 82B0     		sub	sp, sp, #8
  34              		.cfi_def_cfa_offset 8
  35 0002 0190     		str	r0, [sp, #4]
 543:D:/Git/VL53L1/lib/core/src\vl53l1_api.c **** 	VL53L1_Error Status = VL53L1_ERROR_NONE;
  36              		.loc 1 543 2 view .LVU1
  37              	.LVL0:
 544:D:/Git/VL53L1/lib/core/src\vl53l1_api.c **** 
 545:D:/Git/VL53L1/lib/core/src\vl53l1_api.c **** 	LOG_FUNCTION_START("");
  38              		.loc 1 545 24 view .LVU2
 546:D:/Git/VL53L1/lib/core/src\vl53l1_api.c **** 
 547:D:/Git/VL53L1/lib/core/src\vl53l1_api.c **** 	/* Negative check are not necessary because value is unsigned */
 548:D:/Git/VL53L1/lib/core/src\vl53l1_api.c **** 	if ((ROI.TopLeftX > 15) || (ROI.TopLeftY > 15) ||
  39              		.loc 1 548 2 view .LVU3
  40              		.loc 1 548 10 is_stmt 0 view .LVU4
  41 0004 C3B2     		uxtb	r3, r0
  42              		.loc 1 548 5 view .LVU5
  43 0006 0F2B     		cmp	r3, #15
  44 0008 0DD8     		bhi	.L4
  45              		.loc 1 548 33 discriminator 1 view .LVU6
  46 000a 9DF80520 		ldrb	r2, [sp, #5]	@ zero_extendqisi2
  47              		.loc 1 548 26 discriminator 1 view .LVU7
  48 000e 0F2A     		cmp	r2, #15
  49 0010 17D8     		bhi	.L5
 549:D:/Git/VL53L1/lib/core/src\vl53l1_api.c **** 		(ROI.BotRightX > 15) || (ROI.BotRightY > 15))
  50              		.loc 1 549 7 discriminator 2 view .LVU8
  51 0012 9DF80620 		ldrb	r2, [sp, #6]	@ zero_extendqisi2
 548:D:/Git/VL53L1/lib/core/src\vl53l1_api.c **** 		(ROI.BotRightX > 15) || (ROI.BotRightY > 15))
  52              		.loc 1 548 49 discriminator 2 view .LVU9
  53 0016 0F2A     		cmp	r2, #15
  54 0018 16D8     		bhi	.L6
  55              		.loc 1 549 31 view .LVU10
  56 001a 9DF80720 		ldrb	r2, [sp, #7]	@ zero_extendqisi2
  57              		.loc 1 549 24 view .LVU11
  58 001e 0F2A     		cmp	r2, #15
  59 0020 15D8     		bhi	.L7
 543:D:/Git/VL53L1/lib/core/src\vl53l1_api.c **** 
  60              		.loc 1 543 15 view .LVU12
  61 0022 0020     		movs	r0, #0
  62 0024 01E0     		b	.L2
  63              	.L4:
 550:D:/Git/VL53L1/lib/core/src\vl53l1_api.c **** 		Status = VL53L1_ERROR_INVALID_PARAMS;
  64              		.loc 1 550 10 view .LVU13
  65 0026 6FF00300 		mvn	r0, #3
  66              	.L2:
  67              	.LVL1:
 551:D:/Git/VL53L1/lib/core/src\vl53l1_api.c **** 
 552:D:/Git/VL53L1/lib/core/src\vl53l1_api.c **** 	if ((ROI.TopLeftX > ROI.BotRightX) || (ROI.TopLeftY < ROI.BotRightY))
  68              		.loc 1 552 2 is_stmt 1 view .LVU14
  69              		.loc 1 552 25 is_stmt 0 view .LVU15
  70 002a 9DF80620 		ldrb	r2, [sp, #6]	@ zero_extendqisi2
  71              		.loc 1 552 5 view .LVU16
  72 002e 9342     		cmp	r3, r2
  73 0030 10D8     		bhi	.L8
  74              		.loc 1 552 44 discriminator 1 view .LVU17
ARM GAS  C:\Users\Berbardo\AppData\Local\Temp\ccpaHgls.s 			page 12


  75 0032 9DF80520 		ldrb	r2, [sp, #5]	@ zero_extendqisi2
  76              		.loc 1 552 59 discriminator 1 view .LVU18
  77 0036 9DF80730 		ldrb	r3, [sp, #7]	@ zero_extendqisi2
  78              		.loc 1 552 37 discriminator 1 view .LVU19
  79 003a 9A42     		cmp	r2, r3
  80 003c 0DD3     		bcc	.L11
  81              	.LVL2:
  82              	.L3:
 553:D:/Git/VL53L1/lib/core/src\vl53l1_api.c **** 		Status = VL53L1_ERROR_INVALID_PARAMS;
 554:D:/Git/VL53L1/lib/core/src\vl53l1_api.c **** 
 555:D:/Git/VL53L1/lib/core/src\vl53l1_api.c **** 	LOG_FUNCTION_END(Status);
  83              		.loc 1 555 26 is_stmt 1 view .LVU20
 556:D:/Git/VL53L1/lib/core/src\vl53l1_api.c **** 	return Status;
  84              		.loc 1 556 2 view .LVU21
 557:D:/Git/VL53L1/lib/core/src\vl53l1_api.c **** }
  85              		.loc 1 557 1 is_stmt 0 view .LVU22
  86 003e 02B0     		add	sp, sp, #8
  87              		.cfi_remember_state
  88              		.cfi_def_cfa_offset 0
  89              		@ sp needed
  90 0040 7047     		bx	lr
  91              	.LVL3:
  92              	.L5:
  93              		.cfi_restore_state
 550:D:/Git/VL53L1/lib/core/src\vl53l1_api.c **** 
  94              		.loc 1 550 10 view .LVU23
  95 0042 6FF00300 		mvn	r0, #3
  96 0046 F0E7     		b	.L2
  97              	.L6:
  98 0048 6FF00300 		mvn	r0, #3
  99 004c EDE7     		b	.L2
 100              	.L7:
 101 004e 6FF00300 		mvn	r0, #3
 102 0052 EAE7     		b	.L2
 103              	.LVL4:
 104              	.L8:
 553:D:/Git/VL53L1/lib/core/src\vl53l1_api.c **** 
 105              		.loc 1 553 10 view .LVU24
 106 0054 6FF00300 		mvn	r0, #3
 107              	.LVL5:
 553:D:/Git/VL53L1/lib/core/src\vl53l1_api.c **** 
 108              		.loc 1 553 10 view .LVU25
 109 0058 F1E7     		b	.L3
 110              	.LVL6:
 111              	.L11:
 553:D:/Git/VL53L1/lib/core/src\vl53l1_api.c **** 
 112              		.loc 1 553 10 view .LVU26
 113 005a 6FF00300 		mvn	r0, #3
 114              	.LVL7:
 553:D:/Git/VL53L1/lib/core/src\vl53l1_api.c **** 
 115              		.loc 1 553 10 view .LVU27
 116 005e EEE7     		b	.L3
 117              		.cfi_endproc
 118              	.LFE131:
 120              		.section	.text.ConvertModeToLLD,"ax",%progbits
 121              		.align	1
 122              		.syntax unified
ARM GAS  C:\Users\Berbardo\AppData\Local\Temp\ccpaHgls.s 			page 13


 123              		.thumb
 124              		.thumb_func
 125              		.fpu fpv4-sp-d16
 127              	ConvertModeToLLD:
 128              	.LVL8:
 129              	.LFB132:
 558:D:/Git/VL53L1/lib/core/src\vl53l1_api.c **** 
 559:D:/Git/VL53L1/lib/core/src\vl53l1_api.c **** static VL53L1_GPIO_Interrupt_Mode ConvertModeToLLD(VL53L1_Error *pStatus,
 560:D:/Git/VL53L1/lib/core/src\vl53l1_api.c **** 		VL53L1_ThresholdMode CrossMode)
 561:D:/Git/VL53L1/lib/core/src\vl53l1_api.c **** {
 130              		.loc 1 561 1 is_stmt 1 view -0
 131              		.cfi_startproc
 132              		@ args = 0, pretend = 0, frame = 0
 133              		@ frame_needed = 0, uses_anonymous_args = 0
 134              		@ link register save eliminated.
 562:D:/Git/VL53L1/lib/core/src\vl53l1_api.c **** 	VL53L1_GPIO_Interrupt_Mode Mode;
 135              		.loc 1 562 2 view .LVU29
 563:D:/Git/VL53L1/lib/core/src\vl53l1_api.c **** 
 564:D:/Git/VL53L1/lib/core/src\vl53l1_api.c **** 	switch (CrossMode) {
 136              		.loc 1 564 2 view .LVU30
 137 0000 0329     		cmp	r1, #3
 138 0002 01D8     		bhi	.L14
 139              	.LVL9:
 140              	.L13:
 565:D:/Git/VL53L1/lib/core/src\vl53l1_api.c **** 	case VL53L1_THRESHOLD_CROSSED_LOW:
 566:D:/Git/VL53L1/lib/core/src\vl53l1_api.c **** 		Mode = VL53L1_GPIOINTMODE_LEVEL_LOW;
 567:D:/Git/VL53L1/lib/core/src\vl53l1_api.c **** 		break;
 568:D:/Git/VL53L1/lib/core/src\vl53l1_api.c **** 	case VL53L1_THRESHOLD_CROSSED_HIGH:
 569:D:/Git/VL53L1/lib/core/src\vl53l1_api.c **** 		Mode = VL53L1_GPIOINTMODE_LEVEL_HIGH;
 570:D:/Git/VL53L1/lib/core/src\vl53l1_api.c **** 		break;
 571:D:/Git/VL53L1/lib/core/src\vl53l1_api.c **** 	case VL53L1_THRESHOLD_OUT_OF_WINDOW:
 572:D:/Git/VL53L1/lib/core/src\vl53l1_api.c **** 		Mode = VL53L1_GPIOINTMODE_OUT_OF_WINDOW;
 573:D:/Git/VL53L1/lib/core/src\vl53l1_api.c **** 		break;
 574:D:/Git/VL53L1/lib/core/src\vl53l1_api.c **** 	case VL53L1_THRESHOLD_IN_WINDOW:
 575:D:/Git/VL53L1/lib/core/src\vl53l1_api.c **** 		Mode = VL53L1_GPIOINTMODE_IN_WINDOW;
 576:D:/Git/VL53L1/lib/core/src\vl53l1_api.c **** 		break;
 577:D:/Git/VL53L1/lib/core/src\vl53l1_api.c **** 	default:
 578:D:/Git/VL53L1/lib/core/src\vl53l1_api.c **** 		/* define Mode to avoid warning but actual value doesn't mind */
 579:D:/Git/VL53L1/lib/core/src\vl53l1_api.c **** 		Mode = VL53L1_GPIOINTMODE_LEVEL_HIGH;
 580:D:/Git/VL53L1/lib/core/src\vl53l1_api.c **** 		*pStatus = VL53L1_ERROR_INVALID_PARAMS;
 581:D:/Git/VL53L1/lib/core/src\vl53l1_api.c **** 	}
 582:D:/Git/VL53L1/lib/core/src\vl53l1_api.c **** 	return Mode;
 141              		.loc 1 582 2 view .LVU31
 583:D:/Git/VL53L1/lib/core/src\vl53l1_api.c **** }
 142              		.loc 1 583 1 is_stmt 0 view .LVU32
 143 0004 0846     		mov	r0, r1
 144              	.LVL10:
 145              		.loc 1 583 1 view .LVU33
 146 0006 7047     		bx	lr
 147              	.LVL11:
 148              	.L14:
 579:D:/Git/VL53L1/lib/core/src\vl53l1_api.c **** 		*pStatus = VL53L1_ERROR_INVALID_PARAMS;
 149              		.loc 1 579 3 is_stmt 1 view .LVU34
 580:D:/Git/VL53L1/lib/core/src\vl53l1_api.c **** 	}
 150              		.loc 1 580 3 view .LVU35
 580:D:/Git/VL53L1/lib/core/src\vl53l1_api.c **** 	}
 151              		.loc 1 580 12 is_stmt 0 view .LVU36
ARM GAS  C:\Users\Berbardo\AppData\Local\Temp\ccpaHgls.s 			page 14


 152 0008 FC23     		movs	r3, #252
 153 000a 0370     		strb	r3, [r0]
 579:D:/Git/VL53L1/lib/core/src\vl53l1_api.c **** 		*pStatus = VL53L1_ERROR_INVALID_PARAMS;
 154              		.loc 1 579 8 view .LVU37
 155 000c 0121     		movs	r1, #1
 156              	.LVL12:
 579:D:/Git/VL53L1/lib/core/src\vl53l1_api.c **** 		*pStatus = VL53L1_ERROR_INVALID_PARAMS;
 157              		.loc 1 579 8 view .LVU38
 158 000e F9E7     		b	.L13
 159              		.cfi_endproc
 160              	.LFE132:
 162              		.section	.text.ConvertModeFromLLD,"ax",%progbits
 163              		.align	1
 164              		.syntax unified
 165              		.thumb
 166              		.thumb_func
 167              		.fpu fpv4-sp-d16
 169              	ConvertModeFromLLD:
 170              	.LVL13:
 171              	.LFB133:
 584:D:/Git/VL53L1/lib/core/src\vl53l1_api.c **** 
 585:D:/Git/VL53L1/lib/core/src\vl53l1_api.c **** static VL53L1_ThresholdMode ConvertModeFromLLD(VL53L1_Error *pStatus,
 586:D:/Git/VL53L1/lib/core/src\vl53l1_api.c **** 		VL53L1_GPIO_Interrupt_Mode CrossMode)
 587:D:/Git/VL53L1/lib/core/src\vl53l1_api.c **** {
 172              		.loc 1 587 1 is_stmt 1 view -0
 173              		.cfi_startproc
 174              		@ args = 0, pretend = 0, frame = 0
 175              		@ frame_needed = 0, uses_anonymous_args = 0
 176              		@ link register save eliminated.
 588:D:/Git/VL53L1/lib/core/src\vl53l1_api.c **** 	VL53L1_ThresholdMode Mode;
 177              		.loc 1 588 2 view .LVU40
 589:D:/Git/VL53L1/lib/core/src\vl53l1_api.c **** 
 590:D:/Git/VL53L1/lib/core/src\vl53l1_api.c **** 	switch (CrossMode) {
 178              		.loc 1 590 2 view .LVU41
 179 0000 0329     		cmp	r1, #3
 180 0002 01D8     		bhi	.L17
 181              	.LVL14:
 182              	.L16:
 591:D:/Git/VL53L1/lib/core/src\vl53l1_api.c **** 	case VL53L1_GPIOINTMODE_LEVEL_LOW:
 592:D:/Git/VL53L1/lib/core/src\vl53l1_api.c **** 		Mode = VL53L1_THRESHOLD_CROSSED_LOW;
 593:D:/Git/VL53L1/lib/core/src\vl53l1_api.c **** 		break;
 594:D:/Git/VL53L1/lib/core/src\vl53l1_api.c **** 	case VL53L1_GPIOINTMODE_LEVEL_HIGH:
 595:D:/Git/VL53L1/lib/core/src\vl53l1_api.c **** 		Mode = VL53L1_THRESHOLD_CROSSED_HIGH;
 596:D:/Git/VL53L1/lib/core/src\vl53l1_api.c **** 		break;
 597:D:/Git/VL53L1/lib/core/src\vl53l1_api.c **** 	case VL53L1_GPIOINTMODE_OUT_OF_WINDOW:
 598:D:/Git/VL53L1/lib/core/src\vl53l1_api.c **** 		Mode = VL53L1_THRESHOLD_OUT_OF_WINDOW;
 599:D:/Git/VL53L1/lib/core/src\vl53l1_api.c **** 		break;
 600:D:/Git/VL53L1/lib/core/src\vl53l1_api.c **** 	case VL53L1_GPIOINTMODE_IN_WINDOW:
 601:D:/Git/VL53L1/lib/core/src\vl53l1_api.c **** 		Mode = VL53L1_THRESHOLD_IN_WINDOW;
 602:D:/Git/VL53L1/lib/core/src\vl53l1_api.c **** 		break;
 603:D:/Git/VL53L1/lib/core/src\vl53l1_api.c **** 	default:
 604:D:/Git/VL53L1/lib/core/src\vl53l1_api.c **** 		/* define Mode to avoid warning but actual value doesn't mind */
 605:D:/Git/VL53L1/lib/core/src\vl53l1_api.c **** 		Mode = VL53L1_THRESHOLD_CROSSED_HIGH;
 606:D:/Git/VL53L1/lib/core/src\vl53l1_api.c **** 		*pStatus = VL53L1_ERROR_UNDEFINED;
 607:D:/Git/VL53L1/lib/core/src\vl53l1_api.c **** 	}
 608:D:/Git/VL53L1/lib/core/src\vl53l1_api.c **** 	return Mode;
 183              		.loc 1 608 2 view .LVU42
ARM GAS  C:\Users\Berbardo\AppData\Local\Temp\ccpaHgls.s 			page 15


 609:D:/Git/VL53L1/lib/core/src\vl53l1_api.c **** }
 184              		.loc 1 609 1 is_stmt 0 view .LVU43
 185 0004 0846     		mov	r0, r1
 186              	.LVL15:
 187              		.loc 1 609 1 view .LVU44
 188 0006 7047     		bx	lr
 189              	.LVL16:
 190              	.L17:
 605:D:/Git/VL53L1/lib/core/src\vl53l1_api.c **** 		*pStatus = VL53L1_ERROR_UNDEFINED;
 191              		.loc 1 605 3 is_stmt 1 view .LVU45
 606:D:/Git/VL53L1/lib/core/src\vl53l1_api.c **** 	}
 192              		.loc 1 606 3 view .LVU46
 606:D:/Git/VL53L1/lib/core/src\vl53l1_api.c **** 	}
 193              		.loc 1 606 12 is_stmt 0 view .LVU47
 194 0008 FD23     		movs	r3, #253
 195 000a 0370     		strb	r3, [r0]
 605:D:/Git/VL53L1/lib/core/src\vl53l1_api.c **** 		*pStatus = VL53L1_ERROR_UNDEFINED;
 196              		.loc 1 605 8 view .LVU48
 197 000c 0121     		movs	r1, #1
 198              	.LVL17:
 605:D:/Git/VL53L1/lib/core/src\vl53l1_api.c **** 		*pStatus = VL53L1_ERROR_UNDEFINED;
 199              		.loc 1 605 8 view .LVU49
 200 000e F9E7     		b	.L16
 201              		.cfi_endproc
 202              	.LFE133:
 204              		.section	.text.ComputeDevicePresetMode,"ax",%progbits
 205              		.align	1
 206              		.syntax unified
 207              		.thumb
 208              		.thumb_func
 209              		.fpu fpv4-sp-d16
 211              	ComputeDevicePresetMode:
 212              	.LVL18:
 213              	.LFB145:
 610:D:/Git/VL53L1/lib/core/src\vl53l1_api.c **** 
 611:D:/Git/VL53L1/lib/core/src\vl53l1_api.c **** /* Group PAL General Functions */
 612:D:/Git/VL53L1/lib/core/src\vl53l1_api.c **** 
 613:D:/Git/VL53L1/lib/core/src\vl53l1_api.c **** VL53L1_Error VL53L1_GetVersion(VL53L1_Version_t *pVersion)
 614:D:/Git/VL53L1/lib/core/src\vl53l1_api.c **** {
 615:D:/Git/VL53L1/lib/core/src\vl53l1_api.c **** 	VL53L1_Error Status = VL53L1_ERROR_NONE;
 616:D:/Git/VL53L1/lib/core/src\vl53l1_api.c **** 
 617:D:/Git/VL53L1/lib/core/src\vl53l1_api.c **** 	LOG_FUNCTION_START("");
 618:D:/Git/VL53L1/lib/core/src\vl53l1_api.c **** 
 619:D:/Git/VL53L1/lib/core/src\vl53l1_api.c **** 	pVersion->major = VL53L1_IMPLEMENTATION_VER_MAJOR;
 620:D:/Git/VL53L1/lib/core/src\vl53l1_api.c **** 	pVersion->minor = VL53L1_IMPLEMENTATION_VER_MINOR;
 621:D:/Git/VL53L1/lib/core/src\vl53l1_api.c **** 	pVersion->build = VL53L1_IMPLEMENTATION_VER_SUB;
 622:D:/Git/VL53L1/lib/core/src\vl53l1_api.c **** 
 623:D:/Git/VL53L1/lib/core/src\vl53l1_api.c **** 	pVersion->revision = VL53L1_IMPLEMENTATION_VER_REVISION;
 624:D:/Git/VL53L1/lib/core/src\vl53l1_api.c **** 
 625:D:/Git/VL53L1/lib/core/src\vl53l1_api.c **** 	LOG_FUNCTION_END(Status);
 626:D:/Git/VL53L1/lib/core/src\vl53l1_api.c **** 	return Status;
 627:D:/Git/VL53L1/lib/core/src\vl53l1_api.c **** }
 628:D:/Git/VL53L1/lib/core/src\vl53l1_api.c **** 
 629:D:/Git/VL53L1/lib/core/src\vl53l1_api.c **** VL53L1_Error VL53L1_GetProductRevision(VL53L1_DEV Dev,
 630:D:/Git/VL53L1/lib/core/src\vl53l1_api.c **** 	uint8_t *pProductRevisionMajor, uint8_t *pProductRevisionMinor)
 631:D:/Git/VL53L1/lib/core/src\vl53l1_api.c **** {
 632:D:/Git/VL53L1/lib/core/src\vl53l1_api.c **** 	VL53L1_Error Status = VL53L1_ERROR_NONE;
ARM GAS  C:\Users\Berbardo\AppData\Local\Temp\ccpaHgls.s 			page 16


 633:D:/Git/VL53L1/lib/core/src\vl53l1_api.c **** 	uint8_t revision_id;
 634:D:/Git/VL53L1/lib/core/src\vl53l1_api.c **** 	VL53L1_LLDriverData_t   *pLLData;
 635:D:/Git/VL53L1/lib/core/src\vl53l1_api.c **** 
 636:D:/Git/VL53L1/lib/core/src\vl53l1_api.c **** 	LOG_FUNCTION_START("");
 637:D:/Git/VL53L1/lib/core/src\vl53l1_api.c **** 
 638:D:/Git/VL53L1/lib/core/src\vl53l1_api.c **** 	pLLData =  VL53L1DevStructGetLLDriverHandle(Dev);
 639:D:/Git/VL53L1/lib/core/src\vl53l1_api.c **** 	revision_id = pLLData->nvm_copy_data.identification__revision_id;
 640:D:/Git/VL53L1/lib/core/src\vl53l1_api.c **** 	*pProductRevisionMajor = 1;
 641:D:/Git/VL53L1/lib/core/src\vl53l1_api.c **** 	*pProductRevisionMinor = (revision_id & 0xF0) >> 4;
 642:D:/Git/VL53L1/lib/core/src\vl53l1_api.c **** 
 643:D:/Git/VL53L1/lib/core/src\vl53l1_api.c **** 	LOG_FUNCTION_END(Status);
 644:D:/Git/VL53L1/lib/core/src\vl53l1_api.c **** 	return Status;
 645:D:/Git/VL53L1/lib/core/src\vl53l1_api.c **** 
 646:D:/Git/VL53L1/lib/core/src\vl53l1_api.c **** }
 647:D:/Git/VL53L1/lib/core/src\vl53l1_api.c **** 
 648:D:/Git/VL53L1/lib/core/src\vl53l1_api.c **** VL53L1_Error VL53L1_GetDeviceInfo(VL53L1_DEV Dev,
 649:D:/Git/VL53L1/lib/core/src\vl53l1_api.c **** 	VL53L1_DeviceInfo_t *pVL53L1_DeviceInfo)
 650:D:/Git/VL53L1/lib/core/src\vl53l1_api.c **** {
 651:D:/Git/VL53L1/lib/core/src\vl53l1_api.c **** 	VL53L1_Error Status = VL53L1_ERROR_NONE;
 652:D:/Git/VL53L1/lib/core/src\vl53l1_api.c **** 	uint8_t revision_id;
 653:D:/Git/VL53L1/lib/core/src\vl53l1_api.c **** 	VL53L1_LLDriverData_t   *pLLData;
 654:D:/Git/VL53L1/lib/core/src\vl53l1_api.c **** 
 655:D:/Git/VL53L1/lib/core/src\vl53l1_api.c **** 	LOG_FUNCTION_START("");
 656:D:/Git/VL53L1/lib/core/src\vl53l1_api.c **** 
 657:D:/Git/VL53L1/lib/core/src\vl53l1_api.c **** 	pLLData =  VL53L1DevStructGetLLDriverHandle(Dev);
 658:D:/Git/VL53L1/lib/core/src\vl53l1_api.c **** 
 659:D:/Git/VL53L1/lib/core/src\vl53l1_api.c **** 	strncpy(pVL53L1_DeviceInfo->ProductId, "",
 660:D:/Git/VL53L1/lib/core/src\vl53l1_api.c **** 			VL53L1_DEVINFO_STRLEN-1);
 661:D:/Git/VL53L1/lib/core/src\vl53l1_api.c **** 	pVL53L1_DeviceInfo->ProductType =
 662:D:/Git/VL53L1/lib/core/src\vl53l1_api.c **** 			pLLData->nvm_copy_data.identification__module_type;
 663:D:/Git/VL53L1/lib/core/src\vl53l1_api.c **** 
 664:D:/Git/VL53L1/lib/core/src\vl53l1_api.c **** 	revision_id = pLLData->nvm_copy_data.identification__revision_id;
 665:D:/Git/VL53L1/lib/core/src\vl53l1_api.c **** 	pVL53L1_DeviceInfo->ProductRevisionMajor = 1;
 666:D:/Git/VL53L1/lib/core/src\vl53l1_api.c **** 	pVL53L1_DeviceInfo->ProductRevisionMinor = (revision_id & 0xF0) >> 4;
 667:D:/Git/VL53L1/lib/core/src\vl53l1_api.c **** 
 668:D:/Git/VL53L1/lib/core/src\vl53l1_api.c **** #ifndef VL53L1_USE_EMPTY_STRING
 669:D:/Git/VL53L1/lib/core/src\vl53l1_api.c **** 	if (pVL53L1_DeviceInfo->ProductRevisionMinor == 0)
 670:D:/Git/VL53L1/lib/core/src\vl53l1_api.c **** 		strncpy(pVL53L1_DeviceInfo->Name,
 671:D:/Git/VL53L1/lib/core/src\vl53l1_api.c **** 				VL53L1_STRING_DEVICE_INFO_NAME0,
 672:D:/Git/VL53L1/lib/core/src\vl53l1_api.c **** 				VL53L1_DEVINFO_STRLEN-1);
 673:D:/Git/VL53L1/lib/core/src\vl53l1_api.c **** 	else
 674:D:/Git/VL53L1/lib/core/src\vl53l1_api.c **** 		strncpy(pVL53L1_DeviceInfo->Name,
 675:D:/Git/VL53L1/lib/core/src\vl53l1_api.c **** 				VL53L1_STRING_DEVICE_INFO_NAME1,
 676:D:/Git/VL53L1/lib/core/src\vl53l1_api.c **** 				VL53L1_DEVINFO_STRLEN-1);
 677:D:/Git/VL53L1/lib/core/src\vl53l1_api.c **** 	strncpy(pVL53L1_DeviceInfo->Type,
 678:D:/Git/VL53L1/lib/core/src\vl53l1_api.c **** 			VL53L1_STRING_DEVICE_INFO_TYPE,
 679:D:/Git/VL53L1/lib/core/src\vl53l1_api.c **** 			VL53L1_DEVINFO_STRLEN-1);
 680:D:/Git/VL53L1/lib/core/src\vl53l1_api.c **** #else
 681:D:/Git/VL53L1/lib/core/src\vl53l1_api.c **** 	pVL53L1_DeviceInfo->Name[0] = 0;
 682:D:/Git/VL53L1/lib/core/src\vl53l1_api.c **** 	pVL53L1_DeviceInfo->Type[0] = 0;
 683:D:/Git/VL53L1/lib/core/src\vl53l1_api.c **** #endif
 684:D:/Git/VL53L1/lib/core/src\vl53l1_api.c **** 
 685:D:/Git/VL53L1/lib/core/src\vl53l1_api.c **** 	LOG_FUNCTION_END(Status);
 686:D:/Git/VL53L1/lib/core/src\vl53l1_api.c **** 	return Status;
 687:D:/Git/VL53L1/lib/core/src\vl53l1_api.c **** }
 688:D:/Git/VL53L1/lib/core/src\vl53l1_api.c **** 
 689:D:/Git/VL53L1/lib/core/src\vl53l1_api.c **** 
ARM GAS  C:\Users\Berbardo\AppData\Local\Temp\ccpaHgls.s 			page 17


 690:D:/Git/VL53L1/lib/core/src\vl53l1_api.c **** VL53L1_Error VL53L1_GetRangeStatusString(uint8_t RangeStatus,
 691:D:/Git/VL53L1/lib/core/src\vl53l1_api.c **** 	char *pRangeStatusString)
 692:D:/Git/VL53L1/lib/core/src\vl53l1_api.c **** {
 693:D:/Git/VL53L1/lib/core/src\vl53l1_api.c **** 	VL53L1_Error Status = VL53L1_ERROR_NONE;
 694:D:/Git/VL53L1/lib/core/src\vl53l1_api.c **** 
 695:D:/Git/VL53L1/lib/core/src\vl53l1_api.c **** 	LOG_FUNCTION_START("");
 696:D:/Git/VL53L1/lib/core/src\vl53l1_api.c **** 
 697:D:/Git/VL53L1/lib/core/src\vl53l1_api.c **** 	Status = VL53L1_get_range_status_string(RangeStatus,
 698:D:/Git/VL53L1/lib/core/src\vl53l1_api.c **** 		pRangeStatusString);
 699:D:/Git/VL53L1/lib/core/src\vl53l1_api.c **** 
 700:D:/Git/VL53L1/lib/core/src\vl53l1_api.c **** 	LOG_FUNCTION_END(Status);
 701:D:/Git/VL53L1/lib/core/src\vl53l1_api.c **** 	return Status;
 702:D:/Git/VL53L1/lib/core/src\vl53l1_api.c **** }
 703:D:/Git/VL53L1/lib/core/src\vl53l1_api.c **** 
 704:D:/Git/VL53L1/lib/core/src\vl53l1_api.c **** VL53L1_Error VL53L1_GetPalErrorString(VL53L1_Error PalErrorCode,
 705:D:/Git/VL53L1/lib/core/src\vl53l1_api.c **** 	char *pPalErrorString)
 706:D:/Git/VL53L1/lib/core/src\vl53l1_api.c **** {
 707:D:/Git/VL53L1/lib/core/src\vl53l1_api.c **** 	VL53L1_Error Status = VL53L1_ERROR_NONE;
 708:D:/Git/VL53L1/lib/core/src\vl53l1_api.c **** 
 709:D:/Git/VL53L1/lib/core/src\vl53l1_api.c **** 	LOG_FUNCTION_START("");
 710:D:/Git/VL53L1/lib/core/src\vl53l1_api.c **** 
 711:D:/Git/VL53L1/lib/core/src\vl53l1_api.c **** 	Status = VL53L1_get_pal_error_string(PalErrorCode, pPalErrorString);
 712:D:/Git/VL53L1/lib/core/src\vl53l1_api.c **** 
 713:D:/Git/VL53L1/lib/core/src\vl53l1_api.c **** 	LOG_FUNCTION_END(Status);
 714:D:/Git/VL53L1/lib/core/src\vl53l1_api.c **** 	return Status;
 715:D:/Git/VL53L1/lib/core/src\vl53l1_api.c **** }
 716:D:/Git/VL53L1/lib/core/src\vl53l1_api.c **** 
 717:D:/Git/VL53L1/lib/core/src\vl53l1_api.c **** VL53L1_Error VL53L1_GetPalStateString(VL53L1_State PalStateCode,
 718:D:/Git/VL53L1/lib/core/src\vl53l1_api.c **** 	char *pPalStateString)
 719:D:/Git/VL53L1/lib/core/src\vl53l1_api.c **** {
 720:D:/Git/VL53L1/lib/core/src\vl53l1_api.c **** 	VL53L1_Error Status = VL53L1_ERROR_NONE;
 721:D:/Git/VL53L1/lib/core/src\vl53l1_api.c **** 
 722:D:/Git/VL53L1/lib/core/src\vl53l1_api.c **** 	LOG_FUNCTION_START("");
 723:D:/Git/VL53L1/lib/core/src\vl53l1_api.c **** 
 724:D:/Git/VL53L1/lib/core/src\vl53l1_api.c **** 	Status = VL53L1_get_pal_state_string(PalStateCode, pPalStateString);
 725:D:/Git/VL53L1/lib/core/src\vl53l1_api.c **** 
 726:D:/Git/VL53L1/lib/core/src\vl53l1_api.c **** 	LOG_FUNCTION_END(Status);
 727:D:/Git/VL53L1/lib/core/src\vl53l1_api.c **** 	return Status;
 728:D:/Git/VL53L1/lib/core/src\vl53l1_api.c **** }
 729:D:/Git/VL53L1/lib/core/src\vl53l1_api.c **** 
 730:D:/Git/VL53L1/lib/core/src\vl53l1_api.c **** VL53L1_Error VL53L1_GetPalState(VL53L1_DEV Dev, VL53L1_State *pPalState)
 731:D:/Git/VL53L1/lib/core/src\vl53l1_api.c **** {
 732:D:/Git/VL53L1/lib/core/src\vl53l1_api.c **** 	VL53L1_Error Status = VL53L1_ERROR_NONE;
 733:D:/Git/VL53L1/lib/core/src\vl53l1_api.c **** 
 734:D:/Git/VL53L1/lib/core/src\vl53l1_api.c **** 	LOG_FUNCTION_START("");
 735:D:/Git/VL53L1/lib/core/src\vl53l1_api.c **** 
 736:D:/Git/VL53L1/lib/core/src\vl53l1_api.c **** 	*pPalState = VL53L1DevDataGet(Dev, PalState);
 737:D:/Git/VL53L1/lib/core/src\vl53l1_api.c **** 
 738:D:/Git/VL53L1/lib/core/src\vl53l1_api.c **** 	LOG_FUNCTION_END(Status);
 739:D:/Git/VL53L1/lib/core/src\vl53l1_api.c **** 	return Status;
 740:D:/Git/VL53L1/lib/core/src\vl53l1_api.c **** }
 741:D:/Git/VL53L1/lib/core/src\vl53l1_api.c **** 
 742:D:/Git/VL53L1/lib/core/src\vl53l1_api.c **** /* End Group PAL General Functions */
 743:D:/Git/VL53L1/lib/core/src\vl53l1_api.c **** 
 744:D:/Git/VL53L1/lib/core/src\vl53l1_api.c **** /* Group PAL Init Functions */
 745:D:/Git/VL53L1/lib/core/src\vl53l1_api.c **** VL53L1_Error VL53L1_SetDeviceAddress(VL53L1_DEV Dev, uint8_t DeviceAddress)
 746:D:/Git/VL53L1/lib/core/src\vl53l1_api.c **** {
ARM GAS  C:\Users\Berbardo\AppData\Local\Temp\ccpaHgls.s 			page 18


 747:D:/Git/VL53L1/lib/core/src\vl53l1_api.c **** 	VL53L1_Error Status = VL53L1_ERROR_NONE;
 748:D:/Git/VL53L1/lib/core/src\vl53l1_api.c **** 
 749:D:/Git/VL53L1/lib/core/src\vl53l1_api.c **** 	LOG_FUNCTION_START("");
 750:D:/Git/VL53L1/lib/core/src\vl53l1_api.c **** 
 751:D:/Git/VL53L1/lib/core/src\vl53l1_api.c **** 	Status = VL53L1_WrByte(Dev, VL53L1_I2C_SLAVE__DEVICE_ADDRESS,
 752:D:/Git/VL53L1/lib/core/src\vl53l1_api.c **** 			DeviceAddress / 2);
 753:D:/Git/VL53L1/lib/core/src\vl53l1_api.c **** 
 754:D:/Git/VL53L1/lib/core/src\vl53l1_api.c **** 	LOG_FUNCTION_END(Status);
 755:D:/Git/VL53L1/lib/core/src\vl53l1_api.c **** 	return Status;
 756:D:/Git/VL53L1/lib/core/src\vl53l1_api.c **** }
 757:D:/Git/VL53L1/lib/core/src\vl53l1_api.c **** 
 758:D:/Git/VL53L1/lib/core/src\vl53l1_api.c **** VL53L1_Error VL53L1_DataInit(VL53L1_DEV Dev)
 759:D:/Git/VL53L1/lib/core/src\vl53l1_api.c **** {
 760:D:/Git/VL53L1/lib/core/src\vl53l1_api.c **** 	VL53L1_Error Status = VL53L1_ERROR_NONE;
 761:D:/Git/VL53L1/lib/core/src\vl53l1_api.c **** 	uint8_t i;
 762:D:/Git/VL53L1/lib/core/src\vl53l1_api.c **** 
 763:D:/Git/VL53L1/lib/core/src\vl53l1_api.c **** 	LOG_FUNCTION_START("");
 764:D:/Git/VL53L1/lib/core/src\vl53l1_api.c **** 
 765:D:/Git/VL53L1/lib/core/src\vl53l1_api.c **** 	/* 2V8 power mode selection codex 447463 */
 766:D:/Git/VL53L1/lib/core/src\vl53l1_api.c **** #ifdef USE_I2C_2V8
 767:D:/Git/VL53L1/lib/core/src\vl53l1_api.c **** 	Status = VL53L1_RdByte(Dev, VL53L1_PAD_I2C_HV__EXTSUP_CONFIG, &i);
 768:D:/Git/VL53L1/lib/core/src\vl53l1_api.c **** 	if (Status == VL53L1_ERROR_NONE) {
 769:D:/Git/VL53L1/lib/core/src\vl53l1_api.c **** 		i = (i & 0xfe) | 0x01;
 770:D:/Git/VL53L1/lib/core/src\vl53l1_api.c **** 		Status = VL53L1_WrByte(Dev, VL53L1_PAD_I2C_HV__EXTSUP_CONFIG,
 771:D:/Git/VL53L1/lib/core/src\vl53l1_api.c **** 				i);
 772:D:/Git/VL53L1/lib/core/src\vl53l1_api.c **** 	}
 773:D:/Git/VL53L1/lib/core/src\vl53l1_api.c **** #endif
 774:D:/Git/VL53L1/lib/core/src\vl53l1_api.c **** 
 775:D:/Git/VL53L1/lib/core/src\vl53l1_api.c **** 	if (Status == VL53L1_ERROR_NONE)
 776:D:/Git/VL53L1/lib/core/src\vl53l1_api.c **** 		Status = VL53L1_data_init(Dev, 1);
 777:D:/Git/VL53L1/lib/core/src\vl53l1_api.c **** 
 778:D:/Git/VL53L1/lib/core/src\vl53l1_api.c **** 	if (Status == VL53L1_ERROR_NONE) {
 779:D:/Git/VL53L1/lib/core/src\vl53l1_api.c **** 		VL53L1DevDataSet(Dev, PalState, VL53L1_STATE_WAIT_STATICINIT);
 780:D:/Git/VL53L1/lib/core/src\vl53l1_api.c **** 		VL53L1DevDataSet(Dev, CurrentParameters.PresetMode,
 781:D:/Git/VL53L1/lib/core/src\vl53l1_api.c **** 				VL53L1_PRESETMODE_LOWPOWER_AUTONOMOUS);
 782:D:/Git/VL53L1/lib/core/src\vl53l1_api.c **** 	}
 783:D:/Git/VL53L1/lib/core/src\vl53l1_api.c **** 
 784:D:/Git/VL53L1/lib/core/src\vl53l1_api.c **** 	/* Enable all check */
 785:D:/Git/VL53L1/lib/core/src\vl53l1_api.c **** 	for (i = 0; i < VL53L1_CHECKENABLE_NUMBER_OF_CHECKS; i++) {
 786:D:/Git/VL53L1/lib/core/src\vl53l1_api.c **** 		if (Status == VL53L1_ERROR_NONE)
 787:D:/Git/VL53L1/lib/core/src\vl53l1_api.c **** 			Status |= VL53L1_SetLimitCheckEnable(Dev, i, 1);
 788:D:/Git/VL53L1/lib/core/src\vl53l1_api.c **** 		else
 789:D:/Git/VL53L1/lib/core/src\vl53l1_api.c **** 			break;
 790:D:/Git/VL53L1/lib/core/src\vl53l1_api.c **** 
 791:D:/Git/VL53L1/lib/core/src\vl53l1_api.c **** 	}
 792:D:/Git/VL53L1/lib/core/src\vl53l1_api.c **** 
 793:D:/Git/VL53L1/lib/core/src\vl53l1_api.c **** 	/* Limit default values */
 794:D:/Git/VL53L1/lib/core/src\vl53l1_api.c **** 	if (Status == VL53L1_ERROR_NONE) {
 795:D:/Git/VL53L1/lib/core/src\vl53l1_api.c **** 		Status = VL53L1_SetLimitCheckValue(Dev,
 796:D:/Git/VL53L1/lib/core/src\vl53l1_api.c **** 			VL53L1_CHECKENABLE_SIGMA_FINAL_RANGE,
 797:D:/Git/VL53L1/lib/core/src\vl53l1_api.c **** 				(FixPoint1616_t)(18 * 65536));
 798:D:/Git/VL53L1/lib/core/src\vl53l1_api.c **** 	}
 799:D:/Git/VL53L1/lib/core/src\vl53l1_api.c **** 	if (Status == VL53L1_ERROR_NONE) {
 800:D:/Git/VL53L1/lib/core/src\vl53l1_api.c **** 		Status = VL53L1_SetLimitCheckValue(Dev,
 801:D:/Git/VL53L1/lib/core/src\vl53l1_api.c **** 			VL53L1_CHECKENABLE_SIGNAL_RATE_FINAL_RANGE,
 802:D:/Git/VL53L1/lib/core/src\vl53l1_api.c **** 				(FixPoint1616_t)(25 * 65536 / 100));
 803:D:/Git/VL53L1/lib/core/src\vl53l1_api.c **** 				/* 0.25 * 65536 */
ARM GAS  C:\Users\Berbardo\AppData\Local\Temp\ccpaHgls.s 			page 19


 804:D:/Git/VL53L1/lib/core/src\vl53l1_api.c **** 	}
 805:D:/Git/VL53L1/lib/core/src\vl53l1_api.c **** 
 806:D:/Git/VL53L1/lib/core/src\vl53l1_api.c **** 	LOG_FUNCTION_END(Status);
 807:D:/Git/VL53L1/lib/core/src\vl53l1_api.c **** 	return Status;
 808:D:/Git/VL53L1/lib/core/src\vl53l1_api.c **** }
 809:D:/Git/VL53L1/lib/core/src\vl53l1_api.c **** 
 810:D:/Git/VL53L1/lib/core/src\vl53l1_api.c **** 
 811:D:/Git/VL53L1/lib/core/src\vl53l1_api.c **** VL53L1_Error VL53L1_StaticInit(VL53L1_DEV Dev)
 812:D:/Git/VL53L1/lib/core/src\vl53l1_api.c **** {
 813:D:/Git/VL53L1/lib/core/src\vl53l1_api.c **** 	VL53L1_Error Status = VL53L1_ERROR_NONE;
 814:D:/Git/VL53L1/lib/core/src\vl53l1_api.c **** 	uint8_t  measurement_mode;
 815:D:/Git/VL53L1/lib/core/src\vl53l1_api.c **** 
 816:D:/Git/VL53L1/lib/core/src\vl53l1_api.c **** 	LOG_FUNCTION_START("");
 817:D:/Git/VL53L1/lib/core/src\vl53l1_api.c **** 
 818:D:/Git/VL53L1/lib/core/src\vl53l1_api.c **** 	VL53L1DevDataSet(Dev, PalState, VL53L1_STATE_IDLE);
 819:D:/Git/VL53L1/lib/core/src\vl53l1_api.c **** 
 820:D:/Git/VL53L1/lib/core/src\vl53l1_api.c **** 	measurement_mode  = VL53L1_DEVICEMEASUREMENTMODE_BACKTOBACK;
 821:D:/Git/VL53L1/lib/core/src\vl53l1_api.c **** 	VL53L1DevDataSet(Dev, LLData.measurement_mode, measurement_mode);
 822:D:/Git/VL53L1/lib/core/src\vl53l1_api.c **** 
 823:D:/Git/VL53L1/lib/core/src\vl53l1_api.c **** 	VL53L1DevDataSet(Dev, CurrentParameters.NewDistanceMode,
 824:D:/Git/VL53L1/lib/core/src\vl53l1_api.c **** 			VL53L1_DISTANCEMODE_LONG);
 825:D:/Git/VL53L1/lib/core/src\vl53l1_api.c **** 
 826:D:/Git/VL53L1/lib/core/src\vl53l1_api.c **** 	VL53L1DevDataSet(Dev, CurrentParameters.InternalDistanceMode,
 827:D:/Git/VL53L1/lib/core/src\vl53l1_api.c **** 			VL53L1_DISTANCEMODE_LONG);
 828:D:/Git/VL53L1/lib/core/src\vl53l1_api.c **** 
 829:D:/Git/VL53L1/lib/core/src\vl53l1_api.c **** 	VL53L1DevDataSet(Dev, CurrentParameters.DistanceMode,
 830:D:/Git/VL53L1/lib/core/src\vl53l1_api.c **** 			VL53L1_DISTANCEMODE_LONG);
 831:D:/Git/VL53L1/lib/core/src\vl53l1_api.c **** 
 832:D:/Git/VL53L1/lib/core/src\vl53l1_api.c **** 	/* ticket 472728 fix */
 833:D:/Git/VL53L1/lib/core/src\vl53l1_api.c **** 	Status = VL53L1_SetPresetMode(Dev,
 834:D:/Git/VL53L1/lib/core/src\vl53l1_api.c **** 			VL53L1_PRESETMODE_LOWPOWER_AUTONOMOUS);
 835:D:/Git/VL53L1/lib/core/src\vl53l1_api.c **** 	/* end of ticket 472728 fix */
 836:D:/Git/VL53L1/lib/core/src\vl53l1_api.c **** 	LOG_FUNCTION_END(Status);
 837:D:/Git/VL53L1/lib/core/src\vl53l1_api.c **** 	return Status;
 838:D:/Git/VL53L1/lib/core/src\vl53l1_api.c **** }
 839:D:/Git/VL53L1/lib/core/src\vl53l1_api.c **** 
 840:D:/Git/VL53L1/lib/core/src\vl53l1_api.c **** VL53L1_Error VL53L1_WaitDeviceBooted(VL53L1_DEV Dev)
 841:D:/Git/VL53L1/lib/core/src\vl53l1_api.c **** {
 842:D:/Git/VL53L1/lib/core/src\vl53l1_api.c **** 	VL53L1_Error Status = VL53L1_ERROR_NONE;
 843:D:/Git/VL53L1/lib/core/src\vl53l1_api.c **** 
 844:D:/Git/VL53L1/lib/core/src\vl53l1_api.c **** 	LOG_FUNCTION_START("");
 845:D:/Git/VL53L1/lib/core/src\vl53l1_api.c **** 
 846:D:/Git/VL53L1/lib/core/src\vl53l1_api.c **** 	Status = VL53L1_poll_for_boot_completion(Dev,
 847:D:/Git/VL53L1/lib/core/src\vl53l1_api.c **** 			VL53L1_BOOT_COMPLETION_POLLING_TIMEOUT_MS);
 848:D:/Git/VL53L1/lib/core/src\vl53l1_api.c **** 
 849:D:/Git/VL53L1/lib/core/src\vl53l1_api.c **** 	LOG_FUNCTION_END(Status);
 850:D:/Git/VL53L1/lib/core/src\vl53l1_api.c **** 	return Status;
 851:D:/Git/VL53L1/lib/core/src\vl53l1_api.c **** }
 852:D:/Git/VL53L1/lib/core/src\vl53l1_api.c **** 
 853:D:/Git/VL53L1/lib/core/src\vl53l1_api.c **** /* End Group PAL Init Functions */
 854:D:/Git/VL53L1/lib/core/src\vl53l1_api.c **** 
 855:D:/Git/VL53L1/lib/core/src\vl53l1_api.c **** /* Group PAL Parameters Functions */
 856:D:/Git/VL53L1/lib/core/src\vl53l1_api.c **** static VL53L1_Error ComputeDevicePresetMode(
 857:D:/Git/VL53L1/lib/core/src\vl53l1_api.c **** 		VL53L1_PresetModes PresetMode,
 858:D:/Git/VL53L1/lib/core/src\vl53l1_api.c **** 		VL53L1_DistanceModes DistanceMode,
 859:D:/Git/VL53L1/lib/core/src\vl53l1_api.c **** 		VL53L1_DevicePresetModes *pDevicePresetMode)
 860:D:/Git/VL53L1/lib/core/src\vl53l1_api.c **** {
ARM GAS  C:\Users\Berbardo\AppData\Local\Temp\ccpaHgls.s 			page 20


 214              		.loc 1 860 1 is_stmt 1 view -0
 215              		.cfi_startproc
 216              		@ args = 0, pretend = 0, frame = 16
 217              		@ frame_needed = 0, uses_anonymous_args = 0
 218              		@ link register save eliminated.
 219              		.loc 1 860 1 is_stmt 0 view .LVU51
 220 0000 10B4     		push	{r4}
 221              		.cfi_def_cfa_offset 4
 222              		.cfi_offset 4, -4
 223 0002 85B0     		sub	sp, sp, #20
 224              		.cfi_def_cfa_offset 24
 861:D:/Git/VL53L1/lib/core/src\vl53l1_api.c **** 	VL53L1_Error Status = VL53L1_ERROR_NONE;
 225              		.loc 1 861 2 is_stmt 1 view .LVU52
 226              	.LVL19:
 862:D:/Git/VL53L1/lib/core/src\vl53l1_api.c **** 
 863:D:/Git/VL53L1/lib/core/src\vl53l1_api.c **** 	uint8_t DistIdx;
 227              		.loc 1 863 2 view .LVU53
 864:D:/Git/VL53L1/lib/core/src\vl53l1_api.c **** 	VL53L1_DevicePresetModes LightModes[3] = {
 228              		.loc 1 864 2 view .LVU54
 229              		.loc 1 864 27 is_stmt 0 view .LVU55
 230 0004 1F4C     		ldr	r4, .L27
 231 0006 2368     		ldr	r3, [r4]
 232 0008 ADF80C30 		strh	r3, [sp, #12]	@ movhi
 233 000c 1B0C     		lsrs	r3, r3, #16
 234 000e 8DF80E30 		strb	r3, [sp, #14]
 865:D:/Git/VL53L1/lib/core/src\vl53l1_api.c **** 		VL53L1_DEVICEPRESETMODE_STANDARD_RANGING_SHORT_RANGE,
 866:D:/Git/VL53L1/lib/core/src\vl53l1_api.c **** 		VL53L1_DEVICEPRESETMODE_STANDARD_RANGING,
 867:D:/Git/VL53L1/lib/core/src\vl53l1_api.c **** 		VL53L1_DEVICEPRESETMODE_STANDARD_RANGING_LONG_RANGE};
 868:D:/Git/VL53L1/lib/core/src\vl53l1_api.c **** 
 869:D:/Git/VL53L1/lib/core/src\vl53l1_api.c **** 
 870:D:/Git/VL53L1/lib/core/src\vl53l1_api.c **** 	VL53L1_DevicePresetModes TimedModes[3] = {
 235              		.loc 1 870 2 is_stmt 1 view .LVU56
 236              		.loc 1 870 27 is_stmt 0 view .LVU57
 237 0012 6368     		ldr	r3, [r4, #4]
 238 0014 ADF80830 		strh	r3, [sp, #8]	@ movhi
 239 0018 1B0C     		lsrs	r3, r3, #16
 240 001a 8DF80A30 		strb	r3, [sp, #10]
 871:D:/Git/VL53L1/lib/core/src\vl53l1_api.c **** 		VL53L1_DEVICEPRESETMODE_TIMED_RANGING_SHORT_RANGE,
 872:D:/Git/VL53L1/lib/core/src\vl53l1_api.c **** 		VL53L1_DEVICEPRESETMODE_TIMED_RANGING,
 873:D:/Git/VL53L1/lib/core/src\vl53l1_api.c **** 		VL53L1_DEVICEPRESETMODE_TIMED_RANGING_LONG_RANGE};
 874:D:/Git/VL53L1/lib/core/src\vl53l1_api.c **** 
 875:D:/Git/VL53L1/lib/core/src\vl53l1_api.c **** 	VL53L1_DevicePresetModes LowPowerTimedModes[3] = {
 241              		.loc 1 875 2 is_stmt 1 view .LVU58
 242              		.loc 1 875 27 is_stmt 0 view .LVU59
 243 001e A368     		ldr	r3, [r4, #8]
 244 0020 ADF80430 		strh	r3, [sp, #4]	@ movhi
 245 0024 1B0C     		lsrs	r3, r3, #16
 246 0026 8DF80630 		strb	r3, [sp, #6]
 876:D:/Git/VL53L1/lib/core/src\vl53l1_api.c **** 		VL53L1_DEVICEPRESETMODE_LOWPOWERAUTO_SHORT_RANGE,
 877:D:/Git/VL53L1/lib/core/src\vl53l1_api.c **** 		VL53L1_DEVICEPRESETMODE_LOWPOWERAUTO_MEDIUM_RANGE,
 878:D:/Git/VL53L1/lib/core/src\vl53l1_api.c **** 		VL53L1_DEVICEPRESETMODE_LOWPOWERAUTO_LONG_RANGE};
 879:D:/Git/VL53L1/lib/core/src\vl53l1_api.c **** 
 880:D:/Git/VL53L1/lib/core/src\vl53l1_api.c **** 	*pDevicePresetMode = VL53L1_DEVICEPRESETMODE_STANDARD_RANGING;
 247              		.loc 1 880 2 is_stmt 1 view .LVU60
 248              		.loc 1 880 21 is_stmt 0 view .LVU61
 249 002a 0123     		movs	r3, #1
 250 002c 1370     		strb	r3, [r2]
ARM GAS  C:\Users\Berbardo\AppData\Local\Temp\ccpaHgls.s 			page 21


 881:D:/Git/VL53L1/lib/core/src\vl53l1_api.c **** 
 882:D:/Git/VL53L1/lib/core/src\vl53l1_api.c **** 	switch (DistanceMode) {
 251              		.loc 1 882 2 is_stmt 1 view .LVU62
 252 002e 9942     		cmp	r1, r3
 253 0030 0ED0     		beq	.L24
 254 0032 0229     		cmp	r1, #2
 255 0034 0ED0     		beq	.L25
 883:D:/Git/VL53L1/lib/core/src\vl53l1_api.c **** 	case VL53L1_DISTANCEMODE_SHORT:
 884:D:/Git/VL53L1/lib/core/src\vl53l1_api.c **** 		DistIdx = 0;
 885:D:/Git/VL53L1/lib/core/src\vl53l1_api.c **** 		break;
 886:D:/Git/VL53L1/lib/core/src\vl53l1_api.c **** 	case VL53L1_DISTANCEMODE_MEDIUM:
 887:D:/Git/VL53L1/lib/core/src\vl53l1_api.c **** 		DistIdx = 1;
 888:D:/Git/VL53L1/lib/core/src\vl53l1_api.c **** 		break;
 889:D:/Git/VL53L1/lib/core/src\vl53l1_api.c **** 	default:
 890:D:/Git/VL53L1/lib/core/src\vl53l1_api.c **** 		DistIdx = 2;
 256              		.loc 1 890 11 is_stmt 0 view .LVU63
 257 0036 0223     		movs	r3, #2
 258              	.L19:
 259              	.LVL20:
 891:D:/Git/VL53L1/lib/core/src\vl53l1_api.c **** 	}
 892:D:/Git/VL53L1/lib/core/src\vl53l1_api.c **** 
 893:D:/Git/VL53L1/lib/core/src\vl53l1_api.c **** 	switch (PresetMode) {
 260              		.loc 1 893 2 is_stmt 1 view .LVU64
 261 0038 0428     		cmp	r0, #4
 262 003a 0DD0     		beq	.L20
 263 003c 0828     		cmp	r0, #8
 264 003e 19D0     		beq	.L21
 265 0040 0328     		cmp	r0, #3
 266 0042 10D0     		beq	.L22
 894:D:/Git/VL53L1/lib/core/src\vl53l1_api.c **** 	case VL53L1_PRESETMODE_LITE_RANGING:
 895:D:/Git/VL53L1/lib/core/src\vl53l1_api.c **** 		*pDevicePresetMode = LightModes[DistIdx];
 896:D:/Git/VL53L1/lib/core/src\vl53l1_api.c **** 		break;
 897:D:/Git/VL53L1/lib/core/src\vl53l1_api.c **** 
 898:D:/Git/VL53L1/lib/core/src\vl53l1_api.c **** 
 899:D:/Git/VL53L1/lib/core/src\vl53l1_api.c **** 	case VL53L1_PRESETMODE_AUTONOMOUS:
 900:D:/Git/VL53L1/lib/core/src\vl53l1_api.c **** 		*pDevicePresetMode = TimedModes[DistIdx];
 901:D:/Git/VL53L1/lib/core/src\vl53l1_api.c **** 		break;
 902:D:/Git/VL53L1/lib/core/src\vl53l1_api.c **** 
 903:D:/Git/VL53L1/lib/core/src\vl53l1_api.c **** 	case VL53L1_PRESETMODE_LOWPOWER_AUTONOMOUS:
 904:D:/Git/VL53L1/lib/core/src\vl53l1_api.c **** 		*pDevicePresetMode = LowPowerTimedModes[DistIdx];
 905:D:/Git/VL53L1/lib/core/src\vl53l1_api.c **** 		break;
 906:D:/Git/VL53L1/lib/core/src\vl53l1_api.c **** 
 907:D:/Git/VL53L1/lib/core/src\vl53l1_api.c **** 	default:
 908:D:/Git/VL53L1/lib/core/src\vl53l1_api.c **** 		/* Unsupported mode */
 909:D:/Git/VL53L1/lib/core/src\vl53l1_api.c **** 		Status = VL53L1_ERROR_MODE_NOT_SUPPORTED;
 267              		.loc 1 909 10 is_stmt 0 view .LVU65
 268 0044 6FF00700 		mvn	r0, #7
 269              	.LVL21:
 270              	.L23:
 910:D:/Git/VL53L1/lib/core/src\vl53l1_api.c **** 	}
 911:D:/Git/VL53L1/lib/core/src\vl53l1_api.c **** 
 912:D:/Git/VL53L1/lib/core/src\vl53l1_api.c **** 	return Status;
 271              		.loc 1 912 2 is_stmt 1 view .LVU66
 913:D:/Git/VL53L1/lib/core/src\vl53l1_api.c **** }
 272              		.loc 1 913 1 is_stmt 0 view .LVU67
 273 0048 05B0     		add	sp, sp, #20
 274              		.cfi_remember_state
ARM GAS  C:\Users\Berbardo\AppData\Local\Temp\ccpaHgls.s 			page 22


 275              		.cfi_def_cfa_offset 4
 276              		@ sp needed
 277 004a 5DF8044B 		ldr	r4, [sp], #4
 278              		.cfi_restore 4
 279              		.cfi_def_cfa_offset 0
 280 004e 7047     		bx	lr
 281              	.LVL22:
 282              	.L24:
 283              		.cfi_restore_state
 884:D:/Git/VL53L1/lib/core/src\vl53l1_api.c **** 		break;
 284              		.loc 1 884 11 view .LVU68
 285 0050 0023     		movs	r3, #0
 286 0052 F1E7     		b	.L19
 287              	.L25:
 887:D:/Git/VL53L1/lib/core/src\vl53l1_api.c **** 		break;
 288              		.loc 1 887 11 view .LVU69
 289 0054 0123     		movs	r3, #1
 290 0056 EFE7     		b	.L19
 291              	.LVL23:
 292              	.L20:
 895:D:/Git/VL53L1/lib/core/src\vl53l1_api.c **** 		break;
 293              		.loc 1 895 3 is_stmt 1 view .LVU70
 895:D:/Git/VL53L1/lib/core/src\vl53l1_api.c **** 		break;
 294              		.loc 1 895 34 is_stmt 0 view .LVU71
 295 0058 04A9     		add	r1, sp, #16
 296              	.LVL24:
 895:D:/Git/VL53L1/lib/core/src\vl53l1_api.c **** 		break;
 297              		.loc 1 895 34 view .LVU72
 298 005a 0B44     		add	r3, r3, r1
 299              	.LVL25:
 895:D:/Git/VL53L1/lib/core/src\vl53l1_api.c **** 		break;
 300              		.loc 1 895 34 view .LVU73
 301 005c 13F8043C 		ldrb	r3, [r3, #-4]	@ zero_extendqisi2
 895:D:/Git/VL53L1/lib/core/src\vl53l1_api.c **** 		break;
 302              		.loc 1 895 22 view .LVU74
 303 0060 1370     		strb	r3, [r2]
 896:D:/Git/VL53L1/lib/core/src\vl53l1_api.c **** 
 304              		.loc 1 896 3 is_stmt 1 view .LVU75
 861:D:/Git/VL53L1/lib/core/src\vl53l1_api.c **** 
 305              		.loc 1 861 15 is_stmt 0 view .LVU76
 306 0062 0020     		movs	r0, #0
 307              	.LVL26:
 896:D:/Git/VL53L1/lib/core/src\vl53l1_api.c **** 
 308              		.loc 1 896 3 view .LVU77
 309 0064 F0E7     		b	.L23
 310              	.LVL27:
 311              	.L22:
 900:D:/Git/VL53L1/lib/core/src\vl53l1_api.c **** 		break;
 312              		.loc 1 900 3 is_stmt 1 view .LVU78
 900:D:/Git/VL53L1/lib/core/src\vl53l1_api.c **** 		break;
 313              		.loc 1 900 34 is_stmt 0 view .LVU79
 314 0066 04A9     		add	r1, sp, #16
 315              	.LVL28:
 900:D:/Git/VL53L1/lib/core/src\vl53l1_api.c **** 		break;
 316              		.loc 1 900 34 view .LVU80
 317 0068 0B44     		add	r3, r3, r1
 318              	.LVL29:
ARM GAS  C:\Users\Berbardo\AppData\Local\Temp\ccpaHgls.s 			page 23


 900:D:/Git/VL53L1/lib/core/src\vl53l1_api.c **** 		break;
 319              		.loc 1 900 34 view .LVU81
 320 006a 13F8083C 		ldrb	r3, [r3, #-8]	@ zero_extendqisi2
 900:D:/Git/VL53L1/lib/core/src\vl53l1_api.c **** 		break;
 321              		.loc 1 900 22 view .LVU82
 322 006e 1370     		strb	r3, [r2]
 901:D:/Git/VL53L1/lib/core/src\vl53l1_api.c **** 
 323              		.loc 1 901 3 is_stmt 1 view .LVU83
 861:D:/Git/VL53L1/lib/core/src\vl53l1_api.c **** 
 324              		.loc 1 861 15 is_stmt 0 view .LVU84
 325 0070 0020     		movs	r0, #0
 326              	.LVL30:
 901:D:/Git/VL53L1/lib/core/src\vl53l1_api.c **** 
 327              		.loc 1 901 3 view .LVU85
 328 0072 E9E7     		b	.L23
 329              	.LVL31:
 330              	.L21:
 904:D:/Git/VL53L1/lib/core/src\vl53l1_api.c **** 		break;
 331              		.loc 1 904 3 is_stmt 1 view .LVU86
 904:D:/Git/VL53L1/lib/core/src\vl53l1_api.c **** 		break;
 332              		.loc 1 904 42 is_stmt 0 view .LVU87
 333 0074 04A9     		add	r1, sp, #16
 334              	.LVL32:
 904:D:/Git/VL53L1/lib/core/src\vl53l1_api.c **** 		break;
 335              		.loc 1 904 42 view .LVU88
 336 0076 0B44     		add	r3, r3, r1
 337              	.LVL33:
 904:D:/Git/VL53L1/lib/core/src\vl53l1_api.c **** 		break;
 338              		.loc 1 904 42 view .LVU89
 339 0078 13F80C3C 		ldrb	r3, [r3, #-12]	@ zero_extendqisi2
 904:D:/Git/VL53L1/lib/core/src\vl53l1_api.c **** 		break;
 340              		.loc 1 904 22 view .LVU90
 341 007c 1370     		strb	r3, [r2]
 905:D:/Git/VL53L1/lib/core/src\vl53l1_api.c **** 
 342              		.loc 1 905 3 is_stmt 1 view .LVU91
 861:D:/Git/VL53L1/lib/core/src\vl53l1_api.c **** 
 343              		.loc 1 861 15 is_stmt 0 view .LVU92
 344 007e 0020     		movs	r0, #0
 345              	.LVL34:
 905:D:/Git/VL53L1/lib/core/src\vl53l1_api.c **** 
 346              		.loc 1 905 3 view .LVU93
 347 0080 E2E7     		b	.L23
 348              	.L28:
 349 0082 00BF     		.align	2
 350              	.L27:
 351 0084 00000000 		.word	.LANCHOR0
 352              		.cfi_endproc
 353              	.LFE145:
 355              		.section	.text.ComputeRQL,"ax",%progbits
 356              		.align	1
 357              		.syntax unified
 358              		.thumb
 359              		.thumb_func
 360              		.fpu fpv4-sp-d16
 362              	ComputeRQL:
 363              	.LVL35:
 364              	.LFB176:
ARM GAS  C:\Users\Berbardo\AppData\Local\Temp\ccpaHgls.s 			page 24


 914:D:/Git/VL53L1/lib/core/src\vl53l1_api.c **** 
 915:D:/Git/VL53L1/lib/core/src\vl53l1_api.c **** static VL53L1_Error SetPresetMode(VL53L1_DEV Dev,
 916:D:/Git/VL53L1/lib/core/src\vl53l1_api.c **** 		VL53L1_PresetModes PresetMode,
 917:D:/Git/VL53L1/lib/core/src\vl53l1_api.c **** 		VL53L1_DistanceModes DistanceMode,
 918:D:/Git/VL53L1/lib/core/src\vl53l1_api.c **** 		uint32_t inter_measurement_period_ms)
 919:D:/Git/VL53L1/lib/core/src\vl53l1_api.c **** {
 920:D:/Git/VL53L1/lib/core/src\vl53l1_api.c **** 	VL53L1_Error Status = VL53L1_ERROR_NONE;
 921:D:/Git/VL53L1/lib/core/src\vl53l1_api.c **** 	VL53L1_DevicePresetModes   device_preset_mode;
 922:D:/Git/VL53L1/lib/core/src\vl53l1_api.c **** 	uint8_t measurement_mode;
 923:D:/Git/VL53L1/lib/core/src\vl53l1_api.c **** 	uint16_t dss_config__target_total_rate_mcps;
 924:D:/Git/VL53L1/lib/core/src\vl53l1_api.c **** 	uint32_t phasecal_config_timeout_us;
 925:D:/Git/VL53L1/lib/core/src\vl53l1_api.c **** 	uint32_t mm_config_timeout_us;
 926:D:/Git/VL53L1/lib/core/src\vl53l1_api.c **** 	uint32_t lld_range_config_timeout_us;
 927:D:/Git/VL53L1/lib/core/src\vl53l1_api.c **** 
 928:D:/Git/VL53L1/lib/core/src\vl53l1_api.c **** 	LOG_FUNCTION_START("%d", (int)PresetMode);
 929:D:/Git/VL53L1/lib/core/src\vl53l1_api.c **** 
 930:D:/Git/VL53L1/lib/core/src\vl53l1_api.c **** 	if ((PresetMode == VL53L1_PRESETMODE_AUTONOMOUS) ||
 931:D:/Git/VL53L1/lib/core/src\vl53l1_api.c **** 		(PresetMode == VL53L1_PRESETMODE_LOWPOWER_AUTONOMOUS))
 932:D:/Git/VL53L1/lib/core/src\vl53l1_api.c **** 		measurement_mode  = VL53L1_DEVICEMEASUREMENTMODE_TIMED;
 933:D:/Git/VL53L1/lib/core/src\vl53l1_api.c **** 	else
 934:D:/Git/VL53L1/lib/core/src\vl53l1_api.c **** 		measurement_mode  = VL53L1_DEVICEMEASUREMENTMODE_BACKTOBACK;
 935:D:/Git/VL53L1/lib/core/src\vl53l1_api.c **** 
 936:D:/Git/VL53L1/lib/core/src\vl53l1_api.c **** 
 937:D:/Git/VL53L1/lib/core/src\vl53l1_api.c **** 	Status = ComputeDevicePresetMode(PresetMode, DistanceMode,
 938:D:/Git/VL53L1/lib/core/src\vl53l1_api.c **** 			&device_preset_mode);
 939:D:/Git/VL53L1/lib/core/src\vl53l1_api.c **** 
 940:D:/Git/VL53L1/lib/core/src\vl53l1_api.c **** 	if (Status == VL53L1_ERROR_NONE)
 941:D:/Git/VL53L1/lib/core/src\vl53l1_api.c **** 		Status =  VL53L1_get_preset_mode_timing_cfg(Dev,
 942:D:/Git/VL53L1/lib/core/src\vl53l1_api.c **** 				device_preset_mode,
 943:D:/Git/VL53L1/lib/core/src\vl53l1_api.c **** 				&dss_config__target_total_rate_mcps,
 944:D:/Git/VL53L1/lib/core/src\vl53l1_api.c **** 				&phasecal_config_timeout_us,
 945:D:/Git/VL53L1/lib/core/src\vl53l1_api.c **** 				&mm_config_timeout_us,
 946:D:/Git/VL53L1/lib/core/src\vl53l1_api.c **** 				&lld_range_config_timeout_us);
 947:D:/Git/VL53L1/lib/core/src\vl53l1_api.c **** 
 948:D:/Git/VL53L1/lib/core/src\vl53l1_api.c **** 	if (Status == VL53L1_ERROR_NONE)
 949:D:/Git/VL53L1/lib/core/src\vl53l1_api.c **** 		Status = VL53L1_set_preset_mode(
 950:D:/Git/VL53L1/lib/core/src\vl53l1_api.c **** 				Dev,
 951:D:/Git/VL53L1/lib/core/src\vl53l1_api.c **** 				device_preset_mode,
 952:D:/Git/VL53L1/lib/core/src\vl53l1_api.c **** 				dss_config__target_total_rate_mcps,
 953:D:/Git/VL53L1/lib/core/src\vl53l1_api.c **** 				phasecal_config_timeout_us,
 954:D:/Git/VL53L1/lib/core/src\vl53l1_api.c **** 				mm_config_timeout_us,
 955:D:/Git/VL53L1/lib/core/src\vl53l1_api.c **** 				lld_range_config_timeout_us,
 956:D:/Git/VL53L1/lib/core/src\vl53l1_api.c **** 				inter_measurement_period_ms);
 957:D:/Git/VL53L1/lib/core/src\vl53l1_api.c **** 
 958:D:/Git/VL53L1/lib/core/src\vl53l1_api.c **** 	if (Status == VL53L1_ERROR_NONE)
 959:D:/Git/VL53L1/lib/core/src\vl53l1_api.c **** 		VL53L1DevDataSet(Dev, LLData.measurement_mode, measurement_mode);
 960:D:/Git/VL53L1/lib/core/src\vl53l1_api.c **** 
 961:D:/Git/VL53L1/lib/core/src\vl53l1_api.c **** 	if (Status == VL53L1_ERROR_NONE)
 962:D:/Git/VL53L1/lib/core/src\vl53l1_api.c **** 		VL53L1DevDataSet(Dev, CurrentParameters.PresetMode, PresetMode);
 963:D:/Git/VL53L1/lib/core/src\vl53l1_api.c **** 
 964:D:/Git/VL53L1/lib/core/src\vl53l1_api.c **** 	LOG_FUNCTION_END(Status);
 965:D:/Git/VL53L1/lib/core/src\vl53l1_api.c **** 	return Status;
 966:D:/Git/VL53L1/lib/core/src\vl53l1_api.c **** }
 967:D:/Git/VL53L1/lib/core/src\vl53l1_api.c **** 
 968:D:/Git/VL53L1/lib/core/src\vl53l1_api.c **** VL53L1_Error VL53L1_SetPresetMode(VL53L1_DEV Dev, VL53L1_PresetModes PresetMode)
 969:D:/Git/VL53L1/lib/core/src\vl53l1_api.c **** {
 970:D:/Git/VL53L1/lib/core/src\vl53l1_api.c **** 	VL53L1_Error Status = VL53L1_ERROR_NONE;
ARM GAS  C:\Users\Berbardo\AppData\Local\Temp\ccpaHgls.s 			page 25


 971:D:/Git/VL53L1/lib/core/src\vl53l1_api.c **** 	VL53L1_DistanceModes DistanceMode = VL53L1_DISTANCEMODE_LONG;
 972:D:/Git/VL53L1/lib/core/src\vl53l1_api.c **** 
 973:D:/Git/VL53L1/lib/core/src\vl53l1_api.c **** 	LOG_FUNCTION_START("%d", (int)PresetMode);
 974:D:/Git/VL53L1/lib/core/src\vl53l1_api.c **** 
 975:D:/Git/VL53L1/lib/core/src\vl53l1_api.c **** 	Status = SetPresetMode(Dev,
 976:D:/Git/VL53L1/lib/core/src\vl53l1_api.c **** 			PresetMode,
 977:D:/Git/VL53L1/lib/core/src\vl53l1_api.c **** 			DistanceMode,
 978:D:/Git/VL53L1/lib/core/src\vl53l1_api.c **** 			1000);
 979:D:/Git/VL53L1/lib/core/src\vl53l1_api.c **** 
 980:D:/Git/VL53L1/lib/core/src\vl53l1_api.c **** 	if (Status == VL53L1_ERROR_NONE) {
 981:D:/Git/VL53L1/lib/core/src\vl53l1_api.c **** 		VL53L1DevDataSet(Dev, CurrentParameters.InternalDistanceMode,
 982:D:/Git/VL53L1/lib/core/src\vl53l1_api.c **** 				DistanceMode);
 983:D:/Git/VL53L1/lib/core/src\vl53l1_api.c **** 
 984:D:/Git/VL53L1/lib/core/src\vl53l1_api.c **** 		VL53L1DevDataSet(Dev, CurrentParameters.NewDistanceMode,
 985:D:/Git/VL53L1/lib/core/src\vl53l1_api.c **** 				DistanceMode);
 986:D:/Git/VL53L1/lib/core/src\vl53l1_api.c **** 
 987:D:/Git/VL53L1/lib/core/src\vl53l1_api.c **** 		if ((PresetMode == VL53L1_PRESETMODE_LITE_RANGING) ||
 988:D:/Git/VL53L1/lib/core/src\vl53l1_api.c **** 			(PresetMode == VL53L1_PRESETMODE_AUTONOMOUS) ||
 989:D:/Git/VL53L1/lib/core/src\vl53l1_api.c **** 			(PresetMode == VL53L1_PRESETMODE_LOWPOWER_AUTONOMOUS))
 990:D:/Git/VL53L1/lib/core/src\vl53l1_api.c **** 			Status = VL53L1_SetMeasurementTimingBudgetMicroSeconds(
 991:D:/Git/VL53L1/lib/core/src\vl53l1_api.c **** 				Dev, 41000);
 992:D:/Git/VL53L1/lib/core/src\vl53l1_api.c **** 		else
 993:D:/Git/VL53L1/lib/core/src\vl53l1_api.c **** 			/* Set default timing budget to 30Hz (33.33 ms)*/
 994:D:/Git/VL53L1/lib/core/src\vl53l1_api.c **** 			Status = VL53L1_SetMeasurementTimingBudgetMicroSeconds(
 995:D:/Git/VL53L1/lib/core/src\vl53l1_api.c **** 				Dev, 33333);
 996:D:/Git/VL53L1/lib/core/src\vl53l1_api.c **** 	}
 997:D:/Git/VL53L1/lib/core/src\vl53l1_api.c **** 
 998:D:/Git/VL53L1/lib/core/src\vl53l1_api.c **** 	if (Status == VL53L1_ERROR_NONE) {
 999:D:/Git/VL53L1/lib/core/src\vl53l1_api.c **** 		/* Set default intermeasurement period to 1000 ms */
1000:D:/Git/VL53L1/lib/core/src\vl53l1_api.c **** 		Status = VL53L1_SetInterMeasurementPeriodMilliSeconds(Dev,
1001:D:/Git/VL53L1/lib/core/src\vl53l1_api.c **** 				1000);
1002:D:/Git/VL53L1/lib/core/src\vl53l1_api.c **** 	}
1003:D:/Git/VL53L1/lib/core/src\vl53l1_api.c **** 
1004:D:/Git/VL53L1/lib/core/src\vl53l1_api.c **** 	LOG_FUNCTION_END(Status);
1005:D:/Git/VL53L1/lib/core/src\vl53l1_api.c **** 	return Status;
1006:D:/Git/VL53L1/lib/core/src\vl53l1_api.c **** }
1007:D:/Git/VL53L1/lib/core/src\vl53l1_api.c **** 
1008:D:/Git/VL53L1/lib/core/src\vl53l1_api.c **** 
1009:D:/Git/VL53L1/lib/core/src\vl53l1_api.c **** VL53L1_Error VL53L1_GetPresetMode(VL53L1_DEV Dev,
1010:D:/Git/VL53L1/lib/core/src\vl53l1_api.c **** 	VL53L1_PresetModes *pPresetMode)
1011:D:/Git/VL53L1/lib/core/src\vl53l1_api.c **** {
1012:D:/Git/VL53L1/lib/core/src\vl53l1_api.c **** 	VL53L1_Error Status = VL53L1_ERROR_NONE;
1013:D:/Git/VL53L1/lib/core/src\vl53l1_api.c **** 
1014:D:/Git/VL53L1/lib/core/src\vl53l1_api.c **** 	LOG_FUNCTION_START("");
1015:D:/Git/VL53L1/lib/core/src\vl53l1_api.c **** 
1016:D:/Git/VL53L1/lib/core/src\vl53l1_api.c **** 	*pPresetMode = VL53L1DevDataGet(Dev, CurrentParameters.PresetMode);
1017:D:/Git/VL53L1/lib/core/src\vl53l1_api.c **** 
1018:D:/Git/VL53L1/lib/core/src\vl53l1_api.c **** 	LOG_FUNCTION_END(Status);
1019:D:/Git/VL53L1/lib/core/src\vl53l1_api.c **** 	return Status;
1020:D:/Git/VL53L1/lib/core/src\vl53l1_api.c **** }
1021:D:/Git/VL53L1/lib/core/src\vl53l1_api.c **** 
1022:D:/Git/VL53L1/lib/core/src\vl53l1_api.c **** VL53L1_Error VL53L1_SetDistanceMode(VL53L1_DEV Dev,
1023:D:/Git/VL53L1/lib/core/src\vl53l1_api.c **** 		VL53L1_DistanceModes DistanceMode)
1024:D:/Git/VL53L1/lib/core/src\vl53l1_api.c **** {
1025:D:/Git/VL53L1/lib/core/src\vl53l1_api.c **** 	VL53L1_Error Status = VL53L1_ERROR_NONE;
1026:D:/Git/VL53L1/lib/core/src\vl53l1_api.c **** 	VL53L1_PresetModes PresetMode;
1027:D:/Git/VL53L1/lib/core/src\vl53l1_api.c **** 	VL53L1_DistanceModes InternalDistanceMode;
ARM GAS  C:\Users\Berbardo\AppData\Local\Temp\ccpaHgls.s 			page 26


1028:D:/Git/VL53L1/lib/core/src\vl53l1_api.c **** 	uint32_t inter_measurement_period_ms;
1029:D:/Git/VL53L1/lib/core/src\vl53l1_api.c **** 	uint32_t TimingBudget;
1030:D:/Git/VL53L1/lib/core/src\vl53l1_api.c **** 	uint32_t MmTimeoutUs;
1031:D:/Git/VL53L1/lib/core/src\vl53l1_api.c **** 	uint32_t PhaseCalTimeoutUs;
1032:D:/Git/VL53L1/lib/core/src\vl53l1_api.c **** 	VL53L1_user_zone_t user_zone;
1033:D:/Git/VL53L1/lib/core/src\vl53l1_api.c **** 
1034:D:/Git/VL53L1/lib/core/src\vl53l1_api.c **** 	LOG_FUNCTION_START("%d", (int)DistanceMode);
1035:D:/Git/VL53L1/lib/core/src\vl53l1_api.c **** 
1036:D:/Git/VL53L1/lib/core/src\vl53l1_api.c **** 	PresetMode = VL53L1DevDataGet(Dev, CurrentParameters.PresetMode);
1037:D:/Git/VL53L1/lib/core/src\vl53l1_api.c **** 
1038:D:/Git/VL53L1/lib/core/src\vl53l1_api.c **** 	/* when the distance mode is valid:
1039:D:/Git/VL53L1/lib/core/src\vl53l1_api.c **** 	 * Manual Mode: all modes
1040:D:/Git/VL53L1/lib/core/src\vl53l1_api.c **** 	 * AUTO AUTO_LITE : LITE_RANGING, RANGING
1041:D:/Git/VL53L1/lib/core/src\vl53l1_api.c **** 	 */
1042:D:/Git/VL53L1/lib/core/src\vl53l1_api.c **** 
1043:D:/Git/VL53L1/lib/core/src\vl53l1_api.c **** 	if ((DistanceMode != VL53L1_DISTANCEMODE_SHORT) &&
1044:D:/Git/VL53L1/lib/core/src\vl53l1_api.c **** 		(DistanceMode != VL53L1_DISTANCEMODE_MEDIUM) &&
1045:D:/Git/VL53L1/lib/core/src\vl53l1_api.c **** 		(DistanceMode != VL53L1_DISTANCEMODE_LONG))
1046:D:/Git/VL53L1/lib/core/src\vl53l1_api.c **** 		return VL53L1_ERROR_INVALID_PARAMS;
1047:D:/Git/VL53L1/lib/core/src\vl53l1_api.c **** 
1048:D:/Git/VL53L1/lib/core/src\vl53l1_api.c **** 	/* The internal distance mode is limited to Short, Medium or
1049:D:/Git/VL53L1/lib/core/src\vl53l1_api.c **** 	 * long only
1050:D:/Git/VL53L1/lib/core/src\vl53l1_api.c **** 	*/
1051:D:/Git/VL53L1/lib/core/src\vl53l1_api.c **** 	if (Status == VL53L1_ERROR_NONE) {
1052:D:/Git/VL53L1/lib/core/src\vl53l1_api.c **** 		if ((DistanceMode == VL53L1_DISTANCEMODE_SHORT) ||
1053:D:/Git/VL53L1/lib/core/src\vl53l1_api.c **** 			(DistanceMode == VL53L1_DISTANCEMODE_MEDIUM))
1054:D:/Git/VL53L1/lib/core/src\vl53l1_api.c **** 			InternalDistanceMode = DistanceMode;
1055:D:/Git/VL53L1/lib/core/src\vl53l1_api.c **** 		else /* (DistanceMode == VL53L1_DISTANCEMODE_LONG) */
1056:D:/Git/VL53L1/lib/core/src\vl53l1_api.c **** 			InternalDistanceMode = VL53L1_DISTANCEMODE_LONG;
1057:D:/Git/VL53L1/lib/core/src\vl53l1_api.c **** 	}
1058:D:/Git/VL53L1/lib/core/src\vl53l1_api.c **** 
1059:D:/Git/VL53L1/lib/core/src\vl53l1_api.c **** 	if (Status == VL53L1_ERROR_NONE)
1060:D:/Git/VL53L1/lib/core/src\vl53l1_api.c **** 		Status = VL53L1_get_user_zone(Dev, &user_zone);
1061:D:/Git/VL53L1/lib/core/src\vl53l1_api.c **** 
1062:D:/Git/VL53L1/lib/core/src\vl53l1_api.c **** 	inter_measurement_period_ms =  VL53L1DevDataGet(Dev,
1063:D:/Git/VL53L1/lib/core/src\vl53l1_api.c **** 				LLData.inter_measurement_period_ms);
1064:D:/Git/VL53L1/lib/core/src\vl53l1_api.c **** 
1065:D:/Git/VL53L1/lib/core/src\vl53l1_api.c **** 	if (Status == VL53L1_ERROR_NONE)
1066:D:/Git/VL53L1/lib/core/src\vl53l1_api.c **** 		Status = VL53L1_get_timeouts_us(Dev, &PhaseCalTimeoutUs,
1067:D:/Git/VL53L1/lib/core/src\vl53l1_api.c **** 			&MmTimeoutUs, &TimingBudget);
1068:D:/Git/VL53L1/lib/core/src\vl53l1_api.c **** 
1069:D:/Git/VL53L1/lib/core/src\vl53l1_api.c **** 	if (Status == VL53L1_ERROR_NONE)
1070:D:/Git/VL53L1/lib/core/src\vl53l1_api.c **** 		Status = SetPresetMode(Dev,
1071:D:/Git/VL53L1/lib/core/src\vl53l1_api.c **** 				PresetMode,
1072:D:/Git/VL53L1/lib/core/src\vl53l1_api.c **** 				InternalDistanceMode,
1073:D:/Git/VL53L1/lib/core/src\vl53l1_api.c **** 				inter_measurement_period_ms);
1074:D:/Git/VL53L1/lib/core/src\vl53l1_api.c **** 
1075:D:/Git/VL53L1/lib/core/src\vl53l1_api.c **** 	if (Status == VL53L1_ERROR_NONE) {
1076:D:/Git/VL53L1/lib/core/src\vl53l1_api.c **** 		VL53L1DevDataSet(Dev, CurrentParameters.InternalDistanceMode,
1077:D:/Git/VL53L1/lib/core/src\vl53l1_api.c **** 				InternalDistanceMode);
1078:D:/Git/VL53L1/lib/core/src\vl53l1_api.c **** 		VL53L1DevDataSet(Dev, CurrentParameters.NewDistanceMode,
1079:D:/Git/VL53L1/lib/core/src\vl53l1_api.c **** 				InternalDistanceMode);
1080:D:/Git/VL53L1/lib/core/src\vl53l1_api.c **** 		VL53L1DevDataSet(Dev, CurrentParameters.DistanceMode,
1081:D:/Git/VL53L1/lib/core/src\vl53l1_api.c **** 				DistanceMode);
1082:D:/Git/VL53L1/lib/core/src\vl53l1_api.c **** 	}
1083:D:/Git/VL53L1/lib/core/src\vl53l1_api.c **** 
1084:D:/Git/VL53L1/lib/core/src\vl53l1_api.c **** 	if (Status == VL53L1_ERROR_NONE) {
ARM GAS  C:\Users\Berbardo\AppData\Local\Temp\ccpaHgls.s 			page 27


1085:D:/Git/VL53L1/lib/core/src\vl53l1_api.c **** 		Status = VL53L1_set_timeouts_us(Dev, PhaseCalTimeoutUs,
1086:D:/Git/VL53L1/lib/core/src\vl53l1_api.c **** 			MmTimeoutUs, TimingBudget);
1087:D:/Git/VL53L1/lib/core/src\vl53l1_api.c **** 
1088:D:/Git/VL53L1/lib/core/src\vl53l1_api.c **** 		if (Status == VL53L1_ERROR_NONE)
1089:D:/Git/VL53L1/lib/core/src\vl53l1_api.c **** 			VL53L1DevDataSet(Dev, LLData.range_config_timeout_us,
1090:D:/Git/VL53L1/lib/core/src\vl53l1_api.c **** 				TimingBudget);
1091:D:/Git/VL53L1/lib/core/src\vl53l1_api.c **** 	}
1092:D:/Git/VL53L1/lib/core/src\vl53l1_api.c **** 
1093:D:/Git/VL53L1/lib/core/src\vl53l1_api.c **** 	if (Status == VL53L1_ERROR_NONE)
1094:D:/Git/VL53L1/lib/core/src\vl53l1_api.c **** 		Status = VL53L1_set_user_zone(Dev, &user_zone);
1095:D:/Git/VL53L1/lib/core/src\vl53l1_api.c **** 
1096:D:/Git/VL53L1/lib/core/src\vl53l1_api.c **** 	LOG_FUNCTION_END(Status);
1097:D:/Git/VL53L1/lib/core/src\vl53l1_api.c **** 	return Status;
1098:D:/Git/VL53L1/lib/core/src\vl53l1_api.c **** }
1099:D:/Git/VL53L1/lib/core/src\vl53l1_api.c **** 
1100:D:/Git/VL53L1/lib/core/src\vl53l1_api.c **** VL53L1_Error VL53L1_GetDistanceMode(VL53L1_DEV Dev,
1101:D:/Git/VL53L1/lib/core/src\vl53l1_api.c **** 	VL53L1_DistanceModes *pDistanceMode)
1102:D:/Git/VL53L1/lib/core/src\vl53l1_api.c **** {
1103:D:/Git/VL53L1/lib/core/src\vl53l1_api.c **** 	VL53L1_Error Status = VL53L1_ERROR_NONE;
1104:D:/Git/VL53L1/lib/core/src\vl53l1_api.c **** 
1105:D:/Git/VL53L1/lib/core/src\vl53l1_api.c **** 	LOG_FUNCTION_START("");
1106:D:/Git/VL53L1/lib/core/src\vl53l1_api.c **** 
1107:D:/Git/VL53L1/lib/core/src\vl53l1_api.c **** 	*pDistanceMode = VL53L1DevDataGet(Dev, CurrentParameters.DistanceMode);
1108:D:/Git/VL53L1/lib/core/src\vl53l1_api.c **** 
1109:D:/Git/VL53L1/lib/core/src\vl53l1_api.c **** 	LOG_FUNCTION_END(Status);
1110:D:/Git/VL53L1/lib/core/src\vl53l1_api.c **** 	return Status;
1111:D:/Git/VL53L1/lib/core/src\vl53l1_api.c **** }
1112:D:/Git/VL53L1/lib/core/src\vl53l1_api.c **** 
1113:D:/Git/VL53L1/lib/core/src\vl53l1_api.c **** 
1114:D:/Git/VL53L1/lib/core/src\vl53l1_api.c **** 
1115:D:/Git/VL53L1/lib/core/src\vl53l1_api.c **** 
1116:D:/Git/VL53L1/lib/core/src\vl53l1_api.c **** VL53L1_Error VL53L1_SetMeasurementTimingBudgetMicroSeconds(VL53L1_DEV Dev,
1117:D:/Git/VL53L1/lib/core/src\vl53l1_api.c **** 	uint32_t MeasurementTimingBudgetMicroSeconds)
1118:D:/Git/VL53L1/lib/core/src\vl53l1_api.c **** {
1119:D:/Git/VL53L1/lib/core/src\vl53l1_api.c **** 	VL53L1_Error Status = VL53L1_ERROR_NONE;
1120:D:/Git/VL53L1/lib/core/src\vl53l1_api.c **** 	uint8_t Mm1Enabled;
1121:D:/Git/VL53L1/lib/core/src\vl53l1_api.c **** 	uint8_t Mm2Enabled;
1122:D:/Git/VL53L1/lib/core/src\vl53l1_api.c **** 	uint32_t TimingGuard;
1123:D:/Git/VL53L1/lib/core/src\vl53l1_api.c **** 	uint32_t divisor;
1124:D:/Git/VL53L1/lib/core/src\vl53l1_api.c **** 	uint32_t TimingBudget;
1125:D:/Git/VL53L1/lib/core/src\vl53l1_api.c **** 	uint32_t MmTimeoutUs;
1126:D:/Git/VL53L1/lib/core/src\vl53l1_api.c **** 	VL53L1_PresetModes PresetMode;
1127:D:/Git/VL53L1/lib/core/src\vl53l1_api.c **** 	uint32_t PhaseCalTimeoutUs;
1128:D:/Git/VL53L1/lib/core/src\vl53l1_api.c **** 	uint32_t vhv;
1129:D:/Git/VL53L1/lib/core/src\vl53l1_api.c **** 	int32_t vhv_loops;
1130:D:/Git/VL53L1/lib/core/src\vl53l1_api.c **** 	uint32_t FDAMaxTimingBudgetUs = FDA_MAX_TIMING_BUDGET_US;
1131:D:/Git/VL53L1/lib/core/src\vl53l1_api.c **** 
1132:D:/Git/VL53L1/lib/core/src\vl53l1_api.c **** 	LOG_FUNCTION_START("");
1133:D:/Git/VL53L1/lib/core/src\vl53l1_api.c **** 
1134:D:/Git/VL53L1/lib/core/src\vl53l1_api.c **** 	/* Timing budget is limited to 10 seconds */
1135:D:/Git/VL53L1/lib/core/src\vl53l1_api.c **** 	if (MeasurementTimingBudgetMicroSeconds > 10000000)
1136:D:/Git/VL53L1/lib/core/src\vl53l1_api.c **** 		Status = VL53L1_ERROR_INVALID_PARAMS;
1137:D:/Git/VL53L1/lib/core/src\vl53l1_api.c **** 
1138:D:/Git/VL53L1/lib/core/src\vl53l1_api.c **** 	if (Status == VL53L1_ERROR_NONE) {
1139:D:/Git/VL53L1/lib/core/src\vl53l1_api.c **** 		Status = VL53L1_GetSequenceStepEnable(Dev,
1140:D:/Git/VL53L1/lib/core/src\vl53l1_api.c **** 			VL53L1_SEQUENCESTEP_MM1, &Mm1Enabled);
1141:D:/Git/VL53L1/lib/core/src\vl53l1_api.c **** 	}
ARM GAS  C:\Users\Berbardo\AppData\Local\Temp\ccpaHgls.s 			page 28


1142:D:/Git/VL53L1/lib/core/src\vl53l1_api.c **** 
1143:D:/Git/VL53L1/lib/core/src\vl53l1_api.c **** 	if (Status == VL53L1_ERROR_NONE) {
1144:D:/Git/VL53L1/lib/core/src\vl53l1_api.c **** 		Status = VL53L1_GetSequenceStepEnable(Dev,
1145:D:/Git/VL53L1/lib/core/src\vl53l1_api.c **** 			VL53L1_SEQUENCESTEP_MM2, &Mm2Enabled);
1146:D:/Git/VL53L1/lib/core/src\vl53l1_api.c **** 	}
1147:D:/Git/VL53L1/lib/core/src\vl53l1_api.c **** 
1148:D:/Git/VL53L1/lib/core/src\vl53l1_api.c **** 	if (Status == VL53L1_ERROR_NONE)
1149:D:/Git/VL53L1/lib/core/src\vl53l1_api.c **** 		Status = VL53L1_get_timeouts_us(Dev,
1150:D:/Git/VL53L1/lib/core/src\vl53l1_api.c **** 			&PhaseCalTimeoutUs,
1151:D:/Git/VL53L1/lib/core/src\vl53l1_api.c **** 			&MmTimeoutUs,
1152:D:/Git/VL53L1/lib/core/src\vl53l1_api.c **** 			&TimingBudget);
1153:D:/Git/VL53L1/lib/core/src\vl53l1_api.c **** 
1154:D:/Git/VL53L1/lib/core/src\vl53l1_api.c **** 	if (Status == VL53L1_ERROR_NONE) {
1155:D:/Git/VL53L1/lib/core/src\vl53l1_api.c **** 		PresetMode = VL53L1DevDataGet(Dev, CurrentParameters.PresetMode);
1156:D:/Git/VL53L1/lib/core/src\vl53l1_api.c **** 
1157:D:/Git/VL53L1/lib/core/src\vl53l1_api.c **** 		TimingGuard = 0;
1158:D:/Git/VL53L1/lib/core/src\vl53l1_api.c **** 		divisor = 1;
1159:D:/Git/VL53L1/lib/core/src\vl53l1_api.c **** 		switch (PresetMode) {
1160:D:/Git/VL53L1/lib/core/src\vl53l1_api.c **** 		case VL53L1_PRESETMODE_LITE_RANGING:
1161:D:/Git/VL53L1/lib/core/src\vl53l1_api.c **** 			if ((Mm1Enabled == 1) || (Mm2Enabled == 1))
1162:D:/Git/VL53L1/lib/core/src\vl53l1_api.c **** 				TimingGuard = 5000;
1163:D:/Git/VL53L1/lib/core/src\vl53l1_api.c **** 			else
1164:D:/Git/VL53L1/lib/core/src\vl53l1_api.c **** 				TimingGuard = 1000;
1165:D:/Git/VL53L1/lib/core/src\vl53l1_api.c **** 		break;
1166:D:/Git/VL53L1/lib/core/src\vl53l1_api.c **** 
1167:D:/Git/VL53L1/lib/core/src\vl53l1_api.c **** 		case VL53L1_PRESETMODE_AUTONOMOUS:
1168:D:/Git/VL53L1/lib/core/src\vl53l1_api.c **** 			FDAMaxTimingBudgetUs *= 2;
1169:D:/Git/VL53L1/lib/core/src\vl53l1_api.c **** 			if ((Mm1Enabled == 1) || (Mm2Enabled == 1))
1170:D:/Git/VL53L1/lib/core/src\vl53l1_api.c **** 				TimingGuard = 26600;
1171:D:/Git/VL53L1/lib/core/src\vl53l1_api.c **** 			else
1172:D:/Git/VL53L1/lib/core/src\vl53l1_api.c **** 				TimingGuard = 21600;
1173:D:/Git/VL53L1/lib/core/src\vl53l1_api.c **** 			divisor = 2;
1174:D:/Git/VL53L1/lib/core/src\vl53l1_api.c **** 		break;
1175:D:/Git/VL53L1/lib/core/src\vl53l1_api.c **** 
1176:D:/Git/VL53L1/lib/core/src\vl53l1_api.c **** 		case VL53L1_PRESETMODE_LOWPOWER_AUTONOMOUS:
1177:D:/Git/VL53L1/lib/core/src\vl53l1_api.c **** 			FDAMaxTimingBudgetUs *= 2;
1178:D:/Git/VL53L1/lib/core/src\vl53l1_api.c **** 			vhv = LOWPOWER_AUTO_VHV_LOOP_DURATION_US;
1179:D:/Git/VL53L1/lib/core/src\vl53l1_api.c **** 			VL53L1_get_tuning_parm(Dev,
1180:D:/Git/VL53L1/lib/core/src\vl53l1_api.c **** 				VL53L1_TUNINGPARM_LOWPOWERAUTO_VHV_LOOP_BOUND,
1181:D:/Git/VL53L1/lib/core/src\vl53l1_api.c **** 				&vhv_loops);
1182:D:/Git/VL53L1/lib/core/src\vl53l1_api.c **** 			if (vhv_loops > 0) {
1183:D:/Git/VL53L1/lib/core/src\vl53l1_api.c **** 				vhv += vhv_loops *
1184:D:/Git/VL53L1/lib/core/src\vl53l1_api.c **** 					LOWPOWER_AUTO_VHV_LOOP_DURATION_US;
1185:D:/Git/VL53L1/lib/core/src\vl53l1_api.c **** 			}
1186:D:/Git/VL53L1/lib/core/src\vl53l1_api.c **** 			TimingGuard = LOWPOWER_AUTO_OVERHEAD_BEFORE_A_RANGING +
1187:D:/Git/VL53L1/lib/core/src\vl53l1_api.c **** 				LOWPOWER_AUTO_OVERHEAD_BETWEEN_A_B_RANGING +
1188:D:/Git/VL53L1/lib/core/src\vl53l1_api.c **** 				vhv;
1189:D:/Git/VL53L1/lib/core/src\vl53l1_api.c **** 			divisor = 2;
1190:D:/Git/VL53L1/lib/core/src\vl53l1_api.c **** 		break;
1191:D:/Git/VL53L1/lib/core/src\vl53l1_api.c **** 
1192:D:/Git/VL53L1/lib/core/src\vl53l1_api.c **** 		default:
1193:D:/Git/VL53L1/lib/core/src\vl53l1_api.c **** 			/* Unsupported mode */
1194:D:/Git/VL53L1/lib/core/src\vl53l1_api.c **** 			Status = VL53L1_ERROR_MODE_NOT_SUPPORTED;
1195:D:/Git/VL53L1/lib/core/src\vl53l1_api.c **** 		}
1196:D:/Git/VL53L1/lib/core/src\vl53l1_api.c **** 
1197:D:/Git/VL53L1/lib/core/src\vl53l1_api.c **** 		if (MeasurementTimingBudgetMicroSeconds <= TimingGuard)
1198:D:/Git/VL53L1/lib/core/src\vl53l1_api.c **** 			Status = VL53L1_ERROR_INVALID_PARAMS;
ARM GAS  C:\Users\Berbardo\AppData\Local\Temp\ccpaHgls.s 			page 29


1199:D:/Git/VL53L1/lib/core/src\vl53l1_api.c **** 		else {
1200:D:/Git/VL53L1/lib/core/src\vl53l1_api.c **** 			TimingBudget = (MeasurementTimingBudgetMicroSeconds
1201:D:/Git/VL53L1/lib/core/src\vl53l1_api.c **** 					- TimingGuard);
1202:D:/Git/VL53L1/lib/core/src\vl53l1_api.c **** 		}
1203:D:/Git/VL53L1/lib/core/src\vl53l1_api.c **** 
1204:D:/Git/VL53L1/lib/core/src\vl53l1_api.c **** 		if (Status == VL53L1_ERROR_NONE) {
1205:D:/Git/VL53L1/lib/core/src\vl53l1_api.c **** 			if (TimingBudget > FDAMaxTimingBudgetUs)
1206:D:/Git/VL53L1/lib/core/src\vl53l1_api.c **** 				Status = VL53L1_ERROR_INVALID_PARAMS;
1207:D:/Git/VL53L1/lib/core/src\vl53l1_api.c **** 			else {
1208:D:/Git/VL53L1/lib/core/src\vl53l1_api.c **** 				TimingBudget /= divisor;
1209:D:/Git/VL53L1/lib/core/src\vl53l1_api.c **** 				Status = VL53L1_set_timeouts_us(
1210:D:/Git/VL53L1/lib/core/src\vl53l1_api.c **** 					Dev,
1211:D:/Git/VL53L1/lib/core/src\vl53l1_api.c **** 					PhaseCalTimeoutUs,
1212:D:/Git/VL53L1/lib/core/src\vl53l1_api.c **** 					MmTimeoutUs,
1213:D:/Git/VL53L1/lib/core/src\vl53l1_api.c **** 					TimingBudget);
1214:D:/Git/VL53L1/lib/core/src\vl53l1_api.c **** 			}
1215:D:/Git/VL53L1/lib/core/src\vl53l1_api.c **** 
1216:D:/Git/VL53L1/lib/core/src\vl53l1_api.c **** 			if (Status == VL53L1_ERROR_NONE)
1217:D:/Git/VL53L1/lib/core/src\vl53l1_api.c **** 				VL53L1DevDataSet(Dev,
1218:D:/Git/VL53L1/lib/core/src\vl53l1_api.c **** 					LLData.range_config_timeout_us,
1219:D:/Git/VL53L1/lib/core/src\vl53l1_api.c **** 					TimingBudget);
1220:D:/Git/VL53L1/lib/core/src\vl53l1_api.c **** 		}
1221:D:/Git/VL53L1/lib/core/src\vl53l1_api.c **** 	}
1222:D:/Git/VL53L1/lib/core/src\vl53l1_api.c **** 	if (Status == VL53L1_ERROR_NONE) {
1223:D:/Git/VL53L1/lib/core/src\vl53l1_api.c **** 		VL53L1DevDataSet(Dev,
1224:D:/Git/VL53L1/lib/core/src\vl53l1_api.c **** 			CurrentParameters.MeasurementTimingBudgetMicroSeconds,
1225:D:/Git/VL53L1/lib/core/src\vl53l1_api.c **** 			MeasurementTimingBudgetMicroSeconds);
1226:D:/Git/VL53L1/lib/core/src\vl53l1_api.c **** 	}
1227:D:/Git/VL53L1/lib/core/src\vl53l1_api.c **** 
1228:D:/Git/VL53L1/lib/core/src\vl53l1_api.c **** 	LOG_FUNCTION_END(Status);
1229:D:/Git/VL53L1/lib/core/src\vl53l1_api.c **** 	return Status;
1230:D:/Git/VL53L1/lib/core/src\vl53l1_api.c **** }
1231:D:/Git/VL53L1/lib/core/src\vl53l1_api.c **** 
1232:D:/Git/VL53L1/lib/core/src\vl53l1_api.c **** 
1233:D:/Git/VL53L1/lib/core/src\vl53l1_api.c **** VL53L1_Error VL53L1_GetMeasurementTimingBudgetMicroSeconds(VL53L1_DEV Dev,
1234:D:/Git/VL53L1/lib/core/src\vl53l1_api.c **** 	uint32_t *pMeasurementTimingBudgetMicroSeconds)
1235:D:/Git/VL53L1/lib/core/src\vl53l1_api.c **** {
1236:D:/Git/VL53L1/lib/core/src\vl53l1_api.c **** 	VL53L1_Error Status = VL53L1_ERROR_NONE;
1237:D:/Git/VL53L1/lib/core/src\vl53l1_api.c **** 	uint8_t Mm1Enabled = 0;
1238:D:/Git/VL53L1/lib/core/src\vl53l1_api.c **** 	uint8_t Mm2Enabled = 0;
1239:D:/Git/VL53L1/lib/core/src\vl53l1_api.c **** 	uint32_t  MmTimeoutUs = 0;
1240:D:/Git/VL53L1/lib/core/src\vl53l1_api.c **** 	uint32_t  RangeTimeoutUs = 0;
1241:D:/Git/VL53L1/lib/core/src\vl53l1_api.c **** 	uint32_t  MeasTimingBdg = 0;
1242:D:/Git/VL53L1/lib/core/src\vl53l1_api.c **** 	uint32_t PhaseCalTimeoutUs = 0;
1243:D:/Git/VL53L1/lib/core/src\vl53l1_api.c **** 	VL53L1_PresetModes PresetMode;
1244:D:/Git/VL53L1/lib/core/src\vl53l1_api.c **** 	uint32_t TimingGuard;
1245:D:/Git/VL53L1/lib/core/src\vl53l1_api.c **** 	uint32_t vhv;
1246:D:/Git/VL53L1/lib/core/src\vl53l1_api.c **** 	int32_t vhv_loops;
1247:D:/Git/VL53L1/lib/core/src\vl53l1_api.c **** 
1248:D:/Git/VL53L1/lib/core/src\vl53l1_api.c **** 	LOG_FUNCTION_START("");
1249:D:/Git/VL53L1/lib/core/src\vl53l1_api.c **** 
1250:D:/Git/VL53L1/lib/core/src\vl53l1_api.c **** 	*pMeasurementTimingBudgetMicroSeconds = 0;
1251:D:/Git/VL53L1/lib/core/src\vl53l1_api.c **** 
1252:D:/Git/VL53L1/lib/core/src\vl53l1_api.c **** 	if (Status == VL53L1_ERROR_NONE)
1253:D:/Git/VL53L1/lib/core/src\vl53l1_api.c **** 		Status = VL53L1_GetSequenceStepEnable(Dev,
1254:D:/Git/VL53L1/lib/core/src\vl53l1_api.c **** 			VL53L1_SEQUENCESTEP_MM1, &Mm1Enabled);
1255:D:/Git/VL53L1/lib/core/src\vl53l1_api.c **** 
ARM GAS  C:\Users\Berbardo\AppData\Local\Temp\ccpaHgls.s 			page 30


1256:D:/Git/VL53L1/lib/core/src\vl53l1_api.c **** 	if (Status == VL53L1_ERROR_NONE)
1257:D:/Git/VL53L1/lib/core/src\vl53l1_api.c **** 		Status = VL53L1_GetSequenceStepEnable(Dev,
1258:D:/Git/VL53L1/lib/core/src\vl53l1_api.c **** 			VL53L1_SEQUENCESTEP_MM2, &Mm2Enabled);
1259:D:/Git/VL53L1/lib/core/src\vl53l1_api.c **** 
1260:D:/Git/VL53L1/lib/core/src\vl53l1_api.c **** 	if (Status == VL53L1_ERROR_NONE)
1261:D:/Git/VL53L1/lib/core/src\vl53l1_api.c **** 		Status = VL53L1_get_timeouts_us(Dev,
1262:D:/Git/VL53L1/lib/core/src\vl53l1_api.c **** 			&PhaseCalTimeoutUs,
1263:D:/Git/VL53L1/lib/core/src\vl53l1_api.c **** 			&MmTimeoutUs,
1264:D:/Git/VL53L1/lib/core/src\vl53l1_api.c **** 			&RangeTimeoutUs);
1265:D:/Git/VL53L1/lib/core/src\vl53l1_api.c **** 
1266:D:/Git/VL53L1/lib/core/src\vl53l1_api.c **** 	if (Status == VL53L1_ERROR_NONE) {
1267:D:/Git/VL53L1/lib/core/src\vl53l1_api.c **** 		PresetMode = VL53L1DevDataGet(Dev, CurrentParameters.PresetMode);
1268:D:/Git/VL53L1/lib/core/src\vl53l1_api.c **** 
1269:D:/Git/VL53L1/lib/core/src\vl53l1_api.c **** 		switch (PresetMode) {
1270:D:/Git/VL53L1/lib/core/src\vl53l1_api.c **** 		case VL53L1_PRESETMODE_LITE_RANGING:
1271:D:/Git/VL53L1/lib/core/src\vl53l1_api.c **** 			if ((Mm1Enabled == 1) || (Mm2Enabled == 1))
1272:D:/Git/VL53L1/lib/core/src\vl53l1_api.c **** 				MeasTimingBdg = RangeTimeoutUs + 5000;
1273:D:/Git/VL53L1/lib/core/src\vl53l1_api.c **** 			else
1274:D:/Git/VL53L1/lib/core/src\vl53l1_api.c **** 				MeasTimingBdg = RangeTimeoutUs + 1000;
1275:D:/Git/VL53L1/lib/core/src\vl53l1_api.c **** 
1276:D:/Git/VL53L1/lib/core/src\vl53l1_api.c **** 		break;
1277:D:/Git/VL53L1/lib/core/src\vl53l1_api.c **** 
1278:D:/Git/VL53L1/lib/core/src\vl53l1_api.c **** 		case VL53L1_PRESETMODE_AUTONOMOUS:
1279:D:/Git/VL53L1/lib/core/src\vl53l1_api.c **** 			if ((Mm1Enabled == 1) || (Mm2Enabled == 1))
1280:D:/Git/VL53L1/lib/core/src\vl53l1_api.c **** 				MeasTimingBdg = 2 * RangeTimeoutUs + 26600;
1281:D:/Git/VL53L1/lib/core/src\vl53l1_api.c **** 			else
1282:D:/Git/VL53L1/lib/core/src\vl53l1_api.c **** 				MeasTimingBdg = 2 * RangeTimeoutUs + 21600;
1283:D:/Git/VL53L1/lib/core/src\vl53l1_api.c **** 
1284:D:/Git/VL53L1/lib/core/src\vl53l1_api.c **** 		break;
1285:D:/Git/VL53L1/lib/core/src\vl53l1_api.c **** 
1286:D:/Git/VL53L1/lib/core/src\vl53l1_api.c **** 		case VL53L1_PRESETMODE_LOWPOWER_AUTONOMOUS:
1287:D:/Git/VL53L1/lib/core/src\vl53l1_api.c **** 			vhv = LOWPOWER_AUTO_VHV_LOOP_DURATION_US;
1288:D:/Git/VL53L1/lib/core/src\vl53l1_api.c **** 			VL53L1_get_tuning_parm(Dev,
1289:D:/Git/VL53L1/lib/core/src\vl53l1_api.c **** 				VL53L1_TUNINGPARM_LOWPOWERAUTO_VHV_LOOP_BOUND,
1290:D:/Git/VL53L1/lib/core/src\vl53l1_api.c **** 				&vhv_loops);
1291:D:/Git/VL53L1/lib/core/src\vl53l1_api.c **** 			if (vhv_loops > 0) {
1292:D:/Git/VL53L1/lib/core/src\vl53l1_api.c **** 				vhv += vhv_loops *
1293:D:/Git/VL53L1/lib/core/src\vl53l1_api.c **** 					LOWPOWER_AUTO_VHV_LOOP_DURATION_US;
1294:D:/Git/VL53L1/lib/core/src\vl53l1_api.c **** 			}
1295:D:/Git/VL53L1/lib/core/src\vl53l1_api.c **** 			TimingGuard = LOWPOWER_AUTO_OVERHEAD_BEFORE_A_RANGING +
1296:D:/Git/VL53L1/lib/core/src\vl53l1_api.c **** 				LOWPOWER_AUTO_OVERHEAD_BETWEEN_A_B_RANGING +
1297:D:/Git/VL53L1/lib/core/src\vl53l1_api.c **** 				vhv;
1298:D:/Git/VL53L1/lib/core/src\vl53l1_api.c **** 			MeasTimingBdg = 2 * RangeTimeoutUs + TimingGuard;
1299:D:/Git/VL53L1/lib/core/src\vl53l1_api.c **** 		break;
1300:D:/Git/VL53L1/lib/core/src\vl53l1_api.c **** 
1301:D:/Git/VL53L1/lib/core/src\vl53l1_api.c **** 		default:
1302:D:/Git/VL53L1/lib/core/src\vl53l1_api.c **** 			/* Unsupported mode */
1303:D:/Git/VL53L1/lib/core/src\vl53l1_api.c **** 			Status = VL53L1_ERROR_MODE_NOT_SUPPORTED;
1304:D:/Git/VL53L1/lib/core/src\vl53l1_api.c **** 		}
1305:D:/Git/VL53L1/lib/core/src\vl53l1_api.c **** 	}
1306:D:/Git/VL53L1/lib/core/src\vl53l1_api.c **** 	if (Status == VL53L1_ERROR_NONE)
1307:D:/Git/VL53L1/lib/core/src\vl53l1_api.c **** 		*pMeasurementTimingBudgetMicroSeconds = MeasTimingBdg;
1308:D:/Git/VL53L1/lib/core/src\vl53l1_api.c **** 
1309:D:/Git/VL53L1/lib/core/src\vl53l1_api.c **** 	LOG_FUNCTION_END(Status);
1310:D:/Git/VL53L1/lib/core/src\vl53l1_api.c **** 	return Status;
1311:D:/Git/VL53L1/lib/core/src\vl53l1_api.c **** }
1312:D:/Git/VL53L1/lib/core/src\vl53l1_api.c **** 
ARM GAS  C:\Users\Berbardo\AppData\Local\Temp\ccpaHgls.s 			page 31


1313:D:/Git/VL53L1/lib/core/src\vl53l1_api.c **** 
1314:D:/Git/VL53L1/lib/core/src\vl53l1_api.c **** 
1315:D:/Git/VL53L1/lib/core/src\vl53l1_api.c **** VL53L1_Error VL53L1_SetInterMeasurementPeriodMilliSeconds(VL53L1_DEV Dev,
1316:D:/Git/VL53L1/lib/core/src\vl53l1_api.c **** 	uint32_t InterMeasurementPeriodMilliSeconds)
1317:D:/Git/VL53L1/lib/core/src\vl53l1_api.c **** {
1318:D:/Git/VL53L1/lib/core/src\vl53l1_api.c **** 	VL53L1_Error Status = VL53L1_ERROR_NONE;
1319:D:/Git/VL53L1/lib/core/src\vl53l1_api.c **** 	uint32_t adjustedIMP;
1320:D:/Git/VL53L1/lib/core/src\vl53l1_api.c **** 
1321:D:/Git/VL53L1/lib/core/src\vl53l1_api.c **** 	LOG_FUNCTION_START("");
1322:D:/Git/VL53L1/lib/core/src\vl53l1_api.c **** 
1323:D:/Git/VL53L1/lib/core/src\vl53l1_api.c **** 	/* Fix for Ticket 468205 actual measurement period shorter than set */
1324:D:/Git/VL53L1/lib/core/src\vl53l1_api.c **** 	adjustedIMP = InterMeasurementPeriodMilliSeconds;
1325:D:/Git/VL53L1/lib/core/src\vl53l1_api.c **** 	adjustedIMP += (adjustedIMP * 64) / 1000;
1326:D:/Git/VL53L1/lib/core/src\vl53l1_api.c **** 	/* End of fix for Ticket 468205 */
1327:D:/Git/VL53L1/lib/core/src\vl53l1_api.c **** 	Status = VL53L1_set_inter_measurement_period_ms(Dev,
1328:D:/Git/VL53L1/lib/core/src\vl53l1_api.c **** 			adjustedIMP);
1329:D:/Git/VL53L1/lib/core/src\vl53l1_api.c **** 
1330:D:/Git/VL53L1/lib/core/src\vl53l1_api.c **** 	LOG_FUNCTION_END(Status);
1331:D:/Git/VL53L1/lib/core/src\vl53l1_api.c **** 	return Status;
1332:D:/Git/VL53L1/lib/core/src\vl53l1_api.c **** }
1333:D:/Git/VL53L1/lib/core/src\vl53l1_api.c **** 
1334:D:/Git/VL53L1/lib/core/src\vl53l1_api.c **** VL53L1_Error VL53L1_GetInterMeasurementPeriodMilliSeconds(VL53L1_DEV Dev,
1335:D:/Git/VL53L1/lib/core/src\vl53l1_api.c **** 	uint32_t *pInterMeasurementPeriodMilliSeconds)
1336:D:/Git/VL53L1/lib/core/src\vl53l1_api.c **** {
1337:D:/Git/VL53L1/lib/core/src\vl53l1_api.c **** 	VL53L1_Error Status = VL53L1_ERROR_NONE;
1338:D:/Git/VL53L1/lib/core/src\vl53l1_api.c **** 	uint32_t adjustedIMP;
1339:D:/Git/VL53L1/lib/core/src\vl53l1_api.c **** 
1340:D:/Git/VL53L1/lib/core/src\vl53l1_api.c **** 	LOG_FUNCTION_START("");
1341:D:/Git/VL53L1/lib/core/src\vl53l1_api.c **** 
1342:D:/Git/VL53L1/lib/core/src\vl53l1_api.c **** 	Status = VL53L1_get_inter_measurement_period_ms(Dev, &adjustedIMP);
1343:D:/Git/VL53L1/lib/core/src\vl53l1_api.c **** 	/* Fix for Ticket 468205 actual measurement period shorter than set */
1344:D:/Git/VL53L1/lib/core/src\vl53l1_api.c **** 	adjustedIMP -= (adjustedIMP * 64) / 1000;
1345:D:/Git/VL53L1/lib/core/src\vl53l1_api.c **** 	*pInterMeasurementPeriodMilliSeconds = adjustedIMP;
1346:D:/Git/VL53L1/lib/core/src\vl53l1_api.c **** 	/* End of fix for Ticket 468205 */
1347:D:/Git/VL53L1/lib/core/src\vl53l1_api.c **** 
1348:D:/Git/VL53L1/lib/core/src\vl53l1_api.c **** 	LOG_FUNCTION_END(Status);
1349:D:/Git/VL53L1/lib/core/src\vl53l1_api.c **** 	return Status;
1350:D:/Git/VL53L1/lib/core/src\vl53l1_api.c **** }
1351:D:/Git/VL53L1/lib/core/src\vl53l1_api.c **** 
1352:D:/Git/VL53L1/lib/core/src\vl53l1_api.c **** 
1353:D:/Git/VL53L1/lib/core/src\vl53l1_api.c **** /* End Group PAL Parameters Functions */
1354:D:/Git/VL53L1/lib/core/src\vl53l1_api.c **** 
1355:D:/Git/VL53L1/lib/core/src\vl53l1_api.c **** 
1356:D:/Git/VL53L1/lib/core/src\vl53l1_api.c **** /* Group Limit check Functions */
1357:D:/Git/VL53L1/lib/core/src\vl53l1_api.c **** 
1358:D:/Git/VL53L1/lib/core/src\vl53l1_api.c **** VL53L1_Error VL53L1_GetNumberOfLimitCheck(uint16_t *pNumberOfLimitCheck)
1359:D:/Git/VL53L1/lib/core/src\vl53l1_api.c **** {
1360:D:/Git/VL53L1/lib/core/src\vl53l1_api.c **** 	VL53L1_Error Status = VL53L1_ERROR_NONE;
1361:D:/Git/VL53L1/lib/core/src\vl53l1_api.c **** 
1362:D:/Git/VL53L1/lib/core/src\vl53l1_api.c **** 	LOG_FUNCTION_START("");
1363:D:/Git/VL53L1/lib/core/src\vl53l1_api.c **** 
1364:D:/Git/VL53L1/lib/core/src\vl53l1_api.c **** 	*pNumberOfLimitCheck = VL53L1_CHECKENABLE_NUMBER_OF_CHECKS;
1365:D:/Git/VL53L1/lib/core/src\vl53l1_api.c **** 
1366:D:/Git/VL53L1/lib/core/src\vl53l1_api.c **** 	LOG_FUNCTION_END(Status);
1367:D:/Git/VL53L1/lib/core/src\vl53l1_api.c **** 	return Status;
1368:D:/Git/VL53L1/lib/core/src\vl53l1_api.c **** }
1369:D:/Git/VL53L1/lib/core/src\vl53l1_api.c **** 
ARM GAS  C:\Users\Berbardo\AppData\Local\Temp\ccpaHgls.s 			page 32


1370:D:/Git/VL53L1/lib/core/src\vl53l1_api.c **** VL53L1_Error VL53L1_GetLimitCheckInfo(uint16_t LimitCheckId,
1371:D:/Git/VL53L1/lib/core/src\vl53l1_api.c **** 	char *pLimitCheckString)
1372:D:/Git/VL53L1/lib/core/src\vl53l1_api.c **** {
1373:D:/Git/VL53L1/lib/core/src\vl53l1_api.c **** 	VL53L1_Error Status = VL53L1_ERROR_NONE;
1374:D:/Git/VL53L1/lib/core/src\vl53l1_api.c **** 
1375:D:/Git/VL53L1/lib/core/src\vl53l1_api.c **** 	LOG_FUNCTION_START("");
1376:D:/Git/VL53L1/lib/core/src\vl53l1_api.c **** 
1377:D:/Git/VL53L1/lib/core/src\vl53l1_api.c **** 	Status = VL53L1_get_limit_check_info(LimitCheckId,
1378:D:/Git/VL53L1/lib/core/src\vl53l1_api.c **** 		pLimitCheckString);
1379:D:/Git/VL53L1/lib/core/src\vl53l1_api.c **** 
1380:D:/Git/VL53L1/lib/core/src\vl53l1_api.c **** 	LOG_FUNCTION_END(Status);
1381:D:/Git/VL53L1/lib/core/src\vl53l1_api.c **** 	return Status;
1382:D:/Git/VL53L1/lib/core/src\vl53l1_api.c **** }
1383:D:/Git/VL53L1/lib/core/src\vl53l1_api.c **** 
1384:D:/Git/VL53L1/lib/core/src\vl53l1_api.c **** VL53L1_Error VL53L1_GetLimitCheckStatus(VL53L1_DEV Dev, uint16_t LimitCheckId,
1385:D:/Git/VL53L1/lib/core/src\vl53l1_api.c **** 	uint8_t *pLimitCheckStatus)
1386:D:/Git/VL53L1/lib/core/src\vl53l1_api.c **** {
1387:D:/Git/VL53L1/lib/core/src\vl53l1_api.c **** 	VL53L1_Error Status = VL53L1_ERROR_NONE;
1388:D:/Git/VL53L1/lib/core/src\vl53l1_api.c **** 	uint8_t Temp8;
1389:D:/Git/VL53L1/lib/core/src\vl53l1_api.c **** 
1390:D:/Git/VL53L1/lib/core/src\vl53l1_api.c **** 	LOG_FUNCTION_START("");
1391:D:/Git/VL53L1/lib/core/src\vl53l1_api.c **** 
1392:D:/Git/VL53L1/lib/core/src\vl53l1_api.c **** 	if (LimitCheckId >= VL53L1_CHECKENABLE_NUMBER_OF_CHECKS) {
1393:D:/Git/VL53L1/lib/core/src\vl53l1_api.c **** 		Status = VL53L1_ERROR_INVALID_PARAMS;
1394:D:/Git/VL53L1/lib/core/src\vl53l1_api.c **** 	} else {
1395:D:/Git/VL53L1/lib/core/src\vl53l1_api.c **** 		VL53L1_GETARRAYPARAMETERFIELD(Dev, LimitChecksStatus,
1396:D:/Git/VL53L1/lib/core/src\vl53l1_api.c **** 			LimitCheckId, Temp8);
1397:D:/Git/VL53L1/lib/core/src\vl53l1_api.c **** 		*pLimitCheckStatus = Temp8;
1398:D:/Git/VL53L1/lib/core/src\vl53l1_api.c **** 	}
1399:D:/Git/VL53L1/lib/core/src\vl53l1_api.c **** 
1400:D:/Git/VL53L1/lib/core/src\vl53l1_api.c **** 	LOG_FUNCTION_END(Status);
1401:D:/Git/VL53L1/lib/core/src\vl53l1_api.c **** 	return Status;
1402:D:/Git/VL53L1/lib/core/src\vl53l1_api.c **** }
1403:D:/Git/VL53L1/lib/core/src\vl53l1_api.c **** 
1404:D:/Git/VL53L1/lib/core/src\vl53l1_api.c **** static VL53L1_Error SetLimitValue(VL53L1_DEV Dev, uint16_t LimitCheckId,
1405:D:/Git/VL53L1/lib/core/src\vl53l1_api.c **** 		FixPoint1616_t value)
1406:D:/Git/VL53L1/lib/core/src\vl53l1_api.c **** {
1407:D:/Git/VL53L1/lib/core/src\vl53l1_api.c **** 	VL53L1_Error Status = VL53L1_ERROR_NONE;
1408:D:/Git/VL53L1/lib/core/src\vl53l1_api.c **** 	uint16_t tmpuint16; /* temporary variable */
1409:D:/Git/VL53L1/lib/core/src\vl53l1_api.c **** 
1410:D:/Git/VL53L1/lib/core/src\vl53l1_api.c **** 	LOG_FUNCTION_START("");
1411:D:/Git/VL53L1/lib/core/src\vl53l1_api.c **** 
1412:D:/Git/VL53L1/lib/core/src\vl53l1_api.c **** 	switch (LimitCheckId) {
1413:D:/Git/VL53L1/lib/core/src\vl53l1_api.c **** 	case VL53L1_CHECKENABLE_SIGMA_FINAL_RANGE:
1414:D:/Git/VL53L1/lib/core/src\vl53l1_api.c **** 		tmpuint16 = VL53L1_FIXPOINT1616TOFIXPOINT142(value);
1415:D:/Git/VL53L1/lib/core/src\vl53l1_api.c **** 		VL53L1_set_lite_sigma_threshold(Dev, tmpuint16);
1416:D:/Git/VL53L1/lib/core/src\vl53l1_api.c **** 		break;
1417:D:/Git/VL53L1/lib/core/src\vl53l1_api.c **** 	case VL53L1_CHECKENABLE_SIGNAL_RATE_FINAL_RANGE:
1418:D:/Git/VL53L1/lib/core/src\vl53l1_api.c **** 		tmpuint16 = VL53L1_FIXPOINT1616TOFIXPOINT97(value);
1419:D:/Git/VL53L1/lib/core/src\vl53l1_api.c **** 		VL53L1_set_lite_min_count_rate(Dev, tmpuint16);
1420:D:/Git/VL53L1/lib/core/src\vl53l1_api.c **** 		break;
1421:D:/Git/VL53L1/lib/core/src\vl53l1_api.c **** 	default:
1422:D:/Git/VL53L1/lib/core/src\vl53l1_api.c **** 		Status = VL53L1_ERROR_INVALID_PARAMS;
1423:D:/Git/VL53L1/lib/core/src\vl53l1_api.c **** 	}
1424:D:/Git/VL53L1/lib/core/src\vl53l1_api.c **** 
1425:D:/Git/VL53L1/lib/core/src\vl53l1_api.c **** 	LOG_FUNCTION_END(Status);
1426:D:/Git/VL53L1/lib/core/src\vl53l1_api.c **** 	return Status;
ARM GAS  C:\Users\Berbardo\AppData\Local\Temp\ccpaHgls.s 			page 33


1427:D:/Git/VL53L1/lib/core/src\vl53l1_api.c **** }
1428:D:/Git/VL53L1/lib/core/src\vl53l1_api.c **** 
1429:D:/Git/VL53L1/lib/core/src\vl53l1_api.c **** 
1430:D:/Git/VL53L1/lib/core/src\vl53l1_api.c **** VL53L1_Error VL53L1_SetLimitCheckEnable(VL53L1_DEV Dev, uint16_t LimitCheckId,
1431:D:/Git/VL53L1/lib/core/src\vl53l1_api.c **** 	uint8_t LimitCheckEnable)
1432:D:/Git/VL53L1/lib/core/src\vl53l1_api.c **** {
1433:D:/Git/VL53L1/lib/core/src\vl53l1_api.c **** 	VL53L1_Error Status = VL53L1_ERROR_NONE;
1434:D:/Git/VL53L1/lib/core/src\vl53l1_api.c **** 	FixPoint1616_t TempFix1616 = 0;
1435:D:/Git/VL53L1/lib/core/src\vl53l1_api.c **** 
1436:D:/Git/VL53L1/lib/core/src\vl53l1_api.c **** 	LOG_FUNCTION_START("");
1437:D:/Git/VL53L1/lib/core/src\vl53l1_api.c **** 
1438:D:/Git/VL53L1/lib/core/src\vl53l1_api.c **** 
1439:D:/Git/VL53L1/lib/core/src\vl53l1_api.c **** 	if (LimitCheckId >= VL53L1_CHECKENABLE_NUMBER_OF_CHECKS) {
1440:D:/Git/VL53L1/lib/core/src\vl53l1_api.c **** 		Status = VL53L1_ERROR_INVALID_PARAMS;
1441:D:/Git/VL53L1/lib/core/src\vl53l1_api.c **** 	} else {
1442:D:/Git/VL53L1/lib/core/src\vl53l1_api.c **** 		/* TempFix1616 contains either 0 or the limit value */
1443:D:/Git/VL53L1/lib/core/src\vl53l1_api.c **** 		if (LimitCheckEnable == 0)
1444:D:/Git/VL53L1/lib/core/src\vl53l1_api.c **** 			TempFix1616 = 0;
1445:D:/Git/VL53L1/lib/core/src\vl53l1_api.c **** 		else
1446:D:/Git/VL53L1/lib/core/src\vl53l1_api.c **** 			VL53L1_GETARRAYPARAMETERFIELD(Dev, LimitChecksValue,
1447:D:/Git/VL53L1/lib/core/src\vl53l1_api.c **** 				LimitCheckId, TempFix1616);
1448:D:/Git/VL53L1/lib/core/src\vl53l1_api.c **** 
1449:D:/Git/VL53L1/lib/core/src\vl53l1_api.c **** 		Status = SetLimitValue(Dev, LimitCheckId, TempFix1616);
1450:D:/Git/VL53L1/lib/core/src\vl53l1_api.c **** 	}
1451:D:/Git/VL53L1/lib/core/src\vl53l1_api.c **** 
1452:D:/Git/VL53L1/lib/core/src\vl53l1_api.c **** 	if (Status == VL53L1_ERROR_NONE)
1453:D:/Git/VL53L1/lib/core/src\vl53l1_api.c **** 		VL53L1_SETARRAYPARAMETERFIELD(Dev,
1454:D:/Git/VL53L1/lib/core/src\vl53l1_api.c **** 			LimitChecksEnable,
1455:D:/Git/VL53L1/lib/core/src\vl53l1_api.c **** 			LimitCheckId,
1456:D:/Git/VL53L1/lib/core/src\vl53l1_api.c **** 			((LimitCheckEnable == 0) ? 0 : 1));
1457:D:/Git/VL53L1/lib/core/src\vl53l1_api.c **** 
1458:D:/Git/VL53L1/lib/core/src\vl53l1_api.c **** 
1459:D:/Git/VL53L1/lib/core/src\vl53l1_api.c **** 
1460:D:/Git/VL53L1/lib/core/src\vl53l1_api.c **** 	LOG_FUNCTION_END(Status);
1461:D:/Git/VL53L1/lib/core/src\vl53l1_api.c **** 	return Status;
1462:D:/Git/VL53L1/lib/core/src\vl53l1_api.c **** }
1463:D:/Git/VL53L1/lib/core/src\vl53l1_api.c **** 
1464:D:/Git/VL53L1/lib/core/src\vl53l1_api.c **** VL53L1_Error VL53L1_GetLimitCheckEnable(VL53L1_DEV Dev, uint16_t LimitCheckId,
1465:D:/Git/VL53L1/lib/core/src\vl53l1_api.c **** 	uint8_t *pLimitCheckEnable)
1466:D:/Git/VL53L1/lib/core/src\vl53l1_api.c **** {
1467:D:/Git/VL53L1/lib/core/src\vl53l1_api.c **** 	VL53L1_Error Status = VL53L1_ERROR_NONE;
1468:D:/Git/VL53L1/lib/core/src\vl53l1_api.c **** 	uint8_t Temp8;
1469:D:/Git/VL53L1/lib/core/src\vl53l1_api.c **** 
1470:D:/Git/VL53L1/lib/core/src\vl53l1_api.c **** 	LOG_FUNCTION_START("");
1471:D:/Git/VL53L1/lib/core/src\vl53l1_api.c **** 
1472:D:/Git/VL53L1/lib/core/src\vl53l1_api.c **** 	if (LimitCheckId >= VL53L1_CHECKENABLE_NUMBER_OF_CHECKS) {
1473:D:/Git/VL53L1/lib/core/src\vl53l1_api.c **** 		Status = VL53L1_ERROR_INVALID_PARAMS;
1474:D:/Git/VL53L1/lib/core/src\vl53l1_api.c **** 		*pLimitCheckEnable = 0;
1475:D:/Git/VL53L1/lib/core/src\vl53l1_api.c **** 	} else {
1476:D:/Git/VL53L1/lib/core/src\vl53l1_api.c **** 		VL53L1_GETARRAYPARAMETERFIELD(Dev, LimitChecksEnable,
1477:D:/Git/VL53L1/lib/core/src\vl53l1_api.c **** 			LimitCheckId, Temp8);
1478:D:/Git/VL53L1/lib/core/src\vl53l1_api.c **** 		*pLimitCheckEnable = Temp8;
1479:D:/Git/VL53L1/lib/core/src\vl53l1_api.c **** 	}
1480:D:/Git/VL53L1/lib/core/src\vl53l1_api.c **** 
1481:D:/Git/VL53L1/lib/core/src\vl53l1_api.c **** 
1482:D:/Git/VL53L1/lib/core/src\vl53l1_api.c **** 	LOG_FUNCTION_END(Status);
1483:D:/Git/VL53L1/lib/core/src\vl53l1_api.c **** 	return Status;
ARM GAS  C:\Users\Berbardo\AppData\Local\Temp\ccpaHgls.s 			page 34


1484:D:/Git/VL53L1/lib/core/src\vl53l1_api.c **** }
1485:D:/Git/VL53L1/lib/core/src\vl53l1_api.c **** 
1486:D:/Git/VL53L1/lib/core/src\vl53l1_api.c **** VL53L1_Error VL53L1_SetLimitCheckValue(VL53L1_DEV Dev, uint16_t LimitCheckId,
1487:D:/Git/VL53L1/lib/core/src\vl53l1_api.c **** 	FixPoint1616_t LimitCheckValue)
1488:D:/Git/VL53L1/lib/core/src\vl53l1_api.c **** {
1489:D:/Git/VL53L1/lib/core/src\vl53l1_api.c **** 	VL53L1_Error Status = VL53L1_ERROR_NONE;
1490:D:/Git/VL53L1/lib/core/src\vl53l1_api.c **** 	uint8_t LimitChecksEnable;
1491:D:/Git/VL53L1/lib/core/src\vl53l1_api.c **** 
1492:D:/Git/VL53L1/lib/core/src\vl53l1_api.c **** 	LOG_FUNCTION_START("");
1493:D:/Git/VL53L1/lib/core/src\vl53l1_api.c **** 
1494:D:/Git/VL53L1/lib/core/src\vl53l1_api.c **** 	if (LimitCheckId >= VL53L1_CHECKENABLE_NUMBER_OF_CHECKS) {
1495:D:/Git/VL53L1/lib/core/src\vl53l1_api.c **** 		Status = VL53L1_ERROR_INVALID_PARAMS;
1496:D:/Git/VL53L1/lib/core/src\vl53l1_api.c **** 	} else {
1497:D:/Git/VL53L1/lib/core/src\vl53l1_api.c **** 
1498:D:/Git/VL53L1/lib/core/src\vl53l1_api.c **** 		VL53L1_GETARRAYPARAMETERFIELD(Dev, LimitChecksEnable,
1499:D:/Git/VL53L1/lib/core/src\vl53l1_api.c **** 				LimitCheckId,
1500:D:/Git/VL53L1/lib/core/src\vl53l1_api.c **** 				LimitChecksEnable);
1501:D:/Git/VL53L1/lib/core/src\vl53l1_api.c **** 
1502:D:/Git/VL53L1/lib/core/src\vl53l1_api.c **** 		if (LimitChecksEnable == 0) {
1503:D:/Git/VL53L1/lib/core/src\vl53l1_api.c **** 			/* disabled write only internal value */
1504:D:/Git/VL53L1/lib/core/src\vl53l1_api.c **** 			VL53L1_SETARRAYPARAMETERFIELD(Dev, LimitChecksValue,
1505:D:/Git/VL53L1/lib/core/src\vl53l1_api.c **** 				LimitCheckId, LimitCheckValue);
1506:D:/Git/VL53L1/lib/core/src\vl53l1_api.c **** 		} else {
1507:D:/Git/VL53L1/lib/core/src\vl53l1_api.c **** 
1508:D:/Git/VL53L1/lib/core/src\vl53l1_api.c **** 			Status = SetLimitValue(Dev, LimitCheckId,
1509:D:/Git/VL53L1/lib/core/src\vl53l1_api.c **** 					LimitCheckValue);
1510:D:/Git/VL53L1/lib/core/src\vl53l1_api.c **** 
1511:D:/Git/VL53L1/lib/core/src\vl53l1_api.c **** 			if (Status == VL53L1_ERROR_NONE) {
1512:D:/Git/VL53L1/lib/core/src\vl53l1_api.c **** 				VL53L1_SETARRAYPARAMETERFIELD(Dev,
1513:D:/Git/VL53L1/lib/core/src\vl53l1_api.c **** 					LimitChecksValue,
1514:D:/Git/VL53L1/lib/core/src\vl53l1_api.c **** 					LimitCheckId, LimitCheckValue);
1515:D:/Git/VL53L1/lib/core/src\vl53l1_api.c **** 			}
1516:D:/Git/VL53L1/lib/core/src\vl53l1_api.c **** 		}
1517:D:/Git/VL53L1/lib/core/src\vl53l1_api.c **** 	}
1518:D:/Git/VL53L1/lib/core/src\vl53l1_api.c **** 
1519:D:/Git/VL53L1/lib/core/src\vl53l1_api.c **** 	LOG_FUNCTION_END(Status);
1520:D:/Git/VL53L1/lib/core/src\vl53l1_api.c **** 	return Status;
1521:D:/Git/VL53L1/lib/core/src\vl53l1_api.c **** }
1522:D:/Git/VL53L1/lib/core/src\vl53l1_api.c **** 
1523:D:/Git/VL53L1/lib/core/src\vl53l1_api.c **** VL53L1_Error VL53L1_GetLimitCheckValue(VL53L1_DEV Dev, uint16_t LimitCheckId,
1524:D:/Git/VL53L1/lib/core/src\vl53l1_api.c **** 	FixPoint1616_t *pLimitCheckValue)
1525:D:/Git/VL53L1/lib/core/src\vl53l1_api.c **** {
1526:D:/Git/VL53L1/lib/core/src\vl53l1_api.c **** 	VL53L1_Error Status = VL53L1_ERROR_NONE;
1527:D:/Git/VL53L1/lib/core/src\vl53l1_api.c **** 	uint16_t MinCountRate;
1528:D:/Git/VL53L1/lib/core/src\vl53l1_api.c **** 	FixPoint1616_t TempFix1616;
1529:D:/Git/VL53L1/lib/core/src\vl53l1_api.c **** 	uint16_t SigmaThresh;
1530:D:/Git/VL53L1/lib/core/src\vl53l1_api.c **** 
1531:D:/Git/VL53L1/lib/core/src\vl53l1_api.c **** 	LOG_FUNCTION_START("");
1532:D:/Git/VL53L1/lib/core/src\vl53l1_api.c **** 
1533:D:/Git/VL53L1/lib/core/src\vl53l1_api.c **** 	switch (LimitCheckId) {
1534:D:/Git/VL53L1/lib/core/src\vl53l1_api.c **** 	case VL53L1_CHECKENABLE_SIGMA_FINAL_RANGE:
1535:D:/Git/VL53L1/lib/core/src\vl53l1_api.c **** 		Status = VL53L1_get_lite_sigma_threshold(Dev, &SigmaThresh);
1536:D:/Git/VL53L1/lib/core/src\vl53l1_api.c **** 		TempFix1616 = VL53L1_FIXPOINT142TOFIXPOINT1616(SigmaThresh);
1537:D:/Git/VL53L1/lib/core/src\vl53l1_api.c **** 		break;
1538:D:/Git/VL53L1/lib/core/src\vl53l1_api.c **** 	case VL53L1_CHECKENABLE_SIGNAL_RATE_FINAL_RANGE:
1539:D:/Git/VL53L1/lib/core/src\vl53l1_api.c **** 		Status = VL53L1_get_lite_min_count_rate(Dev, &MinCountRate);
1540:D:/Git/VL53L1/lib/core/src\vl53l1_api.c **** 		TempFix1616 = VL53L1_FIXPOINT97TOFIXPOINT1616(MinCountRate);
ARM GAS  C:\Users\Berbardo\AppData\Local\Temp\ccpaHgls.s 			page 35


1541:D:/Git/VL53L1/lib/core/src\vl53l1_api.c **** 		break;
1542:D:/Git/VL53L1/lib/core/src\vl53l1_api.c **** 	default:
1543:D:/Git/VL53L1/lib/core/src\vl53l1_api.c **** 		Status = VL53L1_ERROR_INVALID_PARAMS;
1544:D:/Git/VL53L1/lib/core/src\vl53l1_api.c **** 	}
1545:D:/Git/VL53L1/lib/core/src\vl53l1_api.c **** 
1546:D:/Git/VL53L1/lib/core/src\vl53l1_api.c **** 	if (Status == VL53L1_ERROR_NONE) {
1547:D:/Git/VL53L1/lib/core/src\vl53l1_api.c **** 
1548:D:/Git/VL53L1/lib/core/src\vl53l1_api.c **** 		if (TempFix1616 == 0) {
1549:D:/Git/VL53L1/lib/core/src\vl53l1_api.c **** 			/* disabled: return value from memory */
1550:D:/Git/VL53L1/lib/core/src\vl53l1_api.c **** 			VL53L1_GETARRAYPARAMETERFIELD(Dev,
1551:D:/Git/VL53L1/lib/core/src\vl53l1_api.c **** 				LimitChecksValue, LimitCheckId,
1552:D:/Git/VL53L1/lib/core/src\vl53l1_api.c **** 				TempFix1616);
1553:D:/Git/VL53L1/lib/core/src\vl53l1_api.c **** 			*pLimitCheckValue = TempFix1616;
1554:D:/Git/VL53L1/lib/core/src\vl53l1_api.c **** 			VL53L1_SETARRAYPARAMETERFIELD(Dev,
1555:D:/Git/VL53L1/lib/core/src\vl53l1_api.c **** 				LimitChecksEnable, LimitCheckId, 0);
1556:D:/Git/VL53L1/lib/core/src\vl53l1_api.c **** 		} else {
1557:D:/Git/VL53L1/lib/core/src\vl53l1_api.c **** 			*pLimitCheckValue = TempFix1616;
1558:D:/Git/VL53L1/lib/core/src\vl53l1_api.c **** 			VL53L1_SETARRAYPARAMETERFIELD(Dev,
1559:D:/Git/VL53L1/lib/core/src\vl53l1_api.c **** 				LimitChecksValue, LimitCheckId,
1560:D:/Git/VL53L1/lib/core/src\vl53l1_api.c **** 				TempFix1616);
1561:D:/Git/VL53L1/lib/core/src\vl53l1_api.c **** 			VL53L1_SETARRAYPARAMETERFIELD(Dev,
1562:D:/Git/VL53L1/lib/core/src\vl53l1_api.c **** 				LimitChecksEnable, LimitCheckId, 1);
1563:D:/Git/VL53L1/lib/core/src\vl53l1_api.c **** 		}
1564:D:/Git/VL53L1/lib/core/src\vl53l1_api.c **** 	}
1565:D:/Git/VL53L1/lib/core/src\vl53l1_api.c **** 	LOG_FUNCTION_END(Status);
1566:D:/Git/VL53L1/lib/core/src\vl53l1_api.c **** 	return Status;
1567:D:/Git/VL53L1/lib/core/src\vl53l1_api.c **** 
1568:D:/Git/VL53L1/lib/core/src\vl53l1_api.c **** }
1569:D:/Git/VL53L1/lib/core/src\vl53l1_api.c **** 
1570:D:/Git/VL53L1/lib/core/src\vl53l1_api.c **** VL53L1_Error VL53L1_GetLimitCheckCurrent(VL53L1_DEV Dev, uint16_t LimitCheckId,
1571:D:/Git/VL53L1/lib/core/src\vl53l1_api.c **** 	FixPoint1616_t *pLimitCheckCurrent)
1572:D:/Git/VL53L1/lib/core/src\vl53l1_api.c **** {
1573:D:/Git/VL53L1/lib/core/src\vl53l1_api.c **** 	VL53L1_Error Status = VL53L1_ERROR_NONE;
1574:D:/Git/VL53L1/lib/core/src\vl53l1_api.c **** 	FixPoint1616_t TempFix1616 = 0;
1575:D:/Git/VL53L1/lib/core/src\vl53l1_api.c **** 
1576:D:/Git/VL53L1/lib/core/src\vl53l1_api.c **** 	LOG_FUNCTION_START("");
1577:D:/Git/VL53L1/lib/core/src\vl53l1_api.c **** 
1578:D:/Git/VL53L1/lib/core/src\vl53l1_api.c **** 	if (LimitCheckId >= VL53L1_CHECKENABLE_NUMBER_OF_CHECKS) {
1579:D:/Git/VL53L1/lib/core/src\vl53l1_api.c **** 		Status = VL53L1_ERROR_INVALID_PARAMS;
1580:D:/Git/VL53L1/lib/core/src\vl53l1_api.c **** 	} else {
1581:D:/Git/VL53L1/lib/core/src\vl53l1_api.c **** 		VL53L1_GETARRAYPARAMETERFIELD(Dev, LimitChecksCurrent,
1582:D:/Git/VL53L1/lib/core/src\vl53l1_api.c **** 			LimitCheckId, TempFix1616);
1583:D:/Git/VL53L1/lib/core/src\vl53l1_api.c **** 		*pLimitCheckCurrent = TempFix1616;
1584:D:/Git/VL53L1/lib/core/src\vl53l1_api.c **** 	}
1585:D:/Git/VL53L1/lib/core/src\vl53l1_api.c **** 
1586:D:/Git/VL53L1/lib/core/src\vl53l1_api.c **** 	LOG_FUNCTION_END(Status);
1587:D:/Git/VL53L1/lib/core/src\vl53l1_api.c **** 	return Status;
1588:D:/Git/VL53L1/lib/core/src\vl53l1_api.c **** 
1589:D:/Git/VL53L1/lib/core/src\vl53l1_api.c **** }
1590:D:/Git/VL53L1/lib/core/src\vl53l1_api.c **** 
1591:D:/Git/VL53L1/lib/core/src\vl53l1_api.c **** /* End Group Limit check Functions */
1592:D:/Git/VL53L1/lib/core/src\vl53l1_api.c **** 
1593:D:/Git/VL53L1/lib/core/src\vl53l1_api.c **** 
1594:D:/Git/VL53L1/lib/core/src\vl53l1_api.c **** 
1595:D:/Git/VL53L1/lib/core/src\vl53l1_api.c **** /* Group ROI Functions */
1596:D:/Git/VL53L1/lib/core/src\vl53l1_api.c **** 
1597:D:/Git/VL53L1/lib/core/src\vl53l1_api.c **** VL53L1_Error VL53L1_SetUserROI(VL53L1_DEV Dev,
ARM GAS  C:\Users\Berbardo\AppData\Local\Temp\ccpaHgls.s 			page 36


1598:D:/Git/VL53L1/lib/core/src\vl53l1_api.c **** 		VL53L1_UserRoi_t *pRoi)
1599:D:/Git/VL53L1/lib/core/src\vl53l1_api.c **** {
1600:D:/Git/VL53L1/lib/core/src\vl53l1_api.c **** 	VL53L1_Error Status = VL53L1_ERROR_NONE;
1601:D:/Git/VL53L1/lib/core/src\vl53l1_api.c **** 	VL53L1_user_zone_t user_zone;
1602:D:/Git/VL53L1/lib/core/src\vl53l1_api.c **** 
1603:D:/Git/VL53L1/lib/core/src\vl53l1_api.c **** 	Status = CheckValidRectRoi(*pRoi);
1604:D:/Git/VL53L1/lib/core/src\vl53l1_api.c **** 	if (Status != VL53L1_ERROR_NONE)
1605:D:/Git/VL53L1/lib/core/src\vl53l1_api.c **** 		return VL53L1_ERROR_INVALID_PARAMS;
1606:D:/Git/VL53L1/lib/core/src\vl53l1_api.c **** 
1607:D:/Git/VL53L1/lib/core/src\vl53l1_api.c **** 	user_zone.x_centre = (pRoi->BotRightX + pRoi->TopLeftX  + 1) / 2;
1608:D:/Git/VL53L1/lib/core/src\vl53l1_api.c **** 	user_zone.y_centre = (pRoi->TopLeftY  + pRoi->BotRightY + 1) / 2;
1609:D:/Git/VL53L1/lib/core/src\vl53l1_api.c **** 	user_zone.width =    (pRoi->BotRightX - pRoi->TopLeftX);
1610:D:/Git/VL53L1/lib/core/src\vl53l1_api.c **** 	user_zone.height =   (pRoi->TopLeftY  - pRoi->BotRightY);
1611:D:/Git/VL53L1/lib/core/src\vl53l1_api.c **** 	if ((user_zone.width < 3) || (user_zone.height < 3))
1612:D:/Git/VL53L1/lib/core/src\vl53l1_api.c **** 		Status = VL53L1_ERROR_INVALID_PARAMS;
1613:D:/Git/VL53L1/lib/core/src\vl53l1_api.c **** 	else
1614:D:/Git/VL53L1/lib/core/src\vl53l1_api.c **** 		Status =  VL53L1_set_user_zone(Dev, &user_zone);
1615:D:/Git/VL53L1/lib/core/src\vl53l1_api.c **** 
1616:D:/Git/VL53L1/lib/core/src\vl53l1_api.c **** 	LOG_FUNCTION_END(Status);
1617:D:/Git/VL53L1/lib/core/src\vl53l1_api.c **** 	return Status;
1618:D:/Git/VL53L1/lib/core/src\vl53l1_api.c **** }
1619:D:/Git/VL53L1/lib/core/src\vl53l1_api.c **** 
1620:D:/Git/VL53L1/lib/core/src\vl53l1_api.c **** VL53L1_Error VL53L1_GetUserROI(VL53L1_DEV Dev,
1621:D:/Git/VL53L1/lib/core/src\vl53l1_api.c **** 		VL53L1_UserRoi_t *pRoi)
1622:D:/Git/VL53L1/lib/core/src\vl53l1_api.c **** {
1623:D:/Git/VL53L1/lib/core/src\vl53l1_api.c **** 	VL53L1_Error Status = VL53L1_ERROR_NONE;
1624:D:/Git/VL53L1/lib/core/src\vl53l1_api.c **** 	VL53L1_user_zone_t	user_zone;
1625:D:/Git/VL53L1/lib/core/src\vl53l1_api.c **** 
1626:D:/Git/VL53L1/lib/core/src\vl53l1_api.c **** 	Status = VL53L1_get_user_zone(Dev, &user_zone);
1627:D:/Git/VL53L1/lib/core/src\vl53l1_api.c **** 
1628:D:/Git/VL53L1/lib/core/src\vl53l1_api.c **** 	pRoi->TopLeftX =  (2 * user_zone.x_centre - user_zone.width) >> 1;
1629:D:/Git/VL53L1/lib/core/src\vl53l1_api.c **** 	pRoi->TopLeftY =  (2 * user_zone.y_centre + user_zone.height) >> 1;
1630:D:/Git/VL53L1/lib/core/src\vl53l1_api.c **** 	pRoi->BotRightX = (2 * user_zone.x_centre + user_zone.width) >> 1;
1631:D:/Git/VL53L1/lib/core/src\vl53l1_api.c **** 	pRoi->BotRightY = (2 * user_zone.y_centre - user_zone.height) >> 1;
1632:D:/Git/VL53L1/lib/core/src\vl53l1_api.c **** 
1633:D:/Git/VL53L1/lib/core/src\vl53l1_api.c **** 	LOG_FUNCTION_END(Status);
1634:D:/Git/VL53L1/lib/core/src\vl53l1_api.c **** 	return Status;
1635:D:/Git/VL53L1/lib/core/src\vl53l1_api.c **** }
1636:D:/Git/VL53L1/lib/core/src\vl53l1_api.c **** 
1637:D:/Git/VL53L1/lib/core/src\vl53l1_api.c **** 
1638:D:/Git/VL53L1/lib/core/src\vl53l1_api.c **** 
1639:D:/Git/VL53L1/lib/core/src\vl53l1_api.c **** /* End Group ROI Functions */
1640:D:/Git/VL53L1/lib/core/src\vl53l1_api.c **** 
1641:D:/Git/VL53L1/lib/core/src\vl53l1_api.c **** 
1642:D:/Git/VL53L1/lib/core/src\vl53l1_api.c **** /* Group Sequence Step Functions */
1643:D:/Git/VL53L1/lib/core/src\vl53l1_api.c **** 
1644:D:/Git/VL53L1/lib/core/src\vl53l1_api.c **** VL53L1_Error VL53L1_GetNumberOfSequenceSteps(VL53L1_DEV Dev,
1645:D:/Git/VL53L1/lib/core/src\vl53l1_api.c **** 	uint8_t *pNumberOfSequenceSteps)
1646:D:/Git/VL53L1/lib/core/src\vl53l1_api.c **** {
1647:D:/Git/VL53L1/lib/core/src\vl53l1_api.c **** 	VL53L1_Error Status = VL53L1_ERROR_NONE;
1648:D:/Git/VL53L1/lib/core/src\vl53l1_api.c **** 
1649:D:/Git/VL53L1/lib/core/src\vl53l1_api.c **** 	SUPPRESS_UNUSED_WARNING(Dev);
1650:D:/Git/VL53L1/lib/core/src\vl53l1_api.c **** 
1651:D:/Git/VL53L1/lib/core/src\vl53l1_api.c **** 	LOG_FUNCTION_START("");
1652:D:/Git/VL53L1/lib/core/src\vl53l1_api.c **** 
1653:D:/Git/VL53L1/lib/core/src\vl53l1_api.c **** 	*pNumberOfSequenceSteps = VL53L1_SEQUENCESTEP_NUMBER_OF_ITEMS;
1654:D:/Git/VL53L1/lib/core/src\vl53l1_api.c **** 
ARM GAS  C:\Users\Berbardo\AppData\Local\Temp\ccpaHgls.s 			page 37


1655:D:/Git/VL53L1/lib/core/src\vl53l1_api.c **** 	LOG_FUNCTION_END(Status);
1656:D:/Git/VL53L1/lib/core/src\vl53l1_api.c **** 	return Status;
1657:D:/Git/VL53L1/lib/core/src\vl53l1_api.c **** }
1658:D:/Git/VL53L1/lib/core/src\vl53l1_api.c **** 
1659:D:/Git/VL53L1/lib/core/src\vl53l1_api.c **** VL53L1_Error VL53L1_GetSequenceStepsInfo(VL53L1_SequenceStepId SequenceStepId,
1660:D:/Git/VL53L1/lib/core/src\vl53l1_api.c **** 	char *pSequenceStepsString)
1661:D:/Git/VL53L1/lib/core/src\vl53l1_api.c **** {
1662:D:/Git/VL53L1/lib/core/src\vl53l1_api.c **** 	VL53L1_Error Status = VL53L1_ERROR_NONE;
1663:D:/Git/VL53L1/lib/core/src\vl53l1_api.c **** 
1664:D:/Git/VL53L1/lib/core/src\vl53l1_api.c **** 	LOG_FUNCTION_START("");
1665:D:/Git/VL53L1/lib/core/src\vl53l1_api.c **** 
1666:D:/Git/VL53L1/lib/core/src\vl53l1_api.c **** 	Status = VL53L1_get_sequence_steps_info(
1667:D:/Git/VL53L1/lib/core/src\vl53l1_api.c **** 			SequenceStepId,
1668:D:/Git/VL53L1/lib/core/src\vl53l1_api.c **** 			pSequenceStepsString);
1669:D:/Git/VL53L1/lib/core/src\vl53l1_api.c **** 
1670:D:/Git/VL53L1/lib/core/src\vl53l1_api.c **** 	LOG_FUNCTION_END(Status);
1671:D:/Git/VL53L1/lib/core/src\vl53l1_api.c **** 
1672:D:/Git/VL53L1/lib/core/src\vl53l1_api.c **** 	return Status;
1673:D:/Git/VL53L1/lib/core/src\vl53l1_api.c **** }
1674:D:/Git/VL53L1/lib/core/src\vl53l1_api.c **** 
1675:D:/Git/VL53L1/lib/core/src\vl53l1_api.c **** VL53L1_Error VL53L1_SetSequenceStepEnable(VL53L1_DEV Dev,
1676:D:/Git/VL53L1/lib/core/src\vl53l1_api.c **** 	VL53L1_SequenceStepId SequenceStepId, uint8_t SequenceStepEnabled)
1677:D:/Git/VL53L1/lib/core/src\vl53l1_api.c **** {
1678:D:/Git/VL53L1/lib/core/src\vl53l1_api.c **** 	VL53L1_Error Status = VL53L1_ERROR_NONE;
1679:D:/Git/VL53L1/lib/core/src\vl53l1_api.c **** 	uint32_t MeasurementTimingBudgetMicroSeconds;
1680:D:/Git/VL53L1/lib/core/src\vl53l1_api.c **** 
1681:D:/Git/VL53L1/lib/core/src\vl53l1_api.c **** 	LOG_FUNCTION_START("");
1682:D:/Git/VL53L1/lib/core/src\vl53l1_api.c **** 
1683:D:/Git/VL53L1/lib/core/src\vl53l1_api.c **** 	/* the VL53L1_SequenceStepId correspond to the LLD
1684:D:/Git/VL53L1/lib/core/src\vl53l1_api.c **** 	 * VL53L1_DeviceSequenceConfig
1685:D:/Git/VL53L1/lib/core/src\vl53l1_api.c **** 	 */
1686:D:/Git/VL53L1/lib/core/src\vl53l1_api.c **** 
1687:D:/Git/VL53L1/lib/core/src\vl53l1_api.c **** 	Status = VL53L1_set_sequence_config_bit(Dev,
1688:D:/Git/VL53L1/lib/core/src\vl53l1_api.c **** 		(VL53L1_DeviceSequenceConfig)SequenceStepId,
1689:D:/Git/VL53L1/lib/core/src\vl53l1_api.c **** 		SequenceStepEnabled);
1690:D:/Git/VL53L1/lib/core/src\vl53l1_api.c **** 
1691:D:/Git/VL53L1/lib/core/src\vl53l1_api.c **** 	/* Apply New Setting */
1692:D:/Git/VL53L1/lib/core/src\vl53l1_api.c **** 	if (Status == VL53L1_ERROR_NONE) {
1693:D:/Git/VL53L1/lib/core/src\vl53l1_api.c **** 
1694:D:/Git/VL53L1/lib/core/src\vl53l1_api.c **** 		/* Recalculate timing budget */
1695:D:/Git/VL53L1/lib/core/src\vl53l1_api.c **** 		MeasurementTimingBudgetMicroSeconds = VL53L1DevDataGet(Dev,
1696:D:/Git/VL53L1/lib/core/src\vl53l1_api.c **** 			CurrentParameters.MeasurementTimingBudgetMicroSeconds);
1697:D:/Git/VL53L1/lib/core/src\vl53l1_api.c **** 
1698:D:/Git/VL53L1/lib/core/src\vl53l1_api.c **** 		VL53L1_SetMeasurementTimingBudgetMicroSeconds(Dev,
1699:D:/Git/VL53L1/lib/core/src\vl53l1_api.c **** 			MeasurementTimingBudgetMicroSeconds);
1700:D:/Git/VL53L1/lib/core/src\vl53l1_api.c **** 	}
1701:D:/Git/VL53L1/lib/core/src\vl53l1_api.c **** 
1702:D:/Git/VL53L1/lib/core/src\vl53l1_api.c **** 	LOG_FUNCTION_END(Status);
1703:D:/Git/VL53L1/lib/core/src\vl53l1_api.c **** 
1704:D:/Git/VL53L1/lib/core/src\vl53l1_api.c **** 	return Status;
1705:D:/Git/VL53L1/lib/core/src\vl53l1_api.c **** }
1706:D:/Git/VL53L1/lib/core/src\vl53l1_api.c **** 
1707:D:/Git/VL53L1/lib/core/src\vl53l1_api.c **** 
1708:D:/Git/VL53L1/lib/core/src\vl53l1_api.c **** VL53L1_Error VL53L1_GetSequenceStepEnable(VL53L1_DEV Dev,
1709:D:/Git/VL53L1/lib/core/src\vl53l1_api.c **** 	VL53L1_SequenceStepId SequenceStepId, uint8_t *pSequenceStepEnabled)
1710:D:/Git/VL53L1/lib/core/src\vl53l1_api.c **** {
1711:D:/Git/VL53L1/lib/core/src\vl53l1_api.c **** 	VL53L1_Error Status = VL53L1_ERROR_NONE;
ARM GAS  C:\Users\Berbardo\AppData\Local\Temp\ccpaHgls.s 			page 38


1712:D:/Git/VL53L1/lib/core/src\vl53l1_api.c **** 
1713:D:/Git/VL53L1/lib/core/src\vl53l1_api.c **** 	LOG_FUNCTION_START("");
1714:D:/Git/VL53L1/lib/core/src\vl53l1_api.c **** 
1715:D:/Git/VL53L1/lib/core/src\vl53l1_api.c **** 	Status = VL53L1_get_sequence_config_bit(Dev,
1716:D:/Git/VL53L1/lib/core/src\vl53l1_api.c **** 		(VL53L1_DeviceSequenceConfig)SequenceStepId,
1717:D:/Git/VL53L1/lib/core/src\vl53l1_api.c **** 		pSequenceStepEnabled);
1718:D:/Git/VL53L1/lib/core/src\vl53l1_api.c **** 
1719:D:/Git/VL53L1/lib/core/src\vl53l1_api.c **** 	LOG_FUNCTION_END(Status);
1720:D:/Git/VL53L1/lib/core/src\vl53l1_api.c **** 	return Status;
1721:D:/Git/VL53L1/lib/core/src\vl53l1_api.c **** }
1722:D:/Git/VL53L1/lib/core/src\vl53l1_api.c **** 
1723:D:/Git/VL53L1/lib/core/src\vl53l1_api.c **** 
1724:D:/Git/VL53L1/lib/core/src\vl53l1_api.c **** /* End Group Sequence Step Functions Functions */
1725:D:/Git/VL53L1/lib/core/src\vl53l1_api.c **** 
1726:D:/Git/VL53L1/lib/core/src\vl53l1_api.c **** 
1727:D:/Git/VL53L1/lib/core/src\vl53l1_api.c **** 
1728:D:/Git/VL53L1/lib/core/src\vl53l1_api.c **** /* Group PAL Measurement Functions */
1729:D:/Git/VL53L1/lib/core/src\vl53l1_api.c **** 
1730:D:/Git/VL53L1/lib/core/src\vl53l1_api.c **** 
1731:D:/Git/VL53L1/lib/core/src\vl53l1_api.c **** 
1732:D:/Git/VL53L1/lib/core/src\vl53l1_api.c **** VL53L1_Error VL53L1_StartMeasurement(VL53L1_DEV Dev)
1733:D:/Git/VL53L1/lib/core/src\vl53l1_api.c **** {
1734:D:/Git/VL53L1/lib/core/src\vl53l1_api.c **** #define TIMED_MODE_TIMING_GUARD_MILLISECONDS 4
1735:D:/Git/VL53L1/lib/core/src\vl53l1_api.c **** 	VL53L1_Error Status = VL53L1_ERROR_NONE;
1736:D:/Git/VL53L1/lib/core/src\vl53l1_api.c **** 	uint8_t DeviceMeasurementMode;
1737:D:/Git/VL53L1/lib/core/src\vl53l1_api.c **** 	VL53L1_State CurrPalState;
1738:D:/Git/VL53L1/lib/core/src\vl53l1_api.c **** 	VL53L1_Error lStatus;
1739:D:/Git/VL53L1/lib/core/src\vl53l1_api.c **** 	uint32_t MTBus, IMPms;
1740:D:/Git/VL53L1/lib/core/src\vl53l1_api.c **** 
1741:D:/Git/VL53L1/lib/core/src\vl53l1_api.c **** 	LOG_FUNCTION_START("");
1742:D:/Git/VL53L1/lib/core/src\vl53l1_api.c **** 
1743:D:/Git/VL53L1/lib/core/src\vl53l1_api.c **** 	CurrPalState = VL53L1DevDataGet(Dev, PalState);
1744:D:/Git/VL53L1/lib/core/src\vl53l1_api.c **** 	switch (CurrPalState) {
1745:D:/Git/VL53L1/lib/core/src\vl53l1_api.c **** 	case VL53L1_STATE_IDLE:
1746:D:/Git/VL53L1/lib/core/src\vl53l1_api.c **** 		Status = VL53L1_ERROR_NONE;
1747:D:/Git/VL53L1/lib/core/src\vl53l1_api.c **** 		break;
1748:D:/Git/VL53L1/lib/core/src\vl53l1_api.c **** 	case VL53L1_STATE_POWERDOWN:
1749:D:/Git/VL53L1/lib/core/src\vl53l1_api.c **** 	case VL53L1_STATE_WAIT_STATICINIT:
1750:D:/Git/VL53L1/lib/core/src\vl53l1_api.c **** 	case VL53L1_STATE_STANDBY:
1751:D:/Git/VL53L1/lib/core/src\vl53l1_api.c **** 	case VL53L1_STATE_RUNNING:
1752:D:/Git/VL53L1/lib/core/src\vl53l1_api.c **** 	case VL53L1_STATE_RESET:
1753:D:/Git/VL53L1/lib/core/src\vl53l1_api.c **** 	case VL53L1_STATE_UNKNOWN:
1754:D:/Git/VL53L1/lib/core/src\vl53l1_api.c **** 	case VL53L1_STATE_ERROR:
1755:D:/Git/VL53L1/lib/core/src\vl53l1_api.c **** 		Status = VL53L1_ERROR_INVALID_COMMAND;
1756:D:/Git/VL53L1/lib/core/src\vl53l1_api.c **** 		break;
1757:D:/Git/VL53L1/lib/core/src\vl53l1_api.c **** 	default:
1758:D:/Git/VL53L1/lib/core/src\vl53l1_api.c **** 		Status = VL53L1_ERROR_UNDEFINED;
1759:D:/Git/VL53L1/lib/core/src\vl53l1_api.c **** 	}
1760:D:/Git/VL53L1/lib/core/src\vl53l1_api.c **** 
1761:D:/Git/VL53L1/lib/core/src\vl53l1_api.c **** 	DeviceMeasurementMode = VL53L1DevDataGet(Dev, LLData.measurement_mode);
1762:D:/Git/VL53L1/lib/core/src\vl53l1_api.c **** 
1763:D:/Git/VL53L1/lib/core/src\vl53l1_api.c **** 	/* Check timing configuration between timing budget and
1764:D:/Git/VL53L1/lib/core/src\vl53l1_api.c **** 	* inter measurement period */
1765:D:/Git/VL53L1/lib/core/src\vl53l1_api.c **** 	if ((Status == VL53L1_ERROR_NONE) &&
1766:D:/Git/VL53L1/lib/core/src\vl53l1_api.c **** 		(DeviceMeasurementMode == VL53L1_DEVICEMEASUREMENTMODE_TIMED)) {
1767:D:/Git/VL53L1/lib/core/src\vl53l1_api.c **** 		lStatus = VL53L1_GetMeasurementTimingBudgetMicroSeconds(Dev,
1768:D:/Git/VL53L1/lib/core/src\vl53l1_api.c **** 				&MTBus);
ARM GAS  C:\Users\Berbardo\AppData\Local\Temp\ccpaHgls.s 			page 39


1769:D:/Git/VL53L1/lib/core/src\vl53l1_api.c **** 		/* convert timing budget in ms */
1770:D:/Git/VL53L1/lib/core/src\vl53l1_api.c **** 		MTBus /= 1000;
1771:D:/Git/VL53L1/lib/core/src\vl53l1_api.c **** 		lStatus = VL53L1_GetInterMeasurementPeriodMilliSeconds(Dev,
1772:D:/Git/VL53L1/lib/core/src\vl53l1_api.c **** 				&IMPms);
1773:D:/Git/VL53L1/lib/core/src\vl53l1_api.c **** 		/* trick to get rid of compiler "set but not used" warning */
1774:D:/Git/VL53L1/lib/core/src\vl53l1_api.c **** 		SUPPRESS_UNUSED_WARNING(lStatus);
1775:D:/Git/VL53L1/lib/core/src\vl53l1_api.c **** 		if (IMPms < MTBus + TIMED_MODE_TIMING_GUARD_MILLISECONDS)
1776:D:/Git/VL53L1/lib/core/src\vl53l1_api.c **** 			Status = VL53L1_ERROR_INVALID_PARAMS;
1777:D:/Git/VL53L1/lib/core/src\vl53l1_api.c **** 	}
1778:D:/Git/VL53L1/lib/core/src\vl53l1_api.c **** 
1779:D:/Git/VL53L1/lib/core/src\vl53l1_api.c **** 	if (Status == VL53L1_ERROR_NONE)
1780:D:/Git/VL53L1/lib/core/src\vl53l1_api.c **** 		Status = VL53L1_init_and_start_range(
1781:D:/Git/VL53L1/lib/core/src\vl53l1_api.c **** 				Dev,
1782:D:/Git/VL53L1/lib/core/src\vl53l1_api.c **** 				DeviceMeasurementMode,
1783:D:/Git/VL53L1/lib/core/src\vl53l1_api.c **** 				VL53L1_DEVICECONFIGLEVEL_FULL);
1784:D:/Git/VL53L1/lib/core/src\vl53l1_api.c **** 
1785:D:/Git/VL53L1/lib/core/src\vl53l1_api.c **** 	/* Set PAL State to Running */
1786:D:/Git/VL53L1/lib/core/src\vl53l1_api.c **** 	if (Status == VL53L1_ERROR_NONE)
1787:D:/Git/VL53L1/lib/core/src\vl53l1_api.c **** 		VL53L1DevDataSet(Dev, PalState, VL53L1_STATE_RUNNING);
1788:D:/Git/VL53L1/lib/core/src\vl53l1_api.c **** 
1789:D:/Git/VL53L1/lib/core/src\vl53l1_api.c **** 
1790:D:/Git/VL53L1/lib/core/src\vl53l1_api.c **** 	LOG_FUNCTION_END(Status);
1791:D:/Git/VL53L1/lib/core/src\vl53l1_api.c **** 	return Status;
1792:D:/Git/VL53L1/lib/core/src\vl53l1_api.c **** }
1793:D:/Git/VL53L1/lib/core/src\vl53l1_api.c **** 
1794:D:/Git/VL53L1/lib/core/src\vl53l1_api.c **** VL53L1_Error VL53L1_StopMeasurement(VL53L1_DEV Dev)
1795:D:/Git/VL53L1/lib/core/src\vl53l1_api.c **** {
1796:D:/Git/VL53L1/lib/core/src\vl53l1_api.c **** 	VL53L1_Error Status = VL53L1_ERROR_NONE;
1797:D:/Git/VL53L1/lib/core/src\vl53l1_api.c **** 
1798:D:/Git/VL53L1/lib/core/src\vl53l1_api.c **** 	LOG_FUNCTION_START("");
1799:D:/Git/VL53L1/lib/core/src\vl53l1_api.c **** 
1800:D:/Git/VL53L1/lib/core/src\vl53l1_api.c **** 	Status = VL53L1_stop_range(Dev);
1801:D:/Git/VL53L1/lib/core/src\vl53l1_api.c **** 
1802:D:/Git/VL53L1/lib/core/src\vl53l1_api.c **** 	/* Set PAL State to Idle */
1803:D:/Git/VL53L1/lib/core/src\vl53l1_api.c **** 	if (Status == VL53L1_ERROR_NONE)
1804:D:/Git/VL53L1/lib/core/src\vl53l1_api.c **** 		VL53L1DevDataSet(Dev, PalState, VL53L1_STATE_IDLE);
1805:D:/Git/VL53L1/lib/core/src\vl53l1_api.c **** 
1806:D:/Git/VL53L1/lib/core/src\vl53l1_api.c **** 	LOG_FUNCTION_END(Status);
1807:D:/Git/VL53L1/lib/core/src\vl53l1_api.c **** 	return Status;
1808:D:/Git/VL53L1/lib/core/src\vl53l1_api.c **** }
1809:D:/Git/VL53L1/lib/core/src\vl53l1_api.c **** 
1810:D:/Git/VL53L1/lib/core/src\vl53l1_api.c **** static VL53L1_Error ChangePresetMode(VL53L1_DEV Dev)
1811:D:/Git/VL53L1/lib/core/src\vl53l1_api.c **** {
1812:D:/Git/VL53L1/lib/core/src\vl53l1_api.c **** 	VL53L1_Error Status = VL53L1_ERROR_NONE;
1813:D:/Git/VL53L1/lib/core/src\vl53l1_api.c **** 	VL53L1_PresetModes PresetMode;
1814:D:/Git/VL53L1/lib/core/src\vl53l1_api.c **** 	VL53L1_DistanceModes NewDistanceMode;
1815:D:/Git/VL53L1/lib/core/src\vl53l1_api.c **** 	VL53L1_user_zone_t	user_zone;
1816:D:/Git/VL53L1/lib/core/src\vl53l1_api.c **** 	uint32_t TimingBudget;
1817:D:/Git/VL53L1/lib/core/src\vl53l1_api.c **** 	uint32_t MmTimeoutUs;
1818:D:/Git/VL53L1/lib/core/src\vl53l1_api.c **** 	uint32_t PhaseCalTimeoutUs;
1819:D:/Git/VL53L1/lib/core/src\vl53l1_api.c **** 	uint8_t DeviceMeasurementMode;
1820:D:/Git/VL53L1/lib/core/src\vl53l1_api.c **** 	uint32_t inter_measurement_period_ms;
1821:D:/Git/VL53L1/lib/core/src\vl53l1_api.c **** 
1822:D:/Git/VL53L1/lib/core/src\vl53l1_api.c **** 	LOG_FUNCTION_START("");
1823:D:/Git/VL53L1/lib/core/src\vl53l1_api.c **** 
1824:D:/Git/VL53L1/lib/core/src\vl53l1_api.c **** 	Status = VL53L1_get_user_zone(Dev, &user_zone);
1825:D:/Git/VL53L1/lib/core/src\vl53l1_api.c **** 	/*  Initialize variables fix ticket EwokP #475395 */
ARM GAS  C:\Users\Berbardo\AppData\Local\Temp\ccpaHgls.s 			page 40


1826:D:/Git/VL53L1/lib/core/src\vl53l1_api.c **** 	PresetMode = VL53L1DevDataGet(Dev,
1827:D:/Git/VL53L1/lib/core/src\vl53l1_api.c **** 			CurrentParameters.PresetMode);
1828:D:/Git/VL53L1/lib/core/src\vl53l1_api.c **** 	NewDistanceMode = VL53L1DevDataGet(Dev,
1829:D:/Git/VL53L1/lib/core/src\vl53l1_api.c **** 			CurrentParameters.NewDistanceMode);
1830:D:/Git/VL53L1/lib/core/src\vl53l1_api.c **** 	/*  End of Initialize variables fix ticket EwokP #475395 */
1831:D:/Git/VL53L1/lib/core/src\vl53l1_api.c **** 	if (Status == VL53L1_ERROR_NONE)
1832:D:/Git/VL53L1/lib/core/src\vl53l1_api.c **** 		Status = VL53L1_get_timeouts_us(Dev, &PhaseCalTimeoutUs,
1833:D:/Git/VL53L1/lib/core/src\vl53l1_api.c **** 			&MmTimeoutUs, &TimingBudget);
1834:D:/Git/VL53L1/lib/core/src\vl53l1_api.c **** 
1835:D:/Git/VL53L1/lib/core/src\vl53l1_api.c **** 	if (Status == VL53L1_ERROR_NONE)
1836:D:/Git/VL53L1/lib/core/src\vl53l1_api.c **** 		Status = VL53L1_stop_range(Dev);
1837:D:/Git/VL53L1/lib/core/src\vl53l1_api.c **** 
1838:D:/Git/VL53L1/lib/core/src\vl53l1_api.c **** 	if (Status == VL53L1_ERROR_NONE)
1839:D:/Git/VL53L1/lib/core/src\vl53l1_api.c **** 		Status = VL53L1_WaitUs(Dev, 500);
1840:D:/Git/VL53L1/lib/core/src\vl53l1_api.c **** 
1841:D:/Git/VL53L1/lib/core/src\vl53l1_api.c **** 	if (Status == VL53L1_ERROR_NONE) {
1842:D:/Git/VL53L1/lib/core/src\vl53l1_api.c **** 		inter_measurement_period_ms =  VL53L1DevDataGet(Dev,
1843:D:/Git/VL53L1/lib/core/src\vl53l1_api.c **** 					LLData.inter_measurement_period_ms);
1844:D:/Git/VL53L1/lib/core/src\vl53l1_api.c **** 
1845:D:/Git/VL53L1/lib/core/src\vl53l1_api.c **** 		Status = SetPresetMode(Dev,
1846:D:/Git/VL53L1/lib/core/src\vl53l1_api.c **** 				PresetMode,
1847:D:/Git/VL53L1/lib/core/src\vl53l1_api.c **** 				NewDistanceMode,
1848:D:/Git/VL53L1/lib/core/src\vl53l1_api.c **** 				inter_measurement_period_ms);
1849:D:/Git/VL53L1/lib/core/src\vl53l1_api.c **** 	}
1850:D:/Git/VL53L1/lib/core/src\vl53l1_api.c **** 
1851:D:/Git/VL53L1/lib/core/src\vl53l1_api.c **** 	if (Status == VL53L1_ERROR_NONE) {
1852:D:/Git/VL53L1/lib/core/src\vl53l1_api.c **** 		Status = VL53L1_set_timeouts_us(Dev, PhaseCalTimeoutUs,
1853:D:/Git/VL53L1/lib/core/src\vl53l1_api.c **** 			MmTimeoutUs, TimingBudget);
1854:D:/Git/VL53L1/lib/core/src\vl53l1_api.c **** 
1855:D:/Git/VL53L1/lib/core/src\vl53l1_api.c **** 		if (Status == VL53L1_ERROR_NONE)
1856:D:/Git/VL53L1/lib/core/src\vl53l1_api.c **** 			VL53L1DevDataSet(Dev, LLData.range_config_timeout_us,
1857:D:/Git/VL53L1/lib/core/src\vl53l1_api.c **** 				TimingBudget);
1858:D:/Git/VL53L1/lib/core/src\vl53l1_api.c **** 	}
1859:D:/Git/VL53L1/lib/core/src\vl53l1_api.c **** 
1860:D:/Git/VL53L1/lib/core/src\vl53l1_api.c **** 	if (Status == VL53L1_ERROR_NONE)
1861:D:/Git/VL53L1/lib/core/src\vl53l1_api.c **** 		Status = VL53L1_set_user_zone(Dev, &user_zone);
1862:D:/Git/VL53L1/lib/core/src\vl53l1_api.c **** 
1863:D:/Git/VL53L1/lib/core/src\vl53l1_api.c **** 	if (Status == VL53L1_ERROR_NONE) {
1864:D:/Git/VL53L1/lib/core/src\vl53l1_api.c **** 		DeviceMeasurementMode = VL53L1DevDataGet(Dev,
1865:D:/Git/VL53L1/lib/core/src\vl53l1_api.c **** 				LLData.measurement_mode);
1866:D:/Git/VL53L1/lib/core/src\vl53l1_api.c **** 
1867:D:/Git/VL53L1/lib/core/src\vl53l1_api.c **** 		Status = VL53L1_init_and_start_range(
1868:D:/Git/VL53L1/lib/core/src\vl53l1_api.c **** 				Dev,
1869:D:/Git/VL53L1/lib/core/src\vl53l1_api.c **** 				DeviceMeasurementMode,
1870:D:/Git/VL53L1/lib/core/src\vl53l1_api.c **** 				VL53L1_DEVICECONFIGLEVEL_FULL);
1871:D:/Git/VL53L1/lib/core/src\vl53l1_api.c **** 	}
1872:D:/Git/VL53L1/lib/core/src\vl53l1_api.c **** 
1873:D:/Git/VL53L1/lib/core/src\vl53l1_api.c **** 	if (Status == VL53L1_ERROR_NONE)
1874:D:/Git/VL53L1/lib/core/src\vl53l1_api.c **** 		VL53L1DevDataSet(Dev,
1875:D:/Git/VL53L1/lib/core/src\vl53l1_api.c **** 			CurrentParameters.InternalDistanceMode,
1876:D:/Git/VL53L1/lib/core/src\vl53l1_api.c **** 			NewDistanceMode);
1877:D:/Git/VL53L1/lib/core/src\vl53l1_api.c **** 
1878:D:/Git/VL53L1/lib/core/src\vl53l1_api.c **** 	LOG_FUNCTION_END(Status);
1879:D:/Git/VL53L1/lib/core/src\vl53l1_api.c **** 	return Status;
1880:D:/Git/VL53L1/lib/core/src\vl53l1_api.c **** }
1881:D:/Git/VL53L1/lib/core/src\vl53l1_api.c **** 
1882:D:/Git/VL53L1/lib/core/src\vl53l1_api.c **** 
ARM GAS  C:\Users\Berbardo\AppData\Local\Temp\ccpaHgls.s 			page 41


1883:D:/Git/VL53L1/lib/core/src\vl53l1_api.c **** VL53L1_Error VL53L1_ClearInterruptAndStartMeasurement(VL53L1_DEV Dev)
1884:D:/Git/VL53L1/lib/core/src\vl53l1_api.c **** {
1885:D:/Git/VL53L1/lib/core/src\vl53l1_api.c **** 	VL53L1_Error Status = VL53L1_ERROR_NONE;
1886:D:/Git/VL53L1/lib/core/src\vl53l1_api.c **** 	uint8_t DeviceMeasurementMode;
1887:D:/Git/VL53L1/lib/core/src\vl53l1_api.c **** 	VL53L1_DistanceModes InternalDistanceMode;
1888:D:/Git/VL53L1/lib/core/src\vl53l1_api.c **** 	VL53L1_DistanceModes NewDistanceMode;
1889:D:/Git/VL53L1/lib/core/src\vl53l1_api.c **** 
1890:D:/Git/VL53L1/lib/core/src\vl53l1_api.c **** 	LOG_FUNCTION_START("");
1891:D:/Git/VL53L1/lib/core/src\vl53l1_api.c **** 
1892:D:/Git/VL53L1/lib/core/src\vl53l1_api.c **** 	DeviceMeasurementMode = VL53L1DevDataGet(Dev, LLData.measurement_mode);
1893:D:/Git/VL53L1/lib/core/src\vl53l1_api.c **** 	InternalDistanceMode = VL53L1DevDataGet(Dev,
1894:D:/Git/VL53L1/lib/core/src\vl53l1_api.c **** 			CurrentParameters.InternalDistanceMode);
1895:D:/Git/VL53L1/lib/core/src\vl53l1_api.c **** 	NewDistanceMode = VL53L1DevDataGet(Dev,
1896:D:/Git/VL53L1/lib/core/src\vl53l1_api.c **** 			CurrentParameters.NewDistanceMode);
1897:D:/Git/VL53L1/lib/core/src\vl53l1_api.c **** 
1898:D:/Git/VL53L1/lib/core/src\vl53l1_api.c **** 	if (NewDistanceMode != InternalDistanceMode)
1899:D:/Git/VL53L1/lib/core/src\vl53l1_api.c **** 		Status = ChangePresetMode(Dev);
1900:D:/Git/VL53L1/lib/core/src\vl53l1_api.c **** 	else
1901:D:/Git/VL53L1/lib/core/src\vl53l1_api.c **** 		Status = VL53L1_clear_interrupt_and_enable_next_range(
1902:D:/Git/VL53L1/lib/core/src\vl53l1_api.c **** 						Dev,
1903:D:/Git/VL53L1/lib/core/src\vl53l1_api.c **** 						DeviceMeasurementMode);
1904:D:/Git/VL53L1/lib/core/src\vl53l1_api.c **** 
1905:D:/Git/VL53L1/lib/core/src\vl53l1_api.c **** 	LOG_FUNCTION_END(Status);
1906:D:/Git/VL53L1/lib/core/src\vl53l1_api.c **** 	return Status;
1907:D:/Git/VL53L1/lib/core/src\vl53l1_api.c **** }
1908:D:/Git/VL53L1/lib/core/src\vl53l1_api.c **** 
1909:D:/Git/VL53L1/lib/core/src\vl53l1_api.c **** 
1910:D:/Git/VL53L1/lib/core/src\vl53l1_api.c **** VL53L1_Error VL53L1_GetMeasurementDataReady(VL53L1_DEV Dev,
1911:D:/Git/VL53L1/lib/core/src\vl53l1_api.c **** 	uint8_t *pMeasurementDataReady)
1912:D:/Git/VL53L1/lib/core/src\vl53l1_api.c **** {
1913:D:/Git/VL53L1/lib/core/src\vl53l1_api.c **** 	VL53L1_Error Status = VL53L1_ERROR_NONE;
1914:D:/Git/VL53L1/lib/core/src\vl53l1_api.c **** 
1915:D:/Git/VL53L1/lib/core/src\vl53l1_api.c **** 	LOG_FUNCTION_START("");
1916:D:/Git/VL53L1/lib/core/src\vl53l1_api.c **** 
1917:D:/Git/VL53L1/lib/core/src\vl53l1_api.c **** 	Status = VL53L1_is_new_data_ready(Dev, pMeasurementDataReady);
1918:D:/Git/VL53L1/lib/core/src\vl53l1_api.c **** 
1919:D:/Git/VL53L1/lib/core/src\vl53l1_api.c **** 	LOG_FUNCTION_END(Status);
1920:D:/Git/VL53L1/lib/core/src\vl53l1_api.c **** 	return Status;
1921:D:/Git/VL53L1/lib/core/src\vl53l1_api.c **** }
1922:D:/Git/VL53L1/lib/core/src\vl53l1_api.c **** 
1923:D:/Git/VL53L1/lib/core/src\vl53l1_api.c **** VL53L1_Error VL53L1_WaitMeasurementDataReady(VL53L1_DEV Dev)
1924:D:/Git/VL53L1/lib/core/src\vl53l1_api.c **** {
1925:D:/Git/VL53L1/lib/core/src\vl53l1_api.c **** 	VL53L1_Error Status = VL53L1_ERROR_NONE;
1926:D:/Git/VL53L1/lib/core/src\vl53l1_api.c **** 
1927:D:/Git/VL53L1/lib/core/src\vl53l1_api.c **** 	LOG_FUNCTION_START("");
1928:D:/Git/VL53L1/lib/core/src\vl53l1_api.c **** 
1929:D:/Git/VL53L1/lib/core/src\vl53l1_api.c **** 	/* Note that the timeout is given by:
1930:D:/Git/VL53L1/lib/core/src\vl53l1_api.c **** 	* VL53L1_RANGE_COMPLETION_POLLING_TIMEOUT_MS defined in def.h
1931:D:/Git/VL53L1/lib/core/src\vl53l1_api.c **** 	*/
1932:D:/Git/VL53L1/lib/core/src\vl53l1_api.c **** 
1933:D:/Git/VL53L1/lib/core/src\vl53l1_api.c **** 	Status = VL53L1_poll_for_range_completion(Dev,
1934:D:/Git/VL53L1/lib/core/src\vl53l1_api.c **** 			VL53L1_RANGE_COMPLETION_POLLING_TIMEOUT_MS);
1935:D:/Git/VL53L1/lib/core/src\vl53l1_api.c **** 
1936:D:/Git/VL53L1/lib/core/src\vl53l1_api.c **** 	LOG_FUNCTION_END(Status);
1937:D:/Git/VL53L1/lib/core/src\vl53l1_api.c **** 	return Status;
1938:D:/Git/VL53L1/lib/core/src\vl53l1_api.c **** }
1939:D:/Git/VL53L1/lib/core/src\vl53l1_api.c **** 
ARM GAS  C:\Users\Berbardo\AppData\Local\Temp\ccpaHgls.s 			page 42


1940:D:/Git/VL53L1/lib/core/src\vl53l1_api.c **** 
1941:D:/Git/VL53L1/lib/core/src\vl53l1_api.c **** 
1942:D:/Git/VL53L1/lib/core/src\vl53l1_api.c **** static uint8_t ComputeRQL(uint8_t active_results,
1943:D:/Git/VL53L1/lib/core/src\vl53l1_api.c **** 		uint8_t FilteredRangeStatus,
1944:D:/Git/VL53L1/lib/core/src\vl53l1_api.c **** 		VL53L1_range_data_t *presults_data)
1945:D:/Git/VL53L1/lib/core/src\vl53l1_api.c **** {
 365              		.loc 1 1945 1 is_stmt 1 view -0
 366              		.cfi_startproc
 367              		@ args = 0, pretend = 0, frame = 0
 368              		@ frame_needed = 0, uses_anonymous_args = 0
 369              		@ link register save eliminated.
1946:D:/Git/VL53L1/lib/core/src\vl53l1_api.c **** 	int16_t SRL = 300;
 370              		.loc 1 1946 2 view .LVU95
1947:D:/Git/VL53L1/lib/core/src\vl53l1_api.c **** 	uint16_t SRAS = 30;
 371              		.loc 1 1947 2 view .LVU96
1948:D:/Git/VL53L1/lib/core/src\vl53l1_api.c **** 	FixPoint1616_t RAS;
 372              		.loc 1 1948 2 view .LVU97
1949:D:/Git/VL53L1/lib/core/src\vl53l1_api.c **** 	FixPoint1616_t SRQL;
 373              		.loc 1 1949 2 view .LVU98
1950:D:/Git/VL53L1/lib/core/src\vl53l1_api.c **** 	FixPoint1616_t GI =   7713587; /* 117.7 * 65536 */
 374              		.loc 1 1950 2 view .LVU99
1951:D:/Git/VL53L1/lib/core/src\vl53l1_api.c **** 	FixPoint1616_t GGm =  3198157; /* 48.8 * 65536 */
 375              		.loc 1 1951 2 view .LVU100
1952:D:/Git/VL53L1/lib/core/src\vl53l1_api.c **** 	FixPoint1616_t LRAP = 6554;    /* 0.1 * 65536 */
 376              		.loc 1 1952 2 view .LVU101
1953:D:/Git/VL53L1/lib/core/src\vl53l1_api.c **** 	FixPoint1616_t partial;
 377              		.loc 1 1953 2 view .LVU102
1954:D:/Git/VL53L1/lib/core/src\vl53l1_api.c **** 	uint8_t finalvalue;
 378              		.loc 1 1954 2 view .LVU103
1955:D:/Git/VL53L1/lib/core/src\vl53l1_api.c **** 	uint8_t returnvalue;
 379              		.loc 1 1955 2 view .LVU104
1956:D:/Git/VL53L1/lib/core/src\vl53l1_api.c **** 
1957:D:/Git/VL53L1/lib/core/src\vl53l1_api.c **** 	if (active_results == 0)
 380              		.loc 1 1957 2 view .LVU105
 381              		.loc 1 1957 5 is_stmt 0 view .LVU106
 382 0000 0346     		mov	r3, r0
 383 0002 18B3     		cbz	r0, .L30
1958:D:/Git/VL53L1/lib/core/src\vl53l1_api.c **** 		returnvalue = 0;
1959:D:/Git/VL53L1/lib/core/src\vl53l1_api.c **** 	else if (FilteredRangeStatus == VL53L1_DEVICEERROR_PHASECONSISTENCY)
 384              		.loc 1 1959 7 is_stmt 1 view .LVU107
 385              		.loc 1 1959 10 is_stmt 0 view .LVU108
 386 0004 0729     		cmp	r1, #7
 387 0006 23D0     		beq	.L33
1960:D:/Git/VL53L1/lib/core/src\vl53l1_api.c **** 		returnvalue = 50;
1961:D:/Git/VL53L1/lib/core/src\vl53l1_api.c **** 	else {
1962:D:/Git/VL53L1/lib/core/src\vl53l1_api.c **** 		if (presults_data->median_range_mm < SRL)
 388              		.loc 1 1962 3 is_stmt 1 view .LVU109
 389              		.loc 1 1962 20 is_stmt 0 view .LVU110
 390 0008 B2F93C10 		ldrsh	r1, [r2, #60]
 391              	.LVL36:
 392              		.loc 1 1962 6 view .LVU111
 393 000c B1F5967F 		cmp	r1, #300
 394 0010 10DB     		blt	.L34
1963:D:/Git/VL53L1/lib/core/src\vl53l1_api.c **** 			RAS = SRAS * 65536;
1964:D:/Git/VL53L1/lib/core/src\vl53l1_api.c **** 		else
1965:D:/Git/VL53L1/lib/core/src\vl53l1_api.c **** 			RAS = LRAP * presults_data->median_range_mm;
 395              		.loc 1 1965 4 is_stmt 1 view .LVU112
ARM GAS  C:\Users\Berbardo\AppData\Local\Temp\ccpaHgls.s 			page 43


 396              		.loc 1 1965 8 is_stmt 0 view .LVU113
 397 0012 41F69A13 		movw	r3, #6554
 398 0016 03FB01F3 		mul	r3, r3, r1
 399              	.LVL37:
1966:D:/Git/VL53L1/lib/core/src\vl53l1_api.c **** 
1967:D:/Git/VL53L1/lib/core/src\vl53l1_api.c **** 		/* Fix1616 + (fix1616 * uint16_t / fix1616) * 65536 = fix1616 */
1968:D:/Git/VL53L1/lib/core/src\vl53l1_api.c **** 		if (RAS != 0) {
 400              		.loc 1 1968 3 is_stmt 1 view .LVU114
 401              	.L31:
1969:D:/Git/VL53L1/lib/core/src\vl53l1_api.c **** 			partial = (GGm * presults_data->sigma_mm);
 402              		.loc 1 1969 4 view .LVU115
 403              		.loc 1 1969 34 is_stmt 0 view .LVU116
 404 001a 128F     		ldrh	r2, [r2, #56]
 405              	.LVL38:
1970:D:/Git/VL53L1/lib/core/src\vl53l1_api.c **** 			partial = partial + (RAS >> 1);
 406              		.loc 1 1970 4 is_stmt 1 view .LVU117
 407              		.loc 1 1970 29 is_stmt 0 view .LVU118
 408 001c 5908     		lsrs	r1, r3, #1
 409              		.loc 1 1970 12 view .LVU119
 410 001e 0E48     		ldr	r0, .L37
 411              	.LVL39:
 412              		.loc 1 1970 12 view .LVU120
 413 0020 00FB0212 		mla	r2, r0, r2, r1
 414              	.LVL40:
1971:D:/Git/VL53L1/lib/core/src\vl53l1_api.c **** 			partial = partial / RAS;
 415              		.loc 1 1971 4 is_stmt 1 view .LVU121
 416              		.loc 1 1971 12 is_stmt 0 view .LVU122
 417 0024 B2FBF3F2 		udiv	r2, r2, r3
 418              	.LVL41:
1972:D:/Git/VL53L1/lib/core/src\vl53l1_api.c **** 			partial = partial * 65536;
 419              		.loc 1 1972 4 is_stmt 1 view .LVU123
 420              		.loc 1 1972 12 is_stmt 0 view .LVU124
 421 0028 1204     		lsls	r2, r2, #16
 422              	.LVL42:
1973:D:/Git/VL53L1/lib/core/src\vl53l1_api.c **** 			if (partial <= GI)
 423              		.loc 1 1973 4 is_stmt 1 view .LVU125
 424              		.loc 1 1973 7 is_stmt 0 view .LVU126
 425 002a 0C4B     		ldr	r3, .L37+4
 426 002c 9A42     		cmp	r2, r3
 427 002e 04D8     		bhi	.L35
1974:D:/Git/VL53L1/lib/core/src\vl53l1_api.c **** 				SRQL = GI - partial;
 428              		.loc 1 1974 5 is_stmt 1 view .LVU127
 429              		.loc 1 1974 10 is_stmt 0 view .LVU128
 430 0030 9B1A     		subs	r3, r3, r2
 431              	.LVL43:
 432              		.loc 1 1974 10 view .LVU129
 433 0032 04E0     		b	.L32
 434              	.LVL44:
 435              	.L34:
1963:D:/Git/VL53L1/lib/core/src\vl53l1_api.c **** 		else
 436              		.loc 1 1963 8 view .LVU130
 437 0034 4FF4F013 		mov	r3, #1966080
 438 0038 EFE7     		b	.L31
 439              	.LVL45:
 440              	.L35:
1975:D:/Git/VL53L1/lib/core/src\vl53l1_api.c **** 			else
1976:D:/Git/VL53L1/lib/core/src\vl53l1_api.c **** 				SRQL = 50 * 65536;
ARM GAS  C:\Users\Berbardo\AppData\Local\Temp\ccpaHgls.s 			page 44


 441              		.loc 1 1976 10 view .LVU131
 442 003a 4FF44813 		mov	r3, #3276800
 443              	.L32:
 444              	.LVL46:
1977:D:/Git/VL53L1/lib/core/src\vl53l1_api.c **** 		} else
1978:D:/Git/VL53L1/lib/core/src\vl53l1_api.c **** 			SRQL = 100 * 65536;
1979:D:/Git/VL53L1/lib/core/src\vl53l1_api.c **** 
1980:D:/Git/VL53L1/lib/core/src\vl53l1_api.c **** 		finalvalue = (uint8_t)(SRQL >> 16);
 445              		.loc 1 1980 3 is_stmt 1 view .LVU132
 446              		.loc 1 1980 14 is_stmt 0 view .LVU133
 447 003e C3F30743 		ubfx	r3, r3, #16, #8
 448              	.LVL47:
1981:D:/Git/VL53L1/lib/core/src\vl53l1_api.c **** 		returnvalue = MAX(50, MIN(100, finalvalue));
 449              		.loc 1 1981 3 is_stmt 1 view .LVU134
 450              		.loc 1 1981 15 is_stmt 0 view .LVU135
 451 0042 322B     		cmp	r3, #50
 452 0044 06D9     		bls	.L36
 453              		.loc 1 1981 15 discriminator 1 view .LVU136
 454 0046 642B     		cmp	r3, #100
 455 0048 28BF     		it	cs
 456 004a 6423     		movcs	r3, #100
 457              	.LVL48:
 458              	.L30:
1982:D:/Git/VL53L1/lib/core/src\vl53l1_api.c **** 	}
1983:D:/Git/VL53L1/lib/core/src\vl53l1_api.c **** 
1984:D:/Git/VL53L1/lib/core/src\vl53l1_api.c **** 	return returnvalue;
 459              		.loc 1 1984 2 is_stmt 1 view .LVU137
1985:D:/Git/VL53L1/lib/core/src\vl53l1_api.c **** }
 460              		.loc 1 1985 1 is_stmt 0 view .LVU138
 461 004c 1846     		mov	r0, r3
 462 004e 7047     		bx	lr
 463              	.LVL49:
 464              	.L33:
1960:D:/Git/VL53L1/lib/core/src\vl53l1_api.c **** 	else {
 465              		.loc 1 1960 15 view .LVU139
 466 0050 3223     		movs	r3, #50
 467 0052 FBE7     		b	.L30
 468              	.LVL50:
 469              	.L36:
1981:D:/Git/VL53L1/lib/core/src\vl53l1_api.c **** 	}
 470              		.loc 1 1981 15 view .LVU140
 471 0054 3223     		movs	r3, #50
 472              	.LVL51:
1981:D:/Git/VL53L1/lib/core/src\vl53l1_api.c **** 	}
 473              		.loc 1 1981 15 view .LVU141
 474 0056 F9E7     		b	.L30
 475              	.L38:
 476              		.align	2
 477              	.L37:
 478 0058 CDCC3000 		.word	3198157
 479 005c 33B37500 		.word	7713587
 480              		.cfi_endproc
 481              	.LFE176:
 483              		.section	.text.ConvertStatusLite,"ax",%progbits
 484              		.align	1
 485              		.syntax unified
 486              		.thumb
ARM GAS  C:\Users\Berbardo\AppData\Local\Temp\ccpaHgls.s 			page 45


 487              		.thumb_func
 488              		.fpu fpv4-sp-d16
 490              	ConvertStatusLite:
 491              	.LVL52:
 492              	.LFB177:
1986:D:/Git/VL53L1/lib/core/src\vl53l1_api.c **** 
1987:D:/Git/VL53L1/lib/core/src\vl53l1_api.c **** 
1988:D:/Git/VL53L1/lib/core/src\vl53l1_api.c **** static uint8_t ConvertStatusLite(uint8_t FilteredRangeStatus)
1989:D:/Git/VL53L1/lib/core/src\vl53l1_api.c **** {
 493              		.loc 1 1989 1 is_stmt 1 view -0
 494              		.cfi_startproc
 495              		@ args = 0, pretend = 0, frame = 0
 496              		@ frame_needed = 0, uses_anonymous_args = 0
 497              		@ link register save eliminated.
1990:D:/Git/VL53L1/lib/core/src\vl53l1_api.c **** 	uint8_t RangeStatus;
 498              		.loc 1 1990 2 view .LVU143
1991:D:/Git/VL53L1/lib/core/src\vl53l1_api.c **** 
1992:D:/Git/VL53L1/lib/core/src\vl53l1_api.c **** 	switch (FilteredRangeStatus) {
 499              		.loc 1 1992 2 view .LVU144
 500 0000 031F     		subs	r3, r0, #4
 501 0002 0F2B     		cmp	r3, #15
 502 0004 17D8     		bhi	.L40
 503 0006 DFE803F0 		tbb	[pc, r3]
 504              	.L42:
 505 000a 0C       		.byte	(.L50-.L42)/2
 506 000b 0A       		.byte	(.L49-.L42)/2
 507 000c 0E       		.byte	(.L48-.L42)/2
 508 000d 19       		.byte	(.L41-.L42)/2
 509 000e 12       		.byte	(.L46-.L42)/2
 510 000f 14       		.byte	(.L45-.L42)/2
 511 0010 16       		.byte	(.L40-.L42)/2
 512 0011 16       		.byte	(.L40-.L42)/2
 513 0012 10       		.byte	(.L44-.L42)/2
 514 0013 16       		.byte	(.L40-.L42)/2
 515 0014 16       		.byte	(.L40-.L42)/2
 516 0015 16       		.byte	(.L40-.L42)/2
 517 0016 16       		.byte	(.L40-.L42)/2
 518 0017 16       		.byte	(.L40-.L42)/2
 519 0018 08       		.byte	(.L43-.L42)/2
 520 0019 18       		.byte	(.L51-.L42)/2
 521              		.p2align 1
 522              	.L43:
1993:D:/Git/VL53L1/lib/core/src\vl53l1_api.c **** 	case VL53L1_DEVICEERROR_GPHSTREAMCOUNT0READY:
1994:D:/Git/VL53L1/lib/core/src\vl53l1_api.c **** 		RangeStatus = VL53L1_RANGESTATUS_SYNCRONISATION_INT;
 523              		.loc 1 1994 15 is_stmt 0 view .LVU145
 524 001a 0A20     		movs	r0, #10
 525              	.LVL53:
 526              		.loc 1 1994 15 view .LVU146
 527 001c 7047     		bx	lr
 528              	.LVL54:
 529              	.L49:
1995:D:/Git/VL53L1/lib/core/src\vl53l1_api.c **** 		break;
1996:D:/Git/VL53L1/lib/core/src\vl53l1_api.c **** 	case VL53L1_DEVICEERROR_RANGECOMPLETE_NO_WRAP_CHECK:
1997:D:/Git/VL53L1/lib/core/src\vl53l1_api.c **** 		RangeStatus = VL53L1_RANGESTATUS_RANGE_VALID_NO_WRAP_CHECK_FAIL;
1998:D:/Git/VL53L1/lib/core/src\vl53l1_api.c **** 		break;
1999:D:/Git/VL53L1/lib/core/src\vl53l1_api.c **** 	case VL53L1_DEVICEERROR_RANGEPHASECHECK:
2000:D:/Git/VL53L1/lib/core/src\vl53l1_api.c **** 		RangeStatus = VL53L1_RANGESTATUS_OUTOFBOUNDS_FAIL;
ARM GAS  C:\Users\Berbardo\AppData\Local\Temp\ccpaHgls.s 			page 46


 530              		.loc 1 2000 3 is_stmt 1 view .LVU147
2001:D:/Git/VL53L1/lib/core/src\vl53l1_api.c **** 		break;
 531              		.loc 1 2001 3 view .LVU148
2000:D:/Git/VL53L1/lib/core/src\vl53l1_api.c **** 		break;
 532              		.loc 1 2000 15 is_stmt 0 view .LVU149
 533 001e 0420     		movs	r0, #4
 534              	.LVL55:
 535              		.loc 1 2001 3 view .LVU150
 536 0020 7047     		bx	lr
 537              	.LVL56:
 538              	.L50:
2002:D:/Git/VL53L1/lib/core/src\vl53l1_api.c **** 	case VL53L1_DEVICEERROR_MSRCNOTARGET:
2003:D:/Git/VL53L1/lib/core/src\vl53l1_api.c **** 		RangeStatus = VL53L1_RANGESTATUS_SIGNAL_FAIL;
 539              		.loc 1 2003 3 is_stmt 1 view .LVU151
2004:D:/Git/VL53L1/lib/core/src\vl53l1_api.c **** 		break;
 540              		.loc 1 2004 3 view .LVU152
2003:D:/Git/VL53L1/lib/core/src\vl53l1_api.c **** 		break;
 541              		.loc 1 2003 15 is_stmt 0 view .LVU153
 542 0022 0220     		movs	r0, #2
 543              	.LVL57:
 544              		.loc 1 2004 3 view .LVU154
 545 0024 7047     		bx	lr
 546              	.LVL58:
 547              	.L48:
2005:D:/Git/VL53L1/lib/core/src\vl53l1_api.c **** 	case VL53L1_DEVICEERROR_SIGMATHRESHOLDCHECK:
2006:D:/Git/VL53L1/lib/core/src\vl53l1_api.c **** 		RangeStatus = VL53L1_RANGESTATUS_SIGMA_FAIL;
 548              		.loc 1 2006 3 is_stmt 1 view .LVU155
2007:D:/Git/VL53L1/lib/core/src\vl53l1_api.c **** 		break;
 549              		.loc 1 2007 3 view .LVU156
2006:D:/Git/VL53L1/lib/core/src\vl53l1_api.c **** 		break;
 550              		.loc 1 2006 15 is_stmt 0 view .LVU157
 551 0026 0120     		movs	r0, #1
 552              	.LVL59:
 553              		.loc 1 2007 3 view .LVU158
 554 0028 7047     		bx	lr
 555              	.LVL60:
 556              	.L44:
2008:D:/Git/VL53L1/lib/core/src\vl53l1_api.c **** 	case VL53L1_DEVICEERROR_PHASECONSISTENCY:
2009:D:/Git/VL53L1/lib/core/src\vl53l1_api.c **** 		RangeStatus = VL53L1_RANGESTATUS_WRAP_TARGET_FAIL;
2010:D:/Git/VL53L1/lib/core/src\vl53l1_api.c **** 		break;
2011:D:/Git/VL53L1/lib/core/src\vl53l1_api.c **** 	case VL53L1_DEVICEERROR_RANGEIGNORETHRESHOLD:
2012:D:/Git/VL53L1/lib/core/src\vl53l1_api.c **** 		RangeStatus = VL53L1_RANGESTATUS_XTALK_SIGNAL_FAIL;
 557              		.loc 1 2012 3 is_stmt 1 view .LVU159
2013:D:/Git/VL53L1/lib/core/src\vl53l1_api.c **** 		break;
 558              		.loc 1 2013 3 view .LVU160
2012:D:/Git/VL53L1/lib/core/src\vl53l1_api.c **** 		break;
 559              		.loc 1 2012 15 is_stmt 0 view .LVU161
 560 002a 0920     		movs	r0, #9
 561              	.LVL61:
 562              		.loc 1 2013 3 view .LVU162
 563 002c 7047     		bx	lr
 564              	.LVL62:
 565              	.L46:
2014:D:/Git/VL53L1/lib/core/src\vl53l1_api.c **** 	case VL53L1_DEVICEERROR_MINCLIP:
2015:D:/Git/VL53L1/lib/core/src\vl53l1_api.c **** 		RangeStatus = VL53L1_RANGESTATUS_RANGE_VALID_MIN_RANGE_CLIPPED;
 566              		.loc 1 2015 3 is_stmt 1 view .LVU163
2016:D:/Git/VL53L1/lib/core/src\vl53l1_api.c **** 		break;
ARM GAS  C:\Users\Berbardo\AppData\Local\Temp\ccpaHgls.s 			page 47


 567              		.loc 1 2016 3 view .LVU164
2015:D:/Git/VL53L1/lib/core/src\vl53l1_api.c **** 		break;
 568              		.loc 1 2015 15 is_stmt 0 view .LVU165
 569 002e 0320     		movs	r0, #3
 570              	.LVL63:
 571              		.loc 1 2016 3 view .LVU166
 572 0030 7047     		bx	lr
 573              	.LVL64:
 574              	.L45:
2017:D:/Git/VL53L1/lib/core/src\vl53l1_api.c **** 	case VL53L1_DEVICEERROR_RANGECOMPLETE:
2018:D:/Git/VL53L1/lib/core/src\vl53l1_api.c **** 		RangeStatus = VL53L1_RANGESTATUS_RANGE_VALID;
 575              		.loc 1 2018 3 is_stmt 1 view .LVU167
2019:D:/Git/VL53L1/lib/core/src\vl53l1_api.c **** 		break;
 576              		.loc 1 2019 3 view .LVU168
2018:D:/Git/VL53L1/lib/core/src\vl53l1_api.c **** 		break;
 577              		.loc 1 2018 15 is_stmt 0 view .LVU169
 578 0032 0020     		movs	r0, #0
 579              	.LVL65:
 580              		.loc 1 2019 3 view .LVU170
 581 0034 7047     		bx	lr
 582              	.LVL66:
 583              	.L40:
2020:D:/Git/VL53L1/lib/core/src\vl53l1_api.c **** 	default:
2021:D:/Git/VL53L1/lib/core/src\vl53l1_api.c **** 		RangeStatus = VL53L1_RANGESTATUS_NONE;
 584              		.loc 1 2021 3 is_stmt 1 view .LVU171
 585              		.loc 1 2021 15 is_stmt 0 view .LVU172
 586 0036 FF20     		movs	r0, #255
 587              	.LVL67:
 588              		.loc 1 2021 15 view .LVU173
 589 0038 7047     		bx	lr
 590              	.LVL68:
 591              	.L51:
1997:D:/Git/VL53L1/lib/core/src\vl53l1_api.c **** 		break;
 592              		.loc 1 1997 15 view .LVU174
 593 003a 0620     		movs	r0, #6
 594              	.LVL69:
 595              	.L41:
2022:D:/Git/VL53L1/lib/core/src\vl53l1_api.c **** 	}
2023:D:/Git/VL53L1/lib/core/src\vl53l1_api.c **** 
2024:D:/Git/VL53L1/lib/core/src\vl53l1_api.c **** 	return RangeStatus;
 596              		.loc 1 2024 2 is_stmt 1 view .LVU175
2025:D:/Git/VL53L1/lib/core/src\vl53l1_api.c **** }
 597              		.loc 1 2025 1 is_stmt 0 view .LVU176
 598 003c 7047     		bx	lr
 599              		.cfi_endproc
 600              	.LFE177:
 602              		.section	.text.SetPresetMode,"ax",%progbits
 603              		.align	1
 604              		.syntax unified
 605              		.thumb
 606              		.thumb_func
 607              		.fpu fpv4-sp-d16
 609              	SetPresetMode:
 610              	.LVL70:
 611              	.LFB146:
 919:D:/Git/VL53L1/lib/core/src\vl53l1_api.c **** 	VL53L1_Error Status = VL53L1_ERROR_NONE;
 612              		.loc 1 919 1 is_stmt 1 view -0
ARM GAS  C:\Users\Berbardo\AppData\Local\Temp\ccpaHgls.s 			page 48


 613              		.cfi_startproc
 614              		@ args = 0, pretend = 0, frame = 16
 615              		@ frame_needed = 0, uses_anonymous_args = 0
 919:D:/Git/VL53L1/lib/core/src\vl53l1_api.c **** 	VL53L1_Error Status = VL53L1_ERROR_NONE;
 616              		.loc 1 919 1 is_stmt 0 view .LVU178
 617 0000 F0B5     		push	{r4, r5, r6, r7, lr}
 618              		.cfi_def_cfa_offset 20
 619              		.cfi_offset 4, -20
 620              		.cfi_offset 5, -16
 621              		.cfi_offset 6, -12
 622              		.cfi_offset 7, -8
 623              		.cfi_offset 14, -4
 624 0002 89B0     		sub	sp, sp, #36
 625              		.cfi_def_cfa_offset 56
 626 0004 0546     		mov	r5, r0
 627 0006 0C46     		mov	r4, r1
 628 0008 1146     		mov	r1, r2
 629              	.LVL71:
 919:D:/Git/VL53L1/lib/core/src\vl53l1_api.c **** 	VL53L1_Error Status = VL53L1_ERROR_NONE;
 630              		.loc 1 919 1 view .LVU179
 631 000a 1F46     		mov	r7, r3
 920:D:/Git/VL53L1/lib/core/src\vl53l1_api.c **** 	VL53L1_DevicePresetModes   device_preset_mode;
 632              		.loc 1 920 2 is_stmt 1 view .LVU180
 633              	.LVL72:
 921:D:/Git/VL53L1/lib/core/src\vl53l1_api.c **** 	uint8_t measurement_mode;
 634              		.loc 1 921 2 view .LVU181
 922:D:/Git/VL53L1/lib/core/src\vl53l1_api.c **** 	uint16_t dss_config__target_total_rate_mcps;
 635              		.loc 1 922 2 view .LVU182
 923:D:/Git/VL53L1/lib/core/src\vl53l1_api.c **** 	uint32_t phasecal_config_timeout_us;
 636              		.loc 1 923 2 view .LVU183
 924:D:/Git/VL53L1/lib/core/src\vl53l1_api.c **** 	uint32_t mm_config_timeout_us;
 637              		.loc 1 924 2 view .LVU184
 925:D:/Git/VL53L1/lib/core/src\vl53l1_api.c **** 	uint32_t lld_range_config_timeout_us;
 638              		.loc 1 925 2 view .LVU185
 926:D:/Git/VL53L1/lib/core/src\vl53l1_api.c **** 
 639              		.loc 1 926 2 view .LVU186
 928:D:/Git/VL53L1/lib/core/src\vl53l1_api.c **** 
 640              		.loc 1 928 43 view .LVU187
 930:D:/Git/VL53L1/lib/core/src\vl53l1_api.c **** 		(PresetMode == VL53L1_PRESETMODE_LOWPOWER_AUTONOMOUS))
 641              		.loc 1 930 2 view .LVU188
 930:D:/Git/VL53L1/lib/core/src\vl53l1_api.c **** 		(PresetMode == VL53L1_PRESETMODE_LOWPOWER_AUTONOMOUS))
 642              		.loc 1 930 5 is_stmt 0 view .LVU189
 643 000c 032C     		cmp	r4, #3
 644 000e 14D0     		beq	.L58
 930:D:/Git/VL53L1/lib/core/src\vl53l1_api.c **** 		(PresetMode == VL53L1_PRESETMODE_LOWPOWER_AUTONOMOUS))
 645              		.loc 1 930 51 discriminator 1 view .LVU190
 646 0010 082C     		cmp	r4, #8
 647 0012 10D0     		beq	.L61
 934:D:/Git/VL53L1/lib/core/src\vl53l1_api.c **** 
 648              		.loc 1 934 21 view .LVU191
 649 0014 2026     		movs	r6, #32
 650              	.L53:
 651              	.LVL73:
 937:D:/Git/VL53L1/lib/core/src\vl53l1_api.c **** 			&device_preset_mode);
 652              		.loc 1 937 2 is_stmt 1 view .LVU192
 937:D:/Git/VL53L1/lib/core/src\vl53l1_api.c **** 			&device_preset_mode);
 653              		.loc 1 937 11 is_stmt 0 view .LVU193
ARM GAS  C:\Users\Berbardo\AppData\Local\Temp\ccpaHgls.s 			page 49


 654 0016 0DF11F02 		add	r2, sp, #31
 655              	.LVL74:
 937:D:/Git/VL53L1/lib/core/src\vl53l1_api.c **** 			&device_preset_mode);
 656              		.loc 1 937 11 view .LVU194
 657 001a 2046     		mov	r0, r4
 658              	.LVL75:
 937:D:/Git/VL53L1/lib/core/src\vl53l1_api.c **** 			&device_preset_mode);
 659              		.loc 1 937 11 view .LVU195
 660 001c FFF7FEFF 		bl	ComputeDevicePresetMode
 661              	.LVL76:
 940:D:/Git/VL53L1/lib/core/src\vl53l1_api.c **** 		Status =  VL53L1_get_preset_mode_timing_cfg(Dev,
 662              		.loc 1 940 2 is_stmt 1 view .LVU196
 940:D:/Git/VL53L1/lib/core/src\vl53l1_api.c **** 		Status =  VL53L1_get_preset_mode_timing_cfg(Dev,
 663              		.loc 1 940 5 is_stmt 0 view .LVU197
 664 0020 0346     		mov	r3, r0
 665 0022 60B1     		cbz	r0, .L62
 666              	.LVL77:
 667              	.L54:
 948:D:/Git/VL53L1/lib/core/src\vl53l1_api.c **** 		Status = VL53L1_set_preset_mode(
 668              		.loc 1 948 2 is_stmt 1 view .LVU198
 948:D:/Git/VL53L1/lib/core/src\vl53l1_api.c **** 		Status = VL53L1_set_preset_mode(
 669              		.loc 1 948 5 is_stmt 0 view .LVU199
 670 0024 C3B1     		cbz	r3, .L63
 671              	.L55:
 958:D:/Git/VL53L1/lib/core/src\vl53l1_api.c **** 		VL53L1DevDataSet(Dev, LLData.measurement_mode, measurement_mode);
 672              		.loc 1 958 2 is_stmt 1 view .LVU200
 958:D:/Git/VL53L1/lib/core/src\vl53l1_api.c **** 		VL53L1DevDataSet(Dev, LLData.measurement_mode, measurement_mode);
 673              		.loc 1 958 5 is_stmt 0 view .LVU201
 674 0026 03B9     		cbnz	r3, .L56
 959:D:/Git/VL53L1/lib/core/src\vl53l1_api.c **** 
 675              		.loc 1 959 3 is_stmt 1 view .LVU202
 676 0028 AE70     		strb	r6, [r5, #2]
 677              	.L56:
 961:D:/Git/VL53L1/lib/core/src\vl53l1_api.c **** 		VL53L1DevDataSet(Dev, CurrentParameters.PresetMode, PresetMode);
 678              		.loc 1 961 2 view .LVU203
 961:D:/Git/VL53L1/lib/core/src\vl53l1_api.c **** 		VL53L1DevDataSet(Dev, CurrentParameters.PresetMode, PresetMode);
 679              		.loc 1 961 5 is_stmt 0 view .LVU204
 680 002a 0BB9     		cbnz	r3, .L57
 962:D:/Git/VL53L1/lib/core/src\vl53l1_api.c **** 
 681              		.loc 1 962 3 is_stmt 1 view .LVU205
 682 002c 85F87C43 		strb	r4, [r5, #892]
 683              	.L57:
 964:D:/Git/VL53L1/lib/core/src\vl53l1_api.c **** 	return Status;
 684              		.loc 1 964 26 view .LVU206
 965:D:/Git/VL53L1/lib/core/src\vl53l1_api.c **** }
 685              		.loc 1 965 2 view .LVU207
 966:D:/Git/VL53L1/lib/core/src\vl53l1_api.c **** 
 686              		.loc 1 966 1 is_stmt 0 view .LVU208
 687 0030 1846     		mov	r0, r3
 688 0032 09B0     		add	sp, sp, #36
 689              		.cfi_remember_state
 690              		.cfi_def_cfa_offset 20
 691              		@ sp needed
 692 0034 F0BD     		pop	{r4, r5, r6, r7, pc}
 693              	.LVL78:
 694              	.L61:
 695              		.cfi_restore_state
ARM GAS  C:\Users\Berbardo\AppData\Local\Temp\ccpaHgls.s 			page 50


 932:D:/Git/VL53L1/lib/core/src\vl53l1_api.c **** 	else
 696              		.loc 1 932 21 view .LVU209
 697 0036 4026     		movs	r6, #64
 698 0038 EDE7     		b	.L53
 699              	.L58:
 700 003a 4026     		movs	r6, #64
 701 003c EBE7     		b	.L53
 702              	.LVL79:
 703              	.L62:
 941:D:/Git/VL53L1/lib/core/src\vl53l1_api.c **** 				device_preset_mode,
 704              		.loc 1 941 3 is_stmt 1 view .LVU210
 941:D:/Git/VL53L1/lib/core/src\vl53l1_api.c **** 				device_preset_mode,
 705              		.loc 1 941 13 is_stmt 0 view .LVU211
 706 003e 04AB     		add	r3, sp, #16
 707 0040 0193     		str	r3, [sp, #4]
 708 0042 05AB     		add	r3, sp, #20
 709 0044 0093     		str	r3, [sp]
 710 0046 06AB     		add	r3, sp, #24
 711 0048 07AA     		add	r2, sp, #28
 712 004a 9DF81F10 		ldrb	r1, [sp, #31]	@ zero_extendqisi2
 713 004e 2846     		mov	r0, r5
 714              	.LVL80:
 941:D:/Git/VL53L1/lib/core/src\vl53l1_api.c **** 				device_preset_mode,
 715              		.loc 1 941 13 view .LVU212
 716 0050 FFF7FEFF 		bl	VL53L1_get_preset_mode_timing_cfg
 717              	.LVL81:
 718 0054 0346     		mov	r3, r0
 719              	.LVL82:
 941:D:/Git/VL53L1/lib/core/src\vl53l1_api.c **** 				device_preset_mode,
 720              		.loc 1 941 13 view .LVU213
 721 0056 E5E7     		b	.L54
 722              	.L63:
 949:D:/Git/VL53L1/lib/core/src\vl53l1_api.c **** 				Dev,
 723              		.loc 1 949 3 is_stmt 1 view .LVU214
 949:D:/Git/VL53L1/lib/core/src\vl53l1_api.c **** 				Dev,
 724              		.loc 1 949 12 is_stmt 0 view .LVU215
 725 0058 0297     		str	r7, [sp, #8]
 726 005a 049B     		ldr	r3, [sp, #16]
 727              	.LVL83:
 949:D:/Git/VL53L1/lib/core/src\vl53l1_api.c **** 				Dev,
 728              		.loc 1 949 12 view .LVU216
 729 005c 0193     		str	r3, [sp, #4]
 730 005e 059B     		ldr	r3, [sp, #20]
 731 0060 0093     		str	r3, [sp]
 732 0062 069B     		ldr	r3, [sp, #24]
 733 0064 BDF81C20 		ldrh	r2, [sp, #28]
 734 0068 9DF81F10 		ldrb	r1, [sp, #31]	@ zero_extendqisi2
 735 006c 2846     		mov	r0, r5
 736 006e FFF7FEFF 		bl	VL53L1_set_preset_mode
 737              	.LVL84:
 738 0072 0346     		mov	r3, r0
 739              	.LVL85:
 949:D:/Git/VL53L1/lib/core/src\vl53l1_api.c **** 				Dev,
 740              		.loc 1 949 12 view .LVU217
 741 0074 D7E7     		b	.L55
 742              		.cfi_endproc
 743              	.LFE146:
ARM GAS  C:\Users\Berbardo\AppData\Local\Temp\ccpaHgls.s 			page 51


 745              		.section	.text.SetLimitValue,"ax",%progbits
 746              		.align	1
 747              		.syntax unified
 748              		.thumb
 749              		.thumb_func
 750              		.fpu fpv4-sp-d16
 752              	SetLimitValue:
 753              	.LVL86:
 754              	.LFB158:
1406:D:/Git/VL53L1/lib/core/src\vl53l1_api.c **** 	VL53L1_Error Status = VL53L1_ERROR_NONE;
 755              		.loc 1 1406 1 is_stmt 1 view -0
 756              		.cfi_startproc
 757              		@ args = 0, pretend = 0, frame = 0
 758              		@ frame_needed = 0, uses_anonymous_args = 0
1406:D:/Git/VL53L1/lib/core/src\vl53l1_api.c **** 	VL53L1_Error Status = VL53L1_ERROR_NONE;
 759              		.loc 1 1406 1 is_stmt 0 view .LVU219
 760 0000 08B5     		push	{r3, lr}
 761              		.cfi_def_cfa_offset 8
 762              		.cfi_offset 3, -8
 763              		.cfi_offset 14, -4
1407:D:/Git/VL53L1/lib/core/src\vl53l1_api.c **** 	uint16_t tmpuint16; /* temporary variable */
 764              		.loc 1 1407 2 is_stmt 1 view .LVU220
 765              	.LVL87:
1408:D:/Git/VL53L1/lib/core/src\vl53l1_api.c **** 
 766              		.loc 1 1408 2 view .LVU221
1410:D:/Git/VL53L1/lib/core/src\vl53l1_api.c **** 
 767              		.loc 1 1410 24 view .LVU222
1412:D:/Git/VL53L1/lib/core/src\vl53l1_api.c **** 	case VL53L1_CHECKENABLE_SIGMA_FINAL_RANGE:
 768              		.loc 1 1412 2 view .LVU223
 769 0002 21B1     		cbz	r1, .L65
 770 0004 0129     		cmp	r1, #1
 771 0006 08D0     		beq	.L66
1422:D:/Git/VL53L1/lib/core/src\vl53l1_api.c **** 	}
 772              		.loc 1 1422 10 is_stmt 0 view .LVU224
 773 0008 6FF00300 		mvn	r0, #3
 774              	.LVL88:
 775              	.L67:
1425:D:/Git/VL53L1/lib/core/src\vl53l1_api.c **** 	return Status;
 776              		.loc 1 1425 26 is_stmt 1 view .LVU225
1426:D:/Git/VL53L1/lib/core/src\vl53l1_api.c **** }
 777              		.loc 1 1426 2 view .LVU226
1427:D:/Git/VL53L1/lib/core/src\vl53l1_api.c **** 
 778              		.loc 1 1427 1 is_stmt 0 view .LVU227
 779 000c 08BD     		pop	{r3, pc}
 780              	.LVL89:
 781              	.L65:
1414:D:/Git/VL53L1/lib/core/src\vl53l1_api.c **** 		VL53L1_set_lite_sigma_threshold(Dev, tmpuint16);
 782              		.loc 1 1414 3 is_stmt 1 view .LVU228
1415:D:/Git/VL53L1/lib/core/src\vl53l1_api.c **** 		break;
 783              		.loc 1 1415 3 view .LVU229
 784 000e C2F38F31 		ubfx	r1, r2, #14, #16
 785              	.LVL90:
1415:D:/Git/VL53L1/lib/core/src\vl53l1_api.c **** 		break;
 786              		.loc 1 1415 3 is_stmt 0 view .LVU230
 787 0012 FFF7FEFF 		bl	VL53L1_set_lite_sigma_threshold
 788              	.LVL91:
1416:D:/Git/VL53L1/lib/core/src\vl53l1_api.c **** 	case VL53L1_CHECKENABLE_SIGNAL_RATE_FINAL_RANGE:
ARM GAS  C:\Users\Berbardo\AppData\Local\Temp\ccpaHgls.s 			page 52


 789              		.loc 1 1416 3 is_stmt 1 view .LVU231
1407:D:/Git/VL53L1/lib/core/src\vl53l1_api.c **** 	uint16_t tmpuint16; /* temporary variable */
 790              		.loc 1 1407 15 is_stmt 0 view .LVU232
 791 0016 0020     		movs	r0, #0
1416:D:/Git/VL53L1/lib/core/src\vl53l1_api.c **** 	case VL53L1_CHECKENABLE_SIGNAL_RATE_FINAL_RANGE:
 792              		.loc 1 1416 3 view .LVU233
 793 0018 F8E7     		b	.L67
 794              	.LVL92:
 795              	.L66:
1418:D:/Git/VL53L1/lib/core/src\vl53l1_api.c **** 		VL53L1_set_lite_min_count_rate(Dev, tmpuint16);
 796              		.loc 1 1418 3 is_stmt 1 view .LVU234
1419:D:/Git/VL53L1/lib/core/src\vl53l1_api.c **** 		break;
 797              		.loc 1 1419 3 view .LVU235
 798 001a C2F34F21 		ubfx	r1, r2, #9, #16
 799              	.LVL93:
1419:D:/Git/VL53L1/lib/core/src\vl53l1_api.c **** 		break;
 800              		.loc 1 1419 3 is_stmt 0 view .LVU236
 801 001e FFF7FEFF 		bl	VL53L1_set_lite_min_count_rate
 802              	.LVL94:
1420:D:/Git/VL53L1/lib/core/src\vl53l1_api.c **** 	default:
 803              		.loc 1 1420 3 is_stmt 1 view .LVU237
1407:D:/Git/VL53L1/lib/core/src\vl53l1_api.c **** 	uint16_t tmpuint16; /* temporary variable */
 804              		.loc 1 1407 15 is_stmt 0 view .LVU238
 805 0022 0020     		movs	r0, #0
1420:D:/Git/VL53L1/lib/core/src\vl53l1_api.c **** 	default:
 806              		.loc 1 1420 3 view .LVU239
 807 0024 F2E7     		b	.L67
 808              		.cfi_endproc
 809              	.LFE158:
 811              		.section	.text.ChangePresetMode,"ax",%progbits
 812              		.align	1
 813              		.syntax unified
 814              		.thumb
 815              		.thumb_func
 816              		.fpu fpv4-sp-d16
 818              	ChangePresetMode:
 819              	.LVL95:
 820              	.LFB172:
1811:D:/Git/VL53L1/lib/core/src\vl53l1_api.c **** 	VL53L1_Error Status = VL53L1_ERROR_NONE;
 821              		.loc 1 1811 1 is_stmt 1 view -0
 822              		.cfi_startproc
 823              		@ args = 0, pretend = 0, frame = 16
 824              		@ frame_needed = 0, uses_anonymous_args = 0
1811:D:/Git/VL53L1/lib/core/src\vl53l1_api.c **** 	VL53L1_Error Status = VL53L1_ERROR_NONE;
 825              		.loc 1 1811 1 is_stmt 0 view .LVU241
 826 0000 70B5     		push	{r4, r5, r6, lr}
 827              		.cfi_def_cfa_offset 16
 828              		.cfi_offset 4, -16
 829              		.cfi_offset 5, -12
 830              		.cfi_offset 6, -8
 831              		.cfi_offset 14, -4
 832 0002 84B0     		sub	sp, sp, #16
 833              		.cfi_def_cfa_offset 32
 834 0004 0446     		mov	r4, r0
1812:D:/Git/VL53L1/lib/core/src\vl53l1_api.c **** 	VL53L1_PresetModes PresetMode;
 835              		.loc 1 1812 2 is_stmt 1 view .LVU242
 836              	.LVL96:
ARM GAS  C:\Users\Berbardo\AppData\Local\Temp\ccpaHgls.s 			page 53


1813:D:/Git/VL53L1/lib/core/src\vl53l1_api.c **** 	VL53L1_DistanceModes NewDistanceMode;
 837              		.loc 1 1813 2 view .LVU243
1814:D:/Git/VL53L1/lib/core/src\vl53l1_api.c **** 	VL53L1_user_zone_t	user_zone;
 838              		.loc 1 1814 2 view .LVU244
1815:D:/Git/VL53L1/lib/core/src\vl53l1_api.c **** 	uint32_t TimingBudget;
 839              		.loc 1 1815 2 view .LVU245
1816:D:/Git/VL53L1/lib/core/src\vl53l1_api.c **** 	uint32_t MmTimeoutUs;
 840              		.loc 1 1816 2 view .LVU246
1817:D:/Git/VL53L1/lib/core/src\vl53l1_api.c **** 	uint32_t PhaseCalTimeoutUs;
 841              		.loc 1 1817 2 view .LVU247
1818:D:/Git/VL53L1/lib/core/src\vl53l1_api.c **** 	uint8_t DeviceMeasurementMode;
 842              		.loc 1 1818 2 view .LVU248
1819:D:/Git/VL53L1/lib/core/src\vl53l1_api.c **** 	uint32_t inter_measurement_period_ms;
 843              		.loc 1 1819 2 view .LVU249
1820:D:/Git/VL53L1/lib/core/src\vl53l1_api.c **** 
 844              		.loc 1 1820 2 view .LVU250
1822:D:/Git/VL53L1/lib/core/src\vl53l1_api.c **** 
 845              		.loc 1 1822 24 view .LVU251
1824:D:/Git/VL53L1/lib/core/src\vl53l1_api.c **** 	/*  Initialize variables fix ticket EwokP #475395 */
 846              		.loc 1 1824 2 view .LVU252
1824:D:/Git/VL53L1/lib/core/src\vl53l1_api.c **** 	/*  Initialize variables fix ticket EwokP #475395 */
 847              		.loc 1 1824 11 is_stmt 0 view .LVU253
 848 0006 03A9     		add	r1, sp, #12
 849 0008 FFF7FEFF 		bl	VL53L1_get_user_zone
 850              	.LVL97:
1826:D:/Git/VL53L1/lib/core/src\vl53l1_api.c **** 			CurrentParameters.PresetMode);
 851              		.loc 1 1826 2 is_stmt 1 view .LVU254
1826:D:/Git/VL53L1/lib/core/src\vl53l1_api.c **** 			CurrentParameters.PresetMode);
 852              		.loc 1 1826 13 is_stmt 0 view .LVU255
 853 000c 94F87C63 		ldrb	r6, [r4, #892]	@ zero_extendqisi2
 854              	.LVL98:
1828:D:/Git/VL53L1/lib/core/src\vl53l1_api.c **** 			CurrentParameters.NewDistanceMode);
 855              		.loc 1 1828 2 is_stmt 1 view .LVU256
1828:D:/Git/VL53L1/lib/core/src\vl53l1_api.c **** 			CurrentParameters.NewDistanceMode);
 856              		.loc 1 1828 18 is_stmt 0 view .LVU257
 857 0010 94F87F53 		ldrb	r5, [r4, #895]	@ zero_extendqisi2
 858              	.LVL99:
1831:D:/Git/VL53L1/lib/core/src\vl53l1_api.c **** 		Status = VL53L1_get_timeouts_us(Dev, &PhaseCalTimeoutUs,
 859              		.loc 1 1831 2 is_stmt 1 view .LVU258
1831:D:/Git/VL53L1/lib/core/src\vl53l1_api.c **** 		Status = VL53L1_get_timeouts_us(Dev, &PhaseCalTimeoutUs,
 860              		.loc 1 1831 5 is_stmt 0 view .LVU259
 861 0014 0346     		mov	r3, r0
 862 0016 58B1     		cbz	r0, .L79
 863              	.LVL100:
 864              	.L70:
1835:D:/Git/VL53L1/lib/core/src\vl53l1_api.c **** 		Status = VL53L1_stop_range(Dev);
 865              		.loc 1 1835 2 is_stmt 1 view .LVU260
1835:D:/Git/VL53L1/lib/core/src\vl53l1_api.c **** 		Status = VL53L1_stop_range(Dev);
 866              		.loc 1 1835 5 is_stmt 0 view .LVU261
 867 0018 93B1     		cbz	r3, .L80
 868              	.L71:
1838:D:/Git/VL53L1/lib/core/src\vl53l1_api.c **** 		Status = VL53L1_WaitUs(Dev, 500);
 869              		.loc 1 1838 2 is_stmt 1 view .LVU262
1838:D:/Git/VL53L1/lib/core/src\vl53l1_api.c **** 		Status = VL53L1_WaitUs(Dev, 500);
 870              		.loc 1 1838 5 is_stmt 0 view .LVU263
 871 001a B3B1     		cbz	r3, .L81
 872              	.L72:
ARM GAS  C:\Users\Berbardo\AppData\Local\Temp\ccpaHgls.s 			page 54


1841:D:/Git/VL53L1/lib/core/src\vl53l1_api.c **** 		inter_measurement_period_ms =  VL53L1DevDataGet(Dev,
 873              		.loc 1 1841 2 is_stmt 1 view .LVU264
1841:D:/Git/VL53L1/lib/core/src\vl53l1_api.c **** 		inter_measurement_period_ms =  VL53L1DevDataGet(Dev,
 874              		.loc 1 1841 5 is_stmt 0 view .LVU265
 875 001c E3B1     		cbz	r3, .L82
 876              	.L73:
1851:D:/Git/VL53L1/lib/core/src\vl53l1_api.c **** 		Status = VL53L1_set_timeouts_us(Dev, PhaseCalTimeoutUs,
 877              		.loc 1 1851 2 is_stmt 1 view .LVU266
1851:D:/Git/VL53L1/lib/core/src\vl53l1_api.c **** 		Status = VL53L1_set_timeouts_us(Dev, PhaseCalTimeoutUs,
 878              		.loc 1 1851 5 is_stmt 0 view .LVU267
 879 001e 1BB3     		cbz	r3, .L83
 880              	.LVL101:
 881              	.L74:
1860:D:/Git/VL53L1/lib/core/src\vl53l1_api.c **** 		Status = VL53L1_set_user_zone(Dev, &user_zone);
 882              		.loc 1 1860 2 is_stmt 1 view .LVU268
1860:D:/Git/VL53L1/lib/core/src\vl53l1_api.c **** 		Status = VL53L1_set_user_zone(Dev, &user_zone);
 883              		.loc 1 1860 5 is_stmt 0 view .LVU269
 884 0020 73B3     		cbz	r3, .L84
 885              	.L75:
1863:D:/Git/VL53L1/lib/core/src\vl53l1_api.c **** 		DeviceMeasurementMode = VL53L1DevDataGet(Dev,
 886              		.loc 1 1863 2 is_stmt 1 view .LVU270
1863:D:/Git/VL53L1/lib/core/src\vl53l1_api.c **** 		DeviceMeasurementMode = VL53L1DevDataGet(Dev,
 887              		.loc 1 1863 5 is_stmt 0 view .LVU271
 888 0022 9BB3     		cbz	r3, .L85
 889              	.L76:
1873:D:/Git/VL53L1/lib/core/src\vl53l1_api.c **** 		VL53L1DevDataSet(Dev,
 890              		.loc 1 1873 2 is_stmt 1 view .LVU272
1873:D:/Git/VL53L1/lib/core/src\vl53l1_api.c **** 		VL53L1DevDataSet(Dev,
 891              		.loc 1 1873 5 is_stmt 0 view .LVU273
 892 0024 0BB9     		cbnz	r3, .L77
1874:D:/Git/VL53L1/lib/core/src\vl53l1_api.c **** 			CurrentParameters.InternalDistanceMode,
 893              		.loc 1 1874 3 is_stmt 1 view .LVU274
 894 0026 84F87E53 		strb	r5, [r4, #894]
 895              	.L77:
1878:D:/Git/VL53L1/lib/core/src\vl53l1_api.c **** 	return Status;
 896              		.loc 1 1878 26 view .LVU275
1879:D:/Git/VL53L1/lib/core/src\vl53l1_api.c **** }
 897              		.loc 1 1879 2 view .LVU276
1880:D:/Git/VL53L1/lib/core/src\vl53l1_api.c **** 
 898              		.loc 1 1880 1 is_stmt 0 view .LVU277
 899 002a 1846     		mov	r0, r3
 900 002c 04B0     		add	sp, sp, #16
 901              		.cfi_remember_state
 902              		.cfi_def_cfa_offset 16
 903              		@ sp needed
 904 002e 70BD     		pop	{r4, r5, r6, pc}
 905              	.LVL102:
 906              	.L79:
 907              		.cfi_restore_state
1832:D:/Git/VL53L1/lib/core/src\vl53l1_api.c **** 			&MmTimeoutUs, &TimingBudget);
 908              		.loc 1 1832 3 is_stmt 1 view .LVU278
1832:D:/Git/VL53L1/lib/core/src\vl53l1_api.c **** 			&MmTimeoutUs, &TimingBudget);
 909              		.loc 1 1832 12 is_stmt 0 view .LVU279
 910 0030 02AB     		add	r3, sp, #8
 911 0032 01AA     		add	r2, sp, #4
 912 0034 6946     		mov	r1, sp
 913 0036 2046     		mov	r0, r4
ARM GAS  C:\Users\Berbardo\AppData\Local\Temp\ccpaHgls.s 			page 55


 914              	.LVL103:
1832:D:/Git/VL53L1/lib/core/src\vl53l1_api.c **** 			&MmTimeoutUs, &TimingBudget);
 915              		.loc 1 1832 12 view .LVU280
 916 0038 FFF7FEFF 		bl	VL53L1_get_timeouts_us
 917              	.LVL104:
 918 003c 0346     		mov	r3, r0
 919              	.LVL105:
1832:D:/Git/VL53L1/lib/core/src\vl53l1_api.c **** 			&MmTimeoutUs, &TimingBudget);
 920              		.loc 1 1832 12 view .LVU281
 921 003e EBE7     		b	.L70
 922              	.L80:
1836:D:/Git/VL53L1/lib/core/src\vl53l1_api.c **** 
 923              		.loc 1 1836 3 is_stmt 1 view .LVU282
1836:D:/Git/VL53L1/lib/core/src\vl53l1_api.c **** 
 924              		.loc 1 1836 12 is_stmt 0 view .LVU283
 925 0040 2046     		mov	r0, r4
 926 0042 FFF7FEFF 		bl	VL53L1_stop_range
 927              	.LVL106:
1836:D:/Git/VL53L1/lib/core/src\vl53l1_api.c **** 
 928              		.loc 1 1836 12 view .LVU284
 929 0046 0346     		mov	r3, r0
 930              	.LVL107:
1836:D:/Git/VL53L1/lib/core/src\vl53l1_api.c **** 
 931              		.loc 1 1836 12 view .LVU285
 932 0048 E7E7     		b	.L71
 933              	.L81:
1839:D:/Git/VL53L1/lib/core/src\vl53l1_api.c **** 
 934              		.loc 1 1839 3 is_stmt 1 view .LVU286
1839:D:/Git/VL53L1/lib/core/src\vl53l1_api.c **** 
 935              		.loc 1 1839 12 is_stmt 0 view .LVU287
 936 004a 4FF4FA71 		mov	r1, #500
 937 004e 2046     		mov	r0, r4
 938 0050 FFF7FEFF 		bl	VL53L1_WaitUs
 939              	.LVL108:
1839:D:/Git/VL53L1/lib/core/src\vl53l1_api.c **** 
 940              		.loc 1 1839 12 view .LVU288
 941 0054 0346     		mov	r3, r0
 942              	.LVL109:
1839:D:/Git/VL53L1/lib/core/src\vl53l1_api.c **** 
 943              		.loc 1 1839 12 view .LVU289
 944 0056 E1E7     		b	.L72
 945              	.L82:
1842:D:/Git/VL53L1/lib/core/src\vl53l1_api.c **** 					LLData.inter_measurement_period_ms);
 946              		.loc 1 1842 3 is_stmt 1 view .LVU290
 947              	.LVL110:
1845:D:/Git/VL53L1/lib/core/src\vl53l1_api.c **** 				PresetMode,
 948              		.loc 1 1845 3 view .LVU291
1845:D:/Git/VL53L1/lib/core/src\vl53l1_api.c **** 				PresetMode,
 949              		.loc 1 1845 12 is_stmt 0 view .LVU292
 950 0058 6369     		ldr	r3, [r4, #20]
 951              	.LVL111:
1845:D:/Git/VL53L1/lib/core/src\vl53l1_api.c **** 				PresetMode,
 952              		.loc 1 1845 12 view .LVU293
 953 005a 2A46     		mov	r2, r5
 954 005c 3146     		mov	r1, r6
 955 005e 2046     		mov	r0, r4
 956 0060 FFF7FEFF 		bl	SetPresetMode
ARM GAS  C:\Users\Berbardo\AppData\Local\Temp\ccpaHgls.s 			page 56


 957              	.LVL112:
1845:D:/Git/VL53L1/lib/core/src\vl53l1_api.c **** 				PresetMode,
 958              		.loc 1 1845 12 view .LVU294
 959 0064 0346     		mov	r3, r0
 960              	.LVL113:
1845:D:/Git/VL53L1/lib/core/src\vl53l1_api.c **** 				PresetMode,
 961              		.loc 1 1845 12 view .LVU295
 962 0066 DAE7     		b	.L73
 963              	.L83:
1852:D:/Git/VL53L1/lib/core/src\vl53l1_api.c **** 			MmTimeoutUs, TimingBudget);
 964              		.loc 1 1852 3 is_stmt 1 view .LVU296
1852:D:/Git/VL53L1/lib/core/src\vl53l1_api.c **** 			MmTimeoutUs, TimingBudget);
 965              		.loc 1 1852 12 is_stmt 0 view .LVU297
 966 0068 029B     		ldr	r3, [sp, #8]
 967              	.LVL114:
1852:D:/Git/VL53L1/lib/core/src\vl53l1_api.c **** 			MmTimeoutUs, TimingBudget);
 968              		.loc 1 1852 12 view .LVU298
 969 006a 019A     		ldr	r2, [sp, #4]
 970 006c 0099     		ldr	r1, [sp]
 971 006e 2046     		mov	r0, r4
 972 0070 FFF7FEFF 		bl	VL53L1_set_timeouts_us
 973              	.LVL115:
1855:D:/Git/VL53L1/lib/core/src\vl53l1_api.c **** 			VL53L1DevDataSet(Dev, LLData.range_config_timeout_us,
 974              		.loc 1 1855 3 is_stmt 1 view .LVU299
1855:D:/Git/VL53L1/lib/core/src\vl53l1_api.c **** 			VL53L1DevDataSet(Dev, LLData.range_config_timeout_us,
 975              		.loc 1 1855 6 is_stmt 0 view .LVU300
 976 0074 0346     		mov	r3, r0
 977 0076 0028     		cmp	r0, #0
 978 0078 D2D1     		bne	.L74
1856:D:/Git/VL53L1/lib/core/src\vl53l1_api.c **** 				TimingBudget);
 979              		.loc 1 1856 4 is_stmt 1 view .LVU301
 980 007a 029A     		ldr	r2, [sp, #8]
 981 007c 2261     		str	r2, [r4, #16]
 982 007e CFE7     		b	.L74
 983              	.LVL116:
 984              	.L84:
1861:D:/Git/VL53L1/lib/core/src\vl53l1_api.c **** 
 985              		.loc 1 1861 3 view .LVU302
1861:D:/Git/VL53L1/lib/core/src\vl53l1_api.c **** 
 986              		.loc 1 1861 12 is_stmt 0 view .LVU303
 987 0080 03A9     		add	r1, sp, #12
 988 0082 2046     		mov	r0, r4
 989 0084 FFF7FEFF 		bl	VL53L1_set_user_zone
 990              	.LVL117:
1861:D:/Git/VL53L1/lib/core/src\vl53l1_api.c **** 
 991              		.loc 1 1861 12 view .LVU304
 992 0088 0346     		mov	r3, r0
 993              	.LVL118:
1861:D:/Git/VL53L1/lib/core/src\vl53l1_api.c **** 
 994              		.loc 1 1861 12 view .LVU305
 995 008a CAE7     		b	.L75
 996              	.L85:
1864:D:/Git/VL53L1/lib/core/src\vl53l1_api.c **** 				LLData.measurement_mode);
 997              		.loc 1 1864 3 is_stmt 1 view .LVU306
 998              	.LVL119:
1867:D:/Git/VL53L1/lib/core/src\vl53l1_api.c **** 				Dev,
 999              		.loc 1 1867 3 view .LVU307
ARM GAS  C:\Users\Berbardo\AppData\Local\Temp\ccpaHgls.s 			page 57


1867:D:/Git/VL53L1/lib/core/src\vl53l1_api.c **** 				Dev,
 1000              		.loc 1 1867 12 is_stmt 0 view .LVU308
 1001 008c 0622     		movs	r2, #6
 1002 008e A178     		ldrb	r1, [r4, #2]	@ zero_extendqisi2
 1003 0090 2046     		mov	r0, r4
 1004 0092 FFF7FEFF 		bl	VL53L1_init_and_start_range
 1005              	.LVL120:
1867:D:/Git/VL53L1/lib/core/src\vl53l1_api.c **** 				Dev,
 1006              		.loc 1 1867 12 view .LVU309
 1007 0096 0346     		mov	r3, r0
 1008              	.LVL121:
1867:D:/Git/VL53L1/lib/core/src\vl53l1_api.c **** 				Dev,
 1009              		.loc 1 1867 12 view .LVU310
 1010 0098 C4E7     		b	.L76
 1011              		.cfi_endproc
 1012              	.LFE172:
 1014              		.section	.text.VL53L1_nvm_enable,"ax",%progbits
 1015              		.align	1
 1016              		.syntax unified
 1017              		.thumb
 1018              		.thumb_func
 1019              		.fpu fpv4-sp-d16
 1021              	VL53L1_nvm_enable:
 1022              	.LVL122:
 1023              	.LFB126:
 148:D:/Git/VL53L1/lib/core/src\vl53l1_api.c **** 	/*
 1024              		.loc 1 148 1 is_stmt 1 view -0
 1025              		.cfi_startproc
 1026              		@ args = 0, pretend = 0, frame = 0
 1027              		@ frame_needed = 0, uses_anonymous_args = 0
 148:D:/Git/VL53L1/lib/core/src\vl53l1_api.c **** 	/*
 1028              		.loc 1 148 1 is_stmt 0 view .LVU312
 1029 0000 70B5     		push	{r4, r5, r6, lr}
 1030              		.cfi_def_cfa_offset 16
 1031              		.cfi_offset 4, -16
 1032              		.cfi_offset 5, -12
 1033              		.cfi_offset 6, -8
 1034              		.cfi_offset 14, -4
 1035 0002 0446     		mov	r4, r0
 1036 0004 0D46     		mov	r5, r1
 1037 0006 1646     		mov	r6, r2
 159:D:/Git/VL53L1/lib/core/src\vl53l1_api.c **** 
 1038              		.loc 1 159 2 is_stmt 1 view .LVU313
 1039              	.LVL123:
 161:D:/Git/VL53L1/lib/core/src\vl53l1_api.c **** 
 1040              		.loc 1 161 24 view .LVU314
 166:D:/Git/VL53L1/lib/core/src\vl53l1_api.c **** 		status = VL53L1_disable_firmware(Dev);
 1041              		.loc 1 166 2 view .LVU315
 167:D:/Git/VL53L1/lib/core/src\vl53l1_api.c **** 
 1042              		.loc 1 167 3 view .LVU316
 167:D:/Git/VL53L1/lib/core/src\vl53l1_api.c **** 
 1043              		.loc 1 167 12 is_stmt 0 view .LVU317
 1044 0008 FFF7FEFF 		bl	VL53L1_disable_firmware
 1045              	.LVL124:
 172:D:/Git/VL53L1/lib/core/src\vl53l1_api.c **** 		status = VL53L1_enable_powerforce(Dev);
 1046              		.loc 1 172 2 is_stmt 1 view .LVU318
 172:D:/Git/VL53L1/lib/core/src\vl53l1_api.c **** 		status = VL53L1_enable_powerforce(Dev);
ARM GAS  C:\Users\Berbardo\AppData\Local\Temp\ccpaHgls.s 			page 58


 1047              		.loc 1 172 5 is_stmt 0 view .LVU319
 1048 000c 0346     		mov	r3, r0
 1049 000e 38B1     		cbz	r0, .L95
 1050              	.LVL125:
 1051              	.L87:
 179:D:/Git/VL53L1/lib/core/src\vl53l1_api.c **** 		status = VL53L1_WaitUs(
 1052              		.loc 1 179 2 is_stmt 1 view .LVU320
 179:D:/Git/VL53L1/lib/core/src\vl53l1_api.c **** 		status = VL53L1_WaitUs(
 1053              		.loc 1 179 5 is_stmt 0 view .LVU321
 1054 0010 5BB1     		cbz	r3, .L96
 1055              	.L88:
 186:D:/Git/VL53L1/lib/core/src\vl53l1_api.c **** 		status = VL53L1_WrByte(
 1056              		.loc 1 186 2 is_stmt 1 view .LVU322
 186:D:/Git/VL53L1/lib/core/src\vl53l1_api.c **** 		status = VL53L1_WrByte(
 1057              		.loc 1 186 5 is_stmt 0 view .LVU323
 1058 0012 83B1     		cbz	r3, .L97
 1059              	.L89:
 194:D:/Git/VL53L1/lib/core/src\vl53l1_api.c **** 		status = VL53L1_WrByte(
 1060              		.loc 1 194 2 is_stmt 1 view .LVU324
 194:D:/Git/VL53L1/lib/core/src\vl53l1_api.c **** 		status = VL53L1_WrByte(
 1061              		.loc 1 194 5 is_stmt 0 view .LVU325
 1062 0014 BBB1     		cbz	r3, .L98
 1063              	.L90:
 202:D:/Git/VL53L1/lib/core/src\vl53l1_api.c **** 		status = VL53L1_WaitUs(
 1064              		.loc 1 202 2 is_stmt 1 view .LVU326
 202:D:/Git/VL53L1/lib/core/src\vl53l1_api.c **** 		status = VL53L1_WaitUs(
 1065              		.loc 1 202 5 is_stmt 0 view .LVU327
 1066 0016 F3B1     		cbz	r3, .L99
 1067              	.L91:
 209:D:/Git/VL53L1/lib/core/src\vl53l1_api.c **** 		status = VL53L1_WrByte(
 1068              		.loc 1 209 2 is_stmt 1 view .LVU328
 209:D:/Git/VL53L1/lib/core/src\vl53l1_api.c **** 		status = VL53L1_WrByte(
 1069              		.loc 1 209 5 is_stmt 0 view .LVU329
 1070 0018 1BB3     		cbz	r3, .L100
 1071              	.L92:
 215:D:/Git/VL53L1/lib/core/src\vl53l1_api.c **** 		status = VL53L1_WrWord(
 1072              		.loc 1 215 2 is_stmt 1 view .LVU330
 215:D:/Git/VL53L1/lib/core/src\vl53l1_api.c **** 		status = VL53L1_WrWord(
 1073              		.loc 1 215 5 is_stmt 0 view .LVU331
 1074 001a 53B3     		cbz	r3, .L101
 1075              	.L93:
 221:D:/Git/VL53L1/lib/core/src\vl53l1_api.c **** 
 1076              		.loc 1 221 26 is_stmt 1 view .LVU332
 223:D:/Git/VL53L1/lib/core/src\vl53l1_api.c **** 
 1077              		.loc 1 223 2 view .LVU333
 225:D:/Git/VL53L1/lib/core/src\vl53l1_api.c **** 
 1078              		.loc 1 225 1 is_stmt 0 view .LVU334
 1079 001c 1846     		mov	r0, r3
 1080 001e 70BD     		pop	{r4, r5, r6, pc}
 1081              	.LVL126:
 1082              	.L95:
 173:D:/Git/VL53L1/lib/core/src\vl53l1_api.c **** 
 1083              		.loc 1 173 3 is_stmt 1 view .LVU335
 173:D:/Git/VL53L1/lib/core/src\vl53l1_api.c **** 
 1084              		.loc 1 173 12 is_stmt 0 view .LVU336
 1085 0020 2046     		mov	r0, r4
 1086              	.LVL127:
ARM GAS  C:\Users\Berbardo\AppData\Local\Temp\ccpaHgls.s 			page 59


 173:D:/Git/VL53L1/lib/core/src\vl53l1_api.c **** 
 1087              		.loc 1 173 12 view .LVU337
 1088 0022 FFF7FEFF 		bl	VL53L1_enable_powerforce
 1089              	.LVL128:
 1090 0026 0346     		mov	r3, r0
 1091              	.LVL129:
 173:D:/Git/VL53L1/lib/core/src\vl53l1_api.c **** 
 1092              		.loc 1 173 12 view .LVU338
 1093 0028 F2E7     		b	.L87
 1094              	.L96:
 180:D:/Git/VL53L1/lib/core/src\vl53l1_api.c **** 					Dev,
 1095              		.loc 1 180 3 is_stmt 1 view .LVU339
 180:D:/Git/VL53L1/lib/core/src\vl53l1_api.c **** 					Dev,
 1096              		.loc 1 180 12 is_stmt 0 view .LVU340
 1097 002a FA21     		movs	r1, #250
 1098 002c 2046     		mov	r0, r4
 1099 002e FFF7FEFF 		bl	VL53L1_WaitUs
 1100              	.LVL130:
 180:D:/Git/VL53L1/lib/core/src\vl53l1_api.c **** 					Dev,
 1101              		.loc 1 180 12 view .LVU341
 1102 0032 0346     		mov	r3, r0
 1103              	.LVL131:
 180:D:/Git/VL53L1/lib/core/src\vl53l1_api.c **** 					Dev,
 1104              		.loc 1 180 12 view .LVU342
 1105 0034 EDE7     		b	.L88
 1106              	.L97:
 187:D:/Git/VL53L1/lib/core/src\vl53l1_api.c **** 					Dev,
 1107              		.loc 1 187 3 is_stmt 1 view .LVU343
 187:D:/Git/VL53L1/lib/core/src\vl53l1_api.c **** 					Dev,
 1108              		.loc 1 187 12 is_stmt 0 view .LVU344
 1109 0036 0122     		movs	r2, #1
 1110 0038 40F28171 		movw	r1, #1921
 1111 003c 2046     		mov	r0, r4
 1112 003e FFF7FEFF 		bl	VL53L1_WrByte
 1113              	.LVL132:
 187:D:/Git/VL53L1/lib/core/src\vl53l1_api.c **** 					Dev,
 1114              		.loc 1 187 12 view .LVU345
 1115 0042 0346     		mov	r3, r0
 1116              	.LVL133:
 187:D:/Git/VL53L1/lib/core/src\vl53l1_api.c **** 					Dev,
 1117              		.loc 1 187 12 view .LVU346
 1118 0044 E6E7     		b	.L89
 1119              	.L98:
 195:D:/Git/VL53L1/lib/core/src\vl53l1_api.c **** 					Dev,
 1120              		.loc 1 195 3 is_stmt 1 view .LVU347
 195:D:/Git/VL53L1/lib/core/src\vl53l1_api.c **** 					Dev,
 1121              		.loc 1 195 12 is_stmt 0 view .LVU348
 1122 0046 0522     		movs	r2, #5
 1123 0048 40F28361 		movw	r1, #1667
 1124 004c 2046     		mov	r0, r4
 1125 004e FFF7FEFF 		bl	VL53L1_WrByte
 1126              	.LVL134:
 195:D:/Git/VL53L1/lib/core/src\vl53l1_api.c **** 					Dev,
 1127              		.loc 1 195 12 view .LVU349
 1128 0052 0346     		mov	r3, r0
 1129              	.LVL135:
 195:D:/Git/VL53L1/lib/core/src\vl53l1_api.c **** 					Dev,
ARM GAS  C:\Users\Berbardo\AppData\Local\Temp\ccpaHgls.s 			page 60


 1130              		.loc 1 195 12 view .LVU350
 1131 0054 DFE7     		b	.L90
 1132              	.L99:
 203:D:/Git/VL53L1/lib/core/src\vl53l1_api.c **** 					Dev,
 1133              		.loc 1 203 3 is_stmt 1 view .LVU351
 203:D:/Git/VL53L1/lib/core/src\vl53l1_api.c **** 					Dev,
 1134              		.loc 1 203 12 is_stmt 0 view .LVU352
 1135 0056 3146     		mov	r1, r6
 1136 0058 2046     		mov	r0, r4
 1137 005a FFF7FEFF 		bl	VL53L1_WaitUs
 1138              	.LVL136:
 203:D:/Git/VL53L1/lib/core/src\vl53l1_api.c **** 					Dev,
 1139              		.loc 1 203 12 view .LVU353
 1140 005e 0346     		mov	r3, r0
 1141              	.LVL137:
 203:D:/Git/VL53L1/lib/core/src\vl53l1_api.c **** 					Dev,
 1142              		.loc 1 203 12 view .LVU354
 1143 0060 DAE7     		b	.L91
 1144              	.L100:
 210:D:/Git/VL53L1/lib/core/src\vl53l1_api.c **** 					Dev,
 1145              		.loc 1 210 3 is_stmt 1 view .LVU355
 210:D:/Git/VL53L1/lib/core/src\vl53l1_api.c **** 					Dev,
 1146              		.loc 1 210 12 is_stmt 0 view .LVU356
 1147 0062 0122     		movs	r2, #1
 1148 0064 4FF4F061 		mov	r1, #1920
 1149 0068 2046     		mov	r0, r4
 1150 006a FFF7FEFF 		bl	VL53L1_WrByte
 1151              	.LVL138:
 210:D:/Git/VL53L1/lib/core/src\vl53l1_api.c **** 					Dev,
 1152              		.loc 1 210 12 view .LVU357
 1153 006e 0346     		mov	r3, r0
 1154              	.LVL139:
 210:D:/Git/VL53L1/lib/core/src\vl53l1_api.c **** 					Dev,
 1155              		.loc 1 210 12 view .LVU358
 1156 0070 D3E7     		b	.L92
 1157              	.L101:
 216:D:/Git/VL53L1/lib/core/src\vl53l1_api.c **** 					Dev,
 1158              		.loc 1 216 3 is_stmt 1 view .LVU359
 216:D:/Git/VL53L1/lib/core/src\vl53l1_api.c **** 					Dev,
 1159              		.loc 1 216 12 is_stmt 0 view .LVU360
 1160 0072 2A46     		mov	r2, r5
 1161 0074 40F28471 		movw	r1, #1924
 1162 0078 2046     		mov	r0, r4
 1163 007a FFF7FEFF 		bl	VL53L1_WrWord
 1164              	.LVL140:
 216:D:/Git/VL53L1/lib/core/src\vl53l1_api.c **** 					Dev,
 1165              		.loc 1 216 12 view .LVU361
 1166 007e 0346     		mov	r3, r0
 1167              	.LVL141:
 216:D:/Git/VL53L1/lib/core/src\vl53l1_api.c **** 					Dev,
 1168              		.loc 1 216 12 view .LVU362
 1169 0080 CCE7     		b	.L93
 1170              		.cfi_endproc
 1171              	.LFE126:
 1173              		.section	.text.VL53L1_nvm_read,"ax",%progbits
 1174              		.align	1
 1175              		.syntax unified
ARM GAS  C:\Users\Berbardo\AppData\Local\Temp\ccpaHgls.s 			page 61


 1176              		.thumb
 1177              		.thumb_func
 1178              		.fpu fpv4-sp-d16
 1180              	VL53L1_nvm_read:
 1181              	.LVL142:
 1182              	.LFB127:
 233:D:/Git/VL53L1/lib/core/src\vl53l1_api.c **** 	/*
 1183              		.loc 1 233 1 is_stmt 1 view -0
 1184              		.cfi_startproc
 1185              		@ args = 0, pretend = 0, frame = 0
 1186              		@ frame_needed = 0, uses_anonymous_args = 0
 233:D:/Git/VL53L1/lib/core/src\vl53l1_api.c **** 	/*
 1187              		.loc 1 233 1 is_stmt 0 view .LVU364
 1188 0000 2DE9F041 		push	{r4, r5, r6, r7, r8, lr}
 1189              		.cfi_def_cfa_offset 24
 1190              		.cfi_offset 4, -24
 1191              		.cfi_offset 5, -20
 1192              		.cfi_offset 6, -16
 1193              		.cfi_offset 7, -12
 1194              		.cfi_offset 8, -8
 1195              		.cfi_offset 14, -4
 1196 0004 0646     		mov	r6, r0
 1197 0006 0F46     		mov	r7, r1
 1198 0008 9046     		mov	r8, r2
 1199 000a 1D46     		mov	r5, r3
 243:D:/Git/VL53L1/lib/core/src\vl53l1_api.c **** 	uint8_t      nvm_addr = 0;
 1200              		.loc 1 243 2 is_stmt 1 view .LVU365
 1201              	.LVL143:
 244:D:/Git/VL53L1/lib/core/src\vl53l1_api.c **** 
 1202              		.loc 1 244 2 view .LVU366
 246:D:/Git/VL53L1/lib/core/src\vl53l1_api.c **** 
 1203              		.loc 1 246 24 view .LVU367
 248:D:/Git/VL53L1/lib/core/src\vl53l1_api.c **** 
 1204              		.loc 1 248 2 view .LVU368
 248:D:/Git/VL53L1/lib/core/src\vl53l1_api.c **** 
 1205              		.loc 1 248 16 is_stmt 0 view .LVU369
 1206 000c 0C46     		mov	r4, r1
 243:D:/Git/VL53L1/lib/core/src\vl53l1_api.c **** 	uint8_t      nvm_addr = 0;
 1207              		.loc 1 243 15 view .LVU370
 1208 000e 0020     		movs	r0, #0
 1209              	.LVL144:
 248:D:/Git/VL53L1/lib/core/src\vl53l1_api.c **** 
 1210              		.loc 1 248 2 view .LVU371
 1211 0010 23E0     		b	.L103
 1212              	.LVL145:
 1213              	.L112:
 253:D:/Git/VL53L1/lib/core/src\vl53l1_api.c **** 						Dev,
 1214              		.loc 1 253 4 is_stmt 1 view .LVU372
 253:D:/Git/VL53L1/lib/core/src\vl53l1_api.c **** 						Dev,
 1215              		.loc 1 253 13 is_stmt 0 view .LVU373
 1216 0012 2246     		mov	r2, r4
 1217 0014 40F29471 		movw	r1, #1940
 1218 0018 3046     		mov	r0, r6
 1219              	.LVL146:
 253:D:/Git/VL53L1/lib/core/src\vl53l1_api.c **** 						Dev,
 1220              		.loc 1 253 13 view .LVU374
 1221 001a FFF7FEFF 		bl	VL53L1_WrByte
ARM GAS  C:\Users\Berbardo\AppData\Local\Temp\ccpaHgls.s 			page 62


 1222              	.LVL147:
 253:D:/Git/VL53L1/lib/core/src\vl53l1_api.c **** 						Dev,
 1223              		.loc 1 253 13 view .LVU375
 1224 001e 22E0     		b	.L104
 1225              	.L113:
 261:D:/Git/VL53L1/lib/core/src\vl53l1_api.c **** 						Dev,
 1226              		.loc 1 261 4 is_stmt 1 view .LVU376
 261:D:/Git/VL53L1/lib/core/src\vl53l1_api.c **** 						Dev,
 1227              		.loc 1 261 13 is_stmt 0 view .LVU377
 1228 0020 0022     		movs	r2, #0
 1229 0022 40F28371 		movw	r1, #1923
 1230 0026 3046     		mov	r0, r6
 1231              	.LVL148:
 261:D:/Git/VL53L1/lib/core/src\vl53l1_api.c **** 						Dev,
 1232              		.loc 1 261 13 view .LVU378
 1233 0028 FFF7FEFF 		bl	VL53L1_WrByte
 1234              	.LVL149:
 261:D:/Git/VL53L1/lib/core/src\vl53l1_api.c **** 						Dev,
 1235              		.loc 1 261 13 view .LVU379
 1236 002c 1DE0     		b	.L105
 1237              	.L114:
 269:D:/Git/VL53L1/lib/core/src\vl53l1_api.c **** 						Dev,
 1238              		.loc 1 269 4 is_stmt 1 view .LVU380
 269:D:/Git/VL53L1/lib/core/src\vl53l1_api.c **** 						Dev,
 1239              		.loc 1 269 13 is_stmt 0 view .LVU381
 1240 002e 0521     		movs	r1, #5
 1241 0030 3046     		mov	r0, r6
 1242              	.LVL150:
 269:D:/Git/VL53L1/lib/core/src\vl53l1_api.c **** 						Dev,
 1243              		.loc 1 269 13 view .LVU382
 1244 0032 FFF7FEFF 		bl	VL53L1_WaitUs
 1245              	.LVL151:
 269:D:/Git/VL53L1/lib/core/src\vl53l1_api.c **** 						Dev,
 1246              		.loc 1 269 13 view .LVU383
 1247 0036 1AE0     		b	.L106
 1248              	.L115:
 274:D:/Git/VL53L1/lib/core/src\vl53l1_api.c **** 						Dev,
 1249              		.loc 1 274 4 is_stmt 1 view .LVU384
 274:D:/Git/VL53L1/lib/core/src\vl53l1_api.c **** 						Dev,
 1250              		.loc 1 274 13 is_stmt 0 view .LVU385
 1251 0038 0122     		movs	r2, #1
 1252 003a 40F28371 		movw	r1, #1923
 1253 003e 3046     		mov	r0, r6
 1254              	.LVL152:
 274:D:/Git/VL53L1/lib/core/src\vl53l1_api.c **** 						Dev,
 1255              		.loc 1 274 13 view .LVU386
 1256 0040 FFF7FEFF 		bl	VL53L1_WrByte
 1257              	.LVL153:
 274:D:/Git/VL53L1/lib/core/src\vl53l1_api.c **** 						Dev,
 1258              		.loc 1 274 13 view .LVU387
 1259 0044 15E0     		b	.L107
 1260              	.L116:
 281:D:/Git/VL53L1/lib/core/src\vl53l1_api.c **** 						Dev,
 1261              		.loc 1 281 4 is_stmt 1 view .LVU388
 281:D:/Git/VL53L1/lib/core/src\vl53l1_api.c **** 						Dev,
 1262              		.loc 1 281 13 is_stmt 0 view .LVU389
 1263 0046 0423     		movs	r3, #4
ARM GAS  C:\Users\Berbardo\AppData\Local\Temp\ccpaHgls.s 			page 63


 1264 0048 2A46     		mov	r2, r5
 1265 004a 4FF4F261 		mov	r1, #1936
 1266 004e 3046     		mov	r0, r6
 1267              	.LVL154:
 281:D:/Git/VL53L1/lib/core/src\vl53l1_api.c **** 						Dev,
 1268              		.loc 1 281 13 view .LVU390
 1269 0050 FFF7FEFF 		bl	VL53L1_ReadMulti
 1270              	.LVL155:
 1271              	.L108:
 289:D:/Git/VL53L1/lib/core/src\vl53l1_api.c **** 
 1272              		.loc 1 289 3 is_stmt 1 discriminator 2 view .LVU391
 289:D:/Git/VL53L1/lib/core/src\vl53l1_api.c **** 
 1273              		.loc 1 289 9 is_stmt 0 discriminator 2 view .LVU392
 1274 0054 0435     		adds	r5, r5, #4
 1275              	.LVL156:
 248:D:/Git/VL53L1/lib/core/src\vl53l1_api.c **** 
 1276              		.loc 1 248 76 discriminator 2 view .LVU393
 1277 0056 0134     		adds	r4, r4, #1
 1278              	.LVL157:
 248:D:/Git/VL53L1/lib/core/src\vl53l1_api.c **** 
 1279              		.loc 1 248 76 discriminator 2 view .LVU394
 1280 0058 E4B2     		uxtb	r4, r4
 1281              	.LVL158:
 1282              	.L103:
 248:D:/Git/VL53L1/lib/core/src\vl53l1_api.c **** 
 1283              		.loc 1 248 58 discriminator 1 view .LVU395
 1284 005a 07EB0803 		add	r3, r7, r8
 248:D:/Git/VL53L1/lib/core/src\vl53l1_api.c **** 
 1285              		.loc 1 248 2 discriminator 1 view .LVU396
 1286 005e 9C42     		cmp	r4, r3
 1287 0060 0ADA     		bge	.L111
 252:D:/Git/VL53L1/lib/core/src\vl53l1_api.c **** 			status = VL53L1_WrByte(
 1288              		.loc 1 252 3 is_stmt 1 view .LVU397
 252:D:/Git/VL53L1/lib/core/src\vl53l1_api.c **** 			status = VL53L1_WrByte(
 1289              		.loc 1 252 6 is_stmt 0 view .LVU398
 1290 0062 0028     		cmp	r0, #0
 1291 0064 D5D0     		beq	.L112
 1292              	.L104:
 260:D:/Git/VL53L1/lib/core/src\vl53l1_api.c **** 			status = VL53L1_WrByte(
 1293              		.loc 1 260 3 is_stmt 1 view .LVU399
 260:D:/Git/VL53L1/lib/core/src\vl53l1_api.c **** 			status = VL53L1_WrByte(
 1294              		.loc 1 260 6 is_stmt 0 view .LVU400
 1295 0066 0028     		cmp	r0, #0
 1296 0068 DAD0     		beq	.L113
 1297              	.L105:
 268:D:/Git/VL53L1/lib/core/src\vl53l1_api.c **** 			status = VL53L1_WaitUs(
 1298              		.loc 1 268 3 is_stmt 1 view .LVU401
 268:D:/Git/VL53L1/lib/core/src\vl53l1_api.c **** 			status = VL53L1_WaitUs(
 1299              		.loc 1 268 6 is_stmt 0 view .LVU402
 1300 006a 0028     		cmp	r0, #0
 1301 006c DFD0     		beq	.L114
 1302              	.L106:
 273:D:/Git/VL53L1/lib/core/src\vl53l1_api.c **** 			status = VL53L1_WrByte(
 1303              		.loc 1 273 3 is_stmt 1 view .LVU403
 273:D:/Git/VL53L1/lib/core/src\vl53l1_api.c **** 			status = VL53L1_WrByte(
 1304              		.loc 1 273 6 is_stmt 0 view .LVU404
 1305 006e 0028     		cmp	r0, #0
ARM GAS  C:\Users\Berbardo\AppData\Local\Temp\ccpaHgls.s 			page 64


 1306 0070 E2D0     		beq	.L115
 1307              	.L107:
 280:D:/Git/VL53L1/lib/core/src\vl53l1_api.c **** 			status = VL53L1_ReadMulti(
 1308              		.loc 1 280 3 is_stmt 1 view .LVU405
 280:D:/Git/VL53L1/lib/core/src\vl53l1_api.c **** 			status = VL53L1_ReadMulti(
 1309              		.loc 1 280 6 is_stmt 0 view .LVU406
 1310 0072 0028     		cmp	r0, #0
 1311 0074 EED1     		bne	.L108
 280:D:/Git/VL53L1/lib/core/src\vl53l1_api.c **** 			status = VL53L1_ReadMulti(
 1312              		.loc 1 280 6 view .LVU407
 1313 0076 E6E7     		b	.L116
 1314              	.L111:
 297:D:/Git/VL53L1/lib/core/src\vl53l1_api.c **** 
 1315              		.loc 1 297 1 view .LVU408
 1316 0078 BDE8F081 		pop	{r4, r5, r6, r7, r8, pc}
 297:D:/Git/VL53L1/lib/core/src\vl53l1_api.c **** 
 1317              		.loc 1 297 1 view .LVU409
 1318              		.cfi_endproc
 1319              	.LFE127:
 1321              		.section	.text.VL53L1_nvm_disable,"ax",%progbits
 1322              		.align	1
 1323              		.syntax unified
 1324              		.thumb
 1325              		.thumb_func
 1326              		.fpu fpv4-sp-d16
 1328              	VL53L1_nvm_disable:
 1329              	.LVL159:
 1330              	.LFB128:
 301:D:/Git/VL53L1/lib/core/src\vl53l1_api.c **** 	/*
 1331              		.loc 1 301 1 is_stmt 1 view -0
 1332              		.cfi_startproc
 1333              		@ args = 0, pretend = 0, frame = 0
 1334              		@ frame_needed = 0, uses_anonymous_args = 0
 301:D:/Git/VL53L1/lib/core/src\vl53l1_api.c **** 	/*
 1335              		.loc 1 301 1 is_stmt 0 view .LVU411
 1336 0000 10B5     		push	{r4, lr}
 1337              		.cfi_def_cfa_offset 8
 1338              		.cfi_offset 4, -8
 1339              		.cfi_offset 14, -4
 1340 0002 0446     		mov	r4, r0
 306:D:/Git/VL53L1/lib/core/src\vl53l1_api.c **** 
 1341              		.loc 1 306 2 is_stmt 1 view .LVU412
 1342              	.LVL160:
 308:D:/Git/VL53L1/lib/core/src\vl53l1_api.c **** 
 1343              		.loc 1 308 24 view .LVU413
 310:D:/Git/VL53L1/lib/core/src\vl53l1_api.c **** 		status = VL53L1_WrByte(
 1344              		.loc 1 310 2 view .LVU414
 311:D:/Git/VL53L1/lib/core/src\vl53l1_api.c **** 					Dev,
 1345              		.loc 1 311 3 view .LVU415
 311:D:/Git/VL53L1/lib/core/src\vl53l1_api.c **** 					Dev,
 1346              		.loc 1 311 12 is_stmt 0 view .LVU416
 1347 0004 0122     		movs	r2, #1
 1348 0006 40F28371 		movw	r1, #1923
 1349 000a FFF7FEFF 		bl	VL53L1_WrByte
 1350              	.LVL161:
 318:D:/Git/VL53L1/lib/core/src\vl53l1_api.c **** 		status = VL53L1_WrByte(
 1351              		.loc 1 318 2 is_stmt 1 view .LVU417
ARM GAS  C:\Users\Berbardo\AppData\Local\Temp\ccpaHgls.s 			page 65


 318:D:/Git/VL53L1/lib/core/src\vl53l1_api.c **** 		status = VL53L1_WrByte(
 1352              		.loc 1 318 5 is_stmt 0 view .LVU418
 1353 000e 0346     		mov	r3, r0
 1354 0010 18B1     		cbz	r0, .L122
 1355              	.LVL162:
 1356              	.L118:
 326:D:/Git/VL53L1/lib/core/src\vl53l1_api.c **** 		status = VL53L1_disable_powerforce(Dev);
 1357              		.loc 1 326 2 is_stmt 1 view .LVU419
 326:D:/Git/VL53L1/lib/core/src\vl53l1_api.c **** 		status = VL53L1_disable_powerforce(Dev);
 1358              		.loc 1 326 5 is_stmt 0 view .LVU420
 1359 0012 53B1     		cbz	r3, .L123
 1360              	.L119:
 331:D:/Git/VL53L1/lib/core/src\vl53l1_api.c **** 		status = VL53L1_enable_firmware(Dev);
 1361              		.loc 1 331 2 is_stmt 1 view .LVU421
 331:D:/Git/VL53L1/lib/core/src\vl53l1_api.c **** 		status = VL53L1_enable_firmware(Dev);
 1362              		.loc 1 331 5 is_stmt 0 view .LVU422
 1363 0014 73B1     		cbz	r3, .L124
 1364              	.L120:
 334:D:/Git/VL53L1/lib/core/src\vl53l1_api.c **** 
 1365              		.loc 1 334 26 is_stmt 1 view .LVU423
 336:D:/Git/VL53L1/lib/core/src\vl53l1_api.c **** 
 1366              		.loc 1 336 2 view .LVU424
 338:D:/Git/VL53L1/lib/core/src\vl53l1_api.c **** 
 1367              		.loc 1 338 1 is_stmt 0 view .LVU425
 1368 0016 1846     		mov	r0, r3
 1369 0018 10BD     		pop	{r4, pc}
 1370              	.LVL163:
 1371              	.L122:
 319:D:/Git/VL53L1/lib/core/src\vl53l1_api.c **** 					Dev,
 1372              		.loc 1 319 3 is_stmt 1 view .LVU426
 319:D:/Git/VL53L1/lib/core/src\vl53l1_api.c **** 					Dev,
 1373              		.loc 1 319 12 is_stmt 0 view .LVU427
 1374 001a 0022     		movs	r2, #0
 1375 001c 40F28171 		movw	r1, #1921
 1376 0020 2046     		mov	r0, r4
 1377              	.LVL164:
 319:D:/Git/VL53L1/lib/core/src\vl53l1_api.c **** 					Dev,
 1378              		.loc 1 319 12 view .LVU428
 1379 0022 FFF7FEFF 		bl	VL53L1_WrByte
 1380              	.LVL165:
 1381 0026 0346     		mov	r3, r0
 1382              	.LVL166:
 319:D:/Git/VL53L1/lib/core/src\vl53l1_api.c **** 					Dev,
 1383              		.loc 1 319 12 view .LVU429
 1384 0028 F3E7     		b	.L118
 1385              	.L123:
 327:D:/Git/VL53L1/lib/core/src\vl53l1_api.c **** 
 1386              		.loc 1 327 3 is_stmt 1 view .LVU430
 327:D:/Git/VL53L1/lib/core/src\vl53l1_api.c **** 
 1387              		.loc 1 327 12 is_stmt 0 view .LVU431
 1388 002a 2046     		mov	r0, r4
 1389 002c FFF7FEFF 		bl	VL53L1_disable_powerforce
 1390              	.LVL167:
 327:D:/Git/VL53L1/lib/core/src\vl53l1_api.c **** 
 1391              		.loc 1 327 12 view .LVU432
 1392 0030 0346     		mov	r3, r0
 1393              	.LVL168:
ARM GAS  C:\Users\Berbardo\AppData\Local\Temp\ccpaHgls.s 			page 66


 327:D:/Git/VL53L1/lib/core/src\vl53l1_api.c **** 
 1394              		.loc 1 327 12 view .LVU433
 1395 0032 EFE7     		b	.L119
 1396              	.L124:
 332:D:/Git/VL53L1/lib/core/src\vl53l1_api.c **** 
 1397              		.loc 1 332 3 is_stmt 1 view .LVU434
 332:D:/Git/VL53L1/lib/core/src\vl53l1_api.c **** 
 1398              		.loc 1 332 12 is_stmt 0 view .LVU435
 1399 0034 2046     		mov	r0, r4
 1400 0036 FFF7FEFF 		bl	VL53L1_enable_firmware
 1401              	.LVL169:
 332:D:/Git/VL53L1/lib/core/src\vl53l1_api.c **** 
 1402              		.loc 1 332 12 view .LVU436
 1403 003a 0346     		mov	r3, r0
 1404              	.LVL170:
 332:D:/Git/VL53L1/lib/core/src\vl53l1_api.c **** 
 1405              		.loc 1 332 12 view .LVU437
 1406 003c EBE7     		b	.L120
 1407              		.cfi_endproc
 1408              	.LFE128:
 1410              		.section	.text.VL53L1_read_nvm_raw_data,"ax",%progbits
 1411              		.align	1
 1412              		.syntax unified
 1413              		.thumb
 1414              		.thumb_func
 1415              		.fpu fpv4-sp-d16
 1417              	VL53L1_read_nvm_raw_data:
 1418              	.LVL171:
 1419              	.LFB129:
 345:D:/Git/VL53L1/lib/core/src\vl53l1_api.c **** 
 1420              		.loc 1 345 1 is_stmt 1 view -0
 1421              		.cfi_startproc
 1422              		@ args = 0, pretend = 0, frame = 0
 1423              		@ frame_needed = 0, uses_anonymous_args = 0
 345:D:/Git/VL53L1/lib/core/src\vl53l1_api.c **** 
 1424              		.loc 1 345 1 is_stmt 0 view .LVU439
 1425 0000 F8B5     		push	{r3, r4, r5, r6, r7, lr}
 1426              		.cfi_def_cfa_offset 24
 1427              		.cfi_offset 3, -24
 1428              		.cfi_offset 4, -20
 1429              		.cfi_offset 5, -16
 1430              		.cfi_offset 6, -12
 1431              		.cfi_offset 7, -8
 1432              		.cfi_offset 14, -4
 1433 0002 0446     		mov	r4, r0
 1434 0004 0D46     		mov	r5, r1
 1435 0006 1646     		mov	r6, r2
 1436 0008 1F46     		mov	r7, r3
 351:D:/Git/VL53L1/lib/core/src\vl53l1_api.c **** 
 1437              		.loc 1 351 2 is_stmt 1 view .LVU440
 1438              	.LVL172:
 353:D:/Git/VL53L1/lib/core/src\vl53l1_api.c **** 
 1439              		.loc 1 353 24 view .LVU441
 359:D:/Git/VL53L1/lib/core/src\vl53l1_api.c **** 		status = VL53L1_nvm_enable(
 1440              		.loc 1 359 2 view .LVU442
 360:D:/Git/VL53L1/lib/core/src\vl53l1_api.c **** 					Dev,
 1441              		.loc 1 360 3 view .LVU443
ARM GAS  C:\Users\Berbardo\AppData\Local\Temp\ccpaHgls.s 			page 67


 360:D:/Git/VL53L1/lib/core/src\vl53l1_api.c **** 					Dev,
 1442              		.loc 1 360 12 is_stmt 0 view .LVU444
 1443 000a 3222     		movs	r2, #50
 1444              	.LVL173:
 360:D:/Git/VL53L1/lib/core/src\vl53l1_api.c **** 					Dev,
 1445              		.loc 1 360 12 view .LVU445
 1446 000c 0421     		movs	r1, #4
 1447              	.LVL174:
 360:D:/Git/VL53L1/lib/core/src\vl53l1_api.c **** 					Dev,
 1448              		.loc 1 360 12 view .LVU446
 1449 000e FFF7FEFF 		bl	VL53L1_nvm_enable
 1450              	.LVL175:
 370:D:/Git/VL53L1/lib/core/src\vl53l1_api.c **** 		status = VL53L1_nvm_read(
 1451              		.loc 1 370 2 is_stmt 1 view .LVU447
 370:D:/Git/VL53L1/lib/core/src\vl53l1_api.c **** 		status = VL53L1_nvm_read(
 1452              		.loc 1 370 5 is_stmt 0 view .LVU448
 1453 0012 0346     		mov	r3, r0
 1454 0014 10B1     		cbz	r0, .L129
 1455              	.LVL176:
 1456              	.L126:
 381:D:/Git/VL53L1/lib/core/src\vl53l1_api.c **** 		status = VL53L1_nvm_disable(Dev);
 1457              		.loc 1 381 2 is_stmt 1 view .LVU449
 381:D:/Git/VL53L1/lib/core/src\vl53l1_api.c **** 		status = VL53L1_nvm_disable(Dev);
 1458              		.loc 1 381 5 is_stmt 0 view .LVU450
 1459 0016 4BB1     		cbz	r3, .L130
 1460              	.L127:
 384:D:/Git/VL53L1/lib/core/src\vl53l1_api.c **** 
 1461              		.loc 1 384 26 is_stmt 1 view .LVU451
 386:D:/Git/VL53L1/lib/core/src\vl53l1_api.c **** 
 1462              		.loc 1 386 2 view .LVU452
 388:D:/Git/VL53L1/lib/core/src\vl53l1_api.c **** 
 1463              		.loc 1 388 1 is_stmt 0 view .LVU453
 1464 0018 1846     		mov	r0, r3
 1465 001a F8BD     		pop	{r3, r4, r5, r6, r7, pc}
 1466              	.LVL177:
 1467              	.L129:
 371:D:/Git/VL53L1/lib/core/src\vl53l1_api.c **** 			Dev,
 1468              		.loc 1 371 3 is_stmt 1 view .LVU454
 371:D:/Git/VL53L1/lib/core/src\vl53l1_api.c **** 			Dev,
 1469              		.loc 1 371 12 is_stmt 0 view .LVU455
 1470 001c 3B46     		mov	r3, r7
 1471 001e 3246     		mov	r2, r6
 1472 0020 2946     		mov	r1, r5
 1473 0022 2046     		mov	r0, r4
 1474              	.LVL178:
 371:D:/Git/VL53L1/lib/core/src\vl53l1_api.c **** 			Dev,
 1475              		.loc 1 371 12 view .LVU456
 1476 0024 FFF7FEFF 		bl	VL53L1_nvm_read
 1477              	.LVL179:
 1478 0028 0346     		mov	r3, r0
 1479              	.LVL180:
 371:D:/Git/VL53L1/lib/core/src\vl53l1_api.c **** 			Dev,
 1480              		.loc 1 371 12 view .LVU457
 1481 002a F4E7     		b	.L126
 1482              	.L130:
 382:D:/Git/VL53L1/lib/core/src\vl53l1_api.c **** 
 1483              		.loc 1 382 3 is_stmt 1 view .LVU458
ARM GAS  C:\Users\Berbardo\AppData\Local\Temp\ccpaHgls.s 			page 68


 382:D:/Git/VL53L1/lib/core/src\vl53l1_api.c **** 
 1484              		.loc 1 382 12 is_stmt 0 view .LVU459
 1485 002c 2046     		mov	r0, r4
 1486 002e FFF7FEFF 		bl	VL53L1_nvm_disable
 1487              	.LVL181:
 382:D:/Git/VL53L1/lib/core/src\vl53l1_api.c **** 
 1488              		.loc 1 382 12 view .LVU460
 1489 0032 0346     		mov	r3, r0
 1490              	.LVL182:
 382:D:/Git/VL53L1/lib/core/src\vl53l1_api.c **** 
 1491              		.loc 1 382 12 view .LVU461
 1492 0034 F0E7     		b	.L127
 1493              		.cfi_endproc
 1494              	.LFE129:
 1496              		.section	.text.VL53L1_GetVersion,"ax",%progbits
 1497              		.align	1
 1498              		.global	VL53L1_GetVersion
 1499              		.syntax unified
 1500              		.thumb
 1501              		.thumb_func
 1502              		.fpu fpv4-sp-d16
 1504              	VL53L1_GetVersion:
 1505              	.LVL183:
 1506              	.LFB134:
 614:D:/Git/VL53L1/lib/core/src\vl53l1_api.c **** 	VL53L1_Error Status = VL53L1_ERROR_NONE;
 1507              		.loc 1 614 1 is_stmt 1 view -0
 1508              		.cfi_startproc
 1509              		@ args = 0, pretend = 0, frame = 0
 1510              		@ frame_needed = 0, uses_anonymous_args = 0
 1511              		@ link register save eliminated.
 615:D:/Git/VL53L1/lib/core/src\vl53l1_api.c **** 
 1512              		.loc 1 615 2 view .LVU463
 617:D:/Git/VL53L1/lib/core/src\vl53l1_api.c **** 
 1513              		.loc 1 617 24 view .LVU464
 619:D:/Git/VL53L1/lib/core/src\vl53l1_api.c **** 	pVersion->minor = VL53L1_IMPLEMENTATION_VER_MINOR;
 1514              		.loc 1 619 2 view .LVU465
 619:D:/Git/VL53L1/lib/core/src\vl53l1_api.c **** 	pVersion->minor = VL53L1_IMPLEMENTATION_VER_MINOR;
 1515              		.loc 1 619 18 is_stmt 0 view .LVU466
 1516 0000 0223     		movs	r3, #2
 1517 0002 0371     		strb	r3, [r0, #4]
 620:D:/Git/VL53L1/lib/core/src\vl53l1_api.c **** 	pVersion->build = VL53L1_IMPLEMENTATION_VER_SUB;
 1518              		.loc 1 620 2 is_stmt 1 view .LVU467
 620:D:/Git/VL53L1/lib/core/src\vl53l1_api.c **** 	pVersion->build = VL53L1_IMPLEMENTATION_VER_SUB;
 1519              		.loc 1 620 18 is_stmt 0 view .LVU468
 1520 0004 0323     		movs	r3, #3
 1521 0006 4371     		strb	r3, [r0, #5]
 621:D:/Git/VL53L1/lib/core/src\vl53l1_api.c **** 
 1522              		.loc 1 621 2 is_stmt 1 view .LVU469
 621:D:/Git/VL53L1/lib/core/src\vl53l1_api.c **** 
 1523              		.loc 1 621 18 is_stmt 0 view .LVU470
 1524 0008 8371     		strb	r3, [r0, #6]
 623:D:/Git/VL53L1/lib/core/src\vl53l1_api.c **** 
 1525              		.loc 1 623 2 is_stmt 1 view .LVU471
 623:D:/Git/VL53L1/lib/core/src\vl53l1_api.c **** 
 1526              		.loc 1 623 21 is_stmt 0 view .LVU472
 1527 000a 40F25D73 		movw	r3, #1885
 1528 000e 0360     		str	r3, [r0]
ARM GAS  C:\Users\Berbardo\AppData\Local\Temp\ccpaHgls.s 			page 69


 625:D:/Git/VL53L1/lib/core/src\vl53l1_api.c **** 	return Status;
 1529              		.loc 1 625 26 is_stmt 1 view .LVU473
 626:D:/Git/VL53L1/lib/core/src\vl53l1_api.c **** }
 1530              		.loc 1 626 2 view .LVU474
 627:D:/Git/VL53L1/lib/core/src\vl53l1_api.c **** 
 1531              		.loc 1 627 1 is_stmt 0 view .LVU475
 1532 0010 0020     		movs	r0, #0
 1533              	.LVL184:
 627:D:/Git/VL53L1/lib/core/src\vl53l1_api.c **** 
 1534              		.loc 1 627 1 view .LVU476
 1535 0012 7047     		bx	lr
 1536              		.cfi_endproc
 1537              	.LFE134:
 1539              		.section	.text.VL53L1_GetProductRevision,"ax",%progbits
 1540              		.align	1
 1541              		.global	VL53L1_GetProductRevision
 1542              		.syntax unified
 1543              		.thumb
 1544              		.thumb_func
 1545              		.fpu fpv4-sp-d16
 1547              	VL53L1_GetProductRevision:
 1548              	.LVL185:
 1549              	.LFB135:
 631:D:/Git/VL53L1/lib/core/src\vl53l1_api.c **** 	VL53L1_Error Status = VL53L1_ERROR_NONE;
 1550              		.loc 1 631 1 is_stmt 1 view -0
 1551              		.cfi_startproc
 1552              		@ args = 0, pretend = 0, frame = 0
 1553              		@ frame_needed = 0, uses_anonymous_args = 0
 1554              		@ link register save eliminated.
 632:D:/Git/VL53L1/lib/core/src\vl53l1_api.c **** 	uint8_t revision_id;
 1555              		.loc 1 632 2 view .LVU478
 633:D:/Git/VL53L1/lib/core/src\vl53l1_api.c **** 	VL53L1_LLDriverData_t   *pLLData;
 1556              		.loc 1 633 2 view .LVU479
 634:D:/Git/VL53L1/lib/core/src\vl53l1_api.c **** 
 1557              		.loc 1 634 2 view .LVU480
 636:D:/Git/VL53L1/lib/core/src\vl53l1_api.c **** 
 1558              		.loc 1 636 24 view .LVU481
 638:D:/Git/VL53L1/lib/core/src\vl53l1_api.c **** 	revision_id = pLLData->nvm_copy_data.identification__revision_id;
 1559              		.loc 1 638 2 view .LVU482
 639:D:/Git/VL53L1/lib/core/src\vl53l1_api.c **** 	*pProductRevisionMajor = 1;
 1560              		.loc 1 639 2 view .LVU483
 639:D:/Git/VL53L1/lib/core/src\vl53l1_api.c **** 	*pProductRevisionMajor = 1;
 1561              		.loc 1 639 14 is_stmt 0 view .LVU484
 1562 0000 90F8FC31 		ldrb	r3, [r0, #508]	@ zero_extendqisi2
 1563              	.LVL186:
 640:D:/Git/VL53L1/lib/core/src\vl53l1_api.c **** 	*pProductRevisionMinor = (revision_id & 0xF0) >> 4;
 1564              		.loc 1 640 2 is_stmt 1 view .LVU485
 640:D:/Git/VL53L1/lib/core/src\vl53l1_api.c **** 	*pProductRevisionMinor = (revision_id & 0xF0) >> 4;
 1565              		.loc 1 640 25 is_stmt 0 view .LVU486
 1566 0004 0120     		movs	r0, #1
 1567              	.LVL187:
 640:D:/Git/VL53L1/lib/core/src\vl53l1_api.c **** 	*pProductRevisionMinor = (revision_id & 0xF0) >> 4;
 1568              		.loc 1 640 25 view .LVU487
 1569 0006 0870     		strb	r0, [r1]
 641:D:/Git/VL53L1/lib/core/src\vl53l1_api.c **** 
 1570              		.loc 1 641 2 is_stmt 1 view .LVU488
 641:D:/Git/VL53L1/lib/core/src\vl53l1_api.c **** 
ARM GAS  C:\Users\Berbardo\AppData\Local\Temp\ccpaHgls.s 			page 70


 1571              		.loc 1 641 48 is_stmt 0 view .LVU489
 1572 0008 1B09     		lsrs	r3, r3, #4
 1573              	.LVL188:
 641:D:/Git/VL53L1/lib/core/src\vl53l1_api.c **** 
 1574              		.loc 1 641 25 view .LVU490
 1575 000a 1370     		strb	r3, [r2]
 643:D:/Git/VL53L1/lib/core/src\vl53l1_api.c **** 	return Status;
 1576              		.loc 1 643 26 is_stmt 1 view .LVU491
 644:D:/Git/VL53L1/lib/core/src\vl53l1_api.c **** 
 1577              		.loc 1 644 2 view .LVU492
