ARM GAS  C:\Users\Berbardo\AppData\Local\Temp\ccBMvrJ9.s 			page 1


   1              		.cpu cortex-m4
   2              		.eabi_attribute 27, 1
   3              		.eabi_attribute 28, 1
   4              		.eabi_attribute 20, 1
   5              		.eabi_attribute 21, 1
   6              		.eabi_attribute 23, 3
   7              		.eabi_attribute 24, 1
   8              		.eabi_attribute 25, 1
   9              		.eabi_attribute 26, 1
  10              		.eabi_attribute 30, 1
  11              		.eabi_attribute 34, 1
  12              		.eabi_attribute 18, 4
  13              		.file	"vl53l1_api_core.c"
  14              		.text
  15              	.Ltext0:
  16              		.cfi_sections	.debug_frame
  17              		.section	.text.VL53L1_software_reset,"ax",%progbits
  18              		.align	1
  19              		.global	VL53L1_software_reset
  20              		.arch armv7e-m
  21              		.syntax unified
  22              		.thumb
  23              		.thumb_func
  24              		.fpu fpv4-sp-d16
  26              	VL53L1_software_reset:
  27              	.LVL0:
  28              	.LFB128:
  29              		.file 1 "D:/Git/VL53L1/lib/core/src/vl53l1_api_core.c"
   1:D:/Git/VL53L1/lib/core/src\vl53l1_api_core.c **** /*
   2:D:/Git/VL53L1/lib/core/src\vl53l1_api_core.c **** * Copyright (c) 2017, STMicroelectronics - All Rights Reserved
   3:D:/Git/VL53L1/lib/core/src\vl53l1_api_core.c **** *
   4:D:/Git/VL53L1/lib/core/src\vl53l1_api_core.c **** * This file is part of VL53L1 Core and is dual licensed,
   5:D:/Git/VL53L1/lib/core/src\vl53l1_api_core.c **** * either 'STMicroelectronics
   6:D:/Git/VL53L1/lib/core/src\vl53l1_api_core.c **** * Proprietary license'
   7:D:/Git/VL53L1/lib/core/src\vl53l1_api_core.c **** * or 'BSD 3-clause "New" or "Revised" License' , at your option.
   8:D:/Git/VL53L1/lib/core/src\vl53l1_api_core.c **** *
   9:D:/Git/VL53L1/lib/core/src\vl53l1_api_core.c **** ********************************************************************************
  10:D:/Git/VL53L1/lib/core/src\vl53l1_api_core.c **** *
  11:D:/Git/VL53L1/lib/core/src\vl53l1_api_core.c **** * 'STMicroelectronics Proprietary license'
  12:D:/Git/VL53L1/lib/core/src\vl53l1_api_core.c **** *
  13:D:/Git/VL53L1/lib/core/src\vl53l1_api_core.c **** ********************************************************************************
  14:D:/Git/VL53L1/lib/core/src\vl53l1_api_core.c **** *
  15:D:/Git/VL53L1/lib/core/src\vl53l1_api_core.c **** * License terms: STMicroelectronics Proprietary in accordance with licensing
  16:D:/Git/VL53L1/lib/core/src\vl53l1_api_core.c **** * terms at www.st.com/sla0081
  17:D:/Git/VL53L1/lib/core/src\vl53l1_api_core.c **** *
  18:D:/Git/VL53L1/lib/core/src\vl53l1_api_core.c **** * STMicroelectronics confidential
  19:D:/Git/VL53L1/lib/core/src\vl53l1_api_core.c **** * Reproduction and Communication of this document is strictly prohibited unless
  20:D:/Git/VL53L1/lib/core/src\vl53l1_api_core.c **** * specifically authorized in writing by STMicroelectronics.
  21:D:/Git/VL53L1/lib/core/src\vl53l1_api_core.c **** *
  22:D:/Git/VL53L1/lib/core/src\vl53l1_api_core.c **** *
  23:D:/Git/VL53L1/lib/core/src\vl53l1_api_core.c **** ********************************************************************************
  24:D:/Git/VL53L1/lib/core/src\vl53l1_api_core.c **** *
  25:D:/Git/VL53L1/lib/core/src\vl53l1_api_core.c **** * Alternatively, VL53L1 Core may be distributed under the terms of
  26:D:/Git/VL53L1/lib/core/src\vl53l1_api_core.c **** * 'BSD 3-clause "New" or "Revised" License', in which case the following
  27:D:/Git/VL53L1/lib/core/src\vl53l1_api_core.c **** * provisions apply instead of the ones mentioned above :
  28:D:/Git/VL53L1/lib/core/src\vl53l1_api_core.c **** *
  29:D:/Git/VL53L1/lib/core/src\vl53l1_api_core.c **** ********************************************************************************
ARM GAS  C:\Users\Berbardo\AppData\Local\Temp\ccBMvrJ9.s 			page 2


  30:D:/Git/VL53L1/lib/core/src\vl53l1_api_core.c **** *
  31:D:/Git/VL53L1/lib/core/src\vl53l1_api_core.c **** * License terms: BSD 3-clause "New" or "Revised" License.
  32:D:/Git/VL53L1/lib/core/src\vl53l1_api_core.c **** *
  33:D:/Git/VL53L1/lib/core/src\vl53l1_api_core.c **** * Redistribution and use in source and binary forms, with or without
  34:D:/Git/VL53L1/lib/core/src\vl53l1_api_core.c **** * modification, are permitted provided that the following conditions are met:
  35:D:/Git/VL53L1/lib/core/src\vl53l1_api_core.c **** *
  36:D:/Git/VL53L1/lib/core/src\vl53l1_api_core.c **** * 1. Redistributions of source code must retain the above copyright notice, this
  37:D:/Git/VL53L1/lib/core/src\vl53l1_api_core.c **** * list of conditions and the following disclaimer.
  38:D:/Git/VL53L1/lib/core/src\vl53l1_api_core.c **** *
  39:D:/Git/VL53L1/lib/core/src\vl53l1_api_core.c **** * 2. Redistributions in binary form must reproduce the above copyright notice,
  40:D:/Git/VL53L1/lib/core/src\vl53l1_api_core.c **** * this list of conditions and the following disclaimer in the documentation
  41:D:/Git/VL53L1/lib/core/src\vl53l1_api_core.c **** * and/or other materials provided with the distribution.
  42:D:/Git/VL53L1/lib/core/src\vl53l1_api_core.c **** *
  43:D:/Git/VL53L1/lib/core/src\vl53l1_api_core.c **** * 3. Neither the name of the copyright holder nor the names of its contributors
  44:D:/Git/VL53L1/lib/core/src\vl53l1_api_core.c **** * may be used to endorse or promote products derived from this software
  45:D:/Git/VL53L1/lib/core/src\vl53l1_api_core.c **** * without specific prior written permission.
  46:D:/Git/VL53L1/lib/core/src\vl53l1_api_core.c **** *
  47:D:/Git/VL53L1/lib/core/src\vl53l1_api_core.c **** * THIS SOFTWARE IS PROVIDED BY THE COPYRIGHT HOLDERS AND CONTRIBUTORS "AS IS"
  48:D:/Git/VL53L1/lib/core/src\vl53l1_api_core.c **** * AND ANY EXPRESS OR IMPLIED WARRANTIES, INCLUDING, BUT NOT LIMITED TO, THE
  49:D:/Git/VL53L1/lib/core/src\vl53l1_api_core.c **** * IMPLIED WARRANTIES OF MERCHANTABILITY AND FITNESS FOR A PARTICULAR PURPOSE ARE
  50:D:/Git/VL53L1/lib/core/src\vl53l1_api_core.c **** * DISCLAIMED. IN NO EVENT SHALL THE COPYRIGHT HOLDER OR CONTRIBUTORS BE LIABLE
  51:D:/Git/VL53L1/lib/core/src\vl53l1_api_core.c **** * FOR ANY DIRECT, INDIRECT, INCIDENTAL, SPECIAL, EXEMPLARY, OR CONSEQUENTIAL
  52:D:/Git/VL53L1/lib/core/src\vl53l1_api_core.c **** * DAMAGES (INCLUDING, BUT NOT LIMITED TO, PROCUREMENT OF SUBSTITUTE GOODS OR
  53:D:/Git/VL53L1/lib/core/src\vl53l1_api_core.c **** * SERVICES; LOSS OF USE, DATA, OR PROFITS; OR BUSINESS INTERRUPTION) HOWEVER
  54:D:/Git/VL53L1/lib/core/src\vl53l1_api_core.c **** * CAUSED AND ON ANY THEORY OF LIABILITY, WHETHER IN CONTRACT, STRICT LIABILITY,
  55:D:/Git/VL53L1/lib/core/src\vl53l1_api_core.c **** * OR TORT (INCLUDING NEGLIGENCE OR OTHERWISE) ARISING IN ANY WAY OUT OF THE USE
  56:D:/Git/VL53L1/lib/core/src\vl53l1_api_core.c **** * OF THIS SOFTWARE, EVEN IF ADVISED OF THE POSSIBILITY OF SUCH DAMAGE.
  57:D:/Git/VL53L1/lib/core/src\vl53l1_api_core.c **** *
  58:D:/Git/VL53L1/lib/core/src\vl53l1_api_core.c **** *
  59:D:/Git/VL53L1/lib/core/src\vl53l1_api_core.c **** ********************************************************************************
  60:D:/Git/VL53L1/lib/core/src\vl53l1_api_core.c **** *
  61:D:/Git/VL53L1/lib/core/src\vl53l1_api_core.c **** */
  62:D:/Git/VL53L1/lib/core/src\vl53l1_api_core.c **** 
  63:D:/Git/VL53L1/lib/core/src\vl53l1_api_core.c **** /**
  64:D:/Git/VL53L1/lib/core/src\vl53l1_api_core.c ****  * @file  vl53l1_api_core.c
  65:D:/Git/VL53L1/lib/core/src\vl53l1_api_core.c ****  *
  66:D:/Git/VL53L1/lib/core/src\vl53l1_api_core.c ****  * @brief EwokPlus25 low level API function definition
  67:D:/Git/VL53L1/lib/core/src\vl53l1_api_core.c ****  */
  68:D:/Git/VL53L1/lib/core/src\vl53l1_api_core.c **** 
  69:D:/Git/VL53L1/lib/core/src\vl53l1_api_core.c **** 
  70:D:/Git/VL53L1/lib/core/src\vl53l1_api_core.c **** #include "vl53l1_ll_def.h"
  71:D:/Git/VL53L1/lib/core/src\vl53l1_api_core.c **** #include "vl53l1_ll_device.h"
  72:D:/Git/VL53L1/lib/core/src\vl53l1_api_core.c **** #include "vl53l1_platform.h"
  73:D:/Git/VL53L1/lib/core/src\vl53l1_api_core.c **** #include "vl53l1_register_map.h"
  74:D:/Git/VL53L1/lib/core/src\vl53l1_api_core.c **** #include "vl53l1_register_settings.h"
  75:D:/Git/VL53L1/lib/core/src\vl53l1_api_core.c **** #include "vl53l1_register_funcs.h"
  76:D:/Git/VL53L1/lib/core/src\vl53l1_api_core.c **** #include "vl53l1_nvm_map.h"
  77:D:/Git/VL53L1/lib/core/src\vl53l1_api_core.c **** #include "vl53l1_core.h"
  78:D:/Git/VL53L1/lib/core/src\vl53l1_api_core.c **** #include "vl53l1_wait.h"
  79:D:/Git/VL53L1/lib/core/src\vl53l1_api_core.c **** #include "vl53l1_api_preset_modes.h"
  80:D:/Git/VL53L1/lib/core/src\vl53l1_api_core.c **** #include "vl53l1_silicon_core.h"
  81:D:/Git/VL53L1/lib/core/src\vl53l1_api_core.c **** #include "vl53l1_api_core.h"
  82:D:/Git/VL53L1/lib/core/src\vl53l1_api_core.c **** #include "vl53l1_tuning_parm_defaults.h"
  83:D:/Git/VL53L1/lib/core/src\vl53l1_api_core.c **** 
  84:D:/Git/VL53L1/lib/core/src\vl53l1_api_core.c **** #ifdef VL53L1_LOG_ENABLE
  85:D:/Git/VL53L1/lib/core/src\vl53l1_api_core.c **** #include "vl53l1_api_debug.h"
  86:D:/Git/VL53L1/lib/core/src\vl53l1_api_core.c **** #endif
ARM GAS  C:\Users\Berbardo\AppData\Local\Temp\ccBMvrJ9.s 			page 3


  87:D:/Git/VL53L1/lib/core/src\vl53l1_api_core.c **** 
  88:D:/Git/VL53L1/lib/core/src\vl53l1_api_core.c **** #define LOG_FUNCTION_START(fmt, ...) \
  89:D:/Git/VL53L1/lib/core/src\vl53l1_api_core.c **** 	_LOG_FUNCTION_START(VL53L1_TRACE_MODULE_CORE, fmt, ##__VA_ARGS__)
  90:D:/Git/VL53L1/lib/core/src\vl53l1_api_core.c **** #define LOG_FUNCTION_END(status, ...) \
  91:D:/Git/VL53L1/lib/core/src\vl53l1_api_core.c **** 	_LOG_FUNCTION_END(VL53L1_TRACE_MODULE_CORE, status, ##__VA_ARGS__)
  92:D:/Git/VL53L1/lib/core/src\vl53l1_api_core.c **** #define LOG_FUNCTION_END_FMT(status, fmt, ...) \
  93:D:/Git/VL53L1/lib/core/src\vl53l1_api_core.c **** 	_LOG_FUNCTION_END_FMT(VL53L1_TRACE_MODULE_CORE, status, \
  94:D:/Git/VL53L1/lib/core/src\vl53l1_api_core.c **** 	fmt, ##__VA_ARGS__)
  95:D:/Git/VL53L1/lib/core/src\vl53l1_api_core.c **** 
  96:D:/Git/VL53L1/lib/core/src\vl53l1_api_core.c **** #define trace_print(level, ...) \
  97:D:/Git/VL53L1/lib/core/src\vl53l1_api_core.c **** 	_LOG_TRACE_PRINT(VL53L1_TRACE_MODULE_CORE, \
  98:D:/Git/VL53L1/lib/core/src\vl53l1_api_core.c **** 	level, VL53L1_TRACE_FUNCTION_NONE, ##__VA_ARGS__)
  99:D:/Git/VL53L1/lib/core/src\vl53l1_api_core.c **** 
 100:D:/Git/VL53L1/lib/core/src\vl53l1_api_core.c **** #define VL53L1_MAX_I2C_XFER_SIZE 256
 101:D:/Git/VL53L1/lib/core/src\vl53l1_api_core.c **** 
 102:D:/Git/VL53L1/lib/core/src\vl53l1_api_core.c **** #ifdef VL53L1_DEBUG
 103:D:/Git/VL53L1/lib/core/src\vl53l1_api_core.c **** VL53L1_Error VL53L1_get_version(
 104:D:/Git/VL53L1/lib/core/src\vl53l1_api_core.c **** 	VL53L1_DEV           Dev,
 105:D:/Git/VL53L1/lib/core/src\vl53l1_api_core.c **** 	VL53L1_ll_version_t *pdata)
 106:D:/Git/VL53L1/lib/core/src\vl53l1_api_core.c **** {
 107:D:/Git/VL53L1/lib/core/src\vl53l1_api_core.c **** 	/*
 108:D:/Git/VL53L1/lib/core/src\vl53l1_api_core.c **** 	 * respond with the #define values from version.h
 109:D:/Git/VL53L1/lib/core/src\vl53l1_api_core.c **** 	 * using memcpy(dst, src, size in bytes)
 110:D:/Git/VL53L1/lib/core/src\vl53l1_api_core.c **** 	 */
 111:D:/Git/VL53L1/lib/core/src\vl53l1_api_core.c **** 
 112:D:/Git/VL53L1/lib/core/src\vl53l1_api_core.c **** 	VL53L1_LLDriverData_t *pdev = VL53L1DevStructGetLLDriverHandle(Dev);
 113:D:/Git/VL53L1/lib/core/src\vl53l1_api_core.c **** 
 114:D:/Git/VL53L1/lib/core/src\vl53l1_api_core.c **** 	VL53L1_init_version(Dev);
 115:D:/Git/VL53L1/lib/core/src\vl53l1_api_core.c **** 
 116:D:/Git/VL53L1/lib/core/src\vl53l1_api_core.c **** 	memcpy(pdata, &(pdev->version), sizeof(VL53L1_ll_version_t));
 117:D:/Git/VL53L1/lib/core/src\vl53l1_api_core.c **** 
 118:D:/Git/VL53L1/lib/core/src\vl53l1_api_core.c **** 	return VL53L1_ERROR_NONE;
 119:D:/Git/VL53L1/lib/core/src\vl53l1_api_core.c **** }
 120:D:/Git/VL53L1/lib/core/src\vl53l1_api_core.c **** 
 121:D:/Git/VL53L1/lib/core/src\vl53l1_api_core.c **** VL53L1_Error VL53L1_get_device_firmware_version(
 122:D:/Git/VL53L1/lib/core/src\vl53l1_api_core.c **** 	VL53L1_DEV        Dev,
 123:D:/Git/VL53L1/lib/core/src\vl53l1_api_core.c **** 	uint16_t         *pfw_version)
 124:D:/Git/VL53L1/lib/core/src\vl53l1_api_core.c **** {
 125:D:/Git/VL53L1/lib/core/src\vl53l1_api_core.c **** 	/*
 126:D:/Git/VL53L1/lib/core/src\vl53l1_api_core.c **** 	 * Read Firmware version from device
 127:D:/Git/VL53L1/lib/core/src\vl53l1_api_core.c **** 	 */
 128:D:/Git/VL53L1/lib/core/src\vl53l1_api_core.c **** 
 129:D:/Git/VL53L1/lib/core/src\vl53l1_api_core.c **** 	VL53L1_Error  status = VL53L1_ERROR_NONE;
 130:D:/Git/VL53L1/lib/core/src\vl53l1_api_core.c **** 
 131:D:/Git/VL53L1/lib/core/src\vl53l1_api_core.c **** 	LOG_FUNCTION_START("");
 132:D:/Git/VL53L1/lib/core/src\vl53l1_api_core.c **** 
 133:D:/Git/VL53L1/lib/core/src\vl53l1_api_core.c **** 	if (status == VL53L1_ERROR_NONE) /*lint !e774 always true*/
 134:D:/Git/VL53L1/lib/core/src\vl53l1_api_core.c **** 		status = VL53L1_disable_firmware(Dev);
 135:D:/Git/VL53L1/lib/core/src\vl53l1_api_core.c **** 
 136:D:/Git/VL53L1/lib/core/src\vl53l1_api_core.c **** 	if (status == VL53L1_ERROR_NONE)
 137:D:/Git/VL53L1/lib/core/src\vl53l1_api_core.c **** 		status = VL53L1_RdWord(
 138:D:/Git/VL53L1/lib/core/src\vl53l1_api_core.c **** 				Dev,
 139:D:/Git/VL53L1/lib/core/src\vl53l1_api_core.c **** 				VL53L1_MCU_GENERAL_PURPOSE__GP_0,
 140:D:/Git/VL53L1/lib/core/src\vl53l1_api_core.c **** 				pfw_version);
 141:D:/Git/VL53L1/lib/core/src\vl53l1_api_core.c **** 
 142:D:/Git/VL53L1/lib/core/src\vl53l1_api_core.c **** 	if (status == VL53L1_ERROR_NONE)
 143:D:/Git/VL53L1/lib/core/src\vl53l1_api_core.c **** 		status = VL53L1_enable_firmware(Dev);
ARM GAS  C:\Users\Berbardo\AppData\Local\Temp\ccBMvrJ9.s 			page 4


 144:D:/Git/VL53L1/lib/core/src\vl53l1_api_core.c **** 
 145:D:/Git/VL53L1/lib/core/src\vl53l1_api_core.c **** 	LOG_FUNCTION_END(status);
 146:D:/Git/VL53L1/lib/core/src\vl53l1_api_core.c **** 
 147:D:/Git/VL53L1/lib/core/src\vl53l1_api_core.c **** 	return status;
 148:D:/Git/VL53L1/lib/core/src\vl53l1_api_core.c **** }
 149:D:/Git/VL53L1/lib/core/src\vl53l1_api_core.c **** #endif
 150:D:/Git/VL53L1/lib/core/src\vl53l1_api_core.c **** 
 151:D:/Git/VL53L1/lib/core/src\vl53l1_api_core.c **** 
 152:D:/Git/VL53L1/lib/core/src\vl53l1_api_core.c **** VL53L1_Error VL53L1_data_init(
 153:D:/Git/VL53L1/lib/core/src\vl53l1_api_core.c **** 	VL53L1_DEV        Dev,
 154:D:/Git/VL53L1/lib/core/src\vl53l1_api_core.c **** 	uint8_t           read_p2p_data)
 155:D:/Git/VL53L1/lib/core/src\vl53l1_api_core.c **** {
 156:D:/Git/VL53L1/lib/core/src\vl53l1_api_core.c **** 	/*
 157:D:/Git/VL53L1/lib/core/src\vl53l1_api_core.c **** 	 * Initialise pdev data structure
 158:D:/Git/VL53L1/lib/core/src\vl53l1_api_core.c **** 	 */
 159:D:/Git/VL53L1/lib/core/src\vl53l1_api_core.c **** 
 160:D:/Git/VL53L1/lib/core/src\vl53l1_api_core.c **** 	VL53L1_Error status       = VL53L1_ERROR_NONE;
 161:D:/Git/VL53L1/lib/core/src\vl53l1_api_core.c **** 	VL53L1_LLDriverData_t    *pdev =
 162:D:/Git/VL53L1/lib/core/src\vl53l1_api_core.c **** 			VL53L1DevStructGetLLDriverHandle(Dev);
 163:D:/Git/VL53L1/lib/core/src\vl53l1_api_core.c **** 
 164:D:/Git/VL53L1/lib/core/src\vl53l1_api_core.c **** 	VL53L1_init_ll_driver_state(
 165:D:/Git/VL53L1/lib/core/src\vl53l1_api_core.c **** 			Dev,
 166:D:/Git/VL53L1/lib/core/src\vl53l1_api_core.c **** 			VL53L1_DEVICESTATE_UNKNOWN);
 167:D:/Git/VL53L1/lib/core/src\vl53l1_api_core.c **** 
 168:D:/Git/VL53L1/lib/core/src\vl53l1_api_core.c **** 	pdev->wait_method             = VL53L1_WAIT_METHOD_BLOCKING;
 169:D:/Git/VL53L1/lib/core/src\vl53l1_api_core.c **** 	pdev->preset_mode             = VL53L1_DEVICEPRESETMODE_STANDARD_RANGING;
 170:D:/Git/VL53L1/lib/core/src\vl53l1_api_core.c **** 	pdev->measurement_mode        = VL53L1_DEVICEMEASUREMENTMODE_STOP;
 171:D:/Git/VL53L1/lib/core/src\vl53l1_api_core.c **** 
 172:D:/Git/VL53L1/lib/core/src\vl53l1_api_core.c **** 	pdev->offset_calibration_mode =
 173:D:/Git/VL53L1/lib/core/src\vl53l1_api_core.c **** 		VL53L1_OFFSETCALIBRATIONMODE__MM1_MM2__STANDARD;
 174:D:/Git/VL53L1/lib/core/src\vl53l1_api_core.c **** 	pdev->offset_correction_mode  =
 175:D:/Git/VL53L1/lib/core/src\vl53l1_api_core.c **** 		VL53L1_OFFSETCORRECTIONMODE__MM1_MM2_OFFSETS;
 176:D:/Git/VL53L1/lib/core/src\vl53l1_api_core.c **** 
 177:D:/Git/VL53L1/lib/core/src\vl53l1_api_core.c **** 	pdev->phasecal_config_timeout_us  =  1000;
 178:D:/Git/VL53L1/lib/core/src\vl53l1_api_core.c **** 	pdev->mm_config_timeout_us        =  2000;
 179:D:/Git/VL53L1/lib/core/src\vl53l1_api_core.c **** 	pdev->range_config_timeout_us     = 13000;
 180:D:/Git/VL53L1/lib/core/src\vl53l1_api_core.c **** 	pdev->inter_measurement_period_ms =   100;
 181:D:/Git/VL53L1/lib/core/src\vl53l1_api_core.c **** 	pdev->dss_config__target_total_rate_mcps = 0x0A00;
 182:D:/Git/VL53L1/lib/core/src\vl53l1_api_core.c **** 	pdev->debug_mode                  =  0x00;
 183:D:/Git/VL53L1/lib/core/src\vl53l1_api_core.c **** 
 184:D:/Git/VL53L1/lib/core/src\vl53l1_api_core.c **** 	/* initialise gain calibration values to tuning parameter values */
 185:D:/Git/VL53L1/lib/core/src\vl53l1_api_core.c **** 
 186:D:/Git/VL53L1/lib/core/src\vl53l1_api_core.c **** 	pdev->gain_cal.standard_ranging_gain_factor =
 187:D:/Git/VL53L1/lib/core/src\vl53l1_api_core.c **** 			VL53L1_TUNINGPARM_LITE_RANGING_GAIN_FACTOR_DEFAULT;
 188:D:/Git/VL53L1/lib/core/src\vl53l1_api_core.c **** 
 189:D:/Git/VL53L1/lib/core/src\vl53l1_api_core.c **** 	/*
 190:D:/Git/VL53L1/lib/core/src\vl53l1_api_core.c **** 	 * Initialise version structure
 191:D:/Git/VL53L1/lib/core/src\vl53l1_api_core.c **** 	 */
 192:D:/Git/VL53L1/lib/core/src\vl53l1_api_core.c **** 	VL53L1_init_version(Dev);
 193:D:/Git/VL53L1/lib/core/src\vl53l1_api_core.c **** 
 194:D:/Git/VL53L1/lib/core/src\vl53l1_api_core.c **** 	/*
 195:D:/Git/VL53L1/lib/core/src\vl53l1_api_core.c **** 	 *  For C-API one time initialization only read device G02 registers
 196:D:/Git/VL53L1/lib/core/src\vl53l1_api_core.c **** 	 *  containing data copied from NVM
 197:D:/Git/VL53L1/lib/core/src\vl53l1_api_core.c **** 	 *
 198:D:/Git/VL53L1/lib/core/src\vl53l1_api_core.c **** 	 *  Contains the key NVM data e.g identification info fast oscillator
 199:D:/Git/VL53L1/lib/core/src\vl53l1_api_core.c **** 	 *  freq, max trim and laser safety info
 200:D:/Git/VL53L1/lib/core/src\vl53l1_api_core.c **** 	 */
ARM GAS  C:\Users\Berbardo\AppData\Local\Temp\ccBMvrJ9.s 			page 5


 201:D:/Git/VL53L1/lib/core/src\vl53l1_api_core.c **** 
 202:D:/Git/VL53L1/lib/core/src\vl53l1_api_core.c **** 	if (read_p2p_data > 0 && status == VL53L1_ERROR_NONE) /*lint !e774 always true*/
 203:D:/Git/VL53L1/lib/core/src\vl53l1_api_core.c **** 			status = VL53L1_read_p2p_data(Dev);
 204:D:/Git/VL53L1/lib/core/src\vl53l1_api_core.c **** 
 205:D:/Git/VL53L1/lib/core/src\vl53l1_api_core.c **** 	/* Initialise Ref SPAD Char configuration structure */
 206:D:/Git/VL53L1/lib/core/src\vl53l1_api_core.c **** #ifndef VL53L1_NOCALIB
 207:D:/Git/VL53L1/lib/core/src\vl53l1_api_core.c **** 	status =
 208:D:/Git/VL53L1/lib/core/src\vl53l1_api_core.c **** 		VL53L1_init_refspadchar_config_struct(
 209:D:/Git/VL53L1/lib/core/src\vl53l1_api_core.c **** 			&(pdev->refspadchar));
 210:D:/Git/VL53L1/lib/core/src\vl53l1_api_core.c **** #endif
 211:D:/Git/VL53L1/lib/core/src\vl53l1_api_core.c **** 
 212:D:/Git/VL53L1/lib/core/src\vl53l1_api_core.c **** 	/* Initialise SPAD Self Check (SSC) configuration structure */
 213:D:/Git/VL53L1/lib/core/src\vl53l1_api_core.c **** #ifndef VL53L1_NOCALIB
 214:D:/Git/VL53L1/lib/core/src\vl53l1_api_core.c **** 	status =
 215:D:/Git/VL53L1/lib/core/src\vl53l1_api_core.c **** 		VL53L1_init_ssc_config_struct(
 216:D:/Git/VL53L1/lib/core/src\vl53l1_api_core.c **** 			&(pdev->ssc_cfg));
 217:D:/Git/VL53L1/lib/core/src\vl53l1_api_core.c **** #endif
 218:D:/Git/VL53L1/lib/core/src\vl53l1_api_core.c **** 
 219:D:/Git/VL53L1/lib/core/src\vl53l1_api_core.c **** 	/* Initialise Private Xtalk configuration structure
 220:D:/Git/VL53L1/lib/core/src\vl53l1_api_core.c **** 	 * - Fill with customer NVM data to begin
 221:D:/Git/VL53L1/lib/core/src\vl53l1_api_core.c **** 	 */
 222:D:/Git/VL53L1/lib/core/src\vl53l1_api_core.c **** 	status =
 223:D:/Git/VL53L1/lib/core/src\vl53l1_api_core.c **** 		VL53L1_init_xtalk_config_struct(
 224:D:/Git/VL53L1/lib/core/src\vl53l1_api_core.c **** 			&(pdev->customer),
 225:D:/Git/VL53L1/lib/core/src\vl53l1_api_core.c **** 			&(pdev->xtalk_cfg));
 226:D:/Git/VL53L1/lib/core/src\vl53l1_api_core.c **** 
 227:D:/Git/VL53L1/lib/core/src\vl53l1_api_core.c **** 	/* Initialise Offset Calibration configuration structure
 228:D:/Git/VL53L1/lib/core/src\vl53l1_api_core.c **** 	 */
 229:D:/Git/VL53L1/lib/core/src\vl53l1_api_core.c **** #ifndef VL53L1_NOCALIB
 230:D:/Git/VL53L1/lib/core/src\vl53l1_api_core.c **** 	status =
 231:D:/Git/VL53L1/lib/core/src\vl53l1_api_core.c **** 		VL53L1_init_offset_cal_config_struct(
 232:D:/Git/VL53L1/lib/core/src\vl53l1_api_core.c **** 		    &(pdev->offsetcal_cfg));
 233:D:/Git/VL53L1/lib/core/src\vl53l1_api_core.c **** #endif
 234:D:/Git/VL53L1/lib/core/src\vl53l1_api_core.c **** 
 235:D:/Git/VL53L1/lib/core/src\vl53l1_api_core.c **** 	/* Initialise Tuning Parameter structure
 236:D:/Git/VL53L1/lib/core/src\vl53l1_api_core.c **** 	 * - Added as part of Patch_AddingTuningParmStorage_11821
 237:D:/Git/VL53L1/lib/core/src\vl53l1_api_core.c **** 	 */
 238:D:/Git/VL53L1/lib/core/src\vl53l1_api_core.c **** 	status =
 239:D:/Git/VL53L1/lib/core/src\vl53l1_api_core.c **** 		VL53L1_init_tuning_parm_storage_struct(
 240:D:/Git/VL53L1/lib/core/src\vl53l1_api_core.c **** 			&(pdev->tuning_parms));
 241:D:/Git/VL53L1/lib/core/src\vl53l1_api_core.c **** 
 242:D:/Git/VL53L1/lib/core/src\vl53l1_api_core.c **** 	status = VL53L1_set_vhv_loopbound(Dev,
 243:D:/Git/VL53L1/lib/core/src\vl53l1_api_core.c **** 		VL53L1_TUNINGPARM_VHV_LOOPBOUND_DEFAULT);
 244:D:/Git/VL53L1/lib/core/src\vl53l1_api_core.c **** 
 245:D:/Git/VL53L1/lib/core/src\vl53l1_api_core.c **** 	/*
 246:D:/Git/VL53L1/lib/core/src\vl53l1_api_core.c **** 	 * Initialise default settings - much happen *after*
 247:D:/Git/VL53L1/lib/core/src\vl53l1_api_core.c **** 	 * reading /setting  of static_nvm_managed
 248:D:/Git/VL53L1/lib/core/src\vl53l1_api_core.c **** 	 */
 249:D:/Git/VL53L1/lib/core/src\vl53l1_api_core.c **** 
 250:D:/Git/VL53L1/lib/core/src\vl53l1_api_core.c **** 	if (status == VL53L1_ERROR_NONE)
 251:D:/Git/VL53L1/lib/core/src\vl53l1_api_core.c **** 		status = VL53L1_set_preset_mode(
 252:D:/Git/VL53L1/lib/core/src\vl53l1_api_core.c **** 						Dev,
 253:D:/Git/VL53L1/lib/core/src\vl53l1_api_core.c **** 						pdev->preset_mode,
 254:D:/Git/VL53L1/lib/core/src\vl53l1_api_core.c **** 						pdev->dss_config__target_total_rate_mcps,  /* 9.7 format 20Mcps */
 255:D:/Git/VL53L1/lib/core/src\vl53l1_api_core.c **** 						pdev->phasecal_config_timeout_us,
 256:D:/Git/VL53L1/lib/core/src\vl53l1_api_core.c **** 						pdev->mm_config_timeout_us,
 257:D:/Git/VL53L1/lib/core/src\vl53l1_api_core.c **** 						pdev->range_config_timeout_us,
ARM GAS  C:\Users\Berbardo\AppData\Local\Temp\ccBMvrJ9.s 			page 6


 258:D:/Git/VL53L1/lib/core/src\vl53l1_api_core.c **** 						pdev->inter_measurement_period_ms);
 259:D:/Git/VL53L1/lib/core/src\vl53l1_api_core.c **** 
 260:D:/Git/VL53L1/lib/core/src\vl53l1_api_core.c **** 	/* Initial Low Power Auto Mode data structures */
 261:D:/Git/VL53L1/lib/core/src\vl53l1_api_core.c **** 	/* Added for Patch_LowPowerAutoMode */
 262:D:/Git/VL53L1/lib/core/src\vl53l1_api_core.c **** 	VL53L1_low_power_auto_data_init(
 263:D:/Git/VL53L1/lib/core/src\vl53l1_api_core.c **** 			Dev
 264:D:/Git/VL53L1/lib/core/src\vl53l1_api_core.c **** 			);
 265:D:/Git/VL53L1/lib/core/src\vl53l1_api_core.c **** 
 266:D:/Git/VL53L1/lib/core/src\vl53l1_api_core.c **** #ifdef VL53L1_LOG_ENABLE
 267:D:/Git/VL53L1/lib/core/src\vl53l1_api_core.c **** 
 268:D:/Git/VL53L1/lib/core/src\vl53l1_api_core.c **** 	/* Prints out the initial calibration data for debug */
 269:D:/Git/VL53L1/lib/core/src\vl53l1_api_core.c **** 
 270:D:/Git/VL53L1/lib/core/src\vl53l1_api_core.c **** 	VL53L1_print_static_nvm_managed(
 271:D:/Git/VL53L1/lib/core/src\vl53l1_api_core.c **** 		&(pdev->stat_nvm),
 272:D:/Git/VL53L1/lib/core/src\vl53l1_api_core.c **** 		"data_init():pdev->lldata.stat_nvm.",
 273:D:/Git/VL53L1/lib/core/src\vl53l1_api_core.c **** 		VL53L1_TRACE_MODULE_DATA_INIT);
 274:D:/Git/VL53L1/lib/core/src\vl53l1_api_core.c **** 
 275:D:/Git/VL53L1/lib/core/src\vl53l1_api_core.c **** 	VL53L1_print_customer_nvm_managed(
 276:D:/Git/VL53L1/lib/core/src\vl53l1_api_core.c **** 		&(pdev->customer),
 277:D:/Git/VL53L1/lib/core/src\vl53l1_api_core.c **** 		"data_init():pdev->lldata.customer.",
 278:D:/Git/VL53L1/lib/core/src\vl53l1_api_core.c **** 		VL53L1_TRACE_MODULE_DATA_INIT);
 279:D:/Git/VL53L1/lib/core/src\vl53l1_api_core.c **** 
 280:D:/Git/VL53L1/lib/core/src\vl53l1_api_core.c **** 	VL53L1_print_nvm_copy_data(
 281:D:/Git/VL53L1/lib/core/src\vl53l1_api_core.c **** 		&(pdev->nvm_copy_data),
 282:D:/Git/VL53L1/lib/core/src\vl53l1_api_core.c **** 		"data_init():pdev->lldata.nvm_copy_data.",
 283:D:/Git/VL53L1/lib/core/src\vl53l1_api_core.c **** 		VL53L1_TRACE_MODULE_DATA_INIT);
 284:D:/Git/VL53L1/lib/core/src\vl53l1_api_core.c **** 
 285:D:/Git/VL53L1/lib/core/src\vl53l1_api_core.c **** 	VL53L1_print_additional_offset_cal_data(
 286:D:/Git/VL53L1/lib/core/src\vl53l1_api_core.c **** 		&(pdev->add_off_cal_data),
 287:D:/Git/VL53L1/lib/core/src\vl53l1_api_core.c **** 		"data_init():pdev->lldata.add_off_cal_data.",
 288:D:/Git/VL53L1/lib/core/src\vl53l1_api_core.c **** 		VL53L1_TRACE_MODULE_DATA_INIT);
 289:D:/Git/VL53L1/lib/core/src\vl53l1_api_core.c **** 
 290:D:/Git/VL53L1/lib/core/src\vl53l1_api_core.c **** 	VL53L1_print_user_zone(
 291:D:/Git/VL53L1/lib/core/src\vl53l1_api_core.c **** 		&(pdev->mm_roi),
 292:D:/Git/VL53L1/lib/core/src\vl53l1_api_core.c **** 		"data_init():pdev->lldata.mm_roi.",
 293:D:/Git/VL53L1/lib/core/src\vl53l1_api_core.c **** 		VL53L1_TRACE_MODULE_DATA_INIT);
 294:D:/Git/VL53L1/lib/core/src\vl53l1_api_core.c **** 
 295:D:/Git/VL53L1/lib/core/src\vl53l1_api_core.c **** 	VL53L1_print_optical_centre(
 296:D:/Git/VL53L1/lib/core/src\vl53l1_api_core.c **** 		&(pdev->optical_centre),
 297:D:/Git/VL53L1/lib/core/src\vl53l1_api_core.c **** 		"data_init():pdev->lldata.optical_centre.",
 298:D:/Git/VL53L1/lib/core/src\vl53l1_api_core.c **** 		VL53L1_TRACE_MODULE_DATA_INIT);
 299:D:/Git/VL53L1/lib/core/src\vl53l1_api_core.c **** 
 300:D:/Git/VL53L1/lib/core/src\vl53l1_api_core.c **** 	VL53L1_print_cal_peak_rate_map(
 301:D:/Git/VL53L1/lib/core/src\vl53l1_api_core.c **** 		&(pdev->cal_peak_rate_map),
 302:D:/Git/VL53L1/lib/core/src\vl53l1_api_core.c **** 		"data_init():pdev->lldata.cal_peak_rate_map.",
 303:D:/Git/VL53L1/lib/core/src\vl53l1_api_core.c **** 		VL53L1_TRACE_MODULE_DATA_INIT);
 304:D:/Git/VL53L1/lib/core/src\vl53l1_api_core.c **** 
 305:D:/Git/VL53L1/lib/core/src\vl53l1_api_core.c **** #endif
 306:D:/Git/VL53L1/lib/core/src\vl53l1_api_core.c **** 
 307:D:/Git/VL53L1/lib/core/src\vl53l1_api_core.c **** 	LOG_FUNCTION_END(status);
 308:D:/Git/VL53L1/lib/core/src\vl53l1_api_core.c **** 
 309:D:/Git/VL53L1/lib/core/src\vl53l1_api_core.c **** 	return status;
 310:D:/Git/VL53L1/lib/core/src\vl53l1_api_core.c **** }
 311:D:/Git/VL53L1/lib/core/src\vl53l1_api_core.c **** 
 312:D:/Git/VL53L1/lib/core/src\vl53l1_api_core.c **** 
 313:D:/Git/VL53L1/lib/core/src\vl53l1_api_core.c **** VL53L1_Error VL53L1_read_p2p_data(
 314:D:/Git/VL53L1/lib/core/src\vl53l1_api_core.c **** 	VL53L1_DEV        Dev)
ARM GAS  C:\Users\Berbardo\AppData\Local\Temp\ccBMvrJ9.s 			page 7


 315:D:/Git/VL53L1/lib/core/src\vl53l1_api_core.c **** {
 316:D:/Git/VL53L1/lib/core/src\vl53l1_api_core.c **** 
 317:D:/Git/VL53L1/lib/core/src\vl53l1_api_core.c **** 	/*
 318:D:/Git/VL53L1/lib/core/src\vl53l1_api_core.c **** 	 *  For C-API one time initialization only reads device
 319:D:/Git/VL53L1/lib/core/src\vl53l1_api_core.c **** 	 *  G02 registers containing data copied from NVM
 320:D:/Git/VL53L1/lib/core/src\vl53l1_api_core.c **** 	 *
 321:D:/Git/VL53L1/lib/core/src\vl53l1_api_core.c **** 	 *  Contains the key NVM data e.g identification info
 322:D:/Git/VL53L1/lib/core/src\vl53l1_api_core.c **** 	 *  fast oscillator freq, max trim and laser safety info
 323:D:/Git/VL53L1/lib/core/src\vl53l1_api_core.c **** 	 */
 324:D:/Git/VL53L1/lib/core/src\vl53l1_api_core.c **** 
 325:D:/Git/VL53L1/lib/core/src\vl53l1_api_core.c **** 	VL53L1_Error status       = VL53L1_ERROR_NONE;
 326:D:/Git/VL53L1/lib/core/src\vl53l1_api_core.c **** 	VL53L1_LLDriverData_t *pdev = VL53L1DevStructGetLLDriverHandle(Dev);
 327:D:/Git/VL53L1/lib/core/src\vl53l1_api_core.c **** 
 328:D:/Git/VL53L1/lib/core/src\vl53l1_api_core.c **** 	LOG_FUNCTION_START("");
 329:D:/Git/VL53L1/lib/core/src\vl53l1_api_core.c **** 
 330:D:/Git/VL53L1/lib/core/src\vl53l1_api_core.c **** 	if (status == VL53L1_ERROR_NONE)
 331:D:/Git/VL53L1/lib/core/src\vl53l1_api_core.c **** 		status = VL53L1_get_static_nvm_managed(
 332:D:/Git/VL53L1/lib/core/src\vl53l1_api_core.c **** 						Dev,
 333:D:/Git/VL53L1/lib/core/src\vl53l1_api_core.c **** 						&(pdev->stat_nvm));
 334:D:/Git/VL53L1/lib/core/src\vl53l1_api_core.c **** 
 335:D:/Git/VL53L1/lib/core/src\vl53l1_api_core.c **** 	if (status == VL53L1_ERROR_NONE)
 336:D:/Git/VL53L1/lib/core/src\vl53l1_api_core.c **** 		status = VL53L1_get_customer_nvm_managed(
 337:D:/Git/VL53L1/lib/core/src\vl53l1_api_core.c **** 						Dev,
 338:D:/Git/VL53L1/lib/core/src\vl53l1_api_core.c **** 						&(pdev->customer));
 339:D:/Git/VL53L1/lib/core/src\vl53l1_api_core.c **** 
 340:D:/Git/VL53L1/lib/core/src\vl53l1_api_core.c **** 	if (status == VL53L1_ERROR_NONE) {
 341:D:/Git/VL53L1/lib/core/src\vl53l1_api_core.c **** 
 342:D:/Git/VL53L1/lib/core/src\vl53l1_api_core.c **** 		status = VL53L1_get_nvm_copy_data(
 343:D:/Git/VL53L1/lib/core/src\vl53l1_api_core.c **** 						Dev,
 344:D:/Git/VL53L1/lib/core/src\vl53l1_api_core.c **** 						&(pdev->nvm_copy_data));
 345:D:/Git/VL53L1/lib/core/src\vl53l1_api_core.c **** 
 346:D:/Git/VL53L1/lib/core/src\vl53l1_api_core.c **** 		/* copy Return Good SPADs to buffer */
 347:D:/Git/VL53L1/lib/core/src\vl53l1_api_core.c **** 		if (status == VL53L1_ERROR_NONE)
 348:D:/Git/VL53L1/lib/core/src\vl53l1_api_core.c **** 			VL53L1_copy_rtn_good_spads_to_buffer(
 349:D:/Git/VL53L1/lib/core/src\vl53l1_api_core.c **** 					&(pdev->nvm_copy_data),
 350:D:/Git/VL53L1/lib/core/src\vl53l1_api_core.c **** 					&(pdev->rtn_good_spads[0]));
 351:D:/Git/VL53L1/lib/core/src\vl53l1_api_core.c **** 	}
 352:D:/Git/VL53L1/lib/core/src\vl53l1_api_core.c **** 
 353:D:/Git/VL53L1/lib/core/src\vl53l1_api_core.c **** 	/*
 354:D:/Git/VL53L1/lib/core/src\vl53l1_api_core.c **** 	 * read slow osc calibration value
 355:D:/Git/VL53L1/lib/core/src\vl53l1_api_core.c **** 	 * counts per ms
 356:D:/Git/VL53L1/lib/core/src\vl53l1_api_core.c **** 	 */
 357:D:/Git/VL53L1/lib/core/src\vl53l1_api_core.c **** 	if (status == VL53L1_ERROR_NONE)
 358:D:/Git/VL53L1/lib/core/src\vl53l1_api_core.c **** 		status =
 359:D:/Git/VL53L1/lib/core/src\vl53l1_api_core.c **** 			VL53L1_RdWord(
 360:D:/Git/VL53L1/lib/core/src\vl53l1_api_core.c **** 				Dev,
 361:D:/Git/VL53L1/lib/core/src\vl53l1_api_core.c **** 				VL53L1_RESULT__OSC_CALIBRATE_VAL,
 362:D:/Git/VL53L1/lib/core/src\vl53l1_api_core.c **** 				&(pdev->dbg_results.result__osc_calibrate_val));
 363:D:/Git/VL53L1/lib/core/src\vl53l1_api_core.c **** 
 364:D:/Git/VL53L1/lib/core/src\vl53l1_api_core.c **** 	/*
 365:D:/Git/VL53L1/lib/core/src\vl53l1_api_core.c **** 	 * Check if there a sensible value for osc_measured__fast_osc__frequency
 366:D:/Git/VL53L1/lib/core/src\vl53l1_api_core.c **** 	 */
 367:D:/Git/VL53L1/lib/core/src\vl53l1_api_core.c **** 
 368:D:/Git/VL53L1/lib/core/src\vl53l1_api_core.c **** 	if (pdev->stat_nvm.osc_measured__fast_osc__frequency < 0x1000) {
 369:D:/Git/VL53L1/lib/core/src\vl53l1_api_core.c **** 		trace_print(
 370:D:/Git/VL53L1/lib/core/src\vl53l1_api_core.c **** 			VL53L1_TRACE_LEVEL_WARNING,
 371:D:/Git/VL53L1/lib/core/src\vl53l1_api_core.c **** 			"\nInvalid %s value (0x%04X) - forcing to 0x%04X\n\n",
ARM GAS  C:\Users\Berbardo\AppData\Local\Temp\ccBMvrJ9.s 			page 8


 372:D:/Git/VL53L1/lib/core/src\vl53l1_api_core.c **** 			"pdev->stat_nvm.osc_measured__fast_osc__frequency",
 373:D:/Git/VL53L1/lib/core/src\vl53l1_api_core.c **** 			pdev->stat_nvm.osc_measured__fast_osc__frequency,
 374:D:/Git/VL53L1/lib/core/src\vl53l1_api_core.c **** 			0xBCCC);
 375:D:/Git/VL53L1/lib/core/src\vl53l1_api_core.c **** 		pdev->stat_nvm.osc_measured__fast_osc__frequency = 0xBCCC;
 376:D:/Git/VL53L1/lib/core/src\vl53l1_api_core.c **** 	}
 377:D:/Git/VL53L1/lib/core/src\vl53l1_api_core.c **** 
 378:D:/Git/VL53L1/lib/core/src\vl53l1_api_core.c **** 	/*
 379:D:/Git/VL53L1/lib/core/src\vl53l1_api_core.c **** 	 * Get MM ROI - contains optical centre as SPAD number
 380:D:/Git/VL53L1/lib/core/src\vl53l1_api_core.c **** 	 */
 381:D:/Git/VL53L1/lib/core/src\vl53l1_api_core.c **** 
 382:D:/Git/VL53L1/lib/core/src\vl53l1_api_core.c **** 	if (status == VL53L1_ERROR_NONE)
 383:D:/Git/VL53L1/lib/core/src\vl53l1_api_core.c **** 		status =
 384:D:/Git/VL53L1/lib/core/src\vl53l1_api_core.c **** 			VL53L1_get_mode_mitigation_roi(
 385:D:/Git/VL53L1/lib/core/src\vl53l1_api_core.c **** 				Dev,
 386:D:/Git/VL53L1/lib/core/src\vl53l1_api_core.c **** 				&(pdev->mm_roi));
 387:D:/Git/VL53L1/lib/core/src\vl53l1_api_core.c **** 
 388:D:/Git/VL53L1/lib/core/src\vl53l1_api_core.c **** 	/* catch parts where the optical centre is
 389:D:/Git/VL53L1/lib/core/src\vl53l1_api_core.c **** 	 * no programmed in to the NVM
 390:D:/Git/VL53L1/lib/core/src\vl53l1_api_core.c **** 	 */
 391:D:/Git/VL53L1/lib/core/src\vl53l1_api_core.c **** 
 392:D:/Git/VL53L1/lib/core/src\vl53l1_api_core.c **** 	if (pdev->optical_centre.x_centre == 0 &&
 393:D:/Git/VL53L1/lib/core/src\vl53l1_api_core.c **** 		pdev->optical_centre.y_centre == 0) {
 394:D:/Git/VL53L1/lib/core/src\vl53l1_api_core.c **** 		pdev->optical_centre.x_centre =
 395:D:/Git/VL53L1/lib/core/src\vl53l1_api_core.c **** 				pdev->mm_roi.x_centre << 4;
 396:D:/Git/VL53L1/lib/core/src\vl53l1_api_core.c **** 		pdev->optical_centre.y_centre =
 397:D:/Git/VL53L1/lib/core/src\vl53l1_api_core.c **** 				pdev->mm_roi.y_centre << 4;
 398:D:/Git/VL53L1/lib/core/src\vl53l1_api_core.c **** 	}
 399:D:/Git/VL53L1/lib/core/src\vl53l1_api_core.c **** 
 400:D:/Git/VL53L1/lib/core/src\vl53l1_api_core.c **** 	LOG_FUNCTION_END(status);
 401:D:/Git/VL53L1/lib/core/src\vl53l1_api_core.c **** 
 402:D:/Git/VL53L1/lib/core/src\vl53l1_api_core.c **** 	return status;
 403:D:/Git/VL53L1/lib/core/src\vl53l1_api_core.c **** }
 404:D:/Git/VL53L1/lib/core/src\vl53l1_api_core.c **** 
 405:D:/Git/VL53L1/lib/core/src\vl53l1_api_core.c **** 
 406:D:/Git/VL53L1/lib/core/src\vl53l1_api_core.c **** VL53L1_Error VL53L1_software_reset(
 407:D:/Git/VL53L1/lib/core/src\vl53l1_api_core.c **** 	VL53L1_DEV    Dev)
 408:D:/Git/VL53L1/lib/core/src\vl53l1_api_core.c **** {
  30              		.loc 1 408 1 view -0
  31              		.cfi_startproc
  32              		@ args = 0, pretend = 0, frame = 0
  33              		@ frame_needed = 0, uses_anonymous_args = 0
  34              		.loc 1 408 1 is_stmt 0 view .LVU1
  35 0000 10B5     		push	{r4, lr}
  36              		.cfi_def_cfa_offset 8
  37              		.cfi_offset 4, -8
  38              		.cfi_offset 14, -4
  39 0002 0446     		mov	r4, r0
 409:D:/Git/VL53L1/lib/core/src\vl53l1_api_core.c **** 	/**
 410:D:/Git/VL53L1/lib/core/src\vl53l1_api_core.c **** 	 * Sets and clears the software reset register VL53L1_SOFT_RESET.
 411:D:/Git/VL53L1/lib/core/src\vl53l1_api_core.c **** 	 * and waits for the firmware to boot
 412:D:/Git/VL53L1/lib/core/src\vl53l1_api_core.c **** 	 */
 413:D:/Git/VL53L1/lib/core/src\vl53l1_api_core.c **** 
 414:D:/Git/VL53L1/lib/core/src\vl53l1_api_core.c **** 	VL53L1_Error status       = VL53L1_ERROR_NONE;
  40              		.loc 1 414 2 is_stmt 1 view .LVU2
  41              	.LVL1:
 415:D:/Git/VL53L1/lib/core/src\vl53l1_api_core.c **** 
 416:D:/Git/VL53L1/lib/core/src\vl53l1_api_core.c **** 	LOG_FUNCTION_START("");
ARM GAS  C:\Users\Berbardo\AppData\Local\Temp\ccBMvrJ9.s 			page 9


  42              		.loc 1 416 24 view .LVU3
 417:D:/Git/VL53L1/lib/core/src\vl53l1_api_core.c **** 
 418:D:/Git/VL53L1/lib/core/src\vl53l1_api_core.c **** 	/* apply reset - note despite the name soft reset is active low! */
 419:D:/Git/VL53L1/lib/core/src\vl53l1_api_core.c **** 	if (status == VL53L1_ERROR_NONE) /*lint !e774 always true*/
  43              		.loc 1 419 2 view .LVU4
 420:D:/Git/VL53L1/lib/core/src\vl53l1_api_core.c **** 		status = VL53L1_WrByte(
  44              		.loc 1 420 3 view .LVU5
  45              		.loc 1 420 12 is_stmt 0 view .LVU6
  46 0004 0022     		movs	r2, #0
  47 0006 1146     		mov	r1, r2
  48 0008 FFF7FEFF 		bl	VL53L1_WrByte
  49              	.LVL2:
 421:D:/Git/VL53L1/lib/core/src\vl53l1_api_core.c **** 						Dev,
 422:D:/Git/VL53L1/lib/core/src\vl53l1_api_core.c **** 						VL53L1_SOFT_RESET,
 423:D:/Git/VL53L1/lib/core/src\vl53l1_api_core.c **** 						0x00);
 424:D:/Git/VL53L1/lib/core/src\vl53l1_api_core.c **** 
 425:D:/Git/VL53L1/lib/core/src\vl53l1_api_core.c **** 	/* wait for a while before releasing the reset */
 426:D:/Git/VL53L1/lib/core/src\vl53l1_api_core.c **** 	if (status == VL53L1_ERROR_NONE)
  50              		.loc 1 426 2 is_stmt 1 view .LVU7
  51              		.loc 1 426 5 is_stmt 0 view .LVU8
  52 000c 0346     		mov	r3, r0
  53 000e 18B1     		cbz	r0, .L6
  54              	.LVL3:
  55              	.L2:
 427:D:/Git/VL53L1/lib/core/src\vl53l1_api_core.c **** 		status =
 428:D:/Git/VL53L1/lib/core/src\vl53l1_api_core.c **** 			VL53L1_WaitUs(
 429:D:/Git/VL53L1/lib/core/src\vl53l1_api_core.c **** 				Dev,
 430:D:/Git/VL53L1/lib/core/src\vl53l1_api_core.c **** 				VL53L1_SOFTWARE_RESET_DURATION_US);
 431:D:/Git/VL53L1/lib/core/src\vl53l1_api_core.c **** 
 432:D:/Git/VL53L1/lib/core/src\vl53l1_api_core.c **** 	/* release reset */
 433:D:/Git/VL53L1/lib/core/src\vl53l1_api_core.c **** 	if (status == VL53L1_ERROR_NONE)
  56              		.loc 1 433 2 is_stmt 1 view .LVU9
  57              		.loc 1 433 5 is_stmt 0 view .LVU10
  58 0010 43B1     		cbz	r3, .L7
  59              	.L3:
 434:D:/Git/VL53L1/lib/core/src\vl53l1_api_core.c **** 		status = VL53L1_WrByte(
 435:D:/Git/VL53L1/lib/core/src\vl53l1_api_core.c **** 						Dev,
 436:D:/Git/VL53L1/lib/core/src\vl53l1_api_core.c **** 						VL53L1_SOFT_RESET,
 437:D:/Git/VL53L1/lib/core/src\vl53l1_api_core.c **** 						0x01);
 438:D:/Git/VL53L1/lib/core/src\vl53l1_api_core.c **** 
 439:D:/Git/VL53L1/lib/core/src\vl53l1_api_core.c **** 	/* wait for firmware boot to complete */
 440:D:/Git/VL53L1/lib/core/src\vl53l1_api_core.c **** 	if (status == VL53L1_ERROR_NONE)
  60              		.loc 1 440 2 is_stmt 1 view .LVU11
  61              		.loc 1 440 5 is_stmt 0 view .LVU12
  62 0012 73B1     		cbz	r3, .L8
  63              	.L4:
 441:D:/Git/VL53L1/lib/core/src\vl53l1_api_core.c **** 		status = VL53L1_wait_for_boot_completion(Dev);
 442:D:/Git/VL53L1/lib/core/src\vl53l1_api_core.c **** 
 443:D:/Git/VL53L1/lib/core/src\vl53l1_api_core.c **** 	LOG_FUNCTION_END(status);
  64              		.loc 1 443 26 is_stmt 1 view .LVU13
 444:D:/Git/VL53L1/lib/core/src\vl53l1_api_core.c **** 
 445:D:/Git/VL53L1/lib/core/src\vl53l1_api_core.c **** 	return status;
  65              		.loc 1 445 2 view .LVU14
 446:D:/Git/VL53L1/lib/core/src\vl53l1_api_core.c **** }
  66              		.loc 1 446 1 is_stmt 0 view .LVU15
  67 0014 1846     		mov	r0, r3
  68 0016 10BD     		pop	{r4, pc}
ARM GAS  C:\Users\Berbardo\AppData\Local\Temp\ccBMvrJ9.s 			page 10


  69              	.LVL4:
  70              	.L6:
 427:D:/Git/VL53L1/lib/core/src\vl53l1_api_core.c **** 			VL53L1_WaitUs(
  71              		.loc 1 427 3 is_stmt 1 view .LVU16
 428:D:/Git/VL53L1/lib/core/src\vl53l1_api_core.c **** 				Dev,
  72              		.loc 1 428 4 is_stmt 0 view .LVU17
  73 0018 6421     		movs	r1, #100
  74 001a 2046     		mov	r0, r4
  75              	.LVL5:
 428:D:/Git/VL53L1/lib/core/src\vl53l1_api_core.c **** 				Dev,
  76              		.loc 1 428 4 view .LVU18
  77 001c FFF7FEFF 		bl	VL53L1_WaitUs
  78              	.LVL6:
  79 0020 0346     		mov	r3, r0
  80              	.LVL7:
 428:D:/Git/VL53L1/lib/core/src\vl53l1_api_core.c **** 				Dev,
  81              		.loc 1 428 4 view .LVU19
  82 0022 F5E7     		b	.L2
  83              	.L7:
 434:D:/Git/VL53L1/lib/core/src\vl53l1_api_core.c **** 						Dev,
  84              		.loc 1 434 3 is_stmt 1 view .LVU20
 434:D:/Git/VL53L1/lib/core/src\vl53l1_api_core.c **** 						Dev,
  85              		.loc 1 434 12 is_stmt 0 view .LVU21
  86 0024 0122     		movs	r2, #1
  87 0026 0021     		movs	r1, #0
  88 0028 2046     		mov	r0, r4
  89 002a FFF7FEFF 		bl	VL53L1_WrByte
  90              	.LVL8:
 434:D:/Git/VL53L1/lib/core/src\vl53l1_api_core.c **** 						Dev,
  91              		.loc 1 434 12 view .LVU22
  92 002e 0346     		mov	r3, r0
  93              	.LVL9:
 434:D:/Git/VL53L1/lib/core/src\vl53l1_api_core.c **** 						Dev,
  94              		.loc 1 434 12 view .LVU23
  95 0030 EFE7     		b	.L3
  96              	.L8:
 441:D:/Git/VL53L1/lib/core/src\vl53l1_api_core.c **** 
  97              		.loc 1 441 3 is_stmt 1 view .LVU24
 441:D:/Git/VL53L1/lib/core/src\vl53l1_api_core.c **** 
  98              		.loc 1 441 12 is_stmt 0 view .LVU25
  99 0032 2046     		mov	r0, r4
 100 0034 FFF7FEFF 		bl	VL53L1_wait_for_boot_completion
 101              	.LVL10:
 441:D:/Git/VL53L1/lib/core/src\vl53l1_api_core.c **** 
 102              		.loc 1 441 12 view .LVU26
 103 0038 0346     		mov	r3, r0
 104              	.LVL11:
 441:D:/Git/VL53L1/lib/core/src\vl53l1_api_core.c **** 
 105              		.loc 1 441 12 view .LVU27
 106 003a EBE7     		b	.L4
 107              		.cfi_endproc
 108              	.LFE128:
 110              		.section	.text.VL53L1_set_part_to_part_data,"ax",%progbits
 111              		.align	1
 112              		.global	VL53L1_set_part_to_part_data
 113              		.syntax unified
 114              		.thumb
ARM GAS  C:\Users\Berbardo\AppData\Local\Temp\ccBMvrJ9.s 			page 11


 115              		.thumb_func
 116              		.fpu fpv4-sp-d16
 118              	VL53L1_set_part_to_part_data:
 119              	.LVL12:
 120              	.LFB129:
 447:D:/Git/VL53L1/lib/core/src\vl53l1_api_core.c **** 
 448:D:/Git/VL53L1/lib/core/src\vl53l1_api_core.c **** 
 449:D:/Git/VL53L1/lib/core/src\vl53l1_api_core.c **** VL53L1_Error VL53L1_set_part_to_part_data(
 450:D:/Git/VL53L1/lib/core/src\vl53l1_api_core.c **** 	VL53L1_DEV                            Dev,
 451:D:/Git/VL53L1/lib/core/src\vl53l1_api_core.c **** 	VL53L1_calibration_data_t            *pcal_data)
 452:D:/Git/VL53L1/lib/core/src\vl53l1_api_core.c **** {
 121              		.loc 1 452 1 is_stmt 1 view -0
 122              		.cfi_startproc
 123              		@ args = 0, pretend = 0, frame = 0
 124              		@ frame_needed = 0, uses_anonymous_args = 0
 125              		.loc 1 452 1 is_stmt 0 view .LVU29
 126 0000 F8B5     		push	{r3, r4, r5, r6, r7, lr}
 127              		.cfi_def_cfa_offset 24
 128              		.cfi_offset 3, -24
 129              		.cfi_offset 4, -20
 130              		.cfi_offset 5, -16
 131              		.cfi_offset 6, -12
 132              		.cfi_offset 7, -8
 133              		.cfi_offset 14, -4
 453:D:/Git/VL53L1/lib/core/src\vl53l1_api_core.c **** 	/**
 454:D:/Git/VL53L1/lib/core/src\vl53l1_api_core.c **** 	 * Uses memcpy to copy input data to pdev->customer
 455:D:/Git/VL53L1/lib/core/src\vl53l1_api_core.c **** 	 */
 456:D:/Git/VL53L1/lib/core/src\vl53l1_api_core.c **** 
 457:D:/Git/VL53L1/lib/core/src\vl53l1_api_core.c **** 	VL53L1_Error  status = VL53L1_ERROR_NONE;
 134              		.loc 1 457 2 is_stmt 1 view .LVU30
 135              	.LVL13:
 458:D:/Git/VL53L1/lib/core/src\vl53l1_api_core.c **** 	VL53L1_LLDriverData_t *pdev = VL53L1DevStructGetLLDriverHandle(Dev);
 136              		.loc 1 458 2 view .LVU31
 459:D:/Git/VL53L1/lib/core/src\vl53l1_api_core.c **** 
 460:D:/Git/VL53L1/lib/core/src\vl53l1_api_core.c **** 	uint32_t tempu32;
 137              		.loc 1 460 2 view .LVU32
 461:D:/Git/VL53L1/lib/core/src\vl53l1_api_core.c **** 
 462:D:/Git/VL53L1/lib/core/src\vl53l1_api_core.c **** 	LOG_FUNCTION_START("");
 138              		.loc 1 462 24 view .LVU33
 463:D:/Git/VL53L1/lib/core/src\vl53l1_api_core.c **** 
 464:D:/Git/VL53L1/lib/core/src\vl53l1_api_core.c **** 	if (pcal_data->struct_version !=
 139              		.loc 1 464 2 view .LVU34
 140              		.loc 1 464 15 is_stmt 0 view .LVU35
 141 0002 0A68     		ldr	r2, [r1]
 142              		.loc 1 464 5 view .LVU36
 143 0004 314B     		ldr	r3, .L17
 144 0006 9A42     		cmp	r2, r3
 145 0008 5CD1     		bne	.L14
 465:D:/Git/VL53L1/lib/core/src\vl53l1_api_core.c **** 		VL53L1_LL_CALIBRATION_DATA_STRUCT_VERSION) {
 466:D:/Git/VL53L1/lib/core/src\vl53l1_api_core.c **** 		status = VL53L1_ERROR_INVALID_PARAMS;
 467:D:/Git/VL53L1/lib/core/src\vl53l1_api_core.c **** 	}
 468:D:/Git/VL53L1/lib/core/src\vl53l1_api_core.c **** 
 469:D:/Git/VL53L1/lib/core/src\vl53l1_api_core.c **** 	if (status == VL53L1_ERROR_NONE) {
 146              		.loc 1 469 2 is_stmt 1 view .LVU37
 470:D:/Git/VL53L1/lib/core/src\vl53l1_api_core.c **** 
 471:D:/Git/VL53L1/lib/core/src\vl53l1_api_core.c **** 		/* memcpy(DEST, SRC, N)  */
 472:D:/Git/VL53L1/lib/core/src\vl53l1_api_core.c **** 		memcpy(
ARM GAS  C:\Users\Berbardo\AppData\Local\Temp\ccBMvrJ9.s 			page 12


 147              		.loc 1 472 3 view .LVU38
 473:D:/Git/VL53L1/lib/core/src\vl53l1_api_core.c **** 			&(pdev->customer),
 474:D:/Git/VL53L1/lib/core/src\vl53l1_api_core.c **** 			&(pcal_data->customer),
 148              		.loc 1 474 4 is_stmt 0 view .LVU39
 149 000a 0A46     		mov	r2, r1
 472:D:/Git/VL53L1/lib/core/src\vl53l1_api_core.c **** 			&(pdev->customer),
 150              		.loc 1 472 3 view .LVU40
 151 000c 52F8045F 		ldr	r5, [r2, #4]!	@ unaligned
 152 0010 5468     		ldr	r4, [r2, #4]	@ unaligned
 153 0012 9768     		ldr	r7, [r2, #8]	@ unaligned
 154 0014 D668     		ldr	r6, [r2, #12]	@ unaligned
 155 0016 C0F84250 		str	r5, [r0, #66]	@ unaligned
 156 001a C0F84640 		str	r4, [r0, #70]	@ unaligned
 157 001e C0F84A70 		str	r7, [r0, #74]	@ unaligned
 158 0022 C0F84E60 		str	r6, [r0, #78]	@ unaligned
 159 0026 1569     		ldr	r5, [r2, #16]	@ unaligned
 160 0028 5469     		ldr	r4, [r2, #20]	@ unaligned
 161 002a C0F85250 		str	r5, [r0, #82]	@ unaligned
 162 002e C0F85640 		str	r4, [r0, #86]	@ unaligned
 475:D:/Git/VL53L1/lib/core/src\vl53l1_api_core.c **** 			sizeof(VL53L1_customer_nvm_managed_t));
 476:D:/Git/VL53L1/lib/core/src\vl53l1_api_core.c **** 
 477:D:/Git/VL53L1/lib/core/src\vl53l1_api_core.c **** 		/* memcpy(DEST, SRC, N)  */
 478:D:/Git/VL53L1/lib/core/src\vl53l1_api_core.c **** 		memcpy(
 163              		.loc 1 478 3 is_stmt 1 view .LVU41
 479:D:/Git/VL53L1/lib/core/src\vl53l1_api_core.c **** 			&(pdev->add_off_cal_data),
 480:D:/Git/VL53L1/lib/core/src\vl53l1_api_core.c **** 			&(pcal_data->add_off_cal_data),
 164              		.loc 1 480 4 is_stmt 0 view .LVU42
 165 0032 0B46     		mov	r3, r1
 478:D:/Git/VL53L1/lib/core/src\vl53l1_api_core.c **** 			&(pdev->add_off_cal_data),
 166              		.loc 1 478 3 view .LVU43
 167 0034 53F81C2F 		ldr	r2, [r3, #28]!	@ unaligned
 168 0038 5B68     		ldr	r3, [r3, #4]	@ unaligned
 169 003a C0F89420 		str	r2, [r0, #148]	@ unaligned
 170 003e C0F89830 		str	r3, [r0, #152]	@ unaligned
 481:D:/Git/VL53L1/lib/core/src\vl53l1_api_core.c **** 			sizeof(VL53L1_additional_offset_cal_data_t));
 482:D:/Git/VL53L1/lib/core/src\vl53l1_api_core.c **** 
 483:D:/Git/VL53L1/lib/core/src\vl53l1_api_core.c **** 		/* memcpy(DEST, SRC, N)  */
 484:D:/Git/VL53L1/lib/core/src\vl53l1_api_core.c **** 		memcpy(
 171              		.loc 1 484 3 is_stmt 1 view .LVU44
 172 0042 CB8C     		ldrh	r3, [r1, #38]	@ unaligned
 173 0044 A0F89C30 		strh	r3, [r0, #156]	@ unaligned
 485:D:/Git/VL53L1/lib/core/src\vl53l1_api_core.c **** 			&(pdev->gain_cal),
 486:D:/Git/VL53L1/lib/core/src\vl53l1_api_core.c **** 			&(pcal_data->gain_cal),
 487:D:/Git/VL53L1/lib/core/src\vl53l1_api_core.c **** 			sizeof(VL53L1_gain_calibration_data_t));
 488:D:/Git/VL53L1/lib/core/src\vl53l1_api_core.c **** 
 489:D:/Git/VL53L1/lib/core/src\vl53l1_api_core.c **** 		/* memcpy(DEST, SRC, N)  */
 490:D:/Git/VL53L1/lib/core/src\vl53l1_api_core.c **** 		memcpy(
 174              		.loc 1 490 3 view .LVU45
 491:D:/Git/VL53L1/lib/core/src\vl53l1_api_core.c **** 			&(pdev->cal_peak_rate_map),
 492:D:/Git/VL53L1/lib/core/src\vl53l1_api_core.c **** 			&(pcal_data->cal_peak_rate_map),
 175              		.loc 1 492 4 is_stmt 0 view .LVU46
 176 0048 01F12803 		add	r3, r1, #40
 490:D:/Git/VL53L1/lib/core/src\vl53l1_api_core.c **** 			&(pdev->cal_peak_rate_map),
 177              		.loc 1 490 3 view .LVU47
 178 004c 00F15A02 		add	r2, r0, #90
 179 0050 5831     		adds	r1, r1, #88
 180              	.LVL14:
ARM GAS  C:\Users\Berbardo\AppData\Local\Temp\ccBMvrJ9.s 			page 13


 181              	.L11:
 490:D:/Git/VL53L1/lib/core/src\vl53l1_api_core.c **** 			&(pdev->cal_peak_rate_map),
 182              		.loc 1 490 3 view .LVU48
 183 0052 1F68     		ldr	r7, [r3]	@ unaligned
 184 0054 5E68     		ldr	r6, [r3, #4]	@ unaligned
 185 0056 9D68     		ldr	r5, [r3, #8]	@ unaligned
 186 0058 DC68     		ldr	r4, [r3, #12]	@ unaligned
 187 005a 1760     		str	r7, [r2]	@ unaligned
 188 005c 5660     		str	r6, [r2, #4]	@ unaligned
 189 005e 9560     		str	r5, [r2, #8]	@ unaligned
 190 0060 D460     		str	r4, [r2, #12]	@ unaligned
 191 0062 1033     		adds	r3, r3, #16
 192 0064 1032     		adds	r2, r2, #16
 193 0066 8B42     		cmp	r3, r1
 194 0068 F3D1     		bne	.L11
 195 006a 1C68     		ldr	r4, [r3]	@ unaligned
 196 006c 5968     		ldr	r1, [r3, #4]	@ unaligned
 197              	.LVL15:
 490:D:/Git/VL53L1/lib/core/src\vl53l1_api_core.c **** 			&(pdev->cal_peak_rate_map),
 198              		.loc 1 490 3 view .LVU49
 199 006e 1460     		str	r4, [r2]	@ unaligned
 200 0070 5160     		str	r1, [r2, #4]	@ unaligned
 201 0072 1B89     		ldrh	r3, [r3, #8]	@ unaligned
 202 0074 1381     		strh	r3, [r2, #8]	@ unaligned
 493:D:/Git/VL53L1/lib/core/src\vl53l1_api_core.c **** 			sizeof(VL53L1_cal_peak_rate_map_t));
 494:D:/Git/VL53L1/lib/core/src\vl53l1_api_core.c **** 
 495:D:/Git/VL53L1/lib/core/src\vl53l1_api_core.c **** 		/*
 496:D:/Git/VL53L1/lib/core/src\vl53l1_api_core.c **** 		 *  Update internal xtalk data structures
 497:D:/Git/VL53L1/lib/core/src\vl53l1_api_core.c **** 		 */
 498:D:/Git/VL53L1/lib/core/src\vl53l1_api_core.c **** 
 499:D:/Git/VL53L1/lib/core/src\vl53l1_api_core.c **** 		pdev->xtalk_cfg.algo__crosstalk_compensation_plane_offset_kcps =
 203              		.loc 1 499 3 is_stmt 1 view .LVU50
 500:D:/Git/VL53L1/lib/core/src\vl53l1_api_core.c **** 			pdev->customer.algo__crosstalk_compensation_plane_offset_kcps;
 204              		.loc 1 500 18 is_stmt 0 view .LVU51
 205 0076 B0F84C30 		ldrh	r3, [r0, #76]
 499:D:/Git/VL53L1/lib/core/src\vl53l1_api_core.c **** 			pdev->customer.algo__crosstalk_compensation_plane_offset_kcps;
 206              		.loc 1 499 66 view .LVU52
 207 007a C0F82C31 		str	r3, [r0, #300]
 501:D:/Git/VL53L1/lib/core/src\vl53l1_api_core.c **** 		pdev->xtalk_cfg.algo__crosstalk_compensation_x_plane_gradient_kcps =
 208              		.loc 1 501 3 is_stmt 1 view .LVU53
 502:D:/Git/VL53L1/lib/core/src\vl53l1_api_core.c **** 			pdev->customer.algo__crosstalk_compensation_x_plane_gradient_kcps;
 209              		.loc 1 502 18 is_stmt 0 view .LVU54
 210 007e B0F94E20 		ldrsh	r2, [r0, #78]
 501:D:/Git/VL53L1/lib/core/src\vl53l1_api_core.c **** 		pdev->xtalk_cfg.algo__crosstalk_compensation_x_plane_gradient_kcps =
 211              		.loc 1 501 70 view .LVU55
 212 0082 A0F83021 		strh	r2, [r0, #304]	@ movhi
 503:D:/Git/VL53L1/lib/core/src\vl53l1_api_core.c **** 		pdev->xtalk_cfg.algo__crosstalk_compensation_y_plane_gradient_kcps =
 213              		.loc 1 503 3 is_stmt 1 view .LVU56
 504:D:/Git/VL53L1/lib/core/src\vl53l1_api_core.c **** 			pdev->customer.algo__crosstalk_compensation_y_plane_gradient_kcps;
 214              		.loc 1 504 18 is_stmt 0 view .LVU57
 215 0086 B0F95020 		ldrsh	r2, [r0, #80]
 503:D:/Git/VL53L1/lib/core/src\vl53l1_api_core.c **** 		pdev->xtalk_cfg.algo__crosstalk_compensation_y_plane_gradient_kcps =
 216              		.loc 1 503 70 view .LVU58
 217 008a A0F83221 		strh	r2, [r0, #306]	@ movhi
 505:D:/Git/VL53L1/lib/core/src\vl53l1_api_core.c **** 
 506:D:/Git/VL53L1/lib/core/src\vl53l1_api_core.c **** 		/* Assess and update customer packet xtalk parameters */
 507:D:/Git/VL53L1/lib/core/src\vl53l1_api_core.c **** 
ARM GAS  C:\Users\Berbardo\AppData\Local\Temp\ccBMvrJ9.s 			page 14


 508:D:/Git/VL53L1/lib/core/src\vl53l1_api_core.c **** 		if (pdev->xtalk_cfg.global_crosstalk_compensation_enable == 0x00) {
 218              		.loc 1 508 3 is_stmt 1 view .LVU59
 219              		.loc 1 508 22 is_stmt 0 view .LVU60
 220 008e 90F83C21 		ldrb	r2, [r0, #316]	@ zero_extendqisi2
 221              		.loc 1 508 6 view .LVU61
 222 0092 42B9     		cbnz	r2, .L12
 509:D:/Git/VL53L1/lib/core/src\vl53l1_api_core.c **** 			pdev->customer.algo__crosstalk_compensation_plane_offset_kcps =
 223              		.loc 1 509 4 is_stmt 1 view .LVU62
 224              		.loc 1 509 66 is_stmt 0 view .LVU63
 225 0094 0023     		movs	r3, #0
 226 0096 A0F84C30 		strh	r3, [r0, #76]	@ movhi
 510:D:/Git/VL53L1/lib/core/src\vl53l1_api_core.c **** 				0x00;
 511:D:/Git/VL53L1/lib/core/src\vl53l1_api_core.c **** 			pdev->customer.algo__crosstalk_compensation_x_plane_gradient_kcps =
 227              		.loc 1 511 4 is_stmt 1 view .LVU64
 228              		.loc 1 511 70 is_stmt 0 view .LVU65
 229 009a A0F84E30 		strh	r3, [r0, #78]	@ movhi
 512:D:/Git/VL53L1/lib/core/src\vl53l1_api_core.c **** 				0x00;
 513:D:/Git/VL53L1/lib/core/src\vl53l1_api_core.c **** 			pdev->customer.algo__crosstalk_compensation_y_plane_gradient_kcps =
 230              		.loc 1 513 4 is_stmt 1 view .LVU66
 231              		.loc 1 513 70 is_stmt 0 view .LVU67
 232 009e A0F85030 		strh	r3, [r0, #80]	@ movhi
 457:D:/Git/VL53L1/lib/core/src\vl53l1_api_core.c **** 	VL53L1_LLDriverData_t *pdev = VL53L1DevStructGetLLDriverHandle(Dev);
 233              		.loc 1 457 16 view .LVU68
 234 00a2 1846     		mov	r0, r3
 235              	.LVL16:
 236              	.L10:
 514:D:/Git/VL53L1/lib/core/src\vl53l1_api_core.c **** 				0x00;
 515:D:/Git/VL53L1/lib/core/src\vl53l1_api_core.c **** 		} else {
 516:D:/Git/VL53L1/lib/core/src\vl53l1_api_core.c **** 			tempu32 = VL53L1_calc_crosstalk_plane_offset_with_margin(
 517:D:/Git/VL53L1/lib/core/src\vl53l1_api_core.c **** 				pdev->xtalk_cfg.algo__crosstalk_compensation_plane_offset_kcps,
 518:D:/Git/VL53L1/lib/core/src\vl53l1_api_core.c **** 				pdev->xtalk_cfg.lite_mode_crosstalk_margin_kcps);
 519:D:/Git/VL53L1/lib/core/src\vl53l1_api_core.c **** 			if (tempu32 > 0xFFFF) {	/* clip to 16 bits */
 520:D:/Git/VL53L1/lib/core/src\vl53l1_api_core.c **** 				tempu32 = 0xFFFF;
 521:D:/Git/VL53L1/lib/core/src\vl53l1_api_core.c **** 			}
 522:D:/Git/VL53L1/lib/core/src\vl53l1_api_core.c **** 			pdev->customer.algo__crosstalk_compensation_plane_offset_kcps =
 523:D:/Git/VL53L1/lib/core/src\vl53l1_api_core.c **** 				(uint16_t)tempu32;
 524:D:/Git/VL53L1/lib/core/src\vl53l1_api_core.c **** 		}
 525:D:/Git/VL53L1/lib/core/src\vl53l1_api_core.c **** 	}
 526:D:/Git/VL53L1/lib/core/src\vl53l1_api_core.c **** 
 527:D:/Git/VL53L1/lib/core/src\vl53l1_api_core.c **** 	LOG_FUNCTION_END(status);
 237              		.loc 1 527 26 is_stmt 1 view .LVU69
 528:D:/Git/VL53L1/lib/core/src\vl53l1_api_core.c **** 
 529:D:/Git/VL53L1/lib/core/src\vl53l1_api_core.c **** 	return status;
 238              		.loc 1 529 2 view .LVU70
 530:D:/Git/VL53L1/lib/core/src\vl53l1_api_core.c **** }
 239              		.loc 1 530 1 is_stmt 0 view .LVU71
 240 00a4 F8BD     		pop	{r3, r4, r5, r6, r7, pc}
 241              	.LVL17:
 242              	.L12:
 243              		.loc 1 530 1 view .LVU72
 244 00a6 0446     		mov	r4, r0
 516:D:/Git/VL53L1/lib/core/src\vl53l1_api_core.c **** 				pdev->xtalk_cfg.algo__crosstalk_compensation_plane_offset_kcps,
 245              		.loc 1 516 4 is_stmt 1 view .LVU73
 516:D:/Git/VL53L1/lib/core/src\vl53l1_api_core.c **** 				pdev->xtalk_cfg.algo__crosstalk_compensation_plane_offset_kcps,
 246              		.loc 1 516 14 is_stmt 0 view .LVU74
 247 00a8 B0F93E11 		ldrsh	r1, [r0, #318]
 248 00ac 1846     		mov	r0, r3
ARM GAS  C:\Users\Berbardo\AppData\Local\Temp\ccBMvrJ9.s 			page 15


 249              	.LVL18:
 516:D:/Git/VL53L1/lib/core/src\vl53l1_api_core.c **** 				pdev->xtalk_cfg.algo__crosstalk_compensation_plane_offset_kcps,
 250              		.loc 1 516 14 view .LVU75
 251 00ae FFF7FEFF 		bl	VL53L1_calc_crosstalk_plane_offset_with_margin
 252              	.LVL19:
 519:D:/Git/VL53L1/lib/core/src\vl53l1_api_core.c **** 				tempu32 = 0xFFFF;
 253              		.loc 1 519 4 is_stmt 1 view .LVU76
 519:D:/Git/VL53L1/lib/core/src\vl53l1_api_core.c **** 				tempu32 = 0xFFFF;
 254              		.loc 1 519 7 is_stmt 0 view .LVU77
 255 00b2 B0F5803F 		cmp	r0, #65536
 256 00b6 01D3     		bcc	.L13
 520:D:/Git/VL53L1/lib/core/src\vl53l1_api_core.c **** 			}
 257              		.loc 1 520 13 view .LVU78
 258 00b8 4FF6FF70 		movw	r0, #65535
 259              	.LVL20:
 260              	.L13:
 522:D:/Git/VL53L1/lib/core/src\vl53l1_api_core.c **** 				(uint16_t)tempu32;
 261              		.loc 1 522 4 is_stmt 1 view .LVU79
 522:D:/Git/VL53L1/lib/core/src\vl53l1_api_core.c **** 				(uint16_t)tempu32;
 262              		.loc 1 522 66 is_stmt 0 view .LVU80
 263 00bc A4F84C00 		strh	r0, [r4, #76]	@ movhi
 457:D:/Git/VL53L1/lib/core/src\vl53l1_api_core.c **** 	VL53L1_LLDriverData_t *pdev = VL53L1DevStructGetLLDriverHandle(Dev);
 264              		.loc 1 457 16 view .LVU81
 265 00c0 0020     		movs	r0, #0
 266              	.LVL21:
 457:D:/Git/VL53L1/lib/core/src\vl53l1_api_core.c **** 	VL53L1_LLDriverData_t *pdev = VL53L1DevStructGetLLDriverHandle(Dev);
 267              		.loc 1 457 16 view .LVU82
 268 00c2 EFE7     		b	.L10
 269              	.LVL22:
 270              	.L14:
 466:D:/Git/VL53L1/lib/core/src\vl53l1_api_core.c **** 	}
 271              		.loc 1 466 10 view .LVU83
 272 00c4 6FF00300 		mvn	r0, #3
 273              	.LVL23:
 466:D:/Git/VL53L1/lib/core/src\vl53l1_api_core.c **** 	}
 274              		.loc 1 466 10 view .LVU84
 275 00c8 ECE7     		b	.L10
 276              	.L18:
 277 00ca 00BF     		.align	2
 278              	.L17:
 279 00cc 0201ABEC 		.word	-324337406
 280              		.cfi_endproc
 281              	.LFE129:
 283              		.section	.text.VL53L1_get_part_to_part_data,"ax",%progbits
 284              		.align	1
 285              		.global	VL53L1_get_part_to_part_data
 286              		.syntax unified
 287              		.thumb
 288              		.thumb_func
 289              		.fpu fpv4-sp-d16
 291              	VL53L1_get_part_to_part_data:
 292              	.LVL24:
 293              	.LFB130:
 531:D:/Git/VL53L1/lib/core/src\vl53l1_api_core.c **** 
 532:D:/Git/VL53L1/lib/core/src\vl53l1_api_core.c **** 
 533:D:/Git/VL53L1/lib/core/src\vl53l1_api_core.c **** VL53L1_Error VL53L1_get_part_to_part_data(
 534:D:/Git/VL53L1/lib/core/src\vl53l1_api_core.c **** 	VL53L1_DEV                      Dev,
ARM GAS  C:\Users\Berbardo\AppData\Local\Temp\ccBMvrJ9.s 			page 16


 535:D:/Git/VL53L1/lib/core/src\vl53l1_api_core.c **** 	VL53L1_calibration_data_t      *pcal_data)
 536:D:/Git/VL53L1/lib/core/src\vl53l1_api_core.c **** {
 294              		.loc 1 536 1 is_stmt 1 view -0
 295              		.cfi_startproc
 296              		@ args = 0, pretend = 0, frame = 0
 297              		@ frame_needed = 0, uses_anonymous_args = 0
 298              		@ link register save eliminated.
 299              		.loc 1 536 1 is_stmt 0 view .LVU86
 300 0000 F0B4     		push	{r4, r5, r6, r7}
 301              		.cfi_def_cfa_offset 16
 302              		.cfi_offset 4, -16
 303              		.cfi_offset 5, -12
 304              		.cfi_offset 6, -8
 305              		.cfi_offset 7, -4
 537:D:/Git/VL53L1/lib/core/src\vl53l1_api_core.c **** 	/**
 538:D:/Git/VL53L1/lib/core/src\vl53l1_api_core.c **** 	 * Uses memcpy to copy pdev->customer to output data
 539:D:/Git/VL53L1/lib/core/src\vl53l1_api_core.c **** 	 */
 540:D:/Git/VL53L1/lib/core/src\vl53l1_api_core.c **** 
 541:D:/Git/VL53L1/lib/core/src\vl53l1_api_core.c **** 	VL53L1_Error  status = VL53L1_ERROR_NONE;
 306              		.loc 1 541 2 is_stmt 1 view .LVU87
 307              	.LVL25:
 542:D:/Git/VL53L1/lib/core/src\vl53l1_api_core.c **** 	VL53L1_LLDriverData_t *pdev = VL53L1DevStructGetLLDriverHandle(Dev);
 308              		.loc 1 542 2 view .LVU88
 543:D:/Git/VL53L1/lib/core/src\vl53l1_api_core.c **** 
 544:D:/Git/VL53L1/lib/core/src\vl53l1_api_core.c **** 	LOG_FUNCTION_START("");
 309              		.loc 1 544 24 view .LVU89
 545:D:/Git/VL53L1/lib/core/src\vl53l1_api_core.c **** 
 546:D:/Git/VL53L1/lib/core/src\vl53l1_api_core.c **** 	pcal_data->struct_version =
 310              		.loc 1 546 2 view .LVU90
 311              		.loc 1 546 28 is_stmt 0 view .LVU91
 312 0002 0B46     		mov	r3, r1
 313 0004 224A     		ldr	r2, .L24
 314 0006 43F8042B 		str	r2, [r3], #4
 547:D:/Git/VL53L1/lib/core/src\vl53l1_api_core.c **** 			VL53L1_LL_CALIBRATION_DATA_STRUCT_VERSION;
 548:D:/Git/VL53L1/lib/core/src\vl53l1_api_core.c **** 
 549:D:/Git/VL53L1/lib/core/src\vl53l1_api_core.c **** 	/* memcpy(DEST, SRC, N)  */
 550:D:/Git/VL53L1/lib/core/src\vl53l1_api_core.c **** 	memcpy(
 315              		.loc 1 550 2 is_stmt 1 view .LVU92
 551:D:/Git/VL53L1/lib/core/src\vl53l1_api_core.c **** 		&(pcal_data->customer),
 552:D:/Git/VL53L1/lib/core/src\vl53l1_api_core.c **** 		&(pdev->customer),
 316              		.loc 1 552 3 is_stmt 0 view .LVU93
 317 000a 0246     		mov	r2, r0
 550:D:/Git/VL53L1/lib/core/src\vl53l1_api_core.c **** 		&(pcal_data->customer),
 318              		.loc 1 550 2 view .LVU94
 319 000c 52F8425F 		ldr	r5, [r2, #66]!	@ unaligned
 320 0010 5468     		ldr	r4, [r2, #4]	@ unaligned
 321 0012 9768     		ldr	r7, [r2, #8]	@ unaligned
 322 0014 D668     		ldr	r6, [r2, #12]	@ unaligned
 323 0016 4D60     		str	r5, [r1, #4]	@ unaligned
 324 0018 5C60     		str	r4, [r3, #4]	@ unaligned
 325 001a 9F60     		str	r7, [r3, #8]	@ unaligned
 326 001c DE60     		str	r6, [r3, #12]	@ unaligned
 327 001e 1569     		ldr	r5, [r2, #16]	@ unaligned
 328 0020 5469     		ldr	r4, [r2, #20]	@ unaligned
 329 0022 1D61     		str	r5, [r3, #16]	@ unaligned
 330 0024 5C61     		str	r4, [r3, #20]	@ unaligned
 553:D:/Git/VL53L1/lib/core/src\vl53l1_api_core.c **** 		sizeof(VL53L1_customer_nvm_managed_t));
ARM GAS  C:\Users\Berbardo\AppData\Local\Temp\ccBMvrJ9.s 			page 17


 554:D:/Git/VL53L1/lib/core/src\vl53l1_api_core.c **** 
 555:D:/Git/VL53L1/lib/core/src\vl53l1_api_core.c **** 	/* Overwrite Struct with xtalk config parameters */
 556:D:/Git/VL53L1/lib/core/src\vl53l1_api_core.c **** 	/* - customer struct versions are not golden copy */
 557:D:/Git/VL53L1/lib/core/src\vl53l1_api_core.c **** 
 558:D:/Git/VL53L1/lib/core/src\vl53l1_api_core.c **** 	if (pdev->xtalk_cfg.algo__crosstalk_compensation_plane_offset_kcps > 0xFFFF) {
 331              		.loc 1 558 2 is_stmt 1 view .LVU95
 332              		.loc 1 558 21 is_stmt 0 view .LVU96
 333 0026 D0F82C31 		ldr	r3, [r0, #300]
 334              		.loc 1 558 5 view .LVU97
 335 002a B3F5803F 		cmp	r3, #65536
 336 002e 2DD3     		bcc	.L20
 559:D:/Git/VL53L1/lib/core/src\vl53l1_api_core.c **** 		pcal_data->customer.algo__crosstalk_compensation_plane_offset_kcps =
 337              		.loc 1 559 3 is_stmt 1 view .LVU98
 338              		.loc 1 559 70 is_stmt 0 view .LVU99
 339 0030 4FF6FF73 		movw	r3, #65535
 340 0034 CB81     		strh	r3, [r1, #14]	@ movhi
 341              	.L21:
 560:D:/Git/VL53L1/lib/core/src\vl53l1_api_core.c **** 			0xFFFF;
 561:D:/Git/VL53L1/lib/core/src\vl53l1_api_core.c **** 	} else {
 562:D:/Git/VL53L1/lib/core/src\vl53l1_api_core.c **** 		pcal_data->customer.algo__crosstalk_compensation_plane_offset_kcps =
 563:D:/Git/VL53L1/lib/core/src\vl53l1_api_core.c **** 			(uint16_t)pdev->xtalk_cfg.algo__crosstalk_compensation_plane_offset_kcps;
 564:D:/Git/VL53L1/lib/core/src\vl53l1_api_core.c **** 	}
 565:D:/Git/VL53L1/lib/core/src\vl53l1_api_core.c **** 	pcal_data->customer.algo__crosstalk_compensation_x_plane_gradient_kcps =
 342              		.loc 1 565 2 is_stmt 1 view .LVU100
 566:D:/Git/VL53L1/lib/core/src\vl53l1_api_core.c **** 		pdev->xtalk_cfg.algo__crosstalk_compensation_x_plane_gradient_kcps;
 343              		.loc 1 566 18 is_stmt 0 view .LVU101
 344 0036 B0F93031 		ldrsh	r3, [r0, #304]
 565:D:/Git/VL53L1/lib/core/src\vl53l1_api_core.c **** 		pdev->xtalk_cfg.algo__crosstalk_compensation_x_plane_gradient_kcps;
 345              		.loc 1 565 73 view .LVU102
 346 003a 0B82     		strh	r3, [r1, #16]	@ movhi
 567:D:/Git/VL53L1/lib/core/src\vl53l1_api_core.c **** 	pcal_data->customer.algo__crosstalk_compensation_y_plane_gradient_kcps =
 347              		.loc 1 567 2 is_stmt 1 view .LVU103
 568:D:/Git/VL53L1/lib/core/src\vl53l1_api_core.c **** 		pdev->xtalk_cfg.algo__crosstalk_compensation_y_plane_gradient_kcps;
 348              		.loc 1 568 18 is_stmt 0 view .LVU104
 349 003c B0F93231 		ldrsh	r3, [r0, #306]
 567:D:/Git/VL53L1/lib/core/src\vl53l1_api_core.c **** 	pcal_data->customer.algo__crosstalk_compensation_y_plane_gradient_kcps =
 350              		.loc 1 567 73 view .LVU105
 351 0040 4B82     		strh	r3, [r1, #18]	@ movhi
 569:D:/Git/VL53L1/lib/core/src\vl53l1_api_core.c **** 
 570:D:/Git/VL53L1/lib/core/src\vl53l1_api_core.c **** 	/* memcpy(DEST, SRC, N)  */
 571:D:/Git/VL53L1/lib/core/src\vl53l1_api_core.c **** 	memcpy(
 352              		.loc 1 571 2 is_stmt 1 view .LVU106
 572:D:/Git/VL53L1/lib/core/src\vl53l1_api_core.c **** 		&(pcal_data->add_off_cal_data),
 573:D:/Git/VL53L1/lib/core/src\vl53l1_api_core.c **** 		&(pdev->add_off_cal_data),
 353              		.loc 1 573 3 is_stmt 0 view .LVU107
 354 0042 0346     		mov	r3, r0
 571:D:/Git/VL53L1/lib/core/src\vl53l1_api_core.c **** 		&(pcal_data->add_off_cal_data),
 355              		.loc 1 571 2 view .LVU108
 356 0044 53F8942F 		ldr	r2, [r3, #148]!	@ unaligned
 357 0048 5B68     		ldr	r3, [r3, #4]	@ unaligned
 358 004a CA61     		str	r2, [r1, #28]	@ unaligned
 359 004c 0B62     		str	r3, [r1, #32]	@ unaligned
 574:D:/Git/VL53L1/lib/core/src\vl53l1_api_core.c **** 		sizeof(VL53L1_additional_offset_cal_data_t));
 575:D:/Git/VL53L1/lib/core/src\vl53l1_api_core.c **** 
 576:D:/Git/VL53L1/lib/core/src\vl53l1_api_core.c **** 	/* memcpy(DEST, SRC, N)  */
 577:D:/Git/VL53L1/lib/core/src\vl53l1_api_core.c **** 	memcpy(
 360              		.loc 1 577 2 is_stmt 1 view .LVU109
ARM GAS  C:\Users\Berbardo\AppData\Local\Temp\ccBMvrJ9.s 			page 18


 361 004e B0F8A230 		ldrh	r3, [r0, #162]	@ unaligned
 362 0052 8B84     		strh	r3, [r1, #36]	@ unaligned
 578:D:/Git/VL53L1/lib/core/src\vl53l1_api_core.c **** 		&(pcal_data->optical_centre),
 579:D:/Git/VL53L1/lib/core/src\vl53l1_api_core.c **** 		&(pdev->optical_centre),
 580:D:/Git/VL53L1/lib/core/src\vl53l1_api_core.c **** 		sizeof(VL53L1_optical_centre_t));
 581:D:/Git/VL53L1/lib/core/src\vl53l1_api_core.c **** 
 582:D:/Git/VL53L1/lib/core/src\vl53l1_api_core.c **** 	/* memcpy(DEST, SRC, N)  */
 583:D:/Git/VL53L1/lib/core/src\vl53l1_api_core.c **** 	memcpy(
 363              		.loc 1 583 2 view .LVU110
 364 0054 B0F89C30 		ldrh	r3, [r0, #156]	@ unaligned
 365 0058 CB84     		strh	r3, [r1, #38]	@ unaligned
 584:D:/Git/VL53L1/lib/core/src\vl53l1_api_core.c **** 		&(pcal_data->gain_cal),
 585:D:/Git/VL53L1/lib/core/src\vl53l1_api_core.c **** 		&(pdev->gain_cal),
 586:D:/Git/VL53L1/lib/core/src\vl53l1_api_core.c **** 		sizeof(VL53L1_gain_calibration_data_t));
 587:D:/Git/VL53L1/lib/core/src\vl53l1_api_core.c **** 
 588:D:/Git/VL53L1/lib/core/src\vl53l1_api_core.c **** 	/* memcpy(DEST, SRC, N)  */
 589:D:/Git/VL53L1/lib/core/src\vl53l1_api_core.c **** 	memcpy(
 366              		.loc 1 589 2 view .LVU111
 590:D:/Git/VL53L1/lib/core/src\vl53l1_api_core.c **** 		&(pcal_data->cal_peak_rate_map),
 591:D:/Git/VL53L1/lib/core/src\vl53l1_api_core.c **** 		&(pdev->cal_peak_rate_map),
 367              		.loc 1 591 3 is_stmt 0 view .LVU112
 368 005a 00F15A03 		add	r3, r0, #90
 589:D:/Git/VL53L1/lib/core/src\vl53l1_api_core.c **** 		&(pcal_data->cal_peak_rate_map),
 369              		.loc 1 589 2 view .LVU113
 370 005e 2831     		adds	r1, r1, #40
 371              	.LVL26:
 589:D:/Git/VL53L1/lib/core/src\vl53l1_api_core.c **** 		&(pcal_data->cal_peak_rate_map),
 372              		.loc 1 589 2 view .LVU114
 373 0060 8A30     		adds	r0, r0, #138
 374              	.LVL27:
 375              	.L22:
 589:D:/Git/VL53L1/lib/core/src\vl53l1_api_core.c **** 		&(pcal_data->cal_peak_rate_map),
 376              		.loc 1 589 2 view .LVU115
 377 0062 1E68     		ldr	r6, [r3]	@ unaligned
 378 0064 5D68     		ldr	r5, [r3, #4]	@ unaligned
 379 0066 9C68     		ldr	r4, [r3, #8]	@ unaligned
 380 0068 DA68     		ldr	r2, [r3, #12]	@ unaligned
 381 006a 0E60     		str	r6, [r1]	@ unaligned
 382 006c 4D60     		str	r5, [r1, #4]	@ unaligned
 383 006e 8C60     		str	r4, [r1, #8]	@ unaligned
 384 0070 CA60     		str	r2, [r1, #12]	@ unaligned
 385 0072 1033     		adds	r3, r3, #16
 386 0074 1031     		adds	r1, r1, #16
 387 0076 8342     		cmp	r3, r0
 388 0078 F3D1     		bne	.L22
 389 007a 1868     		ldr	r0, [r3]	@ unaligned
 390              	.LVL28:
 589:D:/Git/VL53L1/lib/core/src\vl53l1_api_core.c **** 		&(pcal_data->cal_peak_rate_map),
 391              		.loc 1 589 2 view .LVU116
 392 007c 5A68     		ldr	r2, [r3, #4]	@ unaligned
 393 007e 0860     		str	r0, [r1]	@ unaligned
 394 0080 4A60     		str	r2, [r1, #4]	@ unaligned
 395 0082 1B89     		ldrh	r3, [r3, #8]	@ unaligned
 396 0084 0B81     		strh	r3, [r1, #8]	@ unaligned
 592:D:/Git/VL53L1/lib/core/src\vl53l1_api_core.c **** 		sizeof(VL53L1_cal_peak_rate_map_t));
 593:D:/Git/VL53L1/lib/core/src\vl53l1_api_core.c **** 
 594:D:/Git/VL53L1/lib/core/src\vl53l1_api_core.c **** 	LOG_FUNCTION_END(status);
ARM GAS  C:\Users\Berbardo\AppData\Local\Temp\ccBMvrJ9.s 			page 19


 397              		.loc 1 594 26 is_stmt 1 view .LVU117
 595:D:/Git/VL53L1/lib/core/src\vl53l1_api_core.c **** 
 596:D:/Git/VL53L1/lib/core/src\vl53l1_api_core.c **** 	return status;
 398              		.loc 1 596 2 view .LVU118
 597:D:/Git/VL53L1/lib/core/src\vl53l1_api_core.c **** }
 399              		.loc 1 597 1 is_stmt 0 view .LVU119
 400 0086 0020     		movs	r0, #0
 401 0088 F0BC     		pop	{r4, r5, r6, r7}
 402              		.cfi_remember_state
 403              		.cfi_restore 7
 404              		.cfi_restore 6
 405              		.cfi_restore 5
 406              		.cfi_restore 4
 407              		.cfi_def_cfa_offset 0
 408 008a 7047     		bx	lr
 409              	.LVL29:
 410              	.L20:
 411              		.cfi_restore_state
 562:D:/Git/VL53L1/lib/core/src\vl53l1_api_core.c **** 			(uint16_t)pdev->xtalk_cfg.algo__crosstalk_compensation_plane_offset_kcps;
 412              		.loc 1 562 3 is_stmt 1 view .LVU120
 562:D:/Git/VL53L1/lib/core/src\vl53l1_api_core.c **** 			(uint16_t)pdev->xtalk_cfg.algo__crosstalk_compensation_plane_offset_kcps;
 413              		.loc 1 562 70 is_stmt 0 view .LVU121
 414 008c CB81     		strh	r3, [r1, #14]	@ movhi
 415 008e D2E7     		b	.L21
 416              	.L25:
 417              		.align	2
 418              	.L24:
 419 0090 0201ABEC 		.word	-324337406
 420              		.cfi_endproc
 421              	.LFE130:
 423              		.section	.text.VL53L1_set_inter_measurement_period_ms,"ax",%progbits
 424              		.align	1
 425              		.global	VL53L1_set_inter_measurement_period_ms
 426              		.syntax unified
 427              		.thumb
 428              		.thumb_func
 429              		.fpu fpv4-sp-d16
 431              	VL53L1_set_inter_measurement_period_ms:
 432              	.LVL30:
 433              	.LFB131:
 598:D:/Git/VL53L1/lib/core/src\vl53l1_api_core.c **** 
 599:D:/Git/VL53L1/lib/core/src\vl53l1_api_core.c **** 
 600:D:/Git/VL53L1/lib/core/src\vl53l1_api_core.c **** VL53L1_Error VL53L1_set_inter_measurement_period_ms(
 601:D:/Git/VL53L1/lib/core/src\vl53l1_api_core.c **** 	VL53L1_DEV              Dev,
 602:D:/Git/VL53L1/lib/core/src\vl53l1_api_core.c **** 	uint32_t                inter_measurement_period_ms)
 603:D:/Git/VL53L1/lib/core/src\vl53l1_api_core.c **** {
 434              		.loc 1 603 1 is_stmt 1 view -0
 435              		.cfi_startproc
 436              		@ args = 0, pretend = 0, frame = 0
 437              		@ frame_needed = 0, uses_anonymous_args = 0
 438              		@ link register save eliminated.
 604:D:/Git/VL53L1/lib/core/src\vl53l1_api_core.c **** 	/**
 605:D:/Git/VL53L1/lib/core/src\vl53l1_api_core.c **** 	 * Convenience function for setting the inter measurement period
 606:D:/Git/VL53L1/lib/core/src\vl53l1_api_core.c **** 	 */
 607:D:/Git/VL53L1/lib/core/src\vl53l1_api_core.c **** 
 608:D:/Git/VL53L1/lib/core/src\vl53l1_api_core.c **** 	VL53L1_Error  status = VL53L1_ERROR_NONE;
 439              		.loc 1 608 2 view .LVU123
ARM GAS  C:\Users\Berbardo\AppData\Local\Temp\ccBMvrJ9.s 			page 20


 609:D:/Git/VL53L1/lib/core/src\vl53l1_api_core.c **** 	VL53L1_LLDriverData_t *pdev = VL53L1DevStructGetLLDriverHandle(Dev);
 440              		.loc 1 609 2 view .LVU124
 610:D:/Git/VL53L1/lib/core/src\vl53l1_api_core.c **** 
 611:D:/Git/VL53L1/lib/core/src\vl53l1_api_core.c **** 	LOG_FUNCTION_START("");
 441              		.loc 1 611 24 view .LVU125
 612:D:/Git/VL53L1/lib/core/src\vl53l1_api_core.c **** 
 613:D:/Git/VL53L1/lib/core/src\vl53l1_api_core.c **** 	if (pdev->dbg_results.result__osc_calibrate_val == 0)
 442              		.loc 1 613 2 view .LVU126
 443              		.loc 1 613 23 is_stmt 0 view .LVU127
 444 0000 B0F8B432 		ldrh	r3, [r0, #692]
 445              		.loc 1 613 5 view .LVU128
 446 0004 33B1     		cbz	r3, .L28
 614:D:/Git/VL53L1/lib/core/src\vl53l1_api_core.c **** 		status = VL53L1_ERROR_DIVISION_BY_ZERO;
 615:D:/Git/VL53L1/lib/core/src\vl53l1_api_core.c **** 
 616:D:/Git/VL53L1/lib/core/src\vl53l1_api_core.c **** 	if (status == VL53L1_ERROR_NONE) {
 447              		.loc 1 616 2 is_stmt 1 view .LVU129
 617:D:/Git/VL53L1/lib/core/src\vl53l1_api_core.c **** 		pdev->inter_measurement_period_ms = inter_measurement_period_ms;
 448              		.loc 1 617 3 view .LVU130
 449              		.loc 1 617 37 is_stmt 0 view .LVU131
 450 0006 4161     		str	r1, [r0, #20]
 618:D:/Git/VL53L1/lib/core/src\vl53l1_api_core.c **** 		pdev->tim_cfg.system__intermeasurement_period = \
 451              		.loc 1 618 3 is_stmt 1 view .LVU132
 619:D:/Git/VL53L1/lib/core/src\vl53l1_api_core.c **** 			inter_measurement_period_ms *
 452              		.loc 1 619 32 is_stmt 0 view .LVU133
 453 0008 01FB03F1 		mul	r1, r1, r3
 454              	.LVL31:
 618:D:/Git/VL53L1/lib/core/src\vl53l1_api_core.c **** 		pdev->tim_cfg.system__intermeasurement_period = \
 455              		.loc 1 618 49 view .LVU134
 456 000c C0F8AC11 		str	r1, [r0, #428]
 608:D:/Git/VL53L1/lib/core/src\vl53l1_api_core.c **** 	VL53L1_LLDriverData_t *pdev = VL53L1DevStructGetLLDriverHandle(Dev);
 457              		.loc 1 608 16 view .LVU135
 458 0010 0020     		movs	r0, #0
 459              	.LVL32:
 608:D:/Git/VL53L1/lib/core/src\vl53l1_api_core.c **** 	VL53L1_LLDriverData_t *pdev = VL53L1DevStructGetLLDriverHandle(Dev);
 460              		.loc 1 608 16 view .LVU136
 461 0012 7047     		bx	lr
 462              	.LVL33:
 463              	.L28:
 614:D:/Git/VL53L1/lib/core/src\vl53l1_api_core.c **** 
 464              		.loc 1 614 10 view .LVU137
 465 0014 6FF00E00 		mvn	r0, #14
 466              	.LVL34:
 620:D:/Git/VL53L1/lib/core/src\vl53l1_api_core.c **** 			(uint32_t)pdev->dbg_results.result__osc_calibrate_val;
 621:D:/Git/VL53L1/lib/core/src\vl53l1_api_core.c **** 	}
 622:D:/Git/VL53L1/lib/core/src\vl53l1_api_core.c **** 
 623:D:/Git/VL53L1/lib/core/src\vl53l1_api_core.c **** 	LOG_FUNCTION_END(status);
 467              		.loc 1 623 26 is_stmt 1 view .LVU138
 624:D:/Git/VL53L1/lib/core/src\vl53l1_api_core.c **** 
 625:D:/Git/VL53L1/lib/core/src\vl53l1_api_core.c **** 	return status;
 468              		.loc 1 625 2 view .LVU139
 626:D:/Git/VL53L1/lib/core/src\vl53l1_api_core.c **** }
 469              		.loc 1 626 1 is_stmt 0 view .LVU140
 470 0018 7047     		bx	lr
 471              		.cfi_endproc
 472              	.LFE131:
 474              		.section	.text.VL53L1_get_inter_measurement_period_ms,"ax",%progbits
 475              		.align	1
ARM GAS  C:\Users\Berbardo\AppData\Local\Temp\ccBMvrJ9.s 			page 21


 476              		.global	VL53L1_get_inter_measurement_period_ms
 477              		.syntax unified
 478              		.thumb
 479              		.thumb_func
 480              		.fpu fpv4-sp-d16
 482              	VL53L1_get_inter_measurement_period_ms:
 483              	.LVL35:
 484              	.LFB132:
 627:D:/Git/VL53L1/lib/core/src\vl53l1_api_core.c **** 
 628:D:/Git/VL53L1/lib/core/src\vl53l1_api_core.c **** 
 629:D:/Git/VL53L1/lib/core/src\vl53l1_api_core.c **** VL53L1_Error VL53L1_get_inter_measurement_period_ms(
 630:D:/Git/VL53L1/lib/core/src\vl53l1_api_core.c **** 	VL53L1_DEV              Dev,
 631:D:/Git/VL53L1/lib/core/src\vl53l1_api_core.c **** 	uint32_t               *pinter_measurement_period_ms)
 632:D:/Git/VL53L1/lib/core/src\vl53l1_api_core.c **** {
 485              		.loc 1 632 1 is_stmt 1 view -0
 486              		.cfi_startproc
 487              		@ args = 0, pretend = 0, frame = 0
 488              		@ frame_needed = 0, uses_anonymous_args = 0
 489              		@ link register save eliminated.
 633:D:/Git/VL53L1/lib/core/src\vl53l1_api_core.c **** 	/**
 634:D:/Git/VL53L1/lib/core/src\vl53l1_api_core.c **** 	 * Convenience function for getting the inter measurement period
 635:D:/Git/VL53L1/lib/core/src\vl53l1_api_core.c **** 	 */
 636:D:/Git/VL53L1/lib/core/src\vl53l1_api_core.c **** 
 637:D:/Git/VL53L1/lib/core/src\vl53l1_api_core.c **** 	VL53L1_Error  status = VL53L1_ERROR_NONE;
 490              		.loc 1 637 2 view .LVU142
 638:D:/Git/VL53L1/lib/core/src\vl53l1_api_core.c **** 	VL53L1_LLDriverData_t *pdev = VL53L1DevStructGetLLDriverHandle(Dev);
 491              		.loc 1 638 2 view .LVU143
 639:D:/Git/VL53L1/lib/core/src\vl53l1_api_core.c **** 
 640:D:/Git/VL53L1/lib/core/src\vl53l1_api_core.c **** 	LOG_FUNCTION_START("");
 492              		.loc 1 640 24 view .LVU144
 641:D:/Git/VL53L1/lib/core/src\vl53l1_api_core.c **** 
 642:D:/Git/VL53L1/lib/core/src\vl53l1_api_core.c **** 	if (pdev->dbg_results.result__osc_calibrate_val == 0)
 493              		.loc 1 642 2 view .LVU145
 494              		.loc 1 642 23 is_stmt 0 view .LVU146
 495 0000 B0F8B422 		ldrh	r2, [r0, #692]
 496              		.loc 1 642 5 view .LVU147
 497 0004 32B1     		cbz	r2, .L31
 643:D:/Git/VL53L1/lib/core/src\vl53l1_api_core.c **** 		status = VL53L1_ERROR_DIVISION_BY_ZERO;
 644:D:/Git/VL53L1/lib/core/src\vl53l1_api_core.c **** 
 645:D:/Git/VL53L1/lib/core/src\vl53l1_api_core.c **** 	if (status == VL53L1_ERROR_NONE)
 498              		.loc 1 645 2 is_stmt 1 view .LVU148
 646:D:/Git/VL53L1/lib/core/src\vl53l1_api_core.c **** 		*pinter_measurement_period_ms = \
 499              		.loc 1 646 3 view .LVU149
 647:D:/Git/VL53L1/lib/core/src\vl53l1_api_core.c **** 			pdev->tim_cfg.system__intermeasurement_period /
 500              		.loc 1 647 17 is_stmt 0 view .LVU150
 501 0006 D0F8AC31 		ldr	r3, [r0, #428]
 502              		.loc 1 647 50 view .LVU151
 503 000a B3FBF2F3 		udiv	r3, r3, r2
 646:D:/Git/VL53L1/lib/core/src\vl53l1_api_core.c **** 		*pinter_measurement_period_ms = \
 504              		.loc 1 646 33 view .LVU152
 505 000e 0B60     		str	r3, [r1]
 637:D:/Git/VL53L1/lib/core/src\vl53l1_api_core.c **** 	VL53L1_LLDriverData_t *pdev = VL53L1DevStructGetLLDriverHandle(Dev);
 506              		.loc 1 637 16 view .LVU153
 507 0010 0020     		movs	r0, #0
 508              	.LVL36:
 637:D:/Git/VL53L1/lib/core/src\vl53l1_api_core.c **** 	VL53L1_LLDriverData_t *pdev = VL53L1DevStructGetLLDriverHandle(Dev);
 509              		.loc 1 637 16 view .LVU154
ARM GAS  C:\Users\Berbardo\AppData\Local\Temp\ccBMvrJ9.s 			page 22


 510 0012 7047     		bx	lr
 511              	.LVL37:
 512              	.L31:
 643:D:/Git/VL53L1/lib/core/src\vl53l1_api_core.c **** 
 513              		.loc 1 643 10 view .LVU155
 514 0014 6FF00E00 		mvn	r0, #14
 515              	.LVL38:
 648:D:/Git/VL53L1/lib/core/src\vl53l1_api_core.c **** 			(uint32_t)pdev->dbg_results.result__osc_calibrate_val;
 649:D:/Git/VL53L1/lib/core/src\vl53l1_api_core.c **** 
 650:D:/Git/VL53L1/lib/core/src\vl53l1_api_core.c **** 
 651:D:/Git/VL53L1/lib/core/src\vl53l1_api_core.c **** 	LOG_FUNCTION_END(status);
 516              		.loc 1 651 26 is_stmt 1 view .LVU156
 652:D:/Git/VL53L1/lib/core/src\vl53l1_api_core.c **** 
 653:D:/Git/VL53L1/lib/core/src\vl53l1_api_core.c **** 	return status;
 517              		.loc 1 653 2 view .LVU157
 654:D:/Git/VL53L1/lib/core/src\vl53l1_api_core.c **** }
 518              		.loc 1 654 1 is_stmt 0 view .LVU158
 519 0018 7047     		bx	lr
 520              		.cfi_endproc
 521              	.LFE132:
 523              		.section	.text.VL53L1_set_timeouts_us,"ax",%progbits
 524              		.align	1
 525              		.global	VL53L1_set_timeouts_us
 526              		.syntax unified
 527              		.thumb
 528              		.thumb_func
 529              		.fpu fpv4-sp-d16
 531              	VL53L1_set_timeouts_us:
 532              	.LVL39:
 533              	.LFB133:
 655:D:/Git/VL53L1/lib/core/src\vl53l1_api_core.c **** 
 656:D:/Git/VL53L1/lib/core/src\vl53l1_api_core.c **** 
 657:D:/Git/VL53L1/lib/core/src\vl53l1_api_core.c **** VL53L1_Error VL53L1_set_timeouts_us(
 658:D:/Git/VL53L1/lib/core/src\vl53l1_api_core.c **** 	VL53L1_DEV          Dev,
 659:D:/Git/VL53L1/lib/core/src\vl53l1_api_core.c **** 	uint32_t            phasecal_config_timeout_us,
 660:D:/Git/VL53L1/lib/core/src\vl53l1_api_core.c **** 	uint32_t            mm_config_timeout_us,
 661:D:/Git/VL53L1/lib/core/src\vl53l1_api_core.c **** 	uint32_t            range_config_timeout_us)
 662:D:/Git/VL53L1/lib/core/src\vl53l1_api_core.c **** {
 534              		.loc 1 662 1 is_stmt 1 view -0
 535              		.cfi_startproc
 536              		@ args = 0, pretend = 0, frame = 0
 537              		@ frame_needed = 0, uses_anonymous_args = 0
 538              		.loc 1 662 1 is_stmt 0 view .LVU160
 539 0000 30B5     		push	{r4, r5, lr}
 540              		.cfi_def_cfa_offset 12
 541              		.cfi_offset 4, -12
 542              		.cfi_offset 5, -8
 543              		.cfi_offset 14, -4
 544 0002 83B0     		sub	sp, sp, #12
 545              		.cfi_def_cfa_offset 24
 546 0004 0446     		mov	r4, r0
 547 0006 0846     		mov	r0, r1
 548              	.LVL40:
 549              		.loc 1 662 1 view .LVU161
 550 0008 1146     		mov	r1, r2
 551              	.LVL41:
 552              		.loc 1 662 1 view .LVU162
ARM GAS  C:\Users\Berbardo\AppData\Local\Temp\ccBMvrJ9.s 			page 23


 553 000a 1A46     		mov	r2, r3
 554              	.LVL42:
 663:D:/Git/VL53L1/lib/core/src\vl53l1_api_core.c **** 	/**
 664:D:/Git/VL53L1/lib/core/src\vl53l1_api_core.c **** 	 * Convenience function for setting the MM and range
 665:D:/Git/VL53L1/lib/core/src\vl53l1_api_core.c **** 	 * timeouts
 666:D:/Git/VL53L1/lib/core/src\vl53l1_api_core.c **** 	 */
 667:D:/Git/VL53L1/lib/core/src\vl53l1_api_core.c **** 
 668:D:/Git/VL53L1/lib/core/src\vl53l1_api_core.c **** 	VL53L1_Error  status = VL53L1_ERROR_NONE;
 555              		.loc 1 668 2 is_stmt 1 view .LVU163
 669:D:/Git/VL53L1/lib/core/src\vl53l1_api_core.c **** 	VL53L1_LLDriverData_t *pdev =
 556              		.loc 1 669 2 view .LVU164
 670:D:/Git/VL53L1/lib/core/src\vl53l1_api_core.c **** 			VL53L1DevStructGetLLDriverHandle(Dev);
 671:D:/Git/VL53L1/lib/core/src\vl53l1_api_core.c **** 
 672:D:/Git/VL53L1/lib/core/src\vl53l1_api_core.c **** 	LOG_FUNCTION_START("");
 557              		.loc 1 672 24 view .LVU165
 673:D:/Git/VL53L1/lib/core/src\vl53l1_api_core.c **** 
 674:D:/Git/VL53L1/lib/core/src\vl53l1_api_core.c **** 	if (pdev->stat_nvm.osc_measured__fast_osc__frequency == 0)
 558              		.loc 1 674 2 view .LVU166
 559              		.loc 1 674 20 is_stmt 0 view .LVU167
 560 000c B4F85E31 		ldrh	r3, [r4, #350]
 561              	.LVL43:
 562              		.loc 1 674 5 view .LVU168
 563 0010 63B1     		cbz	r3, .L34
 675:D:/Git/VL53L1/lib/core/src\vl53l1_api_core.c **** 		status = VL53L1_ERROR_DIVISION_BY_ZERO;
 676:D:/Git/VL53L1/lib/core/src\vl53l1_api_core.c **** 
 677:D:/Git/VL53L1/lib/core/src\vl53l1_api_core.c **** 	if (status == VL53L1_ERROR_NONE) {
 564              		.loc 1 677 2 is_stmt 1 view .LVU169
 678:D:/Git/VL53L1/lib/core/src\vl53l1_api_core.c **** 
 679:D:/Git/VL53L1/lib/core/src\vl53l1_api_core.c **** 		pdev->phasecal_config_timeout_us = phasecal_config_timeout_us;
 565              		.loc 1 679 3 view .LVU170
 566              		.loc 1 679 36 is_stmt 0 view .LVU171
 567 0012 A060     		str	r0, [r4, #8]
 680:D:/Git/VL53L1/lib/core/src\vl53l1_api_core.c **** 		pdev->mm_config_timeout_us       = mm_config_timeout_us;
 568              		.loc 1 680 3 is_stmt 1 view .LVU172
 569              		.loc 1 680 36 is_stmt 0 view .LVU173
 570 0014 E160     		str	r1, [r4, #12]
 681:D:/Git/VL53L1/lib/core/src\vl53l1_api_core.c **** 		pdev->range_config_timeout_us    = range_config_timeout_us;
 571              		.loc 1 681 3 is_stmt 1 view .LVU174
 572              		.loc 1 681 36 is_stmt 0 view .LVU175
 573 0016 2261     		str	r2, [r4, #16]
 682:D:/Git/VL53L1/lib/core/src\vl53l1_api_core.c **** 
 683:D:/Git/VL53L1/lib/core/src\vl53l1_api_core.c **** 		status =
 574              		.loc 1 683 3 is_stmt 1 view .LVU176
 684:D:/Git/VL53L1/lib/core/src\vl53l1_api_core.c **** 			VL53L1_calc_timeout_register_values(
 575              		.loc 1 684 4 is_stmt 0 view .LVU177
 576 0018 04F5CE75 		add	r5, r4, #412
 577 001c 0195     		str	r5, [sp, #4]
 578 001e 04F5C274 		add	r4, r4, #388
 579              	.LVL44:
 580              		.loc 1 684 4 view .LVU178
 581 0022 0094     		str	r4, [sp]
 582 0024 FFF7FEFF 		bl	VL53L1_calc_timeout_register_values
 583              	.LVL45:
 584              	.L33:
 685:D:/Git/VL53L1/lib/core/src\vl53l1_api_core.c **** 				phasecal_config_timeout_us,
 686:D:/Git/VL53L1/lib/core/src\vl53l1_api_core.c **** 				mm_config_timeout_us,
 687:D:/Git/VL53L1/lib/core/src\vl53l1_api_core.c **** 				range_config_timeout_us,
ARM GAS  C:\Users\Berbardo\AppData\Local\Temp\ccBMvrJ9.s 			page 24


 688:D:/Git/VL53L1/lib/core/src\vl53l1_api_core.c **** 				pdev->stat_nvm.osc_measured__fast_osc__frequency,
 689:D:/Git/VL53L1/lib/core/src\vl53l1_api_core.c **** 				&(pdev->gen_cfg),
 690:D:/Git/VL53L1/lib/core/src\vl53l1_api_core.c **** 				&(pdev->tim_cfg));
 691:D:/Git/VL53L1/lib/core/src\vl53l1_api_core.c **** 	}
 692:D:/Git/VL53L1/lib/core/src\vl53l1_api_core.c **** 
 693:D:/Git/VL53L1/lib/core/src\vl53l1_api_core.c **** 	LOG_FUNCTION_END(status);
 585              		.loc 1 693 26 is_stmt 1 view .LVU179
 694:D:/Git/VL53L1/lib/core/src\vl53l1_api_core.c **** 
 695:D:/Git/VL53L1/lib/core/src\vl53l1_api_core.c **** 	return status;
 586              		.loc 1 695 2 view .LVU180
 696:D:/Git/VL53L1/lib/core/src\vl53l1_api_core.c **** }
 587              		.loc 1 696 1 is_stmt 0 view .LVU181
 588 0028 03B0     		add	sp, sp, #12
 589              		.cfi_remember_state
 590              		.cfi_def_cfa_offset 12
 591              		@ sp needed
 592 002a 30BD     		pop	{r4, r5, pc}
 593              	.LVL46:
 594              	.L34:
 595              		.cfi_restore_state
 675:D:/Git/VL53L1/lib/core/src\vl53l1_api_core.c **** 
 596              		.loc 1 675 10 view .LVU182
 597 002c 6FF00E00 		mvn	r0, #14
 598              	.LVL47:
 675:D:/Git/VL53L1/lib/core/src\vl53l1_api_core.c **** 
 599              		.loc 1 675 10 view .LVU183
 600 0030 FAE7     		b	.L33
 601              		.cfi_endproc
 602              	.LFE133:
 604              		.section	.text.VL53L1_get_timeouts_us,"ax",%progbits
 605              		.align	1
 606              		.global	VL53L1_get_timeouts_us
 607              		.syntax unified
 608              		.thumb
 609              		.thumb_func
 610              		.fpu fpv4-sp-d16
 612              	VL53L1_get_timeouts_us:
 613              	.LVL48:
 614              	.LFB134:
 697:D:/Git/VL53L1/lib/core/src\vl53l1_api_core.c **** 
 698:D:/Git/VL53L1/lib/core/src\vl53l1_api_core.c **** 
 699:D:/Git/VL53L1/lib/core/src\vl53l1_api_core.c **** VL53L1_Error VL53L1_get_timeouts_us(
 700:D:/Git/VL53L1/lib/core/src\vl53l1_api_core.c **** 	VL53L1_DEV           Dev,
 701:D:/Git/VL53L1/lib/core/src\vl53l1_api_core.c **** 	uint32_t            *pphasecal_config_timeout_us,
 702:D:/Git/VL53L1/lib/core/src\vl53l1_api_core.c **** 	uint32_t            *pmm_config_timeout_us,
 703:D:/Git/VL53L1/lib/core/src\vl53l1_api_core.c **** 	uint32_t			*prange_config_timeout_us)
 704:D:/Git/VL53L1/lib/core/src\vl53l1_api_core.c **** {
 615              		.loc 1 704 1 is_stmt 1 view -0
 616              		.cfi_startproc
 617              		@ args = 0, pretend = 0, frame = 0
 618              		@ frame_needed = 0, uses_anonymous_args = 0
 619              		.loc 1 704 1 is_stmt 0 view .LVU185
 620 0000 2DE9F041 		push	{r4, r5, r6, r7, r8, lr}
 621              		.cfi_def_cfa_offset 24
 622              		.cfi_offset 4, -24
 623              		.cfi_offset 5, -20
 624              		.cfi_offset 6, -16
ARM GAS  C:\Users\Berbardo\AppData\Local\Temp\ccBMvrJ9.s 			page 25


 625              		.cfi_offset 7, -12
 626              		.cfi_offset 8, -8
 627              		.cfi_offset 14, -4
 628 0004 0446     		mov	r4, r0
 705:D:/Git/VL53L1/lib/core/src\vl53l1_api_core.c **** 	/**
 706:D:/Git/VL53L1/lib/core/src\vl53l1_api_core.c **** 	 * Convenience function for getting the MM and range
 707:D:/Git/VL53L1/lib/core/src\vl53l1_api_core.c **** 	 * timeouts
 708:D:/Git/VL53L1/lib/core/src\vl53l1_api_core.c **** 	 */
 709:D:/Git/VL53L1/lib/core/src\vl53l1_api_core.c **** 
 710:D:/Git/VL53L1/lib/core/src\vl53l1_api_core.c **** 	VL53L1_Error  status = VL53L1_ERROR_NONE;
 629              		.loc 1 710 2 is_stmt 1 view .LVU186
 630              	.LVL49:
 711:D:/Git/VL53L1/lib/core/src\vl53l1_api_core.c **** 	VL53L1_LLDriverData_t *pdev =
 631              		.loc 1 711 2 view .LVU187
 712:D:/Git/VL53L1/lib/core/src\vl53l1_api_core.c **** 			VL53L1DevStructGetLLDriverHandle(Dev);
 713:D:/Git/VL53L1/lib/core/src\vl53l1_api_core.c **** 
 714:D:/Git/VL53L1/lib/core/src\vl53l1_api_core.c **** 	uint32_t  macro_period_us = 0;
 632              		.loc 1 714 2 view .LVU188
 715:D:/Git/VL53L1/lib/core/src\vl53l1_api_core.c **** 	uint16_t  timeout_encoded = 0;
 633              		.loc 1 715 2 view .LVU189
 716:D:/Git/VL53L1/lib/core/src\vl53l1_api_core.c **** 
 717:D:/Git/VL53L1/lib/core/src\vl53l1_api_core.c **** 	LOG_FUNCTION_START("");
 634              		.loc 1 717 24 view .LVU190
 718:D:/Git/VL53L1/lib/core/src\vl53l1_api_core.c **** 
 719:D:/Git/VL53L1/lib/core/src\vl53l1_api_core.c **** 	if (pdev->stat_nvm.osc_measured__fast_osc__frequency == 0)
 635              		.loc 1 719 2 view .LVU191
 636              		.loc 1 719 20 is_stmt 0 view .LVU192
 637 0006 B0F85E01 		ldrh	r0, [r0, #350]
 638              	.LVL50:
 639              		.loc 1 719 5 view .LVU193
 640 000a 60B3     		cbz	r0, .L38
 641 000c 1D46     		mov	r5, r3
 642 000e 1646     		mov	r6, r2
 643 0010 0F46     		mov	r7, r1
 720:D:/Git/VL53L1/lib/core/src\vl53l1_api_core.c **** 		status = VL53L1_ERROR_DIVISION_BY_ZERO;
 721:D:/Git/VL53L1/lib/core/src\vl53l1_api_core.c **** 
 722:D:/Git/VL53L1/lib/core/src\vl53l1_api_core.c **** 	if (status == VL53L1_ERROR_NONE) {
 644              		.loc 1 722 2 is_stmt 1 view .LVU194
 723:D:/Git/VL53L1/lib/core/src\vl53l1_api_core.c **** 
 724:D:/Git/VL53L1/lib/core/src\vl53l1_api_core.c **** 		/* Update Macro Period for Range A VCSEL Period */
 725:D:/Git/VL53L1/lib/core/src\vl53l1_api_core.c **** 		macro_period_us =
 645              		.loc 1 725 3 view .LVU195
 726:D:/Git/VL53L1/lib/core/src\vl53l1_api_core.c **** 			VL53L1_calc_macro_period_us(
 646              		.loc 1 726 4 is_stmt 0 view .LVU196
 647 0012 94F8A211 		ldrb	r1, [r4, #418]	@ zero_extendqisi2
 648              	.LVL51:
 649              		.loc 1 726 4 view .LVU197
 650 0016 FFF7FEFF 		bl	VL53L1_calc_macro_period_us
 651              	.LVL52:
 652              		.loc 1 726 4 view .LVU198
 653 001a 8046     		mov	r8, r0
 654              	.LVL53:
 727:D:/Git/VL53L1/lib/core/src\vl53l1_api_core.c **** 				pdev->stat_nvm.osc_measured__fast_osc__frequency,
 728:D:/Git/VL53L1/lib/core/src\vl53l1_api_core.c **** 				pdev->tim_cfg.range_config__vcsel_period_a);
 729:D:/Git/VL53L1/lib/core/src\vl53l1_api_core.c **** 
 730:D:/Git/VL53L1/lib/core/src\vl53l1_api_core.c **** 		/*  Get Phase Cal Timing A timeout */
 731:D:/Git/VL53L1/lib/core/src\vl53l1_api_core.c **** 
ARM GAS  C:\Users\Berbardo\AppData\Local\Temp\ccBMvrJ9.s 			page 26


 732:D:/Git/VL53L1/lib/core/src\vl53l1_api_core.c **** 		*pphasecal_config_timeout_us =
 655              		.loc 1 732 3 is_stmt 1 view .LVU199
 733:D:/Git/VL53L1/lib/core/src\vl53l1_api_core.c **** 			VL53L1_calc_timeout_us(
 656              		.loc 1 733 4 is_stmt 0 view .LVU200
 657 001c 0146     		mov	r1, r0
 658 001e 94F88B01 		ldrb	r0, [r4, #395]	@ zero_extendqisi2
 659              	.LVL54:
 660              		.loc 1 733 4 view .LVU201
 661 0022 FFF7FEFF 		bl	VL53L1_calc_timeout_us
 662              	.LVL55:
 732:D:/Git/VL53L1/lib/core/src\vl53l1_api_core.c **** 			VL53L1_calc_timeout_us(
 663              		.loc 1 732 32 view .LVU202
 664 0026 3860     		str	r0, [r7]
 734:D:/Git/VL53L1/lib/core/src\vl53l1_api_core.c **** 				(uint32_t)pdev->gen_cfg.phasecal_config__timeout_macrop,
 735:D:/Git/VL53L1/lib/core/src\vl53l1_api_core.c **** 				macro_period_us);
 736:D:/Git/VL53L1/lib/core/src\vl53l1_api_core.c **** 
 737:D:/Git/VL53L1/lib/core/src\vl53l1_api_core.c **** 		/*  Get MM Timing A timeout */
 738:D:/Git/VL53L1/lib/core/src\vl53l1_api_core.c **** 
 739:D:/Git/VL53L1/lib/core/src\vl53l1_api_core.c **** 		timeout_encoded =
 665              		.loc 1 739 3 is_stmt 1 view .LVU203
 666              		.loc 1 739 19 is_stmt 0 view .LVU204
 667 0028 94F89C31 		ldrb	r3, [r4, #412]	@ zero_extendqisi2
 668              	.LVL56:
 740:D:/Git/VL53L1/lib/core/src\vl53l1_api_core.c **** 			(uint16_t)pdev->tim_cfg.mm_config__timeout_macrop_a_hi;
 741:D:/Git/VL53L1/lib/core/src\vl53l1_api_core.c **** 		timeout_encoded = (timeout_encoded << 8) +
 669              		.loc 1 741 3 is_stmt 1 view .LVU205
 742:D:/Git/VL53L1/lib/core/src\vl53l1_api_core.c **** 			(uint16_t)pdev->tim_cfg.mm_config__timeout_macrop_a_lo;
 670              		.loc 1 742 27 is_stmt 0 view .LVU206
 671 002c 94F89D01 		ldrb	r0, [r4, #413]	@ zero_extendqisi2
 741:D:/Git/VL53L1/lib/core/src\vl53l1_api_core.c **** 			(uint16_t)pdev->tim_cfg.mm_config__timeout_macrop_a_lo;
 672              		.loc 1 741 19 view .LVU207
 673 0030 00EB0320 		add	r0, r0, r3, lsl #8
 674              	.LVL57:
 743:D:/Git/VL53L1/lib/core/src\vl53l1_api_core.c **** 
 744:D:/Git/VL53L1/lib/core/src\vl53l1_api_core.c **** 		*pmm_config_timeout_us =
 675              		.loc 1 744 3 is_stmt 1 view .LVU208
 745:D:/Git/VL53L1/lib/core/src\vl53l1_api_core.c **** 			VL53L1_calc_decoded_timeout_us(
 676              		.loc 1 745 4 is_stmt 0 view .LVU209
 677 0034 4146     		mov	r1, r8
 678 0036 80B2     		uxth	r0, r0
 679              		.loc 1 745 4 view .LVU210
 680 0038 FFF7FEFF 		bl	VL53L1_calc_decoded_timeout_us
 681              	.LVL58:
 744:D:/Git/VL53L1/lib/core/src\vl53l1_api_core.c **** 			VL53L1_calc_decoded_timeout_us(
 682              		.loc 1 744 26 view .LVU211
 683 003c 3060     		str	r0, [r6]
 746:D:/Git/VL53L1/lib/core/src\vl53l1_api_core.c **** 				timeout_encoded,
 747:D:/Git/VL53L1/lib/core/src\vl53l1_api_core.c **** 				macro_period_us);
 748:D:/Git/VL53L1/lib/core/src\vl53l1_api_core.c **** 
 749:D:/Git/VL53L1/lib/core/src\vl53l1_api_core.c **** 		/* Get Range Timing A timeout */
 750:D:/Git/VL53L1/lib/core/src\vl53l1_api_core.c **** 
 751:D:/Git/VL53L1/lib/core/src\vl53l1_api_core.c **** 		timeout_encoded =
 684              		.loc 1 751 3 is_stmt 1 view .LVU212
 685              		.loc 1 751 19 is_stmt 0 view .LVU213
 686 003e 94F8A031 		ldrb	r3, [r4, #416]	@ zero_extendqisi2
 687              	.LVL59:
 752:D:/Git/VL53L1/lib/core/src\vl53l1_api_core.c **** 			(uint16_t)pdev->tim_cfg.range_config__timeout_macrop_a_hi;
ARM GAS  C:\Users\Berbardo\AppData\Local\Temp\ccBMvrJ9.s 			page 27


 753:D:/Git/VL53L1/lib/core/src\vl53l1_api_core.c **** 		timeout_encoded = (timeout_encoded << 8) +
 688              		.loc 1 753 3 is_stmt 1 view .LVU214
 754:D:/Git/VL53L1/lib/core/src\vl53l1_api_core.c **** 			(uint16_t)pdev->tim_cfg.range_config__timeout_macrop_a_lo;
 689              		.loc 1 754 27 is_stmt 0 view .LVU215
 690 0042 94F8A101 		ldrb	r0, [r4, #417]	@ zero_extendqisi2
 753:D:/Git/VL53L1/lib/core/src\vl53l1_api_core.c **** 			(uint16_t)pdev->tim_cfg.range_config__timeout_macrop_a_lo;
 691              		.loc 1 753 19 view .LVU216
 692 0046 00EB0320 		add	r0, r0, r3, lsl #8
 693              	.LVL60:
 755:D:/Git/VL53L1/lib/core/src\vl53l1_api_core.c **** 
 756:D:/Git/VL53L1/lib/core/src\vl53l1_api_core.c **** 		*prange_config_timeout_us =
 694              		.loc 1 756 3 is_stmt 1 view .LVU217
 757:D:/Git/VL53L1/lib/core/src\vl53l1_api_core.c **** 			VL53L1_calc_decoded_timeout_us(
 695              		.loc 1 757 4 is_stmt 0 view .LVU218
 696 004a 4146     		mov	r1, r8
 697 004c 80B2     		uxth	r0, r0
 698              		.loc 1 757 4 view .LVU219
 699 004e FFF7FEFF 		bl	VL53L1_calc_decoded_timeout_us
 700              	.LVL61:
 756:D:/Git/VL53L1/lib/core/src\vl53l1_api_core.c **** 			VL53L1_calc_decoded_timeout_us(
 701              		.loc 1 756 29 view .LVU220
 702 0052 2860     		str	r0, [r5]
 758:D:/Git/VL53L1/lib/core/src\vl53l1_api_core.c **** 				timeout_encoded,
 759:D:/Git/VL53L1/lib/core/src\vl53l1_api_core.c **** 				macro_period_us);
 760:D:/Git/VL53L1/lib/core/src\vl53l1_api_core.c **** 
 761:D:/Git/VL53L1/lib/core/src\vl53l1_api_core.c **** 		pdev->phasecal_config_timeout_us = *pphasecal_config_timeout_us;
 703              		.loc 1 761 3 is_stmt 1 view .LVU221
 704              		.loc 1 761 38 is_stmt 0 view .LVU222
 705 0054 3B68     		ldr	r3, [r7]
 706              		.loc 1 761 36 view .LVU223
 707 0056 A360     		str	r3, [r4, #8]
 762:D:/Git/VL53L1/lib/core/src\vl53l1_api_core.c **** 		pdev->mm_config_timeout_us       = *pmm_config_timeout_us;
 708              		.loc 1 762 3 is_stmt 1 view .LVU224
 709              		.loc 1 762 38 is_stmt 0 view .LVU225
 710 0058 3368     		ldr	r3, [r6]
 711              		.loc 1 762 36 view .LVU226
 712 005a E360     		str	r3, [r4, #12]
 763:D:/Git/VL53L1/lib/core/src\vl53l1_api_core.c **** 		pdev->range_config_timeout_us    = *prange_config_timeout_us;
 713              		.loc 1 763 3 is_stmt 1 view .LVU227
 714              		.loc 1 763 38 is_stmt 0 view .LVU228
 715 005c 2B68     		ldr	r3, [r5]
 716              		.loc 1 763 36 view .LVU229
 717 005e 2361     		str	r3, [r4, #16]
 710:D:/Git/VL53L1/lib/core/src\vl53l1_api_core.c **** 	VL53L1_LLDriverData_t *pdev =
 718              		.loc 1 710 16 view .LVU230
 719 0060 0020     		movs	r0, #0
 720              	.LVL62:
 721              	.L37:
 764:D:/Git/VL53L1/lib/core/src\vl53l1_api_core.c **** 
 765:D:/Git/VL53L1/lib/core/src\vl53l1_api_core.c **** 	}
 766:D:/Git/VL53L1/lib/core/src\vl53l1_api_core.c **** 
 767:D:/Git/VL53L1/lib/core/src\vl53l1_api_core.c **** 	LOG_FUNCTION_END(status);
 722              		.loc 1 767 26 is_stmt 1 view .LVU231
 768:D:/Git/VL53L1/lib/core/src\vl53l1_api_core.c **** 
 769:D:/Git/VL53L1/lib/core/src\vl53l1_api_core.c **** 	return status;
 723              		.loc 1 769 2 view .LVU232
 770:D:/Git/VL53L1/lib/core/src\vl53l1_api_core.c **** }
ARM GAS  C:\Users\Berbardo\AppData\Local\Temp\ccBMvrJ9.s 			page 28


 724              		.loc 1 770 1 is_stmt 0 view .LVU233
 725 0062 BDE8F081 		pop	{r4, r5, r6, r7, r8, pc}
 726              	.LVL63:
 727              	.L38:
 720:D:/Git/VL53L1/lib/core/src\vl53l1_api_core.c **** 
 728              		.loc 1 720 10 view .LVU234
 729 0066 6FF00E00 		mvn	r0, #14
 730 006a FAE7     		b	.L37
 731              		.cfi_endproc
 732              	.LFE134:
 734              		.section	.text.VL53L1_set_calibration_repeat_period,"ax",%progbits
 735              		.align	1
 736              		.global	VL53L1_set_calibration_repeat_period
 737              		.syntax unified
 738              		.thumb
 739              		.thumb_func
 740              		.fpu fpv4-sp-d16
 742              	VL53L1_set_calibration_repeat_period:
 743              	.LVL64:
 744              	.LFB135:
 771:D:/Git/VL53L1/lib/core/src\vl53l1_api_core.c **** 
 772:D:/Git/VL53L1/lib/core/src\vl53l1_api_core.c **** 
 773:D:/Git/VL53L1/lib/core/src\vl53l1_api_core.c **** VL53L1_Error VL53L1_set_calibration_repeat_period(
 774:D:/Git/VL53L1/lib/core/src\vl53l1_api_core.c **** 	VL53L1_DEV          Dev,
 775:D:/Git/VL53L1/lib/core/src\vl53l1_api_core.c **** 	uint16_t            cal_config__repeat_period)
 776:D:/Git/VL53L1/lib/core/src\vl53l1_api_core.c **** {
 745              		.loc 1 776 1 is_stmt 1 view -0
 746              		.cfi_startproc
 747              		@ args = 0, pretend = 0, frame = 0
 748              		@ frame_needed = 0, uses_anonymous_args = 0
 749              		@ link register save eliminated.
 777:D:/Git/VL53L1/lib/core/src\vl53l1_api_core.c **** 	/**
 778:D:/Git/VL53L1/lib/core/src\vl53l1_api_core.c **** 	 * Convenience function for setting calibration repeat period
 779:D:/Git/VL53L1/lib/core/src\vl53l1_api_core.c **** 	 */
 780:D:/Git/VL53L1/lib/core/src\vl53l1_api_core.c **** 
 781:D:/Git/VL53L1/lib/core/src\vl53l1_api_core.c **** 	VL53L1_Error  status = VL53L1_ERROR_NONE;
 750              		.loc 1 781 2 view .LVU236
 782:D:/Git/VL53L1/lib/core/src\vl53l1_api_core.c **** 	VL53L1_LLDriverData_t *pdev =
 751              		.loc 1 782 2 view .LVU237
 783:D:/Git/VL53L1/lib/core/src\vl53l1_api_core.c **** 		VL53L1DevStructGetLLDriverHandle(Dev);
 784:D:/Git/VL53L1/lib/core/src\vl53l1_api_core.c **** 
 785:D:/Git/VL53L1/lib/core/src\vl53l1_api_core.c **** 	pdev->gen_cfg.cal_config__repeat_rate = cal_config__repeat_period;
 752              		.loc 1 785 2 view .LVU238
 753              		.loc 1 785 40 is_stmt 0 view .LVU239
 754 0000 A0F88811 		strh	r1, [r0, #392]	@ movhi
 786:D:/Git/VL53L1/lib/core/src\vl53l1_api_core.c **** 
 787:D:/Git/VL53L1/lib/core/src\vl53l1_api_core.c **** 	return status;
 755              		.loc 1 787 2 is_stmt 1 view .LVU240
 788:D:/Git/VL53L1/lib/core/src\vl53l1_api_core.c **** 
 789:D:/Git/VL53L1/lib/core/src\vl53l1_api_core.c **** }
 756              		.loc 1 789 1 is_stmt 0 view .LVU241
 757 0004 0020     		movs	r0, #0
 758              	.LVL65:
 759              		.loc 1 789 1 view .LVU242
 760 0006 7047     		bx	lr
 761              		.cfi_endproc
 762              	.LFE135:
ARM GAS  C:\Users\Berbardo\AppData\Local\Temp\ccBMvrJ9.s 			page 29


 764              		.section	.text.VL53L1_get_calibration_repeat_period,"ax",%progbits
 765              		.align	1
 766              		.global	VL53L1_get_calibration_repeat_period
 767              		.syntax unified
 768              		.thumb
 769              		.thumb_func
 770              		.fpu fpv4-sp-d16
 772              	VL53L1_get_calibration_repeat_period:
 773              	.LVL66:
 774              	.LFB136:
 790:D:/Git/VL53L1/lib/core/src\vl53l1_api_core.c **** 
 791:D:/Git/VL53L1/lib/core/src\vl53l1_api_core.c **** 
 792:D:/Git/VL53L1/lib/core/src\vl53l1_api_core.c **** VL53L1_Error VL53L1_get_calibration_repeat_period(
 793:D:/Git/VL53L1/lib/core/src\vl53l1_api_core.c **** 	VL53L1_DEV          Dev,
 794:D:/Git/VL53L1/lib/core/src\vl53l1_api_core.c **** 	uint16_t           *pcal_config__repeat_period)
 795:D:/Git/VL53L1/lib/core/src\vl53l1_api_core.c **** {
 775              		.loc 1 795 1 is_stmt 1 view -0
 776              		.cfi_startproc
 777              		@ args = 0, pretend = 0, frame = 0
 778              		@ frame_needed = 0, uses_anonymous_args = 0
 779              		@ link register save eliminated.
 796:D:/Git/VL53L1/lib/core/src\vl53l1_api_core.c **** 	/**
 797:D:/Git/VL53L1/lib/core/src\vl53l1_api_core.c **** 	 * Convenience function for getting calibration repeat period
 798:D:/Git/VL53L1/lib/core/src\vl53l1_api_core.c **** 	 */
 799:D:/Git/VL53L1/lib/core/src\vl53l1_api_core.c **** 
 800:D:/Git/VL53L1/lib/core/src\vl53l1_api_core.c **** 	VL53L1_Error  status = VL53L1_ERROR_NONE;
 780              		.loc 1 800 2 view .LVU244
 801:D:/Git/VL53L1/lib/core/src\vl53l1_api_core.c **** 	VL53L1_LLDriverData_t *pdev =
 781              		.loc 1 801 2 view .LVU245
 802:D:/Git/VL53L1/lib/core/src\vl53l1_api_core.c **** 		VL53L1DevStructGetLLDriverHandle(Dev);
 803:D:/Git/VL53L1/lib/core/src\vl53l1_api_core.c **** 
 804:D:/Git/VL53L1/lib/core/src\vl53l1_api_core.c **** 	*pcal_config__repeat_period = pdev->gen_cfg.cal_config__repeat_rate;
 782              		.loc 1 804 2 view .LVU246
 783              		.loc 1 804 45 is_stmt 0 view .LVU247
 784 0000 B0F88831 		ldrh	r3, [r0, #392]
 785              		.loc 1 804 30 view .LVU248
 786 0004 0B80     		strh	r3, [r1]	@ movhi
 805:D:/Git/VL53L1/lib/core/src\vl53l1_api_core.c **** 
 806:D:/Git/VL53L1/lib/core/src\vl53l1_api_core.c **** 	return status;
 787              		.loc 1 806 2 is_stmt 1 view .LVU249
 807:D:/Git/VL53L1/lib/core/src\vl53l1_api_core.c **** 
 808:D:/Git/VL53L1/lib/core/src\vl53l1_api_core.c **** }
 788              		.loc 1 808 1 is_stmt 0 view .LVU250
 789 0006 0020     		movs	r0, #0
 790              	.LVL67:
 791              		.loc 1 808 1 view .LVU251
 792 0008 7047     		bx	lr
 793              		.cfi_endproc
 794              	.LFE136:
 796              		.section	.text.VL53L1_set_sequence_config_bit,"ax",%progbits
 797              		.align	1
 798              		.global	VL53L1_set_sequence_config_bit
 799              		.syntax unified
 800              		.thumb
 801              		.thumb_func
 802              		.fpu fpv4-sp-d16
 804              	VL53L1_set_sequence_config_bit:
ARM GAS  C:\Users\Berbardo\AppData\Local\Temp\ccBMvrJ9.s 			page 30


 805              	.LVL68:
 806              	.LFB137:
 809:D:/Git/VL53L1/lib/core/src\vl53l1_api_core.c **** 
 810:D:/Git/VL53L1/lib/core/src\vl53l1_api_core.c **** 
 811:D:/Git/VL53L1/lib/core/src\vl53l1_api_core.c **** VL53L1_Error VL53L1_set_sequence_config_bit(
 812:D:/Git/VL53L1/lib/core/src\vl53l1_api_core.c **** 	VL53L1_DEV                    Dev,
 813:D:/Git/VL53L1/lib/core/src\vl53l1_api_core.c **** 	VL53L1_DeviceSequenceConfig   bit_id,
 814:D:/Git/VL53L1/lib/core/src\vl53l1_api_core.c **** 	uint8_t                       value)
 815:D:/Git/VL53L1/lib/core/src\vl53l1_api_core.c **** {
 807              		.loc 1 815 1 is_stmt 1 view -0
 808              		.cfi_startproc
 809              		@ args = 0, pretend = 0, frame = 0
 810              		@ frame_needed = 0, uses_anonymous_args = 0
 811              		@ link register save eliminated.
 816:D:/Git/VL53L1/lib/core/src\vl53l1_api_core.c **** 	/**
 817:D:/Git/VL53L1/lib/core/src\vl53l1_api_core.c **** 	 * Convenience function for setting sequence
 818:D:/Git/VL53L1/lib/core/src\vl53l1_api_core.c **** 	 * config enable bits
 819:D:/Git/VL53L1/lib/core/src\vl53l1_api_core.c **** 	 */
 820:D:/Git/VL53L1/lib/core/src\vl53l1_api_core.c **** 
 821:D:/Git/VL53L1/lib/core/src\vl53l1_api_core.c **** 	VL53L1_Error  status = VL53L1_ERROR_NONE;
 812              		.loc 1 821 2 view .LVU253
 822:D:/Git/VL53L1/lib/core/src\vl53l1_api_core.c **** 	VL53L1_LLDriverData_t *pdev =
 813              		.loc 1 822 2 view .LVU254
 823:D:/Git/VL53L1/lib/core/src\vl53l1_api_core.c **** 		VL53L1DevStructGetLLDriverHandle(Dev);
 824:D:/Git/VL53L1/lib/core/src\vl53l1_api_core.c **** 
 825:D:/Git/VL53L1/lib/core/src\vl53l1_api_core.c **** 	uint8_t  bit_mask        = 0x01;
 814              		.loc 1 825 2 view .LVU255
 826:D:/Git/VL53L1/lib/core/src\vl53l1_api_core.c **** 	uint8_t  clr_mask        = 0xFF  - bit_mask;
 815              		.loc 1 826 2 view .LVU256
 827:D:/Git/VL53L1/lib/core/src\vl53l1_api_core.c **** 	uint8_t  bit_value       = value & bit_mask;
 816              		.loc 1 827 2 view .LVU257
 817              		.loc 1 827 11 is_stmt 0 view .LVU258
 818 0000 02F00102 		and	r2, r2, #1
 819              	.LVL69:
 828:D:/Git/VL53L1/lib/core/src\vl53l1_api_core.c **** 
 829:D:/Git/VL53L1/lib/core/src\vl53l1_api_core.c **** 	if (bit_id <= VL53L1_DEVICESEQUENCECONFIG_RANGE) {
 820              		.loc 1 829 2 is_stmt 1 view .LVU259
 821              		.loc 1 829 5 is_stmt 0 view .LVU260
 822 0004 0729     		cmp	r1, #7
 823 0006 11D8     		bhi	.L45
 830:D:/Git/VL53L1/lib/core/src\vl53l1_api_core.c **** 
 831:D:/Git/VL53L1/lib/core/src\vl53l1_api_core.c **** 		if (bit_id > 0) {
 824              		.loc 1 831 3 is_stmt 1 view .LVU261
 825              		.loc 1 831 6 is_stmt 0 view .LVU262
 826 0008 71B1     		cbz	r1, .L46
 832:D:/Git/VL53L1/lib/core/src\vl53l1_api_core.c **** 			bit_mask  = 0x01 << bit_id;
 827              		.loc 1 832 4 is_stmt 1 view .LVU263
 828              		.loc 1 832 21 is_stmt 0 view .LVU264
 829 000a 0123     		movs	r3, #1
 830 000c 8B40     		lsls	r3, r3, r1
 831              		.loc 1 832 14 view .LVU265
 832 000e DBB2     		uxtb	r3, r3
 833              	.LVL70:
 833:D:/Git/VL53L1/lib/core/src\vl53l1_api_core.c **** 			bit_value = bit_value << bit_id;
 834              		.loc 1 833 4 is_stmt 1 view .LVU266
 835              		.loc 1 833 26 is_stmt 0 view .LVU267
 836 0010 8A40     		lsls	r2, r2, r1
ARM GAS  C:\Users\Berbardo\AppData\Local\Temp\ccBMvrJ9.s 			page 31


 837              	.LVL71:
 838              		.loc 1 833 14 view .LVU268
 839 0012 D2B2     		uxtb	r2, r2
 840              	.LVL72:
 834:D:/Git/VL53L1/lib/core/src\vl53l1_api_core.c **** 			clr_mask  = 0xFF  - bit_mask;
 841              		.loc 1 834 4 is_stmt 1 view .LVU269
 842              		.loc 1 834 14 is_stmt 0 view .LVU270
 843 0014 DB43     		mvns	r3, r3
 844              	.LVL73:
 845              		.loc 1 834 14 view .LVU271
 846 0016 DBB2     		uxtb	r3, r3
 847              	.LVL74:
 848              	.L44:
 835:D:/Git/VL53L1/lib/core/src\vl53l1_api_core.c **** 		}
 836:D:/Git/VL53L1/lib/core/src\vl53l1_api_core.c **** 
 837:D:/Git/VL53L1/lib/core/src\vl53l1_api_core.c **** 		pdev->dyn_cfg.system__sequence_config = \
 849              		.loc 1 837 3 is_stmt 1 view .LVU272
 838:D:/Git/VL53L1/lib/core/src\vl53l1_api_core.c **** 			(pdev->dyn_cfg.system__sequence_config & clr_mask) | \
 850              		.loc 1 838 18 is_stmt 0 view .LVU273
 851 0018 90F8C511 		ldrb	r1, [r0, #453]	@ zero_extendqisi2
 852              	.LVL75:
 837:D:/Git/VL53L1/lib/core/src\vl53l1_api_core.c **** 			(pdev->dyn_cfg.system__sequence_config & clr_mask) | \
 853              		.loc 1 837 41 view .LVU274
 854 001c 0B40     		ands	r3, r3, r1
 855              	.LVL76:
 837:D:/Git/VL53L1/lib/core/src\vl53l1_api_core.c **** 			(pdev->dyn_cfg.system__sequence_config & clr_mask) | \
 856              		.loc 1 837 41 view .LVU275
 857 001e 1A43     		orrs	r2, r2, r3
 858              	.LVL77:
 837:D:/Git/VL53L1/lib/core/src\vl53l1_api_core.c **** 			(pdev->dyn_cfg.system__sequence_config & clr_mask) | \
 859              		.loc 1 837 41 view .LVU276
 860 0020 80F8C521 		strb	r2, [r0, #453]
 821:D:/Git/VL53L1/lib/core/src\vl53l1_api_core.c **** 	VL53L1_LLDriverData_t *pdev =
 861              		.loc 1 821 16 view .LVU277
 862 0024 0020     		movs	r0, #0
 863              	.LVL78:
 821:D:/Git/VL53L1/lib/core/src\vl53l1_api_core.c **** 	VL53L1_LLDriverData_t *pdev =
 864              		.loc 1 821 16 view .LVU278
 865 0026 7047     		bx	lr
 866              	.LVL79:
 867              	.L46:
 826:D:/Git/VL53L1/lib/core/src\vl53l1_api_core.c **** 	uint8_t  bit_value       = value & bit_mask;
 868              		.loc 1 826 11 view .LVU279
 869 0028 FE23     		movs	r3, #254
 870 002a F5E7     		b	.L44
 871              	.L45:
 839:D:/Git/VL53L1/lib/core/src\vl53l1_api_core.c **** 			bit_value;
 840:D:/Git/VL53L1/lib/core/src\vl53l1_api_core.c **** 
 841:D:/Git/VL53L1/lib/core/src\vl53l1_api_core.c **** 	} else {
 842:D:/Git/VL53L1/lib/core/src\vl53l1_api_core.c **** 		status = VL53L1_ERROR_INVALID_PARAMS;
 872              		.loc 1 842 10 view .LVU280
 873 002c 6FF00300 		mvn	r0, #3
 874              	.LVL80:
 843:D:/Git/VL53L1/lib/core/src\vl53l1_api_core.c **** 	}
 844:D:/Git/VL53L1/lib/core/src\vl53l1_api_core.c **** 
 845:D:/Git/VL53L1/lib/core/src\vl53l1_api_core.c **** 	return status;
 875              		.loc 1 845 2 is_stmt 1 view .LVU281
ARM GAS  C:\Users\Berbardo\AppData\Local\Temp\ccBMvrJ9.s 			page 32


 846:D:/Git/VL53L1/lib/core/src\vl53l1_api_core.c **** 
 847:D:/Git/VL53L1/lib/core/src\vl53l1_api_core.c **** }
 876              		.loc 1 847 1 is_stmt 0 view .LVU282
 877 0030 7047     		bx	lr
 878              		.cfi_endproc
 879              	.LFE137:
 881              		.section	.text.VL53L1_get_sequence_config_bit,"ax",%progbits
 882              		.align	1
 883              		.global	VL53L1_get_sequence_config_bit
 884              		.syntax unified
 885              		.thumb
 886              		.thumb_func
 887              		.fpu fpv4-sp-d16
 889              	VL53L1_get_sequence_config_bit:
 890              	.LVL81:
 891              	.LFB138:
 848:D:/Git/VL53L1/lib/core/src\vl53l1_api_core.c **** 
 849:D:/Git/VL53L1/lib/core/src\vl53l1_api_core.c **** 
 850:D:/Git/VL53L1/lib/core/src\vl53l1_api_core.c **** VL53L1_Error VL53L1_get_sequence_config_bit(
 851:D:/Git/VL53L1/lib/core/src\vl53l1_api_core.c **** 	VL53L1_DEV                    Dev,
 852:D:/Git/VL53L1/lib/core/src\vl53l1_api_core.c **** 	VL53L1_DeviceSequenceConfig   bit_id,
 853:D:/Git/VL53L1/lib/core/src\vl53l1_api_core.c **** 	uint8_t                      *pvalue)
 854:D:/Git/VL53L1/lib/core/src\vl53l1_api_core.c **** {
 892              		.loc 1 854 1 is_stmt 1 view -0
 893              		.cfi_startproc
 894              		@ args = 0, pretend = 0, frame = 0
 895              		@ frame_needed = 0, uses_anonymous_args = 0
 896              		@ link register save eliminated.
 855:D:/Git/VL53L1/lib/core/src\vl53l1_api_core.c **** 	/**
 856:D:/Git/VL53L1/lib/core/src\vl53l1_api_core.c **** 	 * Convenience function for getting sequence
 857:D:/Git/VL53L1/lib/core/src\vl53l1_api_core.c **** 	 * config enable bits
 858:D:/Git/VL53L1/lib/core/src\vl53l1_api_core.c **** 	 */
 859:D:/Git/VL53L1/lib/core/src\vl53l1_api_core.c **** 
 860:D:/Git/VL53L1/lib/core/src\vl53l1_api_core.c **** 	VL53L1_Error  status = VL53L1_ERROR_NONE;
 897              		.loc 1 860 2 view .LVU284
 861:D:/Git/VL53L1/lib/core/src\vl53l1_api_core.c **** 	VL53L1_LLDriverData_t *pdev =
 898              		.loc 1 861 2 view .LVU285
 862:D:/Git/VL53L1/lib/core/src\vl53l1_api_core.c **** 		VL53L1DevStructGetLLDriverHandle(Dev);
 863:D:/Git/VL53L1/lib/core/src\vl53l1_api_core.c **** 
 864:D:/Git/VL53L1/lib/core/src\vl53l1_api_core.c **** 	uint8_t  bit_mask        = 0x01;
 899              		.loc 1 864 2 view .LVU286
 865:D:/Git/VL53L1/lib/core/src\vl53l1_api_core.c **** 
 866:D:/Git/VL53L1/lib/core/src\vl53l1_api_core.c **** 	if (bit_id <= VL53L1_DEVICESEQUENCECONFIG_RANGE) {
 900              		.loc 1 866 2 view .LVU287
 901              		.loc 1 866 5 is_stmt 0 view .LVU288
 902 0000 0729     		cmp	r1, #7
 903 0002 11D8     		bhi	.L50
 854:D:/Git/VL53L1/lib/core/src\vl53l1_api_core.c **** 	/**
 904              		.loc 1 854 1 view .LVU289
 905 0004 10B4     		push	{r4}
 906              		.cfi_def_cfa_offset 4
 907              		.cfi_offset 4, -4
 867:D:/Git/VL53L1/lib/core/src\vl53l1_api_core.c **** 
 868:D:/Git/VL53L1/lib/core/src\vl53l1_api_core.c **** 		if (bit_id > 0) {
 908              		.loc 1 868 3 is_stmt 1 view .LVU290
 909              		.loc 1 868 6 is_stmt 0 view .LVU291
 910 0006 69B1     		cbz	r1, .L51
ARM GAS  C:\Users\Berbardo\AppData\Local\Temp\ccBMvrJ9.s 			page 33


 869:D:/Git/VL53L1/lib/core/src\vl53l1_api_core.c **** 			bit_mask  = 0x01 << bit_id;
 911              		.loc 1 869 4 is_stmt 1 view .LVU292
 912              		.loc 1 869 21 is_stmt 0 view .LVU293
 913 0008 0123     		movs	r3, #1
 914 000a 8B40     		lsls	r3, r3, r1
 915              		.loc 1 869 14 view .LVU294
 916 000c DCB2     		uxtb	r4, r3
 917              	.LVL82:
 918              	.L49:
 870:D:/Git/VL53L1/lib/core/src\vl53l1_api_core.c **** 		}
 871:D:/Git/VL53L1/lib/core/src\vl53l1_api_core.c **** 
 872:D:/Git/VL53L1/lib/core/src\vl53l1_api_core.c **** 		*pvalue =
 919              		.loc 1 872 3 is_stmt 1 view .LVU295
 873:D:/Git/VL53L1/lib/core/src\vl53l1_api_core.c **** 			pdev->dyn_cfg.system__sequence_config & bit_mask;
 920              		.loc 1 873 17 is_stmt 0 view .LVU296
 921 000e 90F8C531 		ldrb	r3, [r0, #453]	@ zero_extendqisi2
 872:D:/Git/VL53L1/lib/core/src\vl53l1_api_core.c **** 			pdev->dyn_cfg.system__sequence_config & bit_mask;
 922              		.loc 1 872 11 view .LVU297
 923 0012 2340     		ands	r3, r3, r4
 924 0014 1370     		strb	r3, [r2]
 874:D:/Git/VL53L1/lib/core/src\vl53l1_api_core.c **** 
 875:D:/Git/VL53L1/lib/core/src\vl53l1_api_core.c **** 		if (bit_id > 0) {
 925              		.loc 1 875 3 is_stmt 1 view .LVU298
 926              		.loc 1 875 6 is_stmt 0 view .LVU299
 927 0016 51B1     		cbz	r1, .L52
 876:D:/Git/VL53L1/lib/core/src\vl53l1_api_core.c **** 			*pvalue  = *pvalue >> bit_id;
 928              		.loc 1 876 4 is_stmt 1 view .LVU300
 929              		.loc 1 876 23 is_stmt 0 view .LVU301
 930 0018 0B41     		asrs	r3, r3, r1
 931              		.loc 1 876 13 view .LVU302
 932 001a 1370     		strb	r3, [r2]
 860:D:/Git/VL53L1/lib/core/src\vl53l1_api_core.c **** 	VL53L1_LLDriverData_t *pdev =
 933              		.loc 1 860 16 view .LVU303
 934 001c 0020     		movs	r0, #0
 935              	.LVL83:
 936              	.L48:
 877:D:/Git/VL53L1/lib/core/src\vl53l1_api_core.c **** 		}
 878:D:/Git/VL53L1/lib/core/src\vl53l1_api_core.c **** 
 879:D:/Git/VL53L1/lib/core/src\vl53l1_api_core.c **** 	} else {
 880:D:/Git/VL53L1/lib/core/src\vl53l1_api_core.c **** 		status = VL53L1_ERROR_INVALID_PARAMS;
 881:D:/Git/VL53L1/lib/core/src\vl53l1_api_core.c **** 	}
 882:D:/Git/VL53L1/lib/core/src\vl53l1_api_core.c **** 
 883:D:/Git/VL53L1/lib/core/src\vl53l1_api_core.c **** 	return status;
 937              		.loc 1 883 2 is_stmt 1 view .LVU304
 884:D:/Git/VL53L1/lib/core/src\vl53l1_api_core.c **** }
 938              		.loc 1 884 1 is_stmt 0 view .LVU305
 939 001e 5DF8044B 		ldr	r4, [sp], #4
 940              		.cfi_remember_state
 941              		.cfi_restore 4
 942              		.cfi_def_cfa_offset 0
 943              	.LVL84:
 944              		.loc 1 884 1 view .LVU306
 945 0022 7047     		bx	lr
 946              	.LVL85:
 947              	.L51:
 948              		.cfi_restore_state
 864:D:/Git/VL53L1/lib/core/src\vl53l1_api_core.c **** 
ARM GAS  C:\Users\Berbardo\AppData\Local\Temp\ccBMvrJ9.s 			page 34


 949              		.loc 1 864 11 view .LVU307
 950 0024 0124     		movs	r4, #1
 951 0026 F2E7     		b	.L49
 952              	.L50:
 953              		.cfi_def_cfa_offset 0
 954              		.cfi_restore 4
 880:D:/Git/VL53L1/lib/core/src\vl53l1_api_core.c **** 	}
 955              		.loc 1 880 10 view .LVU308
 956 0028 6FF00300 		mvn	r0, #3
 957              	.LVL86:
 883:D:/Git/VL53L1/lib/core/src\vl53l1_api_core.c **** }
 958              		.loc 1 883 2 is_stmt 1 view .LVU309
 959              		.loc 1 884 1 is_stmt 0 view .LVU310
 960 002c 7047     		bx	lr
 961              	.LVL87:
 962              	.L52:
 963              		.cfi_def_cfa_offset 4
 964              		.cfi_offset 4, -4
 860:D:/Git/VL53L1/lib/core/src\vl53l1_api_core.c **** 	VL53L1_LLDriverData_t *pdev =
 965              		.loc 1 860 16 view .LVU311
 966 002e 0020     		movs	r0, #0
 967              	.LVL88:
 860:D:/Git/VL53L1/lib/core/src\vl53l1_api_core.c **** 	VL53L1_LLDriverData_t *pdev =
 968              		.loc 1 860 16 view .LVU312
 969 0030 F5E7     		b	.L48
 970              		.cfi_endproc
 971              	.LFE138:
 973              		.section	.text.VL53L1_set_interrupt_polarity,"ax",%progbits
 974              		.align	1
 975              		.global	VL53L1_set_interrupt_polarity
 976              		.syntax unified
 977              		.thumb
 978              		.thumb_func
 979              		.fpu fpv4-sp-d16
 981              	VL53L1_set_interrupt_polarity:
 982              	.LVL89:
 983              	.LFB139:
 885:D:/Git/VL53L1/lib/core/src\vl53l1_api_core.c **** 
 886:D:/Git/VL53L1/lib/core/src\vl53l1_api_core.c **** 
 887:D:/Git/VL53L1/lib/core/src\vl53l1_api_core.c **** VL53L1_Error VL53L1_set_interrupt_polarity(
 888:D:/Git/VL53L1/lib/core/src\vl53l1_api_core.c **** 	VL53L1_DEV                      Dev,
 889:D:/Git/VL53L1/lib/core/src\vl53l1_api_core.c **** 	VL53L1_DeviceInterruptPolarity  interrupt_polarity)
 890:D:/Git/VL53L1/lib/core/src\vl53l1_api_core.c **** {
 984              		.loc 1 890 1 is_stmt 1 view -0
 985              		.cfi_startproc
 986              		@ args = 0, pretend = 0, frame = 0
 987              		@ frame_needed = 0, uses_anonymous_args = 0
 988              		@ link register save eliminated.
 891:D:/Git/VL53L1/lib/core/src\vl53l1_api_core.c **** 	/**
 892:D:/Git/VL53L1/lib/core/src\vl53l1_api_core.c **** 	 * Convenience function for setting interrupt polarity
 893:D:/Git/VL53L1/lib/core/src\vl53l1_api_core.c **** 	 */
 894:D:/Git/VL53L1/lib/core/src\vl53l1_api_core.c **** 
 895:D:/Git/VL53L1/lib/core/src\vl53l1_api_core.c **** 	VL53L1_Error  status = VL53L1_ERROR_NONE;
 989              		.loc 1 895 2 view .LVU314
 896:D:/Git/VL53L1/lib/core/src\vl53l1_api_core.c **** 	VL53L1_LLDriverData_t *pdev =
 990              		.loc 1 896 2 view .LVU315
 897:D:/Git/VL53L1/lib/core/src\vl53l1_api_core.c **** 		VL53L1DevStructGetLLDriverHandle(Dev);
ARM GAS  C:\Users\Berbardo\AppData\Local\Temp\ccBMvrJ9.s 			page 35


 898:D:/Git/VL53L1/lib/core/src\vl53l1_api_core.c **** 
 899:D:/Git/VL53L1/lib/core/src\vl53l1_api_core.c **** 	pdev->stat_cfg.gpio_hv_mux__ctrl = \
 991              		.loc 1 899 2 view .LVU316
 900:D:/Git/VL53L1/lib/core/src\vl53l1_api_core.c **** 			(pdev->stat_cfg.gpio_hv_mux__ctrl & \
 992              		.loc 1 900 19 is_stmt 0 view .LVU317
 993 0000 90F97031 		ldrsb	r3, [r0, #368]
 994              		.loc 1 900 38 view .LVU318
 995 0004 23F01003 		bic	r3, r3, #16
 901:D:/Git/VL53L1/lib/core/src\vl53l1_api_core.c **** 			 VL53L1_DEVICEINTERRUPTPOLARITY_CLEAR_MASK) | \
 902:D:/Git/VL53L1/lib/core/src\vl53l1_api_core.c **** 			(interrupt_polarity & \
 996              		.loc 1 902 24 view .LVU319
 997 0008 01F01001 		and	r1, r1, #16
 998              	.LVL90:
 901:D:/Git/VL53L1/lib/core/src\vl53l1_api_core.c **** 			 VL53L1_DEVICEINTERRUPTPOLARITY_CLEAR_MASK) | \
 999              		.loc 1 901 48 view .LVU320
 1000 000c 1943     		orrs	r1, r1, r3
 899:D:/Git/VL53L1/lib/core/src\vl53l1_api_core.c **** 			(pdev->stat_cfg.gpio_hv_mux__ctrl & \
 1001              		.loc 1 899 35 view .LVU321
 1002 000e 80F87011 		strb	r1, [r0, #368]
 903:D:/Git/VL53L1/lib/core/src\vl53l1_api_core.c **** 			 VL53L1_DEVICEINTERRUPTPOLARITY_BIT_MASK);
 904:D:/Git/VL53L1/lib/core/src\vl53l1_api_core.c **** 
 905:D:/Git/VL53L1/lib/core/src\vl53l1_api_core.c **** 	return status;
 1003              		.loc 1 905 2 is_stmt 1 view .LVU322
 906:D:/Git/VL53L1/lib/core/src\vl53l1_api_core.c **** 
 907:D:/Git/VL53L1/lib/core/src\vl53l1_api_core.c **** }
 1004              		.loc 1 907 1 is_stmt 0 view .LVU323
 1005 0012 0020     		movs	r0, #0
 1006              	.LVL91:
 1007              		.loc 1 907 1 view .LVU324
 1008 0014 7047     		bx	lr
 1009              		.cfi_endproc
 1010              	.LFE139:
 1012              		.section	.text.VL53L1_set_refspadchar_config_struct,"ax",%progbits
 1013              		.align	1
 1014              		.global	VL53L1_set_refspadchar_config_struct
 1015              		.syntax unified
 1016              		.thumb
 1017              		.thumb_func
 1018              		.fpu fpv4-sp-d16
 1020              	VL53L1_set_refspadchar_config_struct:
 1021              	.LVL92:
 1022              	.LFB140:
 908:D:/Git/VL53L1/lib/core/src\vl53l1_api_core.c **** 
 909:D:/Git/VL53L1/lib/core/src\vl53l1_api_core.c **** 
 910:D:/Git/VL53L1/lib/core/src\vl53l1_api_core.c **** #ifndef VL53L1_NOCALIB
 911:D:/Git/VL53L1/lib/core/src\vl53l1_api_core.c **** VL53L1_Error VL53L1_set_refspadchar_config_struct(
 912:D:/Git/VL53L1/lib/core/src\vl53l1_api_core.c **** 	VL53L1_DEV                     Dev,
 913:D:/Git/VL53L1/lib/core/src\vl53l1_api_core.c **** 	VL53L1_refspadchar_config_t   *pdata)
 914:D:/Git/VL53L1/lib/core/src\vl53l1_api_core.c **** {
 1023              		.loc 1 914 1 is_stmt 1 view -0
 1024              		.cfi_startproc
 1025              		@ args = 0, pretend = 0, frame = 0
 1026              		@ frame_needed = 0, uses_anonymous_args = 0
 1027              		@ link register save eliminated.
 915:D:/Git/VL53L1/lib/core/src\vl53l1_api_core.c **** 	/*
 916:D:/Git/VL53L1/lib/core/src\vl53l1_api_core.c **** 	 * Allows user config of Ref SPAD Char data structure
 917:D:/Git/VL53L1/lib/core/src\vl53l1_api_core.c **** 	 */
ARM GAS  C:\Users\Berbardo\AppData\Local\Temp\ccBMvrJ9.s 			page 36


 918:D:/Git/VL53L1/lib/core/src\vl53l1_api_core.c **** 
 919:D:/Git/VL53L1/lib/core/src\vl53l1_api_core.c **** 	VL53L1_Error  status = VL53L1_ERROR_NONE;
 1028              		.loc 1 919 2 view .LVU326
 920:D:/Git/VL53L1/lib/core/src\vl53l1_api_core.c **** 	VL53L1_LLDriverData_t *pdev =
 1029              		.loc 1 920 2 view .LVU327
 921:D:/Git/VL53L1/lib/core/src\vl53l1_api_core.c **** 		VL53L1DevStructGetLLDriverHandle(Dev);
 922:D:/Git/VL53L1/lib/core/src\vl53l1_api_core.c **** 
 923:D:/Git/VL53L1/lib/core/src\vl53l1_api_core.c **** 	LOG_FUNCTION_START("");
 1030              		.loc 1 923 24 view .LVU328
 924:D:/Git/VL53L1/lib/core/src\vl53l1_api_core.c **** 
 925:D:/Git/VL53L1/lib/core/src\vl53l1_api_core.c **** 	pdev->refspadchar.device_test_mode = pdata->device_test_mode;
 1031              		.loc 1 925 2 view .LVU329
 1032              		.loc 1 925 44 is_stmt 0 view .LVU330
 1033 0000 0B78     		ldrb	r3, [r1]	@ zero_extendqisi2
 1034              		.loc 1 925 37 view .LVU331
 1035 0002 80F81031 		strb	r3, [r0, #272]
 926:D:/Git/VL53L1/lib/core/src\vl53l1_api_core.c **** 	pdev->refspadchar.vcsel_period     = pdata->vcsel_period;
 1036              		.loc 1 926 2 is_stmt 1 view .LVU332
 1037              		.loc 1 926 44 is_stmt 0 view .LVU333
 1038 0006 4B78     		ldrb	r3, [r1, #1]	@ zero_extendqisi2
 1039              		.loc 1 926 37 view .LVU334
 1040 0008 80F81131 		strb	r3, [r0, #273]
 927:D:/Git/VL53L1/lib/core/src\vl53l1_api_core.c **** 	pdev->refspadchar.timeout_us       = pdata->timeout_us;
 1041              		.loc 1 927 2 is_stmt 1 view .LVU335
 1042              		.loc 1 927 44 is_stmt 0 view .LVU336
 1043 000c 4B68     		ldr	r3, [r1, #4]
 1044              		.loc 1 927 37 view .LVU337
 1045 000e C0F81431 		str	r3, [r0, #276]
 928:D:/Git/VL53L1/lib/core/src\vl53l1_api_core.c **** 	pdev->refspadchar.target_count_rate_mcps    =
 1046              		.loc 1 928 2 is_stmt 1 view .LVU338
 929:D:/Git/VL53L1/lib/core/src\vl53l1_api_core.c **** 			pdata->target_count_rate_mcps;
 1047              		.loc 1 929 9 is_stmt 0 view .LVU339
 1048 0012 0B89     		ldrh	r3, [r1, #8]
 928:D:/Git/VL53L1/lib/core/src\vl53l1_api_core.c **** 	pdev->refspadchar.target_count_rate_mcps    =
 1049              		.loc 1 928 46 view .LVU340
 1050 0014 A0F81831 		strh	r3, [r0, #280]	@ movhi
 930:D:/Git/VL53L1/lib/core/src\vl53l1_api_core.c **** 	pdev->refspadchar.min_count_rate_limit_mcps =
 1051              		.loc 1 930 2 is_stmt 1 view .LVU341
 931:D:/Git/VL53L1/lib/core/src\vl53l1_api_core.c **** 			pdata->min_count_rate_limit_mcps;
 1052              		.loc 1 931 9 is_stmt 0 view .LVU342
 1053 0018 4B89     		ldrh	r3, [r1, #10]
 930:D:/Git/VL53L1/lib/core/src\vl53l1_api_core.c **** 	pdev->refspadchar.min_count_rate_limit_mcps =
 1054              		.loc 1 930 46 view .LVU343
 1055 001a A0F81A31 		strh	r3, [r0, #282]	@ movhi
 932:D:/Git/VL53L1/lib/core/src\vl53l1_api_core.c **** 	pdev->refspadchar.max_count_rate_limit_mcps =
 1056              		.loc 1 932 2 is_stmt 1 view .LVU344
 933:D:/Git/VL53L1/lib/core/src\vl53l1_api_core.c **** 			pdata->max_count_rate_limit_mcps;
 1057              		.loc 1 933 9 is_stmt 0 view .LVU345
 1058 001e 8B89     		ldrh	r3, [r1, #12]
 932:D:/Git/VL53L1/lib/core/src\vl53l1_api_core.c **** 	pdev->refspadchar.max_count_rate_limit_mcps =
 1059              		.loc 1 932 46 view .LVU346
 1060 0020 A0F81C31 		strh	r3, [r0, #284]	@ movhi
 934:D:/Git/VL53L1/lib/core/src\vl53l1_api_core.c **** 
 935:D:/Git/VL53L1/lib/core/src\vl53l1_api_core.c **** 	LOG_FUNCTION_END(status);
 1061              		.loc 1 935 26 is_stmt 1 view .LVU347
 936:D:/Git/VL53L1/lib/core/src\vl53l1_api_core.c **** 
 937:D:/Git/VL53L1/lib/core/src\vl53l1_api_core.c **** 	return status;
ARM GAS  C:\Users\Berbardo\AppData\Local\Temp\ccBMvrJ9.s 			page 37


 1062              		.loc 1 937 2 view .LVU348
 938:D:/Git/VL53L1/lib/core/src\vl53l1_api_core.c **** }
 1063              		.loc 1 938 1 is_stmt 0 view .LVU349
 1064 0024 0020     		movs	r0, #0
 1065              	.LVL93:
 1066              		.loc 1 938 1 view .LVU350
 1067 0026 7047     		bx	lr
 1068              		.cfi_endproc
 1069              	.LFE140:
 1071              		.section	.text.VL53L1_get_refspadchar_config_struct,"ax",%progbits
 1072              		.align	1
 1073              		.global	VL53L1_get_refspadchar_config_struct
 1074              		.syntax unified
 1075              		.thumb
 1076              		.thumb_func
 1077              		.fpu fpv4-sp-d16
 1079              	VL53L1_get_refspadchar_config_struct:
 1080              	.LVL94:
 1081              	.LFB141:
 939:D:/Git/VL53L1/lib/core/src\vl53l1_api_core.c **** #endif
 940:D:/Git/VL53L1/lib/core/src\vl53l1_api_core.c **** 
 941:D:/Git/VL53L1/lib/core/src\vl53l1_api_core.c **** #ifndef VL53L1_NOCALIB
 942:D:/Git/VL53L1/lib/core/src\vl53l1_api_core.c **** VL53L1_Error VL53L1_get_refspadchar_config_struct(
 943:D:/Git/VL53L1/lib/core/src\vl53l1_api_core.c **** 	VL53L1_DEV                     Dev,
 944:D:/Git/VL53L1/lib/core/src\vl53l1_api_core.c **** 	VL53L1_refspadchar_config_t   *pdata)
 945:D:/Git/VL53L1/lib/core/src\vl53l1_api_core.c **** {
 1082              		.loc 1 945 1 is_stmt 1 view -0
 1083              		.cfi_startproc
 1084              		@ args = 0, pretend = 0, frame = 0
 1085              		@ frame_needed = 0, uses_anonymous_args = 0
 1086              		@ link register save eliminated.
 946:D:/Git/VL53L1/lib/core/src\vl53l1_api_core.c **** 	/*
 947:D:/Git/VL53L1/lib/core/src\vl53l1_api_core.c **** 	 * Allows user config of Ref SPAD Char data structure
 948:D:/Git/VL53L1/lib/core/src\vl53l1_api_core.c **** 	 */
 949:D:/Git/VL53L1/lib/core/src\vl53l1_api_core.c **** 
 950:D:/Git/VL53L1/lib/core/src\vl53l1_api_core.c **** 	VL53L1_Error  status = VL53L1_ERROR_NONE;
 1087              		.loc 1 950 2 view .LVU352
 951:D:/Git/VL53L1/lib/core/src\vl53l1_api_core.c **** 	VL53L1_LLDriverData_t *pdev =
 1088              		.loc 1 951 2 view .LVU353
 952:D:/Git/VL53L1/lib/core/src\vl53l1_api_core.c **** 		VL53L1DevStructGetLLDriverHandle(Dev);
 953:D:/Git/VL53L1/lib/core/src\vl53l1_api_core.c **** 
 954:D:/Git/VL53L1/lib/core/src\vl53l1_api_core.c **** 	LOG_FUNCTION_START("");
 1089              		.loc 1 954 24 view .LVU354
 955:D:/Git/VL53L1/lib/core/src\vl53l1_api_core.c **** 
 956:D:/Git/VL53L1/lib/core/src\vl53l1_api_core.c **** 	pdata->device_test_mode       = pdev->refspadchar.device_test_mode;
 1090              		.loc 1 956 2 view .LVU355
 1091              		.loc 1 956 51 is_stmt 0 view .LVU356
 1092 0000 90F81031 		ldrb	r3, [r0, #272]	@ zero_extendqisi2
 1093              		.loc 1 956 32 view .LVU357
 1094 0004 0B70     		strb	r3, [r1]
 957:D:/Git/VL53L1/lib/core/src\vl53l1_api_core.c **** 	pdata->vcsel_period           = pdev->refspadchar.vcsel_period;
 1095              		.loc 1 957 2 is_stmt 1 view .LVU358
 1096              		.loc 1 957 51 is_stmt 0 view .LVU359
 1097 0006 90F81131 		ldrb	r3, [r0, #273]	@ zero_extendqisi2
 1098              		.loc 1 957 32 view .LVU360
 1099 000a 4B70     		strb	r3, [r1, #1]
 958:D:/Git/VL53L1/lib/core/src\vl53l1_api_core.c **** 	pdata->timeout_us             = pdev->refspadchar.timeout_us;
ARM GAS  C:\Users\Berbardo\AppData\Local\Temp\ccBMvrJ9.s 			page 38


 1100              		.loc 1 958 2 is_stmt 1 view .LVU361
 1101              		.loc 1 958 51 is_stmt 0 view .LVU362
 1102 000c D0F81431 		ldr	r3, [r0, #276]
 1103              		.loc 1 958 32 view .LVU363
 1104 0010 4B60     		str	r3, [r1, #4]
 959:D:/Git/VL53L1/lib/core/src\vl53l1_api_core.c **** 	pdata->target_count_rate_mcps = pdev->refspadchar.target_count_rate_mcps;
 1105              		.loc 1 959 2 is_stmt 1 view .LVU364
 1106              		.loc 1 959 51 is_stmt 0 view .LVU365
 1107 0012 B0F81831 		ldrh	r3, [r0, #280]
 1108              		.loc 1 959 32 view .LVU366
 1109 0016 0B81     		strh	r3, [r1, #8]	@ movhi
 960:D:/Git/VL53L1/lib/core/src\vl53l1_api_core.c **** 	pdata->min_count_rate_limit_mcps =
 1110              		.loc 1 960 2 is_stmt 1 view .LVU367
 961:D:/Git/VL53L1/lib/core/src\vl53l1_api_core.c **** 			pdev->refspadchar.min_count_rate_limit_mcps;
 1111              		.loc 1 961 21 is_stmt 0 view .LVU368
 1112 0018 B0F81A31 		ldrh	r3, [r0, #282]
 960:D:/Git/VL53L1/lib/core/src\vl53l1_api_core.c **** 	pdata->min_count_rate_limit_mcps =
 1113              		.loc 1 960 35 view .LVU369
 1114 001c 4B81     		strh	r3, [r1, #10]	@ movhi
 962:D:/Git/VL53L1/lib/core/src\vl53l1_api_core.c **** 	pdata->max_count_rate_limit_mcps =
 1115              		.loc 1 962 2 is_stmt 1 view .LVU370
 963:D:/Git/VL53L1/lib/core/src\vl53l1_api_core.c **** 			pdev->refspadchar.max_count_rate_limit_mcps;
 1116              		.loc 1 963 21 is_stmt 0 view .LVU371
 1117 001e B0F81C31 		ldrh	r3, [r0, #284]
 962:D:/Git/VL53L1/lib/core/src\vl53l1_api_core.c **** 	pdata->max_count_rate_limit_mcps =
 1118              		.loc 1 962 35 view .LVU372
 1119 0022 8B81     		strh	r3, [r1, #12]	@ movhi
 964:D:/Git/VL53L1/lib/core/src\vl53l1_api_core.c **** 
 965:D:/Git/VL53L1/lib/core/src\vl53l1_api_core.c **** 	LOG_FUNCTION_END(status);
 1120              		.loc 1 965 26 is_stmt 1 view .LVU373
 966:D:/Git/VL53L1/lib/core/src\vl53l1_api_core.c **** 
 967:D:/Git/VL53L1/lib/core/src\vl53l1_api_core.c **** 	return status;
 1121              		.loc 1 967 2 view .LVU374
 968:D:/Git/VL53L1/lib/core/src\vl53l1_api_core.c **** }
 1122              		.loc 1 968 1 is_stmt 0 view .LVU375
 1123 0024 0020     		movs	r0, #0
 1124              	.LVL95:
 1125              		.loc 1 968 1 view .LVU376
 1126 0026 7047     		bx	lr
 1127              		.cfi_endproc
 1128              	.LFE141:
 1130              		.section	.text.VL53L1_set_range_ignore_threshold,"ax",%progbits
 1131              		.align	1
 1132              		.global	VL53L1_set_range_ignore_threshold
 1133              		.syntax unified
 1134              		.thumb
 1135              		.thumb_func
 1136              		.fpu fpv4-sp-d16
 1138              	VL53L1_set_range_ignore_threshold:
 1139              	.LVL96:
 1140              	.LFB142:
 969:D:/Git/VL53L1/lib/core/src\vl53l1_api_core.c **** #endif
 970:D:/Git/VL53L1/lib/core/src\vl53l1_api_core.c **** 
 971:D:/Git/VL53L1/lib/core/src\vl53l1_api_core.c **** 
 972:D:/Git/VL53L1/lib/core/src\vl53l1_api_core.c **** VL53L1_Error VL53L1_set_range_ignore_threshold(
 973:D:/Git/VL53L1/lib/core/src\vl53l1_api_core.c **** 	VL53L1_DEV              Dev,
 974:D:/Git/VL53L1/lib/core/src\vl53l1_api_core.c **** 	uint8_t                 range_ignore_thresh_mult,
ARM GAS  C:\Users\Berbardo\AppData\Local\Temp\ccBMvrJ9.s 			page 39


 975:D:/Git/VL53L1/lib/core/src\vl53l1_api_core.c **** 	uint16_t                range_ignore_threshold_mcps)
 976:D:/Git/VL53L1/lib/core/src\vl53l1_api_core.c **** {
 1141              		.loc 1 976 1 is_stmt 1 view -0
 1142              		.cfi_startproc
 1143              		@ args = 0, pretend = 0, frame = 0
 1144              		@ frame_needed = 0, uses_anonymous_args = 0
 1145              		@ link register save eliminated.
 977:D:/Git/VL53L1/lib/core/src\vl53l1_api_core.c **** 	/**
 978:D:/Git/VL53L1/lib/core/src\vl53l1_api_core.c **** 	 * Convenience function for setting Range Ignore Threshold
 979:D:/Git/VL53L1/lib/core/src\vl53l1_api_core.c **** 	 */
 980:D:/Git/VL53L1/lib/core/src\vl53l1_api_core.c **** 
 981:D:/Git/VL53L1/lib/core/src\vl53l1_api_core.c **** 	VL53L1_Error  status = VL53L1_ERROR_NONE;
 1146              		.loc 1 981 2 view .LVU378
 982:D:/Git/VL53L1/lib/core/src\vl53l1_api_core.c **** 	VL53L1_LLDriverData_t *pdev =
 1147              		.loc 1 982 2 view .LVU379
 983:D:/Git/VL53L1/lib/core/src\vl53l1_api_core.c **** 		VL53L1DevStructGetLLDriverHandle(Dev);
 984:D:/Git/VL53L1/lib/core/src\vl53l1_api_core.c **** 
 985:D:/Git/VL53L1/lib/core/src\vl53l1_api_core.c **** 	pdev->xtalk_cfg.crosstalk_range_ignore_threshold_rate_mcps =
 1148              		.loc 1 985 2 view .LVU380
 1149              		.loc 1 985 61 is_stmt 0 view .LVU381
 1150 0000 A0F84221 		strh	r2, [r0, #322]	@ movhi
 986:D:/Git/VL53L1/lib/core/src\vl53l1_api_core.c **** 		range_ignore_threshold_mcps;
 987:D:/Git/VL53L1/lib/core/src\vl53l1_api_core.c **** 
 988:D:/Git/VL53L1/lib/core/src\vl53l1_api_core.c **** 	pdev->xtalk_cfg.crosstalk_range_ignore_threshold_mult =
 1151              		.loc 1 988 2 is_stmt 1 view .LVU382
 1152              		.loc 1 988 56 is_stmt 0 view .LVU383
 1153 0004 80F84011 		strb	r1, [r0, #320]
 989:D:/Git/VL53L1/lib/core/src\vl53l1_api_core.c **** 		range_ignore_thresh_mult;
 990:D:/Git/VL53L1/lib/core/src\vl53l1_api_core.c **** 
 991:D:/Git/VL53L1/lib/core/src\vl53l1_api_core.c **** 	return status;
 1154              		.loc 1 991 2 is_stmt 1 view .LVU384
 992:D:/Git/VL53L1/lib/core/src\vl53l1_api_core.c **** 
 993:D:/Git/VL53L1/lib/core/src\vl53l1_api_core.c **** }
 1155              		.loc 1 993 1 is_stmt 0 view .LVU385
 1156 0008 0020     		movs	r0, #0
 1157              	.LVL97:
 1158              		.loc 1 993 1 view .LVU386
 1159 000a 7047     		bx	lr
 1160              		.cfi_endproc
 1161              	.LFE142:
 1163              		.section	.text.VL53L1_get_range_ignore_threshold,"ax",%progbits
 1164              		.align	1
 1165              		.global	VL53L1_get_range_ignore_threshold
 1166              		.syntax unified
 1167              		.thumb
 1168              		.thumb_func
 1169              		.fpu fpv4-sp-d16
 1171              	VL53L1_get_range_ignore_threshold:
 1172              	.LVL98:
 1173              	.LFB143:
 994:D:/Git/VL53L1/lib/core/src\vl53l1_api_core.c **** 
 995:D:/Git/VL53L1/lib/core/src\vl53l1_api_core.c **** VL53L1_Error VL53L1_get_range_ignore_threshold(
 996:D:/Git/VL53L1/lib/core/src\vl53l1_api_core.c **** 	VL53L1_DEV              Dev,
 997:D:/Git/VL53L1/lib/core/src\vl53l1_api_core.c **** 	uint8_t                *prange_ignore_thresh_mult,
 998:D:/Git/VL53L1/lib/core/src\vl53l1_api_core.c **** 	uint16_t               *prange_ignore_threshold_mcps_internal,
 999:D:/Git/VL53L1/lib/core/src\vl53l1_api_core.c **** 	uint16_t               *prange_ignore_threshold_mcps_current)
1000:D:/Git/VL53L1/lib/core/src\vl53l1_api_core.c **** {
ARM GAS  C:\Users\Berbardo\AppData\Local\Temp\ccBMvrJ9.s 			page 40


 1174              		.loc 1 1000 1 is_stmt 1 view -0
 1175              		.cfi_startproc
 1176              		@ args = 0, pretend = 0, frame = 0
 1177              		@ frame_needed = 0, uses_anonymous_args = 0
 1178              		@ link register save eliminated.
 1179              		.loc 1 1000 1 is_stmt 0 view .LVU388
 1180 0000 10B4     		push	{r4}
 1181              		.cfi_def_cfa_offset 4
 1182              		.cfi_offset 4, -4
1001:D:/Git/VL53L1/lib/core/src\vl53l1_api_core.c **** 	/**
1002:D:/Git/VL53L1/lib/core/src\vl53l1_api_core.c **** 	 * Convenience function for retrieving Range Ignore Threshold
1003:D:/Git/VL53L1/lib/core/src\vl53l1_api_core.c **** 	 * - Returns both the calculated internal value
1004:D:/Git/VL53L1/lib/core/src\vl53l1_api_core.c **** 	 * - and the value currently applied to device reg settings
1005:D:/Git/VL53L1/lib/core/src\vl53l1_api_core.c **** 	 *
1006:D:/Git/VL53L1/lib/core/src\vl53l1_api_core.c **** 	 * Values both in fixed point 3.13 Mcps per spad
1007:D:/Git/VL53L1/lib/core/src\vl53l1_api_core.c **** 	 *
1008:D:/Git/VL53L1/lib/core/src\vl53l1_api_core.c **** 	 */
1009:D:/Git/VL53L1/lib/core/src\vl53l1_api_core.c **** 
1010:D:/Git/VL53L1/lib/core/src\vl53l1_api_core.c **** 	VL53L1_Error  status = VL53L1_ERROR_NONE;
 1183              		.loc 1 1010 2 is_stmt 1 view .LVU389
 1184              	.LVL99:
1011:D:/Git/VL53L1/lib/core/src\vl53l1_api_core.c **** 	VL53L1_LLDriverData_t *pdev =
 1185              		.loc 1 1011 2 view .LVU390
1012:D:/Git/VL53L1/lib/core/src\vl53l1_api_core.c **** 		VL53L1DevStructGetLLDriverHandle(Dev);
1013:D:/Git/VL53L1/lib/core/src\vl53l1_api_core.c **** 
1014:D:/Git/VL53L1/lib/core/src\vl53l1_api_core.c **** 	*prange_ignore_thresh_mult =
 1186              		.loc 1 1014 2 view .LVU391
1015:D:/Git/VL53L1/lib/core/src\vl53l1_api_core.c **** 	    pdev->xtalk_cfg.crosstalk_range_ignore_threshold_mult;
 1187              		.loc 1 1015 21 is_stmt 0 view .LVU392
 1188 0002 90F84041 		ldrb	r4, [r0, #320]	@ zero_extendqisi2
1014:D:/Git/VL53L1/lib/core/src\vl53l1_api_core.c **** 	    pdev->xtalk_cfg.crosstalk_range_ignore_threshold_mult;
 1189              		.loc 1 1014 29 view .LVU393
 1190 0006 0C70     		strb	r4, [r1]
1016:D:/Git/VL53L1/lib/core/src\vl53l1_api_core.c **** 
1017:D:/Git/VL53L1/lib/core/src\vl53l1_api_core.c **** 	*prange_ignore_threshold_mcps_current =
 1191              		.loc 1 1017 2 is_stmt 1 view .LVU394
1018:D:/Git/VL53L1/lib/core/src\vl53l1_api_core.c **** 		pdev->stat_cfg.algo__range_ignore_threshold_mcps;
 1192              		.loc 1 1018 17 is_stmt 0 view .LVU395
 1193 0008 B0F87C11 		ldrh	r1, [r0, #380]
 1194              	.LVL100:
1017:D:/Git/VL53L1/lib/core/src\vl53l1_api_core.c **** 		pdev->stat_cfg.algo__range_ignore_threshold_mcps;
 1195              		.loc 1 1017 40 view .LVU396
 1196 000c 1980     		strh	r1, [r3]	@ movhi
1019:D:/Git/VL53L1/lib/core/src\vl53l1_api_core.c **** 
1020:D:/Git/VL53L1/lib/core/src\vl53l1_api_core.c **** 	*prange_ignore_threshold_mcps_internal =
 1197              		.loc 1 1020 2 is_stmt 1 view .LVU397
1021:D:/Git/VL53L1/lib/core/src\vl53l1_api_core.c **** 		pdev->xtalk_cfg.crosstalk_range_ignore_threshold_rate_mcps;
 1198              		.loc 1 1021 18 is_stmt 0 view .LVU398
 1199 000e B0F84231 		ldrh	r3, [r0, #322]
 1200              	.LVL101:
1020:D:/Git/VL53L1/lib/core/src\vl53l1_api_core.c **** 		pdev->xtalk_cfg.crosstalk_range_ignore_threshold_rate_mcps;
 1201              		.loc 1 1020 41 view .LVU399
 1202 0012 1380     		strh	r3, [r2]	@ movhi
1022:D:/Git/VL53L1/lib/core/src\vl53l1_api_core.c **** 
1023:D:/Git/VL53L1/lib/core/src\vl53l1_api_core.c **** 	return status;
 1203              		.loc 1 1023 2 is_stmt 1 view .LVU400
1024:D:/Git/VL53L1/lib/core/src\vl53l1_api_core.c **** 
ARM GAS  C:\Users\Berbardo\AppData\Local\Temp\ccBMvrJ9.s 			page 41


1025:D:/Git/VL53L1/lib/core/src\vl53l1_api_core.c **** }
 1204              		.loc 1 1025 1 is_stmt 0 view .LVU401
 1205 0014 0020     		movs	r0, #0
 1206              	.LVL102:
 1207              		.loc 1 1025 1 view .LVU402
 1208 0016 5DF8044B 		ldr	r4, [sp], #4
 1209              		.cfi_restore 4
 1210              		.cfi_def_cfa_offset 0
 1211 001a 7047     		bx	lr
 1212              		.cfi_endproc
 1213              	.LFE143:
 1215              		.section	.text.VL53L1_get_interrupt_polarity,"ax",%progbits
 1216              		.align	1
 1217              		.global	VL53L1_get_interrupt_polarity
 1218              		.syntax unified
 1219              		.thumb
 1220              		.thumb_func
 1221              		.fpu fpv4-sp-d16
 1223              	VL53L1_get_interrupt_polarity:
 1224              	.LVL103:
 1225              	.LFB144:
1026:D:/Git/VL53L1/lib/core/src\vl53l1_api_core.c **** 
1027:D:/Git/VL53L1/lib/core/src\vl53l1_api_core.c **** 
1028:D:/Git/VL53L1/lib/core/src\vl53l1_api_core.c **** 
1029:D:/Git/VL53L1/lib/core/src\vl53l1_api_core.c **** VL53L1_Error VL53L1_get_interrupt_polarity(
1030:D:/Git/VL53L1/lib/core/src\vl53l1_api_core.c **** 	VL53L1_DEV                       Dev,
1031:D:/Git/VL53L1/lib/core/src\vl53l1_api_core.c **** 	VL53L1_DeviceInterruptPolarity  *pinterrupt_polarity)
1032:D:/Git/VL53L1/lib/core/src\vl53l1_api_core.c **** {
 1226              		.loc 1 1032 1 is_stmt 1 view -0
 1227              		.cfi_startproc
 1228              		@ args = 0, pretend = 0, frame = 0
 1229              		@ frame_needed = 0, uses_anonymous_args = 0
 1230              		@ link register save eliminated.
1033:D:/Git/VL53L1/lib/core/src\vl53l1_api_core.c **** 	/**
1034:D:/Git/VL53L1/lib/core/src\vl53l1_api_core.c **** 	 * Convenience function for getting interrupt polarity
1035:D:/Git/VL53L1/lib/core/src\vl53l1_api_core.c **** 	 */
1036:D:/Git/VL53L1/lib/core/src\vl53l1_api_core.c **** 
1037:D:/Git/VL53L1/lib/core/src\vl53l1_api_core.c **** 	VL53L1_Error  status = VL53L1_ERROR_NONE;
 1231              		.loc 1 1037 2 view .LVU404
1038:D:/Git/VL53L1/lib/core/src\vl53l1_api_core.c **** 	VL53L1_LLDriverData_t *pdev =
 1232              		.loc 1 1038 2 view .LVU405
1039:D:/Git/VL53L1/lib/core/src\vl53l1_api_core.c **** 		VL53L1DevStructGetLLDriverHandle(Dev);
1040:D:/Git/VL53L1/lib/core/src\vl53l1_api_core.c **** 
1041:D:/Git/VL53L1/lib/core/src\vl53l1_api_core.c **** 	*pinterrupt_polarity = \
 1233              		.loc 1 1041 2 view .LVU406
1042:D:/Git/VL53L1/lib/core/src\vl53l1_api_core.c **** 		pdev->stat_cfg.gpio_hv_mux__ctrl & \
 1234              		.loc 1 1042 17 is_stmt 0 view .LVU407
 1235 0000 90F87031 		ldrb	r3, [r0, #368]	@ zero_extendqisi2
 1236              		.loc 1 1042 36 view .LVU408
 1237 0004 03F01003 		and	r3, r3, #16
1041:D:/Git/VL53L1/lib/core/src\vl53l1_api_core.c **** 		pdev->stat_cfg.gpio_hv_mux__ctrl & \
 1238              		.loc 1 1041 23 view .LVU409
 1239 0008 0B70     		strb	r3, [r1]
1043:D:/Git/VL53L1/lib/core/src\vl53l1_api_core.c **** 		VL53L1_DEVICEINTERRUPTPOLARITY_BIT_MASK ;
1044:D:/Git/VL53L1/lib/core/src\vl53l1_api_core.c **** 
1045:D:/Git/VL53L1/lib/core/src\vl53l1_api_core.c **** 	return status;
 1240              		.loc 1 1045 2 is_stmt 1 view .LVU410
ARM GAS  C:\Users\Berbardo\AppData\Local\Temp\ccBMvrJ9.s 			page 42


1046:D:/Git/VL53L1/lib/core/src\vl53l1_api_core.c **** 
1047:D:/Git/VL53L1/lib/core/src\vl53l1_api_core.c **** }
 1241              		.loc 1 1047 1 is_stmt 0 view .LVU411
 1242 000a 0020     		movs	r0, #0
 1243              	.LVL104:
 1244              		.loc 1 1047 1 view .LVU412
 1245 000c 7047     		bx	lr
 1246              		.cfi_endproc
 1247              	.LFE144:
 1249              		.section	.text.VL53L1_set_user_zone,"ax",%progbits
 1250              		.align	1
 1251              		.global	VL53L1_set_user_zone
 1252              		.syntax unified
 1253              		.thumb
 1254              		.thumb_func
 1255              		.fpu fpv4-sp-d16
 1257              	VL53L1_set_user_zone:
 1258              	.LVL105:
 1259              	.LFB145:
1048:D:/Git/VL53L1/lib/core/src\vl53l1_api_core.c **** 
1049:D:/Git/VL53L1/lib/core/src\vl53l1_api_core.c **** 
1050:D:/Git/VL53L1/lib/core/src\vl53l1_api_core.c **** VL53L1_Error VL53L1_set_user_zone(
1051:D:/Git/VL53L1/lib/core/src\vl53l1_api_core.c **** 	VL53L1_DEV              Dev,
1052:D:/Git/VL53L1/lib/core/src\vl53l1_api_core.c **** 	VL53L1_user_zone_t     *puser_zone)
1053:D:/Git/VL53L1/lib/core/src\vl53l1_api_core.c **** {
 1260              		.loc 1 1053 1 is_stmt 1 view -0
 1261              		.cfi_startproc
 1262              		@ args = 0, pretend = 0, frame = 0
 1263              		@ frame_needed = 0, uses_anonymous_args = 0
 1264              		.loc 1 1053 1 is_stmt 0 view .LVU414
 1265 0000 38B5     		push	{r3, r4, r5, lr}
 1266              		.cfi_def_cfa_offset 16
 1267              		.cfi_offset 3, -16
 1268              		.cfi_offset 4, -12
 1269              		.cfi_offset 5, -8
 1270              		.cfi_offset 14, -4
 1271 0002 0546     		mov	r5, r0
 1272 0004 0C46     		mov	r4, r1
1054:D:/Git/VL53L1/lib/core/src\vl53l1_api_core.c **** 	/**
1055:D:/Git/VL53L1/lib/core/src\vl53l1_api_core.c **** 	 * Convenience function for setting the user ROI
1056:D:/Git/VL53L1/lib/core/src\vl53l1_api_core.c **** 	 */
1057:D:/Git/VL53L1/lib/core/src\vl53l1_api_core.c **** 
1058:D:/Git/VL53L1/lib/core/src\vl53l1_api_core.c **** 	VL53L1_Error  status = VL53L1_ERROR_NONE;
 1273              		.loc 1 1058 2 is_stmt 1 view .LVU415
 1274              	.LVL106:
1059:D:/Git/VL53L1/lib/core/src\vl53l1_api_core.c **** 	VL53L1_LLDriverData_t *pdev = VL53L1DevStructGetLLDriverHandle(Dev);
 1275              		.loc 1 1059 2 view .LVU416
1060:D:/Git/VL53L1/lib/core/src\vl53l1_api_core.c **** 
1061:D:/Git/VL53L1/lib/core/src\vl53l1_api_core.c **** 	LOG_FUNCTION_START("");
 1276              		.loc 1 1061 24 view .LVU417
1062:D:/Git/VL53L1/lib/core/src\vl53l1_api_core.c **** 
1063:D:/Git/VL53L1/lib/core/src\vl53l1_api_core.c **** 	/* convert (row,col) location into a SPAD number */
1064:D:/Git/VL53L1/lib/core/src\vl53l1_api_core.c **** 	VL53L1_encode_row_col(
 1277              		.loc 1 1064 2 view .LVU418
 1278 0006 00F2C312 		addw	r2, r0, #451
 1279 000a 0978     		ldrb	r1, [r1]	@ zero_extendqisi2
 1280              	.LVL107:
ARM GAS  C:\Users\Berbardo\AppData\Local\Temp\ccBMvrJ9.s 			page 43


 1281              		.loc 1 1064 2 is_stmt 0 view .LVU419
 1282 000c 6078     		ldrb	r0, [r4, #1]	@ zero_extendqisi2
 1283              	.LVL108:
 1284              		.loc 1 1064 2 view .LVU420
 1285 000e FFF7FEFF 		bl	VL53L1_encode_row_col
 1286              	.LVL109:
1065:D:/Git/VL53L1/lib/core/src\vl53l1_api_core.c **** 		puser_zone->y_centre,
1066:D:/Git/VL53L1/lib/core/src\vl53l1_api_core.c **** 		puser_zone->x_centre,
1067:D:/Git/VL53L1/lib/core/src\vl53l1_api_core.c **** 		&(pdev->dyn_cfg.roi_config__user_roi_centre_spad));
1068:D:/Git/VL53L1/lib/core/src\vl53l1_api_core.c **** 
1069:D:/Git/VL53L1/lib/core/src\vl53l1_api_core.c **** 	/* merge x and y sizes */
1070:D:/Git/VL53L1/lib/core/src\vl53l1_api_core.c **** 	VL53L1_encode_zone_size(
 1287              		.loc 1 1070 2 is_stmt 1 view .LVU421
 1288 0012 05F5E272 		add	r2, r5, #452
 1289 0016 E178     		ldrb	r1, [r4, #3]	@ zero_extendqisi2
 1290 0018 A078     		ldrb	r0, [r4, #2]	@ zero_extendqisi2
 1291 001a FFF7FEFF 		bl	VL53L1_encode_zone_size
 1292              	.LVL110:
1071:D:/Git/VL53L1/lib/core/src\vl53l1_api_core.c **** 		puser_zone->width,
1072:D:/Git/VL53L1/lib/core/src\vl53l1_api_core.c **** 		puser_zone->height,
1073:D:/Git/VL53L1/lib/core/src\vl53l1_api_core.c **** 		&(pdev->dyn_cfg.roi_config__user_roi_requested_global_xy_size));
1074:D:/Git/VL53L1/lib/core/src\vl53l1_api_core.c **** 
1075:D:/Git/VL53L1/lib/core/src\vl53l1_api_core.c **** 	/* need to add checks to ensure ROI is within array */
1076:D:/Git/VL53L1/lib/core/src\vl53l1_api_core.c **** 
1077:D:/Git/VL53L1/lib/core/src\vl53l1_api_core.c **** 	LOG_FUNCTION_END(status);
 1293              		.loc 1 1077 26 view .LVU422
1078:D:/Git/VL53L1/lib/core/src\vl53l1_api_core.c **** 
1079:D:/Git/VL53L1/lib/core/src\vl53l1_api_core.c **** 	return status;
 1294              		.loc 1 1079 2 view .LVU423
1080:D:/Git/VL53L1/lib/core/src\vl53l1_api_core.c **** }
 1295              		.loc 1 1080 1 is_stmt 0 view .LVU424
 1296 001e 0020     		movs	r0, #0
 1297 0020 38BD     		pop	{r3, r4, r5, pc}
 1298              		.loc 1 1080 1 view .LVU425
 1299              		.cfi_endproc
 1300              	.LFE145:
 1302              		.section	.text.VL53L1_get_user_zone,"ax",%progbits
 1303              		.align	1
 1304              		.global	VL53L1_get_user_zone
 1305              		.syntax unified
 1306              		.thumb
 1307              		.thumb_func
 1308              		.fpu fpv4-sp-d16
 1310              	VL53L1_get_user_zone:
 1311              	.LVL111:
 1312              	.LFB146:
1081:D:/Git/VL53L1/lib/core/src\vl53l1_api_core.c **** 
1082:D:/Git/VL53L1/lib/core/src\vl53l1_api_core.c **** 
1083:D:/Git/VL53L1/lib/core/src\vl53l1_api_core.c **** VL53L1_Error VL53L1_get_user_zone(
1084:D:/Git/VL53L1/lib/core/src\vl53l1_api_core.c **** 	VL53L1_DEV              Dev,
1085:D:/Git/VL53L1/lib/core/src\vl53l1_api_core.c **** 	VL53L1_user_zone_t     *puser_zone)
1086:D:/Git/VL53L1/lib/core/src\vl53l1_api_core.c **** {
 1313              		.loc 1 1086 1 is_stmt 1 view -0
 1314              		.cfi_startproc
 1315              		@ args = 0, pretend = 0, frame = 0
 1316              		@ frame_needed = 0, uses_anonymous_args = 0
 1317              		.loc 1 1086 1 is_stmt 0 view .LVU427
ARM GAS  C:\Users\Berbardo\AppData\Local\Temp\ccBMvrJ9.s 			page 44


 1318 0000 38B5     		push	{r3, r4, r5, lr}
 1319              		.cfi_def_cfa_offset 16
 1320              		.cfi_offset 3, -16
 1321              		.cfi_offset 4, -12
 1322              		.cfi_offset 5, -8
 1323              		.cfi_offset 14, -4
 1324 0002 0546     		mov	r5, r0
 1325 0004 0C46     		mov	r4, r1
1087:D:/Git/VL53L1/lib/core/src\vl53l1_api_core.c **** 	/**
1088:D:/Git/VL53L1/lib/core/src\vl53l1_api_core.c **** 	 * Convenience function for getting the user ROI
1089:D:/Git/VL53L1/lib/core/src\vl53l1_api_core.c **** 	 */
1090:D:/Git/VL53L1/lib/core/src\vl53l1_api_core.c **** 
1091:D:/Git/VL53L1/lib/core/src\vl53l1_api_core.c **** 	VL53L1_Error  status = VL53L1_ERROR_NONE;
 1326              		.loc 1 1091 2 is_stmt 1 view .LVU428
 1327              	.LVL112:
1092:D:/Git/VL53L1/lib/core/src\vl53l1_api_core.c **** 	VL53L1_LLDriverData_t *pdev = VL53L1DevStructGetLLDriverHandle(Dev);
 1328              		.loc 1 1092 2 view .LVU429
1093:D:/Git/VL53L1/lib/core/src\vl53l1_api_core.c **** 
1094:D:/Git/VL53L1/lib/core/src\vl53l1_api_core.c **** 	LOG_FUNCTION_START("");
 1329              		.loc 1 1094 24 view .LVU430
1095:D:/Git/VL53L1/lib/core/src\vl53l1_api_core.c **** 
1096:D:/Git/VL53L1/lib/core/src\vl53l1_api_core.c **** 	/* convert SPAD number into (row,col) location*/
1097:D:/Git/VL53L1/lib/core/src\vl53l1_api_core.c **** 	VL53L1_decode_row_col(
 1330              		.loc 1 1097 2 view .LVU431
 1331 0006 0A46     		mov	r2, r1
 1332 0008 0131     		adds	r1, r1, #1
 1333              	.LVL113:
 1334              		.loc 1 1097 2 is_stmt 0 view .LVU432
 1335 000a 90F8C301 		ldrb	r0, [r0, #451]	@ zero_extendqisi2
 1336              	.LVL114:
 1337              		.loc 1 1097 2 view .LVU433
 1338 000e FFF7FEFF 		bl	VL53L1_decode_row_col
 1339              	.LVL115:
1098:D:/Git/VL53L1/lib/core/src\vl53l1_api_core.c **** 			pdev->dyn_cfg.roi_config__user_roi_centre_spad,
1099:D:/Git/VL53L1/lib/core/src\vl53l1_api_core.c **** 			&(puser_zone->y_centre),
1100:D:/Git/VL53L1/lib/core/src\vl53l1_api_core.c **** 			&(puser_zone->x_centre));
1101:D:/Git/VL53L1/lib/core/src\vl53l1_api_core.c **** 
1102:D:/Git/VL53L1/lib/core/src\vl53l1_api_core.c **** 	/* extract x and y sizes */
1103:D:/Git/VL53L1/lib/core/src\vl53l1_api_core.c **** 	VL53L1_decode_zone_size(
 1340              		.loc 1 1103 2 is_stmt 1 view .LVU434
 1341 0012 E21C     		adds	r2, r4, #3
 1342 0014 A11C     		adds	r1, r4, #2
 1343 0016 95F8C401 		ldrb	r0, [r5, #452]	@ zero_extendqisi2
 1344 001a FFF7FEFF 		bl	VL53L1_decode_zone_size
 1345              	.LVL116:
1104:D:/Git/VL53L1/lib/core/src\vl53l1_api_core.c **** 		pdev->dyn_cfg.roi_config__user_roi_requested_global_xy_size,
1105:D:/Git/VL53L1/lib/core/src\vl53l1_api_core.c **** 		&(puser_zone->width),
1106:D:/Git/VL53L1/lib/core/src\vl53l1_api_core.c **** 		&(puser_zone->height));
1107:D:/Git/VL53L1/lib/core/src\vl53l1_api_core.c **** 
1108:D:/Git/VL53L1/lib/core/src\vl53l1_api_core.c **** 	LOG_FUNCTION_END(status);
 1346              		.loc 1 1108 26 view .LVU435
1109:D:/Git/VL53L1/lib/core/src\vl53l1_api_core.c **** 
1110:D:/Git/VL53L1/lib/core/src\vl53l1_api_core.c **** 	return status;
 1347              		.loc 1 1110 2 view .LVU436
1111:D:/Git/VL53L1/lib/core/src\vl53l1_api_core.c **** }
 1348              		.loc 1 1111 1 is_stmt 0 view .LVU437
 1349 001e 0020     		movs	r0, #0
ARM GAS  C:\Users\Berbardo\AppData\Local\Temp\ccBMvrJ9.s 			page 45


 1350 0020 38BD     		pop	{r3, r4, r5, pc}
 1351              		.loc 1 1111 1 view .LVU438
 1352              		.cfi_endproc
 1353              	.LFE146:
 1355              		.section	.text.VL53L1_get_mode_mitigation_roi,"ax",%progbits
 1356              		.align	1
 1357              		.global	VL53L1_get_mode_mitigation_roi
 1358              		.syntax unified
 1359              		.thumb
 1360              		.thumb_func
 1361              		.fpu fpv4-sp-d16
 1363              	VL53L1_get_mode_mitigation_roi:
 1364              	.LVL117:
 1365              	.LFB147:
1112:D:/Git/VL53L1/lib/core/src\vl53l1_api_core.c **** 
1113:D:/Git/VL53L1/lib/core/src\vl53l1_api_core.c **** 
1114:D:/Git/VL53L1/lib/core/src\vl53l1_api_core.c **** 
1115:D:/Git/VL53L1/lib/core/src\vl53l1_api_core.c **** VL53L1_Error VL53L1_get_mode_mitigation_roi(
1116:D:/Git/VL53L1/lib/core/src\vl53l1_api_core.c **** 	VL53L1_DEV              Dev,
1117:D:/Git/VL53L1/lib/core/src\vl53l1_api_core.c **** 	VL53L1_user_zone_t     *pmm_roi)
1118:D:/Git/VL53L1/lib/core/src\vl53l1_api_core.c **** {
 1366              		.loc 1 1118 1 is_stmt 1 view -0
 1367              		.cfi_startproc
 1368              		@ args = 0, pretend = 0, frame = 8
 1369              		@ frame_needed = 0, uses_anonymous_args = 0
 1370              		.loc 1 1118 1 is_stmt 0 view .LVU440
 1371 0000 70B5     		push	{r4, r5, r6, lr}
 1372              		.cfi_def_cfa_offset 16
 1373              		.cfi_offset 4, -16
 1374              		.cfi_offset 5, -12
 1375              		.cfi_offset 6, -8
 1376              		.cfi_offset 14, -4
 1377 0002 82B0     		sub	sp, sp, #8
 1378              		.cfi_def_cfa_offset 24
 1379 0004 0646     		mov	r6, r0
 1380 0006 0C46     		mov	r4, r1
1119:D:/Git/VL53L1/lib/core/src\vl53l1_api_core.c **** 	/**
1120:D:/Git/VL53L1/lib/core/src\vl53l1_api_core.c **** 	 * Convenience function for getting the mode mitigation ROI
1121:D:/Git/VL53L1/lib/core/src\vl53l1_api_core.c **** 	 */
1122:D:/Git/VL53L1/lib/core/src\vl53l1_api_core.c **** 
1123:D:/Git/VL53L1/lib/core/src\vl53l1_api_core.c **** 	VL53L1_Error  status = VL53L1_ERROR_NONE;
 1381              		.loc 1 1123 2 is_stmt 1 view .LVU441
 1382              	.LVL118:
1124:D:/Git/VL53L1/lib/core/src\vl53l1_api_core.c **** 	VL53L1_LLDriverData_t *pdev = VL53L1DevStructGetLLDriverHandle(Dev);
 1383              		.loc 1 1124 2 view .LVU442
1125:D:/Git/VL53L1/lib/core/src\vl53l1_api_core.c **** 
1126:D:/Git/VL53L1/lib/core/src\vl53l1_api_core.c **** 	uint8_t  x       = 0;
 1384              		.loc 1 1126 2 view .LVU443
 1385              		.loc 1 1126 11 is_stmt 0 view .LVU444
 1386 0008 0025     		movs	r5, #0
 1387 000a 8DF80750 		strb	r5, [sp, #7]
1127:D:/Git/VL53L1/lib/core/src\vl53l1_api_core.c **** 	uint8_t  y       = 0;
 1388              		.loc 1 1127 2 is_stmt 1 view .LVU445
 1389              		.loc 1 1127 11 is_stmt 0 view .LVU446
 1390 000e 8DF80650 		strb	r5, [sp, #6]
1128:D:/Git/VL53L1/lib/core/src\vl53l1_api_core.c **** 	uint8_t  xy_size = 0;
 1391              		.loc 1 1128 2 is_stmt 1 view .LVU447
ARM GAS  C:\Users\Berbardo\AppData\Local\Temp\ccBMvrJ9.s 			page 46


 1392              	.LVL119:
1129:D:/Git/VL53L1/lib/core/src\vl53l1_api_core.c **** 
1130:D:/Git/VL53L1/lib/core/src\vl53l1_api_core.c **** 	LOG_FUNCTION_START("");
 1393              		.loc 1 1130 24 view .LVU448
1131:D:/Git/VL53L1/lib/core/src\vl53l1_api_core.c **** 
1132:D:/Git/VL53L1/lib/core/src\vl53l1_api_core.c **** 	/* convert SPAD number into (row,col) location */
1133:D:/Git/VL53L1/lib/core/src\vl53l1_api_core.c **** 	VL53L1_decode_row_col(
 1394              		.loc 1 1133 2 view .LVU449
 1395 0012 0DF10702 		add	r2, sp, #7
 1396 0016 0DF10601 		add	r1, sp, #6
 1397              	.LVL120:
 1398              		.loc 1 1133 2 is_stmt 0 view .LVU450
 1399 001a 90F82A02 		ldrb	r0, [r0, #554]	@ zero_extendqisi2
 1400              	.LVL121:
 1401              		.loc 1 1133 2 view .LVU451
 1402 001e FFF7FEFF 		bl	VL53L1_decode_row_col
 1403              	.LVL122:
1134:D:/Git/VL53L1/lib/core/src\vl53l1_api_core.c **** 			pdev->nvm_copy_data.roi_config__mode_roi_centre_spad,
1135:D:/Git/VL53L1/lib/core/src\vl53l1_api_core.c **** 			&y,
1136:D:/Git/VL53L1/lib/core/src\vl53l1_api_core.c **** 			&x);
1137:D:/Git/VL53L1/lib/core/src\vl53l1_api_core.c **** 
1138:D:/Git/VL53L1/lib/core/src\vl53l1_api_core.c **** 	pmm_roi->x_centre = x;
 1404              		.loc 1 1138 2 is_stmt 1 view .LVU452
 1405              		.loc 1 1138 20 is_stmt 0 view .LVU453
 1406 0022 9DF80730 		ldrb	r3, [sp, #7]	@ zero_extendqisi2
 1407 0026 2370     		strb	r3, [r4]
1139:D:/Git/VL53L1/lib/core/src\vl53l1_api_core.c **** 	pmm_roi->y_centre = y;
 1408              		.loc 1 1139 2 is_stmt 1 view .LVU454
 1409              		.loc 1 1139 20 is_stmt 0 view .LVU455
 1410 0028 9DF80630 		ldrb	r3, [sp, #6]	@ zero_extendqisi2
 1411 002c 6370     		strb	r3, [r4, #1]
1140:D:/Git/VL53L1/lib/core/src\vl53l1_api_core.c **** 
1141:D:/Git/VL53L1/lib/core/src\vl53l1_api_core.c **** 	/* extract x and y sizes
1142:D:/Git/VL53L1/lib/core/src\vl53l1_api_core.c **** 	 *
1143:D:/Git/VL53L1/lib/core/src\vl53l1_api_core.c **** 	 * Important: the sense of the device width and height is swapped
1144:D:/Git/VL53L1/lib/core/src\vl53l1_api_core.c **** 	 * versus the API sense
1145:D:/Git/VL53L1/lib/core/src\vl53l1_api_core.c **** 	 *
1146:D:/Git/VL53L1/lib/core/src\vl53l1_api_core.c **** 	 * MS Nibble = height
1147:D:/Git/VL53L1/lib/core/src\vl53l1_api_core.c **** 	 * LS Nibble = width
1148:D:/Git/VL53L1/lib/core/src\vl53l1_api_core.c **** 	 */
1149:D:/Git/VL53L1/lib/core/src\vl53l1_api_core.c **** 	xy_size = pdev->nvm_copy_data.roi_config__mode_roi_xy_size;
 1412              		.loc 1 1149 2 is_stmt 1 view .LVU456
 1413              		.loc 1 1149 10 is_stmt 0 view .LVU457
 1414 002e 96F82B32 		ldrb	r3, [r6, #555]	@ zero_extendqisi2
 1415              	.LVL123:
1150:D:/Git/VL53L1/lib/core/src\vl53l1_api_core.c **** 
1151:D:/Git/VL53L1/lib/core/src\vl53l1_api_core.c **** 	pmm_roi->height = xy_size >> 4;
 1416              		.loc 1 1151 2 is_stmt 1 view .LVU458
 1417              		.loc 1 1151 18 is_stmt 0 view .LVU459
 1418 0032 1A09     		lsrs	r2, r3, #4
 1419 0034 E270     		strb	r2, [r4, #3]
1152:D:/Git/VL53L1/lib/core/src\vl53l1_api_core.c **** 	pmm_roi->width  = xy_size & 0x0F;
 1420              		.loc 1 1152 2 is_stmt 1 view .LVU460
 1421              		.loc 1 1152 28 is_stmt 0 view .LVU461
 1422 0036 03F00F03 		and	r3, r3, #15
 1423              	.LVL124:
 1424              		.loc 1 1152 18 view .LVU462
ARM GAS  C:\Users\Berbardo\AppData\Local\Temp\ccBMvrJ9.s 			page 47


 1425 003a A370     		strb	r3, [r4, #2]
1153:D:/Git/VL53L1/lib/core/src\vl53l1_api_core.c **** 
1154:D:/Git/VL53L1/lib/core/src\vl53l1_api_core.c **** 	LOG_FUNCTION_END(status);
 1426              		.loc 1 1154 26 is_stmt 1 view .LVU463
1155:D:/Git/VL53L1/lib/core/src\vl53l1_api_core.c **** 
1156:D:/Git/VL53L1/lib/core/src\vl53l1_api_core.c **** 	return status;
 1427              		.loc 1 1156 2 view .LVU464
1157:D:/Git/VL53L1/lib/core/src\vl53l1_api_core.c **** }
 1428              		.loc 1 1157 1 is_stmt 0 view .LVU465
 1429 003c 2846     		mov	r0, r5
 1430 003e 02B0     		add	sp, sp, #8
 1431              		.cfi_def_cfa_offset 16
 1432              		@ sp needed
 1433 0040 70BD     		pop	{r4, r5, r6, pc}
 1434              		.loc 1 1157 1 view .LVU466
 1435              		.cfi_endproc
 1436              	.LFE147:
 1438              		.section	.text.VL53L1_read_p2p_data,"ax",%progbits
 1439              		.align	1
 1440              		.global	VL53L1_read_p2p_data
 1441              		.syntax unified
 1442              		.thumb
 1443              		.thumb_func
 1444              		.fpu fpv4-sp-d16
 1446              	VL53L1_read_p2p_data:
 1447              	.LVL125:
 1448              	.LFB127:
 315:D:/Git/VL53L1/lib/core/src\vl53l1_api_core.c **** 
 1449              		.loc 1 315 1 is_stmt 1 view -0
 1450              		.cfi_startproc
 1451              		@ args = 0, pretend = 0, frame = 0
 1452              		@ frame_needed = 0, uses_anonymous_args = 0
 315:D:/Git/VL53L1/lib/core/src\vl53l1_api_core.c **** 
 1453              		.loc 1 315 1 is_stmt 0 view .LVU468
 1454 0000 70B5     		push	{r4, r5, r6, lr}
 1455              		.cfi_def_cfa_offset 16
 1456              		.cfi_offset 4, -16
 1457              		.cfi_offset 5, -12
 1458              		.cfi_offset 6, -8
 1459              		.cfi_offset 14, -4
 1460 0002 0446     		mov	r4, r0
 325:D:/Git/VL53L1/lib/core/src\vl53l1_api_core.c **** 	VL53L1_LLDriverData_t *pdev = VL53L1DevStructGetLLDriverHandle(Dev);
 1461              		.loc 1 325 2 is_stmt 1 view .LVU469
 1462              	.LVL126:
 326:D:/Git/VL53L1/lib/core/src\vl53l1_api_core.c **** 
 1463              		.loc 1 326 2 view .LVU470
 328:D:/Git/VL53L1/lib/core/src\vl53l1_api_core.c **** 
 1464              		.loc 1 328 24 view .LVU471
 330:D:/Git/VL53L1/lib/core/src\vl53l1_api_core.c **** 		status = VL53L1_get_static_nvm_managed(
 1465              		.loc 1 330 2 view .LVU472
 331:D:/Git/VL53L1/lib/core/src\vl53l1_api_core.c **** 						Dev,
 1466              		.loc 1 331 3 view .LVU473
 331:D:/Git/VL53L1/lib/core/src\vl53l1_api_core.c **** 						Dev,
 1467              		.loc 1 331 12 is_stmt 0 view .LVU474
 1468 0004 00F5AC71 		add	r1, r0, #344
 1469 0008 FFF7FEFF 		bl	VL53L1_get_static_nvm_managed
 1470              	.LVL127:
ARM GAS  C:\Users\Berbardo\AppData\Local\Temp\ccBMvrJ9.s 			page 48


 335:D:/Git/VL53L1/lib/core/src\vl53l1_api_core.c **** 		status = VL53L1_get_customer_nvm_managed(
 1471              		.loc 1 335 2 is_stmt 1 view .LVU475
 335:D:/Git/VL53L1/lib/core/src\vl53l1_api_core.c **** 		status = VL53L1_get_customer_nvm_managed(
 1472              		.loc 1 335 5 is_stmt 0 view .LVU476
 1473 000c 0546     		mov	r5, r0
 1474 000e D0B1     		cbz	r0, .L78
 1475              	.LVL128:
 1476              	.L71:
 340:D:/Git/VL53L1/lib/core/src\vl53l1_api_core.c **** 
 1477              		.loc 1 340 2 is_stmt 1 view .LVU477
 340:D:/Git/VL53L1/lib/core/src\vl53l1_api_core.c **** 
 1478              		.loc 1 340 5 is_stmt 0 view .LVU478
 1479 0010 05B3     		cbz	r5, .L79
 1480              	.LVL129:
 1481              	.L72:
 357:D:/Git/VL53L1/lib/core/src\vl53l1_api_core.c **** 		status =
 1482              		.loc 1 357 2 is_stmt 1 view .LVU479
 357:D:/Git/VL53L1/lib/core/src\vl53l1_api_core.c **** 		status =
 1483              		.loc 1 357 5 is_stmt 0 view .LVU480
 1484 0012 75B3     		cbz	r5, .L80
 1485              	.L73:
 368:D:/Git/VL53L1/lib/core/src\vl53l1_api_core.c **** 		trace_print(
 1486              		.loc 1 368 2 is_stmt 1 view .LVU481
 368:D:/Git/VL53L1/lib/core/src\vl53l1_api_core.c **** 		trace_print(
 1487              		.loc 1 368 20 is_stmt 0 view .LVU482
 1488 0014 B4F85E31 		ldrh	r3, [r4, #350]
 368:D:/Git/VL53L1/lib/core/src\vl53l1_api_core.c **** 		trace_print(
 1489              		.loc 1 368 5 view .LVU483
 1490 0018 B3F5805F 		cmp	r3, #4096
 1491 001c 03D2     		bcs	.L74
 374:D:/Git/VL53L1/lib/core/src\vl53l1_api_core.c **** 		pdev->stat_nvm.osc_measured__fast_osc__frequency = 0xBCCC;
 1492              		.loc 1 374 11 is_stmt 1 view .LVU484
 375:D:/Git/VL53L1/lib/core/src\vl53l1_api_core.c **** 	}
 1493              		.loc 1 375 3 view .LVU485
 375:D:/Git/VL53L1/lib/core/src\vl53l1_api_core.c **** 	}
 1494              		.loc 1 375 52 is_stmt 0 view .LVU486
 1495 001e 4BF6CC43 		movw	r3, #48332
 1496 0022 A4F85E31 		strh	r3, [r4, #350]	@ movhi
 1497              	.L74:
 382:D:/Git/VL53L1/lib/core/src\vl53l1_api_core.c **** 		status =
 1498              		.loc 1 382 2 is_stmt 1 view .LVU487
 382:D:/Git/VL53L1/lib/core/src\vl53l1_api_core.c **** 		status =
 1499              		.loc 1 382 5 is_stmt 0 view .LVU488
 1500 0026 65B3     		cbz	r5, .L81
 1501              	.L75:
 392:D:/Git/VL53L1/lib/core/src\vl53l1_api_core.c **** 		pdev->optical_centre.y_centre == 0) {
 1502              		.loc 1 392 2 is_stmt 1 view .LVU489
 392:D:/Git/VL53L1/lib/core/src\vl53l1_api_core.c **** 		pdev->optical_centre.y_centre == 0) {
 1503              		.loc 1 392 41 is_stmt 0 view .LVU490
 1504 0028 B4F8A230 		ldrh	r3, [r4, #162]	@ unaligned
 392:D:/Git/VL53L1/lib/core/src\vl53l1_api_core.c **** 		pdev->optical_centre.y_centre == 0) {
 1505              		.loc 1 392 5 view .LVU491
 1506 002c 4BB9     		cbnz	r3, .L76
 394:D:/Git/VL53L1/lib/core/src\vl53l1_api_core.c **** 				pdev->mm_roi.x_centre << 4;
 1507              		.loc 1 394 3 is_stmt 1 view .LVU492
 395:D:/Git/VL53L1/lib/core/src\vl53l1_api_core.c **** 		pdev->optical_centre.y_centre =
 1508              		.loc 1 395 17 is_stmt 0 view .LVU493
ARM GAS  C:\Users\Berbardo\AppData\Local\Temp\ccBMvrJ9.s 			page 49


 1509 002e 94F89E30 		ldrb	r3, [r4, #158]	@ zero_extendqisi2
 395:D:/Git/VL53L1/lib/core/src\vl53l1_api_core.c **** 		pdev->optical_centre.y_centre =
 1510              		.loc 1 395 27 view .LVU494
 1511 0032 1B01     		lsls	r3, r3, #4
 394:D:/Git/VL53L1/lib/core/src\vl53l1_api_core.c **** 				pdev->mm_roi.x_centre << 4;
 1512              		.loc 1 394 33 view .LVU495
 1513 0034 84F8A230 		strb	r3, [r4, #162]
 396:D:/Git/VL53L1/lib/core/src\vl53l1_api_core.c **** 				pdev->mm_roi.y_centre << 4;
 1514              		.loc 1 396 3 is_stmt 1 view .LVU496
 397:D:/Git/VL53L1/lib/core/src\vl53l1_api_core.c **** 	}
 1515              		.loc 1 397 17 is_stmt 0 view .LVU497
 1516 0038 94F89F30 		ldrb	r3, [r4, #159]	@ zero_extendqisi2
 397:D:/Git/VL53L1/lib/core/src\vl53l1_api_core.c **** 	}
 1517              		.loc 1 397 27 view .LVU498
 1518 003c 1B01     		lsls	r3, r3, #4
 396:D:/Git/VL53L1/lib/core/src\vl53l1_api_core.c **** 				pdev->mm_roi.y_centre << 4;
 1519              		.loc 1 396 33 view .LVU499
 1520 003e 84F8A330 		strb	r3, [r4, #163]
 1521              	.L76:
 400:D:/Git/VL53L1/lib/core/src\vl53l1_api_core.c **** 
 1522              		.loc 1 400 26 is_stmt 1 view .LVU500
 402:D:/Git/VL53L1/lib/core/src\vl53l1_api_core.c **** }
 1523              		.loc 1 402 2 view .LVU501
 403:D:/Git/VL53L1/lib/core/src\vl53l1_api_core.c **** 
 1524              		.loc 1 403 1 is_stmt 0 view .LVU502
 1525 0042 2846     		mov	r0, r5
 1526 0044 70BD     		pop	{r4, r5, r6, pc}
 1527              	.LVL130:
 1528              	.L78:
 336:D:/Git/VL53L1/lib/core/src\vl53l1_api_core.c **** 						Dev,
 1529              		.loc 1 336 3 is_stmt 1 view .LVU503
 336:D:/Git/VL53L1/lib/core/src\vl53l1_api_core.c **** 						Dev,
 1530              		.loc 1 336 12 is_stmt 0 view .LVU504
 1531 0046 04F14201 		add	r1, r4, #66
 1532 004a 2046     		mov	r0, r4
 1533              	.LVL131:
 336:D:/Git/VL53L1/lib/core/src\vl53l1_api_core.c **** 						Dev,
 1534              		.loc 1 336 12 view .LVU505
 1535 004c FFF7FEFF 		bl	VL53L1_get_customer_nvm_managed
 1536              	.LVL132:
 1537 0050 0546     		mov	r5, r0
 1538              	.LVL133:
 336:D:/Git/VL53L1/lib/core/src\vl53l1_api_core.c **** 						Dev,
 1539              		.loc 1 336 12 view .LVU506
 1540 0052 DDE7     		b	.L71
 1541              	.L79:
 342:D:/Git/VL53L1/lib/core/src\vl53l1_api_core.c **** 						Dev,
 1542              		.loc 1 342 3 is_stmt 1 view .LVU507
 342:D:/Git/VL53L1/lib/core/src\vl53l1_api_core.c **** 						Dev,
 1543              		.loc 1 342 12 is_stmt 0 view .LVU508
 1544 0054 04F5FD76 		add	r6, r4, #506
 1545 0058 3146     		mov	r1, r6
 1546 005a 2046     		mov	r0, r4
 1547 005c FFF7FEFF 		bl	VL53L1_get_nvm_copy_data
 1548              	.LVL134:
 347:D:/Git/VL53L1/lib/core/src\vl53l1_api_core.c **** 			VL53L1_copy_rtn_good_spads_to_buffer(
 1549              		.loc 1 347 3 is_stmt 1 view .LVU509
ARM GAS  C:\Users\Berbardo\AppData\Local\Temp\ccBMvrJ9.s 			page 50


 347:D:/Git/VL53L1/lib/core/src\vl53l1_api_core.c **** 			VL53L1_copy_rtn_good_spads_to_buffer(
 1550              		.loc 1 347 6 is_stmt 0 view .LVU510
 1551 0060 0546     		mov	r5, r0
 1552 0062 0028     		cmp	r0, #0
 1553 0064 D5D1     		bne	.L72
 348:D:/Git/VL53L1/lib/core/src\vl53l1_api_core.c **** 					&(pdev->nvm_copy_data),
 1554              		.loc 1 348 4 is_stmt 1 view .LVU511
 1555 0066 04F1F001 		add	r1, r4, #240
 1556 006a 3046     		mov	r0, r6
 1557              	.LVL135:
 348:D:/Git/VL53L1/lib/core/src\vl53l1_api_core.c **** 					&(pdev->nvm_copy_data),
 1558              		.loc 1 348 4 is_stmt 0 view .LVU512
 1559 006c FFF7FEFF 		bl	VL53L1_copy_rtn_good_spads_to_buffer
 1560              	.LVL136:
 1561 0070 CFE7     		b	.L72
 1562              	.LVL137:
 1563              	.L80:
 358:D:/Git/VL53L1/lib/core/src\vl53l1_api_core.c **** 			VL53L1_RdWord(
 1564              		.loc 1 358 3 is_stmt 1 view .LVU513
 359:D:/Git/VL53L1/lib/core/src\vl53l1_api_core.c **** 				Dev,
 1565              		.loc 1 359 4 is_stmt 0 view .LVU514
 1566 0072 04F52D72 		add	r2, r4, #692
 1567 0076 DE21     		movs	r1, #222
 1568 0078 2046     		mov	r0, r4
 1569 007a FFF7FEFF 		bl	VL53L1_RdWord
 1570              	.LVL138:
 1571 007e 0546     		mov	r5, r0
 1572              	.LVL139:
 359:D:/Git/VL53L1/lib/core/src\vl53l1_api_core.c **** 				Dev,
 1573              		.loc 1 359 4 view .LVU515
 1574 0080 C8E7     		b	.L73
 1575              	.L81:
 383:D:/Git/VL53L1/lib/core/src\vl53l1_api_core.c **** 			VL53L1_get_mode_mitigation_roi(
 1576              		.loc 1 383 3 is_stmt 1 view .LVU516
 384:D:/Git/VL53L1/lib/core/src\vl53l1_api_core.c **** 				Dev,
 1577              		.loc 1 384 4 is_stmt 0 view .LVU517
 1578 0082 04F19E01 		add	r1, r4, #158
 1579 0086 2046     		mov	r0, r4
 1580 0088 FFF7FEFF 		bl	VL53L1_get_mode_mitigation_roi
 1581              	.LVL140:
 1582 008c 0546     		mov	r5, r0
 1583              	.LVL141:
 384:D:/Git/VL53L1/lib/core/src\vl53l1_api_core.c **** 				Dev,
 1584              		.loc 1 384 4 view .LVU518
 1585 008e CBE7     		b	.L75
 1586              		.cfi_endproc
 1587              	.LFE127:
 1589              		.section	.text.VL53L1_get_preset_mode_timing_cfg,"ax",%progbits
 1590              		.align	1
 1591              		.global	VL53L1_get_preset_mode_timing_cfg
 1592              		.syntax unified
 1593              		.thumb
 1594              		.thumb_func
 1595              		.fpu fpv4-sp-d16
 1597              	VL53L1_get_preset_mode_timing_cfg:
 1598              	.LVL142:
 1599              	.LFB148:
ARM GAS  C:\Users\Berbardo\AppData\Local\Temp\ccBMvrJ9.s 			page 51


1158:D:/Git/VL53L1/lib/core/src\vl53l1_api_core.c **** 
1159:D:/Git/VL53L1/lib/core/src\vl53l1_api_core.c **** VL53L1_Error VL53L1_get_preset_mode_timing_cfg(
1160:D:/Git/VL53L1/lib/core/src\vl53l1_api_core.c **** 	VL53L1_DEV                   Dev,
1161:D:/Git/VL53L1/lib/core/src\vl53l1_api_core.c **** 	VL53L1_DevicePresetModes     device_preset_mode,
1162:D:/Git/VL53L1/lib/core/src\vl53l1_api_core.c **** 	uint16_t                    *pdss_config__target_total_rate_mcps,
1163:D:/Git/VL53L1/lib/core/src\vl53l1_api_core.c **** 	uint32_t                    *pphasecal_config_timeout_us,
1164:D:/Git/VL53L1/lib/core/src\vl53l1_api_core.c **** 	uint32_t                    *pmm_config_timeout_us,
1165:D:/Git/VL53L1/lib/core/src\vl53l1_api_core.c **** 	uint32_t                    *prange_config_timeout_us)
1166:D:/Git/VL53L1/lib/core/src\vl53l1_api_core.c **** {
 1600              		.loc 1 1166 1 is_stmt 1 view -0
 1601              		.cfi_startproc
 1602              		@ args = 8, pretend = 0, frame = 0
 1603              		@ frame_needed = 0, uses_anonymous_args = 0
 1604              		@ link register save eliminated.
1167:D:/Git/VL53L1/lib/core/src\vl53l1_api_core.c **** 	VL53L1_Error  status = VL53L1_ERROR_NONE;
 1605              		.loc 1 1167 2 view .LVU520
1168:D:/Git/VL53L1/lib/core/src\vl53l1_api_core.c **** 	VL53L1_LLDriverData_t *pdev = VL53L1DevStructGetLLDriverHandle(Dev);
 1606              		.loc 1 1168 2 view .LVU521
1169:D:/Git/VL53L1/lib/core/src\vl53l1_api_core.c **** 
1170:D:/Git/VL53L1/lib/core/src\vl53l1_api_core.c **** 	LOG_FUNCTION_START("");
 1607              		.loc 1 1170 24 view .LVU522
1171:D:/Git/VL53L1/lib/core/src\vl53l1_api_core.c **** 
1172:D:/Git/VL53L1/lib/core/src\vl53l1_api_core.c **** 
1173:D:/Git/VL53L1/lib/core/src\vl53l1_api_core.c **** 	switch (device_preset_mode) {
 1608              		.loc 1 1173 2 view .LVU523
 1609 0000 0139     		subs	r1, r1, #1
 1610              	.LVL143:
 1611              		.loc 1 1173 2 is_stmt 0 view .LVU524
 1612 0002 2529     		cmp	r1, #37
 1613 0004 44D8     		bhi	.L88
 1614 0006 DFE801F0 		tbb	[pc, r1]
 1615              	.L85:
 1616 000a 13       		.byte	(.L87-.L85)/2
 1617 000b 13       		.byte	(.L87-.L85)/2
 1618 000c 13       		.byte	(.L87-.L85)/2
 1619 000d 13       		.byte	(.L87-.L85)/2
 1620 000e 13       		.byte	(.L87-.L85)/2
 1621 000f 23       		.byte	(.L86-.L85)/2
 1622 0010 23       		.byte	(.L86-.L85)/2
 1623 0011 23       		.byte	(.L86-.L85)/2
 1624 0012 43       		.byte	(.L88-.L85)/2
 1625 0013 43       		.byte	(.L88-.L85)/2
 1626 0014 43       		.byte	(.L88-.L85)/2
 1627 0015 43       		.byte	(.L88-.L85)/2
 1628 0016 43       		.byte	(.L88-.L85)/2
 1629 0017 43       		.byte	(.L88-.L85)/2
 1630 0018 43       		.byte	(.L88-.L85)/2
 1631 0019 43       		.byte	(.L88-.L85)/2
 1632 001a 13       		.byte	(.L87-.L85)/2
 1633 001b 23       		.byte	(.L86-.L85)/2
 1634 001c 43       		.byte	(.L88-.L85)/2
 1635 001d 43       		.byte	(.L88-.L85)/2
 1636 001e 43       		.byte	(.L88-.L85)/2
 1637 001f 43       		.byte	(.L88-.L85)/2
 1638 0020 43       		.byte	(.L88-.L85)/2
 1639 0021 43       		.byte	(.L88-.L85)/2
 1640 0022 43       		.byte	(.L88-.L85)/2
ARM GAS  C:\Users\Berbardo\AppData\Local\Temp\ccBMvrJ9.s 			page 52


 1641 0023 43       		.byte	(.L88-.L85)/2
 1642 0024 43       		.byte	(.L88-.L85)/2
 1643 0025 43       		.byte	(.L88-.L85)/2
 1644 0026 43       		.byte	(.L88-.L85)/2
 1645 0027 43       		.byte	(.L88-.L85)/2
 1646 0028 43       		.byte	(.L88-.L85)/2
 1647 0029 43       		.byte	(.L88-.L85)/2
 1648 002a 43       		.byte	(.L88-.L85)/2
 1649 002b 43       		.byte	(.L88-.L85)/2
 1650 002c 43       		.byte	(.L88-.L85)/2
 1651 002d 33       		.byte	(.L84-.L85)/2
 1652 002e 33       		.byte	(.L84-.L85)/2
 1653 002f 33       		.byte	(.L84-.L85)/2
 1654              		.p2align 1
 1655              	.L87:
1174:D:/Git/VL53L1/lib/core/src\vl53l1_api_core.c **** 
1175:D:/Git/VL53L1/lib/core/src\vl53l1_api_core.c **** 	case VL53L1_DEVICEPRESETMODE_STANDARD_RANGING:
1176:D:/Git/VL53L1/lib/core/src\vl53l1_api_core.c **** 	case VL53L1_DEVICEPRESETMODE_STANDARD_RANGING_SHORT_RANGE:
1177:D:/Git/VL53L1/lib/core/src\vl53l1_api_core.c **** 	case VL53L1_DEVICEPRESETMODE_STANDARD_RANGING_LONG_RANGE:
1178:D:/Git/VL53L1/lib/core/src\vl53l1_api_core.c **** 	case VL53L1_DEVICEPRESETMODE_STANDARD_RANGING_MM1_CAL:
1179:D:/Git/VL53L1/lib/core/src\vl53l1_api_core.c **** 	case VL53L1_DEVICEPRESETMODE_STANDARD_RANGING_MM2_CAL:
1180:D:/Git/VL53L1/lib/core/src\vl53l1_api_core.c **** 	case VL53L1_DEVICEPRESETMODE_OLT:
1181:D:/Git/VL53L1/lib/core/src\vl53l1_api_core.c **** 		*pdss_config__target_total_rate_mcps =
 1656              		.loc 1 1181 3 is_stmt 1 view .LVU525
1182:D:/Git/VL53L1/lib/core/src\vl53l1_api_core.c **** 				pdev->tuning_parms.tp_dss_target_lite_mcps;
 1657              		.loc 1 1182 23 is_stmt 0 view .LVU526
 1658 0030 B0F8CA10 		ldrh	r1, [r0, #202]
1181:D:/Git/VL53L1/lib/core/src\vl53l1_api_core.c **** 				pdev->tuning_parms.tp_dss_target_lite_mcps;
 1659              		.loc 1 1181 40 view .LVU527
 1660 0034 1180     		strh	r1, [r2]	@ movhi
1183:D:/Git/VL53L1/lib/core/src\vl53l1_api_core.c **** 		*pphasecal_config_timeout_us =
 1661              		.loc 1 1183 3 is_stmt 1 view .LVU528
1184:D:/Git/VL53L1/lib/core/src\vl53l1_api_core.c **** 				pdev->tuning_parms.tp_phasecal_timeout_lite_us;
 1662              		.loc 1 1184 23 is_stmt 0 view .LVU529
 1663 0036 D0F8D020 		ldr	r2, [r0, #208]
 1664              	.LVL144:
1183:D:/Git/VL53L1/lib/core/src\vl53l1_api_core.c **** 		*pphasecal_config_timeout_us =
 1665              		.loc 1 1183 32 view .LVU530
 1666 003a 1A60     		str	r2, [r3]
1185:D:/Git/VL53L1/lib/core/src\vl53l1_api_core.c **** 		*pmm_config_timeout_us =
 1667              		.loc 1 1185 3 is_stmt 1 view .LVU531
1186:D:/Git/VL53L1/lib/core/src\vl53l1_api_core.c **** 				pdev->tuning_parms.tp_mm_timeout_lite_us;
 1668              		.loc 1 1186 23 is_stmt 0 view .LVU532
 1669 003c D0F8D830 		ldr	r3, [r0, #216]
 1670              	.LVL145:
1185:D:/Git/VL53L1/lib/core/src\vl53l1_api_core.c **** 		*pmm_config_timeout_us =
 1671              		.loc 1 1185 26 view .LVU533
 1672 0040 009A     		ldr	r2, [sp]
 1673 0042 1360     		str	r3, [r2]
1187:D:/Git/VL53L1/lib/core/src\vl53l1_api_core.c **** 		*prange_config_timeout_us =
 1674              		.loc 1 1187 3 is_stmt 1 view .LVU534
1188:D:/Git/VL53L1/lib/core/src\vl53l1_api_core.c **** 				pdev->tuning_parms.tp_range_timeout_lite_us;
 1675              		.loc 1 1188 23 is_stmt 0 view .LVU535
 1676 0044 D0F8E430 		ldr	r3, [r0, #228]
1187:D:/Git/VL53L1/lib/core/src\vl53l1_api_core.c **** 		*prange_config_timeout_us =
 1677              		.loc 1 1187 29 view .LVU536
 1678 0048 019A     		ldr	r2, [sp, #4]
ARM GAS  C:\Users\Berbardo\AppData\Local\Temp\ccBMvrJ9.s 			page 53


 1679 004a 1360     		str	r3, [r2]
1189:D:/Git/VL53L1/lib/core/src\vl53l1_api_core.c **** 	break;
 1680              		.loc 1 1189 2 is_stmt 1 view .LVU537
1167:D:/Git/VL53L1/lib/core/src\vl53l1_api_core.c **** 	VL53L1_LLDriverData_t *pdev = VL53L1DevStructGetLLDriverHandle(Dev);
 1681              		.loc 1 1167 16 is_stmt 0 view .LVU538
 1682 004c 0020     		movs	r0, #0
 1683              	.LVL146:
 1684              		.loc 1 1189 2 view .LVU539
 1685 004e 7047     		bx	lr
 1686              	.LVL147:
 1687              	.L86:
1190:D:/Git/VL53L1/lib/core/src\vl53l1_api_core.c **** 
1191:D:/Git/VL53L1/lib/core/src\vl53l1_api_core.c **** 	case VL53L1_DEVICEPRESETMODE_TIMED_RANGING:
1192:D:/Git/VL53L1/lib/core/src\vl53l1_api_core.c **** 	case VL53L1_DEVICEPRESETMODE_TIMED_RANGING_SHORT_RANGE:
1193:D:/Git/VL53L1/lib/core/src\vl53l1_api_core.c **** 	case VL53L1_DEVICEPRESETMODE_TIMED_RANGING_LONG_RANGE:
1194:D:/Git/VL53L1/lib/core/src\vl53l1_api_core.c **** 	case VL53L1_DEVICEPRESETMODE_SINGLESHOT_RANGING:
1195:D:/Git/VL53L1/lib/core/src\vl53l1_api_core.c **** 		*pdss_config__target_total_rate_mcps =
 1688              		.loc 1 1195 3 is_stmt 1 view .LVU540
1196:D:/Git/VL53L1/lib/core/src\vl53l1_api_core.c **** 				pdev->tuning_parms.tp_dss_target_timed_mcps;
 1689              		.loc 1 1196 23 is_stmt 0 view .LVU541
 1690 0050 B0F8CC10 		ldrh	r1, [r0, #204]
1195:D:/Git/VL53L1/lib/core/src\vl53l1_api_core.c **** 				pdev->tuning_parms.tp_dss_target_timed_mcps;
 1691              		.loc 1 1195 40 view .LVU542
 1692 0054 1180     		strh	r1, [r2]	@ movhi
1197:D:/Git/VL53L1/lib/core/src\vl53l1_api_core.c **** 		*pphasecal_config_timeout_us =
 1693              		.loc 1 1197 3 is_stmt 1 view .LVU543
1198:D:/Git/VL53L1/lib/core/src\vl53l1_api_core.c **** 				pdev->tuning_parms.tp_phasecal_timeout_timed_us;
 1694              		.loc 1 1198 23 is_stmt 0 view .LVU544
 1695 0056 D0F8D420 		ldr	r2, [r0, #212]
 1696              	.LVL148:
1197:D:/Git/VL53L1/lib/core/src\vl53l1_api_core.c **** 		*pphasecal_config_timeout_us =
 1697              		.loc 1 1197 32 view .LVU545
 1698 005a 1A60     		str	r2, [r3]
1199:D:/Git/VL53L1/lib/core/src\vl53l1_api_core.c **** 		*pmm_config_timeout_us =
 1699              		.loc 1 1199 3 is_stmt 1 view .LVU546
1200:D:/Git/VL53L1/lib/core/src\vl53l1_api_core.c **** 				pdev->tuning_parms.tp_mm_timeout_timed_us;
 1700              		.loc 1 1200 23 is_stmt 0 view .LVU547
 1701 005c D0F8DC30 		ldr	r3, [r0, #220]
 1702              	.LVL149:
1199:D:/Git/VL53L1/lib/core/src\vl53l1_api_core.c **** 		*pmm_config_timeout_us =
 1703              		.loc 1 1199 26 view .LVU548
 1704 0060 009A     		ldr	r2, [sp]
 1705 0062 1360     		str	r3, [r2]
1201:D:/Git/VL53L1/lib/core/src\vl53l1_api_core.c **** 		*prange_config_timeout_us =
 1706              		.loc 1 1201 3 is_stmt 1 view .LVU549
1202:D:/Git/VL53L1/lib/core/src\vl53l1_api_core.c **** 				pdev->tuning_parms.tp_range_timeout_timed_us;
 1707              		.loc 1 1202 23 is_stmt 0 view .LVU550
 1708 0064 D0F8E830 		ldr	r3, [r0, #232]
1201:D:/Git/VL53L1/lib/core/src\vl53l1_api_core.c **** 		*prange_config_timeout_us =
 1709              		.loc 1 1201 29 view .LVU551
 1710 0068 019A     		ldr	r2, [sp, #4]
 1711 006a 1360     		str	r3, [r2]
1203:D:/Git/VL53L1/lib/core/src\vl53l1_api_core.c **** 	break;
 1712              		.loc 1 1203 2 is_stmt 1 view .LVU552
1167:D:/Git/VL53L1/lib/core/src\vl53l1_api_core.c **** 	VL53L1_LLDriverData_t *pdev = VL53L1DevStructGetLLDriverHandle(Dev);
 1713              		.loc 1 1167 16 is_stmt 0 view .LVU553
 1714 006c 0020     		movs	r0, #0
ARM GAS  C:\Users\Berbardo\AppData\Local\Temp\ccBMvrJ9.s 			page 54


 1715              	.LVL150:
 1716              		.loc 1 1203 2 view .LVU554
 1717 006e 7047     		bx	lr
 1718              	.LVL151:
 1719              	.L84:
1204:D:/Git/VL53L1/lib/core/src\vl53l1_api_core.c **** 
1205:D:/Git/VL53L1/lib/core/src\vl53l1_api_core.c **** 	case VL53L1_DEVICEPRESETMODE_LOWPOWERAUTO_SHORT_RANGE:
1206:D:/Git/VL53L1/lib/core/src\vl53l1_api_core.c **** 	case VL53L1_DEVICEPRESETMODE_LOWPOWERAUTO_MEDIUM_RANGE:
1207:D:/Git/VL53L1/lib/core/src\vl53l1_api_core.c **** 	case VL53L1_DEVICEPRESETMODE_LOWPOWERAUTO_LONG_RANGE:
1208:D:/Git/VL53L1/lib/core/src\vl53l1_api_core.c **** 		*pdss_config__target_total_rate_mcps =
 1720              		.loc 1 1208 3 is_stmt 1 view .LVU555
1209:D:/Git/VL53L1/lib/core/src\vl53l1_api_core.c **** 				pdev->tuning_parms.tp_dss_target_timed_mcps;
 1721              		.loc 1 1209 23 is_stmt 0 view .LVU556
 1722 0070 B0F8CC10 		ldrh	r1, [r0, #204]
1208:D:/Git/VL53L1/lib/core/src\vl53l1_api_core.c **** 				pdev->tuning_parms.tp_dss_target_timed_mcps;
 1723              		.loc 1 1208 40 view .LVU557
 1724 0074 1180     		strh	r1, [r2]	@ movhi
1210:D:/Git/VL53L1/lib/core/src\vl53l1_api_core.c **** 		*pphasecal_config_timeout_us =
 1725              		.loc 1 1210 3 is_stmt 1 view .LVU558
1211:D:/Git/VL53L1/lib/core/src\vl53l1_api_core.c **** 				pdev->tuning_parms.tp_phasecal_timeout_timed_us;
 1726              		.loc 1 1211 23 is_stmt 0 view .LVU559
 1727 0076 D0F8D420 		ldr	r2, [r0, #212]
 1728              	.LVL152:
1210:D:/Git/VL53L1/lib/core/src\vl53l1_api_core.c **** 		*pphasecal_config_timeout_us =
 1729              		.loc 1 1210 32 view .LVU560
 1730 007a 1A60     		str	r2, [r3]
1212:D:/Git/VL53L1/lib/core/src\vl53l1_api_core.c **** 		*pmm_config_timeout_us =
 1731              		.loc 1 1212 3 is_stmt 1 view .LVU561
1213:D:/Git/VL53L1/lib/core/src\vl53l1_api_core.c **** 				pdev->tuning_parms.tp_mm_timeout_lpa_us;
 1732              		.loc 1 1213 23 is_stmt 0 view .LVU562
 1733 007c D0F8E030 		ldr	r3, [r0, #224]
 1734              	.LVL153:
1212:D:/Git/VL53L1/lib/core/src\vl53l1_api_core.c **** 		*pmm_config_timeout_us =
 1735              		.loc 1 1212 26 view .LVU563
 1736 0080 009A     		ldr	r2, [sp]
 1737 0082 1360     		str	r3, [r2]
1214:D:/Git/VL53L1/lib/core/src\vl53l1_api_core.c **** 		*prange_config_timeout_us =
 1738              		.loc 1 1214 3 is_stmt 1 view .LVU564
1215:D:/Git/VL53L1/lib/core/src\vl53l1_api_core.c **** 				pdev->tuning_parms.tp_range_timeout_lpa_us;
 1739              		.loc 1 1215 23 is_stmt 0 view .LVU565
 1740 0084 D0F8EC30 		ldr	r3, [r0, #236]
1214:D:/Git/VL53L1/lib/core/src\vl53l1_api_core.c **** 		*prange_config_timeout_us =
 1741              		.loc 1 1214 29 view .LVU566
 1742 0088 019A     		ldr	r2, [sp, #4]
 1743 008a 1360     		str	r3, [r2]
1216:D:/Git/VL53L1/lib/core/src\vl53l1_api_core.c **** 	break;
 1744              		.loc 1 1216 2 is_stmt 1 view .LVU567
1167:D:/Git/VL53L1/lib/core/src\vl53l1_api_core.c **** 	VL53L1_LLDriverData_t *pdev = VL53L1DevStructGetLLDriverHandle(Dev);
 1745              		.loc 1 1167 16 is_stmt 0 view .LVU568
 1746 008c 0020     		movs	r0, #0
 1747              	.LVL154:
 1748              		.loc 1 1216 2 view .LVU569
 1749 008e 7047     		bx	lr
 1750              	.LVL155:
 1751              	.L88:
1217:D:/Git/VL53L1/lib/core/src\vl53l1_api_core.c **** 
1218:D:/Git/VL53L1/lib/core/src\vl53l1_api_core.c **** 	default:
ARM GAS  C:\Users\Berbardo\AppData\Local\Temp\ccBMvrJ9.s 			page 55


1219:D:/Git/VL53L1/lib/core/src\vl53l1_api_core.c **** 		status = VL53L1_ERROR_INVALID_PARAMS;
 1752              		.loc 1 1219 10 view .LVU570
 1753 0090 6FF00300 		mvn	r0, #3
 1754              	.LVL156:
1220:D:/Git/VL53L1/lib/core/src\vl53l1_api_core.c **** 		break;
1221:D:/Git/VL53L1/lib/core/src\vl53l1_api_core.c **** 
1222:D:/Git/VL53L1/lib/core/src\vl53l1_api_core.c **** 	}
1223:D:/Git/VL53L1/lib/core/src\vl53l1_api_core.c **** 
1224:D:/Git/VL53L1/lib/core/src\vl53l1_api_core.c **** 	LOG_FUNCTION_END(status);
 1755              		.loc 1 1224 26 is_stmt 1 view .LVU571
1225:D:/Git/VL53L1/lib/core/src\vl53l1_api_core.c **** 
1226:D:/Git/VL53L1/lib/core/src\vl53l1_api_core.c **** 	return status;
 1756              		.loc 1 1226 2 view .LVU572
1227:D:/Git/VL53L1/lib/core/src\vl53l1_api_core.c **** }
 1757              		.loc 1 1227 1 is_stmt 0 view .LVU573
 1758 0094 7047     		bx	lr
 1759              		.cfi_endproc
 1760              	.LFE148:
 1762              		.section	.text.VL53L1_set_preset_mode,"ax",%progbits
 1763              		.align	1
 1764              		.global	VL53L1_set_preset_mode
 1765              		.syntax unified
 1766              		.thumb
 1767              		.thumb_func
 1768              		.fpu fpv4-sp-d16
 1770              	VL53L1_set_preset_mode:
 1771              	.LVL157:
 1772              	.LFB149:
1228:D:/Git/VL53L1/lib/core/src\vl53l1_api_core.c **** 
1229:D:/Git/VL53L1/lib/core/src\vl53l1_api_core.c **** 
1230:D:/Git/VL53L1/lib/core/src\vl53l1_api_core.c **** VL53L1_Error VL53L1_set_preset_mode(
1231:D:/Git/VL53L1/lib/core/src\vl53l1_api_core.c **** 	VL53L1_DEV                   Dev,
1232:D:/Git/VL53L1/lib/core/src\vl53l1_api_core.c **** 	VL53L1_DevicePresetModes     device_preset_mode,
1233:D:/Git/VL53L1/lib/core/src\vl53l1_api_core.c **** 	uint16_t                     dss_config__target_total_rate_mcps,
1234:D:/Git/VL53L1/lib/core/src\vl53l1_api_core.c **** 	uint32_t                     phasecal_config_timeout_us,
1235:D:/Git/VL53L1/lib/core/src\vl53l1_api_core.c **** 	uint32_t                     mm_config_timeout_us,
1236:D:/Git/VL53L1/lib/core/src\vl53l1_api_core.c **** 	uint32_t                     range_config_timeout_us,
1237:D:/Git/VL53L1/lib/core/src\vl53l1_api_core.c **** 	uint32_t                     inter_measurement_period_ms)
1238:D:/Git/VL53L1/lib/core/src\vl53l1_api_core.c **** {
 1773              		.loc 1 1238 1 is_stmt 1 view -0
 1774              		.cfi_startproc
 1775              		@ args = 12, pretend = 0, frame = 16
 1776              		@ frame_needed = 0, uses_anonymous_args = 0
 1777              		.loc 1 1238 1 is_stmt 0 view .LVU575
 1778 0000 2DE9F04F 		push	{r4, r5, r6, r7, r8, r9, r10, fp, lr}
 1779              		.cfi_def_cfa_offset 36
 1780              		.cfi_offset 4, -36
 1781              		.cfi_offset 5, -32
 1782              		.cfi_offset 6, -28
 1783              		.cfi_offset 7, -24
 1784              		.cfi_offset 8, -20
 1785              		.cfi_offset 9, -16
 1786              		.cfi_offset 10, -12
 1787              		.cfi_offset 11, -8
 1788              		.cfi_offset 14, -4
 1789 0004 89B0     		sub	sp, sp, #36
 1790              		.cfi_def_cfa_offset 72
ARM GAS  C:\Users\Berbardo\AppData\Local\Temp\ccBMvrJ9.s 			page 56


 1791 0006 0446     		mov	r4, r0
 1792 0008 0D46     		mov	r5, r1
 1793 000a 0692     		str	r2, [sp, #24]
 1794 000c 0793     		str	r3, [sp, #28]
1239:D:/Git/VL53L1/lib/core/src\vl53l1_api_core.c **** 	/**
1240:D:/Git/VL53L1/lib/core/src\vl53l1_api_core.c **** 	 * Initializes static and dynamic data structures for
1241:D:/Git/VL53L1/lib/core/src\vl53l1_api_core.c **** 	 * the provided preset mode
1242:D:/Git/VL53L1/lib/core/src\vl53l1_api_core.c **** 	 */
1243:D:/Git/VL53L1/lib/core/src\vl53l1_api_core.c **** 
1244:D:/Git/VL53L1/lib/core/src\vl53l1_api_core.c **** 	VL53L1_Error  status = VL53L1_ERROR_NONE;
 1795              		.loc 1 1244 2 is_stmt 1 view .LVU576
 1796              	.LVL158:
1245:D:/Git/VL53L1/lib/core/src\vl53l1_api_core.c **** 	VL53L1_LLDriverData_t *pdev =
 1797              		.loc 1 1245 2 view .LVU577
1246:D:/Git/VL53L1/lib/core/src\vl53l1_api_core.c **** 			VL53L1DevStructGetLLDriverHandle(Dev);
1247:D:/Git/VL53L1/lib/core/src\vl53l1_api_core.c **** 
1248:D:/Git/VL53L1/lib/core/src\vl53l1_api_core.c **** 	VL53L1_static_config_t        *pstatic       = &(pdev->stat_cfg);
 1798              		.loc 1 1248 2 view .LVU578
 1799              		.loc 1 1248 33 is_stmt 0 view .LVU579
 1800 000e 00F5B277 		add	r7, r0, #356
 1801              	.LVL159:
1249:D:/Git/VL53L1/lib/core/src\vl53l1_api_core.c **** 	VL53L1_general_config_t       *pgeneral      = &(pdev->gen_cfg);
 1802              		.loc 1 1249 2 is_stmt 1 view .LVU580
 1803              		.loc 1 1249 33 is_stmt 0 view .LVU581
 1804 0012 00F5C278 		add	r8, r0, #388
 1805              	.LVL160:
1250:D:/Git/VL53L1/lib/core/src\vl53l1_api_core.c **** 	VL53L1_timing_config_t        *ptiming       = &(pdev->tim_cfg);
 1806              		.loc 1 1250 2 is_stmt 1 view .LVU582
 1807              		.loc 1 1250 33 is_stmt 0 view .LVU583
 1808 0016 00F5CE76 		add	r6, r0, #412
 1809              	.LVL161:
1251:D:/Git/VL53L1/lib/core/src\vl53l1_api_core.c **** 	VL53L1_dynamic_config_t       *pdynamic      = &(pdev->dyn_cfg);
 1810              		.loc 1 1251 2 is_stmt 1 view .LVU584
 1811              		.loc 1 1251 33 is_stmt 0 view .LVU585
 1812 001a 00F5DA73 		add	r3, r0, #436
 1813              	.LVL162:
 1814              		.loc 1 1251 33 view .LVU586
 1815 001e 0593     		str	r3, [sp, #20]
 1816              	.LVL163:
1252:D:/Git/VL53L1/lib/core/src\vl53l1_api_core.c **** 	VL53L1_system_control_t       *psystem       = &(pdev->sys_ctrl);
 1817              		.loc 1 1252 2 is_stmt 1 view .LVU587
 1818              		.loc 1 1252 33 is_stmt 0 view .LVU588
 1819 0020 00F5E479 		add	r9, r0, #456
 1820              	.LVL164:
1253:D:/Git/VL53L1/lib/core/src\vl53l1_api_core.c **** 	VL53L1_tuning_parm_storage_t  *ptuning_parms = &(pdev->tuning_parms);
 1821              		.loc 1 1253 2 is_stmt 1 view .LVU589
 1822              		.loc 1 1253 33 is_stmt 0 view .LVU590
 1823 0024 00F1A40A 		add	r10, r0, #164
 1824              	.LVL165:
1254:D:/Git/VL53L1/lib/core/src\vl53l1_api_core.c **** 	VL53L1_low_power_auto_data_t  *plpadata      =
 1825              		.loc 1 1254 2 is_stmt 1 view .LVU591
 1826              		.loc 1 1254 33 is_stmt 0 view .LVU592
 1827 0028 00F5397B 		add	fp, r0, #740
 1828              	.LVL166:
1255:D:/Git/VL53L1/lib/core/src\vl53l1_api_core.c **** 					&(pdev->low_power_auto_data);
1256:D:/Git/VL53L1/lib/core/src\vl53l1_api_core.c **** 
1257:D:/Git/VL53L1/lib/core/src\vl53l1_api_core.c **** 	LOG_FUNCTION_START("");
ARM GAS  C:\Users\Berbardo\AppData\Local\Temp\ccBMvrJ9.s 			page 57


 1829              		.loc 1 1257 24 is_stmt 1 view .LVU593
1258:D:/Git/VL53L1/lib/core/src\vl53l1_api_core.c **** 
1259:D:/Git/VL53L1/lib/core/src\vl53l1_api_core.c **** 	/* save input settings */
1260:D:/Git/VL53L1/lib/core/src\vl53l1_api_core.c **** 	pdev->preset_mode                 = device_preset_mode;
 1830              		.loc 1 1260 2 view .LVU594
 1831              		.loc 1 1260 36 is_stmt 0 view .LVU595
 1832 002c 4170     		strb	r1, [r0, #1]
1261:D:/Git/VL53L1/lib/core/src\vl53l1_api_core.c **** 	pdev->mm_config_timeout_us        = mm_config_timeout_us;
 1833              		.loc 1 1261 2 is_stmt 1 view .LVU596
 1834              		.loc 1 1261 36 is_stmt 0 view .LVU597
 1835 002e 129B     		ldr	r3, [sp, #72]
 1836              	.LVL167:
 1837              		.loc 1 1261 36 view .LVU598
 1838 0030 C360     		str	r3, [r0, #12]
1262:D:/Git/VL53L1/lib/core/src\vl53l1_api_core.c **** 	pdev->range_config_timeout_us     = range_config_timeout_us;
 1839              		.loc 1 1262 2 is_stmt 1 view .LVU599
 1840              		.loc 1 1262 36 is_stmt 0 view .LVU600
 1841 0032 139B     		ldr	r3, [sp, #76]
 1842 0034 0361     		str	r3, [r0, #16]
1263:D:/Git/VL53L1/lib/core/src\vl53l1_api_core.c **** 	pdev->inter_measurement_period_ms = inter_measurement_period_ms;
 1843              		.loc 1 1263 2 is_stmt 1 view .LVU601
 1844              		.loc 1 1263 36 is_stmt 0 view .LVU602
 1845 0036 149B     		ldr	r3, [sp, #80]
 1846 0038 4361     		str	r3, [r0, #20]
1264:D:/Git/VL53L1/lib/core/src\vl53l1_api_core.c **** 
1265:D:/Git/VL53L1/lib/core/src\vl53l1_api_core.c **** 	/* Reset LL Driver state variables */
1266:D:/Git/VL53L1/lib/core/src\vl53l1_api_core.c **** 
1267:D:/Git/VL53L1/lib/core/src\vl53l1_api_core.c **** 	VL53L1_init_ll_driver_state(
 1847              		.loc 1 1267 2 is_stmt 1 view .LVU603
 1848 003a 0321     		movs	r1, #3
 1849              	.LVL168:
 1850              		.loc 1 1267 2 is_stmt 0 view .LVU604
 1851 003c FFF7FEFF 		bl	VL53L1_init_ll_driver_state
 1852              	.LVL169:
1268:D:/Git/VL53L1/lib/core/src\vl53l1_api_core.c **** 			Dev,
1269:D:/Git/VL53L1/lib/core/src\vl53l1_api_core.c **** 			VL53L1_DEVICESTATE_SW_STANDBY);
1270:D:/Git/VL53L1/lib/core/src\vl53l1_api_core.c **** 
1271:D:/Git/VL53L1/lib/core/src\vl53l1_api_core.c **** 	/* apply selected preset */
1272:D:/Git/VL53L1/lib/core/src\vl53l1_api_core.c **** 
1273:D:/Git/VL53L1/lib/core/src\vl53l1_api_core.c **** 	switch (device_preset_mode) {
 1853              		.loc 1 1273 2 is_stmt 1 view .LVU605
 1854 0040 013D     		subs	r5, r5, #1
 1855 0042 252D     		cmp	r5, #37
 1856 0044 00F2B780 		bhi	.L108
 1857 0048 DFE805F0 		tbb	[pc, r5]
 1858              	.L92:
 1859 004c 13       		.byte	(.L104-.L92)/2
 1860 004d 2B       		.byte	(.L103-.L92)/2
 1861 004e 36       		.byte	(.L102-.L92)/2
 1862 004f 41       		.byte	(.L101-.L92)/2
 1863 0050 4C       		.byte	(.L100-.L92)/2
 1864 0051 57       		.byte	(.L99-.L92)/2
 1865 0052 62       		.byte	(.L98-.L92)/2
 1866 0053 6D       		.byte	(.L97-.L92)/2
 1867 0054 B5       		.byte	(.L108-.L92)/2
 1868 0055 B5       		.byte	(.L108-.L92)/2
 1869 0056 B5       		.byte	(.L108-.L92)/2
ARM GAS  C:\Users\Berbardo\AppData\Local\Temp\ccBMvrJ9.s 			page 58


 1870 0057 B5       		.byte	(.L108-.L92)/2
 1871 0058 B5       		.byte	(.L108-.L92)/2
 1872 0059 B5       		.byte	(.L108-.L92)/2
 1873 005a B5       		.byte	(.L108-.L92)/2
 1874 005b B5       		.byte	(.L108-.L92)/2
 1875 005c 78       		.byte	(.L96-.L92)/2
 1876 005d 83       		.byte	(.L95-.L92)/2
 1877 005e B5       		.byte	(.L108-.L92)/2
 1878 005f B5       		.byte	(.L108-.L92)/2
 1879 0060 B5       		.byte	(.L108-.L92)/2
 1880 0061 B5       		.byte	(.L108-.L92)/2
 1881 0062 B5       		.byte	(.L108-.L92)/2
 1882 0063 B5       		.byte	(.L108-.L92)/2
 1883 0064 B5       		.byte	(.L108-.L92)/2
 1884 0065 B5       		.byte	(.L108-.L92)/2
 1885 0066 B5       		.byte	(.L108-.L92)/2
 1886 0067 B5       		.byte	(.L108-.L92)/2
 1887 0068 B5       		.byte	(.L108-.L92)/2
 1888 0069 B5       		.byte	(.L108-.L92)/2
 1889 006a B5       		.byte	(.L108-.L92)/2
 1890 006b B5       		.byte	(.L108-.L92)/2
 1891 006c B5       		.byte	(.L108-.L92)/2
 1892 006d B5       		.byte	(.L108-.L92)/2
 1893 006e B5       		.byte	(.L108-.L92)/2
 1894 006f 8E       		.byte	(.L94-.L92)/2
 1895 0070 9B       		.byte	(.L93-.L92)/2
 1896 0071 A8       		.byte	(.L91-.L92)/2
 1897              		.p2align 1
 1898              	.L104:
1274:D:/Git/VL53L1/lib/core/src\vl53l1_api_core.c **** 
1275:D:/Git/VL53L1/lib/core/src\vl53l1_api_core.c **** 	case VL53L1_DEVICEPRESETMODE_STANDARD_RANGING:
1276:D:/Git/VL53L1/lib/core/src\vl53l1_api_core.c **** 		status = VL53L1_preset_mode_standard_ranging(
 1899              		.loc 1 1276 3 view .LVU606
 1900              		.loc 1 1276 12 is_stmt 0 view .LVU607
 1901 0072 CDF804A0 		str	r10, [sp, #4]
 1902 0076 CDF80090 		str	r9, [sp]
 1903 007a 059B     		ldr	r3, [sp, #20]
 1904 007c 3246     		mov	r2, r6
 1905 007e 4146     		mov	r1, r8
 1906 0080 3846     		mov	r0, r7
 1907 0082 FFF7FEFF 		bl	VL53L1_preset_mode_standard_ranging
 1908              	.LVL170:
1277:D:/Git/VL53L1/lib/core/src\vl53l1_api_core.c **** 					pstatic,
1278:D:/Git/VL53L1/lib/core/src\vl53l1_api_core.c **** 					pgeneral,
1279:D:/Git/VL53L1/lib/core/src\vl53l1_api_core.c **** 					ptiming,
1280:D:/Git/VL53L1/lib/core/src\vl53l1_api_core.c **** 					pdynamic,
1281:D:/Git/VL53L1/lib/core/src\vl53l1_api_core.c **** 					psystem,
1282:D:/Git/VL53L1/lib/core/src\vl53l1_api_core.c **** 					ptuning_parms);
1283:D:/Git/VL53L1/lib/core/src\vl53l1_api_core.c **** 		break;
 1909              		.loc 1 1283 3 is_stmt 1 view .LVU608
 1910              	.L105:
1284:D:/Git/VL53L1/lib/core/src\vl53l1_api_core.c **** 
1285:D:/Git/VL53L1/lib/core/src\vl53l1_api_core.c **** 	case VL53L1_DEVICEPRESETMODE_STANDARD_RANGING_SHORT_RANGE:
1286:D:/Git/VL53L1/lib/core/src\vl53l1_api_core.c **** 		status = VL53L1_preset_mode_standard_ranging_short_range(
1287:D:/Git/VL53L1/lib/core/src\vl53l1_api_core.c **** 					pstatic,
1288:D:/Git/VL53L1/lib/core/src\vl53l1_api_core.c **** 					pgeneral,
1289:D:/Git/VL53L1/lib/core/src\vl53l1_api_core.c **** 					ptiming,
ARM GAS  C:\Users\Berbardo\AppData\Local\Temp\ccBMvrJ9.s 			page 59


1290:D:/Git/VL53L1/lib/core/src\vl53l1_api_core.c **** 					pdynamic,
1291:D:/Git/VL53L1/lib/core/src\vl53l1_api_core.c **** 					psystem,
1292:D:/Git/VL53L1/lib/core/src\vl53l1_api_core.c **** 					ptuning_parms);
1293:D:/Git/VL53L1/lib/core/src\vl53l1_api_core.c **** 		break;
1294:D:/Git/VL53L1/lib/core/src\vl53l1_api_core.c **** 
1295:D:/Git/VL53L1/lib/core/src\vl53l1_api_core.c **** 	case VL53L1_DEVICEPRESETMODE_STANDARD_RANGING_LONG_RANGE:
1296:D:/Git/VL53L1/lib/core/src\vl53l1_api_core.c **** 		status = VL53L1_preset_mode_standard_ranging_long_range(
1297:D:/Git/VL53L1/lib/core/src\vl53l1_api_core.c **** 					pstatic,
1298:D:/Git/VL53L1/lib/core/src\vl53l1_api_core.c **** 					pgeneral,
1299:D:/Git/VL53L1/lib/core/src\vl53l1_api_core.c **** 					ptiming,
1300:D:/Git/VL53L1/lib/core/src\vl53l1_api_core.c **** 					pdynamic,
1301:D:/Git/VL53L1/lib/core/src\vl53l1_api_core.c **** 					psystem,
1302:D:/Git/VL53L1/lib/core/src\vl53l1_api_core.c **** 					ptuning_parms);
1303:D:/Git/VL53L1/lib/core/src\vl53l1_api_core.c **** 		break;
1304:D:/Git/VL53L1/lib/core/src\vl53l1_api_core.c **** 
1305:D:/Git/VL53L1/lib/core/src\vl53l1_api_core.c **** #ifndef VL53L1_NOCALIB
1306:D:/Git/VL53L1/lib/core/src\vl53l1_api_core.c **** 	case VL53L1_DEVICEPRESETMODE_STANDARD_RANGING_MM1_CAL:
1307:D:/Git/VL53L1/lib/core/src\vl53l1_api_core.c **** 		status = VL53L1_preset_mode_standard_ranging_mm1_cal(
1308:D:/Git/VL53L1/lib/core/src\vl53l1_api_core.c **** 					pstatic,
1309:D:/Git/VL53L1/lib/core/src\vl53l1_api_core.c **** 					pgeneral,
1310:D:/Git/VL53L1/lib/core/src\vl53l1_api_core.c **** 					ptiming,
1311:D:/Git/VL53L1/lib/core/src\vl53l1_api_core.c **** 					pdynamic,
1312:D:/Git/VL53L1/lib/core/src\vl53l1_api_core.c **** 					psystem,
1313:D:/Git/VL53L1/lib/core/src\vl53l1_api_core.c **** 					ptuning_parms);
1314:D:/Git/VL53L1/lib/core/src\vl53l1_api_core.c **** 		break;
1315:D:/Git/VL53L1/lib/core/src\vl53l1_api_core.c **** 
1316:D:/Git/VL53L1/lib/core/src\vl53l1_api_core.c **** 	case VL53L1_DEVICEPRESETMODE_STANDARD_RANGING_MM2_CAL:
1317:D:/Git/VL53L1/lib/core/src\vl53l1_api_core.c **** 		status = VL53L1_preset_mode_standard_ranging_mm2_cal(
1318:D:/Git/VL53L1/lib/core/src\vl53l1_api_core.c **** 					pstatic,
1319:D:/Git/VL53L1/lib/core/src\vl53l1_api_core.c **** 					pgeneral,
1320:D:/Git/VL53L1/lib/core/src\vl53l1_api_core.c **** 					ptiming,
1321:D:/Git/VL53L1/lib/core/src\vl53l1_api_core.c **** 					pdynamic,
1322:D:/Git/VL53L1/lib/core/src\vl53l1_api_core.c **** 					psystem,
1323:D:/Git/VL53L1/lib/core/src\vl53l1_api_core.c **** 					ptuning_parms);
1324:D:/Git/VL53L1/lib/core/src\vl53l1_api_core.c **** 		break;
1325:D:/Git/VL53L1/lib/core/src\vl53l1_api_core.c **** #endif
1326:D:/Git/VL53L1/lib/core/src\vl53l1_api_core.c **** 
1327:D:/Git/VL53L1/lib/core/src\vl53l1_api_core.c **** 	case VL53L1_DEVICEPRESETMODE_TIMED_RANGING:
1328:D:/Git/VL53L1/lib/core/src\vl53l1_api_core.c **** 		status = VL53L1_preset_mode_timed_ranging(
1329:D:/Git/VL53L1/lib/core/src\vl53l1_api_core.c **** 					pstatic,
1330:D:/Git/VL53L1/lib/core/src\vl53l1_api_core.c **** 					pgeneral,
1331:D:/Git/VL53L1/lib/core/src\vl53l1_api_core.c **** 					ptiming,
1332:D:/Git/VL53L1/lib/core/src\vl53l1_api_core.c **** 					pdynamic,
1333:D:/Git/VL53L1/lib/core/src\vl53l1_api_core.c **** 					psystem,
1334:D:/Git/VL53L1/lib/core/src\vl53l1_api_core.c **** 					ptuning_parms);
1335:D:/Git/VL53L1/lib/core/src\vl53l1_api_core.c **** 		break;
1336:D:/Git/VL53L1/lib/core/src\vl53l1_api_core.c **** 
1337:D:/Git/VL53L1/lib/core/src\vl53l1_api_core.c **** 	case VL53L1_DEVICEPRESETMODE_TIMED_RANGING_SHORT_RANGE:
1338:D:/Git/VL53L1/lib/core/src\vl53l1_api_core.c **** 		status = VL53L1_preset_mode_timed_ranging_short_range(
1339:D:/Git/VL53L1/lib/core/src\vl53l1_api_core.c **** 					pstatic,
1340:D:/Git/VL53L1/lib/core/src\vl53l1_api_core.c **** 					pgeneral,
1341:D:/Git/VL53L1/lib/core/src\vl53l1_api_core.c **** 					ptiming,
1342:D:/Git/VL53L1/lib/core/src\vl53l1_api_core.c **** 					pdynamic,
1343:D:/Git/VL53L1/lib/core/src\vl53l1_api_core.c **** 					psystem,
1344:D:/Git/VL53L1/lib/core/src\vl53l1_api_core.c **** 					ptuning_parms);
1345:D:/Git/VL53L1/lib/core/src\vl53l1_api_core.c **** 		break;
1346:D:/Git/VL53L1/lib/core/src\vl53l1_api_core.c **** 
ARM GAS  C:\Users\Berbardo\AppData\Local\Temp\ccBMvrJ9.s 			page 60


1347:D:/Git/VL53L1/lib/core/src\vl53l1_api_core.c **** 	case VL53L1_DEVICEPRESETMODE_TIMED_RANGING_LONG_RANGE:
1348:D:/Git/VL53L1/lib/core/src\vl53l1_api_core.c **** 		status = VL53L1_preset_mode_timed_ranging_long_range(
1349:D:/Git/VL53L1/lib/core/src\vl53l1_api_core.c **** 					pstatic,
1350:D:/Git/VL53L1/lib/core/src\vl53l1_api_core.c **** 					pgeneral,
1351:D:/Git/VL53L1/lib/core/src\vl53l1_api_core.c **** 					ptiming,
1352:D:/Git/VL53L1/lib/core/src\vl53l1_api_core.c **** 					pdynamic,
1353:D:/Git/VL53L1/lib/core/src\vl53l1_api_core.c **** 					psystem,
1354:D:/Git/VL53L1/lib/core/src\vl53l1_api_core.c **** 					ptuning_parms);
1355:D:/Git/VL53L1/lib/core/src\vl53l1_api_core.c **** 		break;
1356:D:/Git/VL53L1/lib/core/src\vl53l1_api_core.c **** 
1357:D:/Git/VL53L1/lib/core/src\vl53l1_api_core.c **** 	case VL53L1_DEVICEPRESETMODE_OLT:
1358:D:/Git/VL53L1/lib/core/src\vl53l1_api_core.c **** 		status = VL53L1_preset_mode_olt(
1359:D:/Git/VL53L1/lib/core/src\vl53l1_api_core.c **** 					pstatic,
1360:D:/Git/VL53L1/lib/core/src\vl53l1_api_core.c **** 					pgeneral,
1361:D:/Git/VL53L1/lib/core/src\vl53l1_api_core.c **** 					ptiming,
1362:D:/Git/VL53L1/lib/core/src\vl53l1_api_core.c **** 					pdynamic,
1363:D:/Git/VL53L1/lib/core/src\vl53l1_api_core.c **** 					psystem,
1364:D:/Git/VL53L1/lib/core/src\vl53l1_api_core.c **** 					ptuning_parms);
1365:D:/Git/VL53L1/lib/core/src\vl53l1_api_core.c **** 		break;
1366:D:/Git/VL53L1/lib/core/src\vl53l1_api_core.c **** 
1367:D:/Git/VL53L1/lib/core/src\vl53l1_api_core.c **** 	case VL53L1_DEVICEPRESETMODE_SINGLESHOT_RANGING:
1368:D:/Git/VL53L1/lib/core/src\vl53l1_api_core.c **** 		status = VL53L1_preset_mode_singleshot_ranging(
1369:D:/Git/VL53L1/lib/core/src\vl53l1_api_core.c **** 					pstatic,
1370:D:/Git/VL53L1/lib/core/src\vl53l1_api_core.c **** 					pgeneral,
1371:D:/Git/VL53L1/lib/core/src\vl53l1_api_core.c **** 					ptiming,
1372:D:/Git/VL53L1/lib/core/src\vl53l1_api_core.c **** 					pdynamic,
1373:D:/Git/VL53L1/lib/core/src\vl53l1_api_core.c **** 					psystem,
1374:D:/Git/VL53L1/lib/core/src\vl53l1_api_core.c **** 					ptuning_parms);
1375:D:/Git/VL53L1/lib/core/src\vl53l1_api_core.c **** 		break;
1376:D:/Git/VL53L1/lib/core/src\vl53l1_api_core.c **** 
1377:D:/Git/VL53L1/lib/core/src\vl53l1_api_core.c **** 	case VL53L1_DEVICEPRESETMODE_LOWPOWERAUTO_SHORT_RANGE:
1378:D:/Git/VL53L1/lib/core/src\vl53l1_api_core.c **** 		status = VL53L1_preset_mode_low_power_auto_short_ranging(
1379:D:/Git/VL53L1/lib/core/src\vl53l1_api_core.c **** 					pstatic,
1380:D:/Git/VL53L1/lib/core/src\vl53l1_api_core.c **** 					pgeneral,
1381:D:/Git/VL53L1/lib/core/src\vl53l1_api_core.c **** 					ptiming,
1382:D:/Git/VL53L1/lib/core/src\vl53l1_api_core.c **** 					pdynamic,
1383:D:/Git/VL53L1/lib/core/src\vl53l1_api_core.c **** 					psystem,
1384:D:/Git/VL53L1/lib/core/src\vl53l1_api_core.c **** 					ptuning_parms,
1385:D:/Git/VL53L1/lib/core/src\vl53l1_api_core.c **** 					plpadata);
1386:D:/Git/VL53L1/lib/core/src\vl53l1_api_core.c **** 		break;
1387:D:/Git/VL53L1/lib/core/src\vl53l1_api_core.c **** 
1388:D:/Git/VL53L1/lib/core/src\vl53l1_api_core.c **** 	case VL53L1_DEVICEPRESETMODE_LOWPOWERAUTO_MEDIUM_RANGE:
1389:D:/Git/VL53L1/lib/core/src\vl53l1_api_core.c **** 		status = VL53L1_preset_mode_low_power_auto_ranging(
1390:D:/Git/VL53L1/lib/core/src\vl53l1_api_core.c **** 					pstatic,
1391:D:/Git/VL53L1/lib/core/src\vl53l1_api_core.c **** 					pgeneral,
1392:D:/Git/VL53L1/lib/core/src\vl53l1_api_core.c **** 					ptiming,
1393:D:/Git/VL53L1/lib/core/src\vl53l1_api_core.c **** 					pdynamic,
1394:D:/Git/VL53L1/lib/core/src\vl53l1_api_core.c **** 					psystem,
1395:D:/Git/VL53L1/lib/core/src\vl53l1_api_core.c **** 					ptuning_parms,
1396:D:/Git/VL53L1/lib/core/src\vl53l1_api_core.c **** 					plpadata);
1397:D:/Git/VL53L1/lib/core/src\vl53l1_api_core.c **** 		break;
1398:D:/Git/VL53L1/lib/core/src\vl53l1_api_core.c **** 
1399:D:/Git/VL53L1/lib/core/src\vl53l1_api_core.c **** 	case VL53L1_DEVICEPRESETMODE_LOWPOWERAUTO_LONG_RANGE:
1400:D:/Git/VL53L1/lib/core/src\vl53l1_api_core.c **** 		status = VL53L1_preset_mode_low_power_auto_long_ranging(
1401:D:/Git/VL53L1/lib/core/src\vl53l1_api_core.c **** 					pstatic,
1402:D:/Git/VL53L1/lib/core/src\vl53l1_api_core.c **** 					pgeneral,
1403:D:/Git/VL53L1/lib/core/src\vl53l1_api_core.c **** 					ptiming,
ARM GAS  C:\Users\Berbardo\AppData\Local\Temp\ccBMvrJ9.s 			page 61


1404:D:/Git/VL53L1/lib/core/src\vl53l1_api_core.c **** 					pdynamic,
1405:D:/Git/VL53L1/lib/core/src\vl53l1_api_core.c **** 					psystem,
1406:D:/Git/VL53L1/lib/core/src\vl53l1_api_core.c **** 					ptuning_parms,
1407:D:/Git/VL53L1/lib/core/src\vl53l1_api_core.c **** 					plpadata);
1408:D:/Git/VL53L1/lib/core/src\vl53l1_api_core.c **** 		break;
1409:D:/Git/VL53L1/lib/core/src\vl53l1_api_core.c **** 
1410:D:/Git/VL53L1/lib/core/src\vl53l1_api_core.c **** 	default:
1411:D:/Git/VL53L1/lib/core/src\vl53l1_api_core.c **** 		status = VL53L1_ERROR_INVALID_PARAMS;
1412:D:/Git/VL53L1/lib/core/src\vl53l1_api_core.c **** 		break;
1413:D:/Git/VL53L1/lib/core/src\vl53l1_api_core.c **** 
1414:D:/Git/VL53L1/lib/core/src\vl53l1_api_core.c **** 	}
1415:D:/Git/VL53L1/lib/core/src\vl53l1_api_core.c **** 
1416:D:/Git/VL53L1/lib/core/src\vl53l1_api_core.c **** 	/* update DSS target */
1417:D:/Git/VL53L1/lib/core/src\vl53l1_api_core.c **** 
1418:D:/Git/VL53L1/lib/core/src\vl53l1_api_core.c **** 	if (status == VL53L1_ERROR_NONE) {
 1911              		.loc 1 1418 2 view .LVU609
 1912              		.loc 1 1418 5 is_stmt 0 view .LVU610
 1913 0086 18B9     		cbnz	r0, .L90
1419:D:/Git/VL53L1/lib/core/src\vl53l1_api_core.c **** 
1420:D:/Git/VL53L1/lib/core/src\vl53l1_api_core.c **** 		pstatic->dss_config__target_total_rate_mcps =
 1914              		.loc 1 1420 3 is_stmt 1 view .LVU611
 1915              		.loc 1 1420 47 is_stmt 0 view .LVU612
 1916 0088 069B     		ldr	r3, [sp, #24]
 1917 008a A4F86431 		strh	r3, [r4, #356]	@ movhi
1421:D:/Git/VL53L1/lib/core/src\vl53l1_api_core.c **** 				dss_config__target_total_rate_mcps;
1422:D:/Git/VL53L1/lib/core/src\vl53l1_api_core.c **** 		pdev->dss_config__target_total_rate_mcps    =
 1918              		.loc 1 1422 3 is_stmt 1 view .LVU613
 1919              		.loc 1 1422 47 is_stmt 0 view .LVU614
 1920 008e 2383     		strh	r3, [r4, #24]	@ movhi
 1921              	.LVL171:
 1922              	.L90:
1423:D:/Git/VL53L1/lib/core/src\vl53l1_api_core.c **** 				dss_config__target_total_rate_mcps;
1424:D:/Git/VL53L1/lib/core/src\vl53l1_api_core.c **** 
1425:D:/Git/VL53L1/lib/core/src\vl53l1_api_core.c **** 	}
1426:D:/Git/VL53L1/lib/core/src\vl53l1_api_core.c **** 
1427:D:/Git/VL53L1/lib/core/src\vl53l1_api_core.c **** 	/*
1428:D:/Git/VL53L1/lib/core/src\vl53l1_api_core.c **** 	 * Update the register timeout values based on input
1429:D:/Git/VL53L1/lib/core/src\vl53l1_api_core.c **** 	 * real time values and preset mode VCSEL periods
1430:D:/Git/VL53L1/lib/core/src\vl53l1_api_core.c **** 	 */
1431:D:/Git/VL53L1/lib/core/src\vl53l1_api_core.c **** 
1432:D:/Git/VL53L1/lib/core/src\vl53l1_api_core.c **** 	if (status == VL53L1_ERROR_NONE)
 1923              		.loc 1 1432 2 is_stmt 1 view .LVU615
 1924              		.loc 1 1432 5 is_stmt 0 view .LVU616
 1925 0090 0028     		cmp	r0, #0
 1926 0092 00F09380 		beq	.L110
 1927              	.L106:
 1928              	.LVL172:
1433:D:/Git/VL53L1/lib/core/src\vl53l1_api_core.c **** 		status =
1434:D:/Git/VL53L1/lib/core/src\vl53l1_api_core.c **** 			VL53L1_set_timeouts_us(
1435:D:/Git/VL53L1/lib/core/src\vl53l1_api_core.c **** 				Dev,
1436:D:/Git/VL53L1/lib/core/src\vl53l1_api_core.c **** 				phasecal_config_timeout_us,
1437:D:/Git/VL53L1/lib/core/src\vl53l1_api_core.c **** 				mm_config_timeout_us,
1438:D:/Git/VL53L1/lib/core/src\vl53l1_api_core.c **** 				range_config_timeout_us);
1439:D:/Git/VL53L1/lib/core/src\vl53l1_api_core.c **** 
1440:D:/Git/VL53L1/lib/core/src\vl53l1_api_core.c **** 	if (status == VL53L1_ERROR_NONE)
 1929              		.loc 1 1440 2 is_stmt 1 view .LVU617
 1930              		.loc 1 1440 5 is_stmt 0 view .LVU618
ARM GAS  C:\Users\Berbardo\AppData\Local\Temp\ccBMvrJ9.s 			page 62


 1931 0096 0028     		cmp	r0, #0
 1932 0098 00F09780 		beq	.L111
 1933              	.L107:
1441:D:/Git/VL53L1/lib/core/src\vl53l1_api_core.c **** 		status =
1442:D:/Git/VL53L1/lib/core/src\vl53l1_api_core.c **** 			VL53L1_set_inter_measurement_period_ms(
1443:D:/Git/VL53L1/lib/core/src\vl53l1_api_core.c **** 				Dev,
1444:D:/Git/VL53L1/lib/core/src\vl53l1_api_core.c **** 				inter_measurement_period_ms);
1445:D:/Git/VL53L1/lib/core/src\vl53l1_api_core.c **** 
1446:D:/Git/VL53L1/lib/core/src\vl53l1_api_core.c **** 	LOG_FUNCTION_END(status);
 1934              		.loc 1 1446 26 is_stmt 1 view .LVU619
1447:D:/Git/VL53L1/lib/core/src\vl53l1_api_core.c **** 
1448:D:/Git/VL53L1/lib/core/src\vl53l1_api_core.c **** 	return status;
 1935              		.loc 1 1448 2 view .LVU620
1449:D:/Git/VL53L1/lib/core/src\vl53l1_api_core.c **** }
 1936              		.loc 1 1449 1 is_stmt 0 view .LVU621
 1937 009c 09B0     		add	sp, sp, #36
 1938              		.cfi_remember_state
 1939              		.cfi_def_cfa_offset 36
 1940              		@ sp needed
 1941 009e BDE8F08F 		pop	{r4, r5, r6, r7, r8, r9, r10, fp, pc}
 1942              	.LVL173:
 1943              	.L103:
 1944              		.cfi_restore_state
1286:D:/Git/VL53L1/lib/core/src\vl53l1_api_core.c **** 					pstatic,
 1945              		.loc 1 1286 3 is_stmt 1 view .LVU622
1286:D:/Git/VL53L1/lib/core/src\vl53l1_api_core.c **** 					pstatic,
 1946              		.loc 1 1286 12 is_stmt 0 view .LVU623
 1947 00a2 CDF804A0 		str	r10, [sp, #4]
 1948 00a6 CDF80090 		str	r9, [sp]
 1949 00aa 059B     		ldr	r3, [sp, #20]
 1950 00ac 3246     		mov	r2, r6
 1951 00ae 4146     		mov	r1, r8
 1952 00b0 3846     		mov	r0, r7
 1953 00b2 FFF7FEFF 		bl	VL53L1_preset_mode_standard_ranging_short_range
 1954              	.LVL174:
1293:D:/Git/VL53L1/lib/core/src\vl53l1_api_core.c **** 
 1955              		.loc 1 1293 3 is_stmt 1 view .LVU624
 1956 00b6 E6E7     		b	.L105
 1957              	.LVL175:
 1958              	.L102:
1296:D:/Git/VL53L1/lib/core/src\vl53l1_api_core.c **** 					pstatic,
 1959              		.loc 1 1296 3 view .LVU625
1296:D:/Git/VL53L1/lib/core/src\vl53l1_api_core.c **** 					pstatic,
 1960              		.loc 1 1296 12 is_stmt 0 view .LVU626
 1961 00b8 CDF804A0 		str	r10, [sp, #4]
 1962 00bc CDF80090 		str	r9, [sp]
 1963 00c0 059B     		ldr	r3, [sp, #20]
 1964 00c2 3246     		mov	r2, r6
 1965 00c4 4146     		mov	r1, r8
 1966 00c6 3846     		mov	r0, r7
 1967 00c8 FFF7FEFF 		bl	VL53L1_preset_mode_standard_ranging_long_range
 1968              	.LVL176:
1303:D:/Git/VL53L1/lib/core/src\vl53l1_api_core.c **** 
 1969              		.loc 1 1303 3 is_stmt 1 view .LVU627
 1970 00cc DBE7     		b	.L105
 1971              	.LVL177:
 1972              	.L101:
ARM GAS  C:\Users\Berbardo\AppData\Local\Temp\ccBMvrJ9.s 			page 63


1307:D:/Git/VL53L1/lib/core/src\vl53l1_api_core.c **** 					pstatic,
 1973              		.loc 1 1307 3 view .LVU628
1307:D:/Git/VL53L1/lib/core/src\vl53l1_api_core.c **** 					pstatic,
 1974              		.loc 1 1307 12 is_stmt 0 view .LVU629
 1975 00ce CDF804A0 		str	r10, [sp, #4]
 1976 00d2 CDF80090 		str	r9, [sp]
 1977 00d6 059B     		ldr	r3, [sp, #20]
 1978 00d8 3246     		mov	r2, r6
 1979 00da 4146     		mov	r1, r8
 1980 00dc 3846     		mov	r0, r7
 1981 00de FFF7FEFF 		bl	VL53L1_preset_mode_standard_ranging_mm1_cal
 1982              	.LVL178:
1314:D:/Git/VL53L1/lib/core/src\vl53l1_api_core.c **** 
 1983              		.loc 1 1314 3 is_stmt 1 view .LVU630
 1984 00e2 D0E7     		b	.L105
 1985              	.LVL179:
 1986              	.L100:
1317:D:/Git/VL53L1/lib/core/src\vl53l1_api_core.c **** 					pstatic,
 1987              		.loc 1 1317 3 view .LVU631
1317:D:/Git/VL53L1/lib/core/src\vl53l1_api_core.c **** 					pstatic,
 1988              		.loc 1 1317 12 is_stmt 0 view .LVU632
 1989 00e4 CDF804A0 		str	r10, [sp, #4]
 1990 00e8 CDF80090 		str	r9, [sp]
 1991 00ec 059B     		ldr	r3, [sp, #20]
 1992 00ee 3246     		mov	r2, r6
 1993 00f0 4146     		mov	r1, r8
 1994 00f2 3846     		mov	r0, r7
 1995 00f4 FFF7FEFF 		bl	VL53L1_preset_mode_standard_ranging_mm2_cal
 1996              	.LVL180:
1324:D:/Git/VL53L1/lib/core/src\vl53l1_api_core.c **** #endif
 1997              		.loc 1 1324 3 is_stmt 1 view .LVU633
 1998 00f8 C5E7     		b	.L105
 1999              	.LVL181:
 2000              	.L99:
1328:D:/Git/VL53L1/lib/core/src\vl53l1_api_core.c **** 					pstatic,
 2001              		.loc 1 1328 3 view .LVU634
1328:D:/Git/VL53L1/lib/core/src\vl53l1_api_core.c **** 					pstatic,
 2002              		.loc 1 1328 12 is_stmt 0 view .LVU635
 2003 00fa CDF804A0 		str	r10, [sp, #4]
 2004 00fe CDF80090 		str	r9, [sp]
 2005 0102 059B     		ldr	r3, [sp, #20]
 2006 0104 3246     		mov	r2, r6
 2007 0106 4146     		mov	r1, r8
 2008 0108 3846     		mov	r0, r7
 2009 010a FFF7FEFF 		bl	VL53L1_preset_mode_timed_ranging
 2010              	.LVL182:
1335:D:/Git/VL53L1/lib/core/src\vl53l1_api_core.c **** 
 2011              		.loc 1 1335 3 is_stmt 1 view .LVU636
 2012 010e BAE7     		b	.L105
 2013              	.LVL183:
 2014              	.L98:
1338:D:/Git/VL53L1/lib/core/src\vl53l1_api_core.c **** 					pstatic,
 2015              		.loc 1 1338 3 view .LVU637
1338:D:/Git/VL53L1/lib/core/src\vl53l1_api_core.c **** 					pstatic,
 2016              		.loc 1 1338 12 is_stmt 0 view .LVU638
 2017 0110 CDF804A0 		str	r10, [sp, #4]
 2018 0114 CDF80090 		str	r9, [sp]
ARM GAS  C:\Users\Berbardo\AppData\Local\Temp\ccBMvrJ9.s 			page 64


 2019 0118 059B     		ldr	r3, [sp, #20]
 2020 011a 3246     		mov	r2, r6
 2021 011c 4146     		mov	r1, r8
 2022 011e 3846     		mov	r0, r7
 2023 0120 FFF7FEFF 		bl	VL53L1_preset_mode_timed_ranging_short_range
 2024              	.LVL184:
1345:D:/Git/VL53L1/lib/core/src\vl53l1_api_core.c **** 
 2025              		.loc 1 1345 3 is_stmt 1 view .LVU639
 2026 0124 AFE7     		b	.L105
 2027              	.LVL185:
 2028              	.L97:
1348:D:/Git/VL53L1/lib/core/src\vl53l1_api_core.c **** 					pstatic,
 2029              		.loc 1 1348 3 view .LVU640
1348:D:/Git/VL53L1/lib/core/src\vl53l1_api_core.c **** 					pstatic,
 2030              		.loc 1 1348 12 is_stmt 0 view .LVU641
 2031 0126 CDF804A0 		str	r10, [sp, #4]
 2032 012a CDF80090 		str	r9, [sp]
 2033 012e 059B     		ldr	r3, [sp, #20]
 2034 0130 3246     		mov	r2, r6
 2035 0132 4146     		mov	r1, r8
 2036 0134 3846     		mov	r0, r7
 2037 0136 FFF7FEFF 		bl	VL53L1_preset_mode_timed_ranging_long_range
 2038              	.LVL186:
1355:D:/Git/VL53L1/lib/core/src\vl53l1_api_core.c **** 
 2039              		.loc 1 1355 3 is_stmt 1 view .LVU642
 2040 013a A4E7     		b	.L105
 2041              	.LVL187:
 2042              	.L96:
1358:D:/Git/VL53L1/lib/core/src\vl53l1_api_core.c **** 					pstatic,
 2043              		.loc 1 1358 3 view .LVU643
1358:D:/Git/VL53L1/lib/core/src\vl53l1_api_core.c **** 					pstatic,
 2044              		.loc 1 1358 12 is_stmt 0 view .LVU644
 2045 013c CDF804A0 		str	r10, [sp, #4]
 2046 0140 CDF80090 		str	r9, [sp]
 2047 0144 059B     		ldr	r3, [sp, #20]
 2048 0146 3246     		mov	r2, r6
 2049 0148 4146     		mov	r1, r8
 2050 014a 3846     		mov	r0, r7
 2051 014c FFF7FEFF 		bl	VL53L1_preset_mode_olt
 2052              	.LVL188:
1365:D:/Git/VL53L1/lib/core/src\vl53l1_api_core.c **** 
 2053              		.loc 1 1365 3 is_stmt 1 view .LVU645
 2054 0150 99E7     		b	.L105
 2055              	.LVL189:
 2056              	.L95:
1368:D:/Git/VL53L1/lib/core/src\vl53l1_api_core.c **** 					pstatic,
 2057              		.loc 1 1368 3 view .LVU646
1368:D:/Git/VL53L1/lib/core/src\vl53l1_api_core.c **** 					pstatic,
 2058              		.loc 1 1368 12 is_stmt 0 view .LVU647
 2059 0152 CDF804A0 		str	r10, [sp, #4]
 2060 0156 CDF80090 		str	r9, [sp]
 2061 015a 059B     		ldr	r3, [sp, #20]
 2062 015c 3246     		mov	r2, r6
 2063 015e 4146     		mov	r1, r8
 2064 0160 3846     		mov	r0, r7
 2065 0162 FFF7FEFF 		bl	VL53L1_preset_mode_singleshot_ranging
 2066              	.LVL190:
ARM GAS  C:\Users\Berbardo\AppData\Local\Temp\ccBMvrJ9.s 			page 65


1375:D:/Git/VL53L1/lib/core/src\vl53l1_api_core.c **** 
 2067              		.loc 1 1375 3 is_stmt 1 view .LVU648
 2068 0166 8EE7     		b	.L105
 2069              	.LVL191:
 2070              	.L94:
1378:D:/Git/VL53L1/lib/core/src\vl53l1_api_core.c **** 					pstatic,
 2071              		.loc 1 1378 3 view .LVU649
1378:D:/Git/VL53L1/lib/core/src\vl53l1_api_core.c **** 					pstatic,
 2072              		.loc 1 1378 12 is_stmt 0 view .LVU650
 2073 0168 CDF808B0 		str	fp, [sp, #8]
 2074 016c CDF804A0 		str	r10, [sp, #4]
 2075 0170 CDF80090 		str	r9, [sp]
 2076 0174 059B     		ldr	r3, [sp, #20]
 2077 0176 3246     		mov	r2, r6
 2078 0178 4146     		mov	r1, r8
 2079 017a 3846     		mov	r0, r7
 2080 017c FFF7FEFF 		bl	VL53L1_preset_mode_low_power_auto_short_ranging
 2081              	.LVL192:
1386:D:/Git/VL53L1/lib/core/src\vl53l1_api_core.c **** 
 2082              		.loc 1 1386 3 is_stmt 1 view .LVU651
 2083 0180 81E7     		b	.L105
 2084              	.LVL193:
 2085              	.L93:
1389:D:/Git/VL53L1/lib/core/src\vl53l1_api_core.c **** 					pstatic,
 2086              		.loc 1 1389 3 view .LVU652
1389:D:/Git/VL53L1/lib/core/src\vl53l1_api_core.c **** 					pstatic,
 2087              		.loc 1 1389 12 is_stmt 0 view .LVU653
 2088 0182 CDF808B0 		str	fp, [sp, #8]
 2089 0186 CDF804A0 		str	r10, [sp, #4]
 2090 018a CDF80090 		str	r9, [sp]
 2091 018e 059B     		ldr	r3, [sp, #20]
 2092 0190 3246     		mov	r2, r6
 2093 0192 4146     		mov	r1, r8
 2094 0194 3846     		mov	r0, r7
 2095 0196 FFF7FEFF 		bl	VL53L1_preset_mode_low_power_auto_ranging
 2096              	.LVL194:
1397:D:/Git/VL53L1/lib/core/src\vl53l1_api_core.c **** 
 2097              		.loc 1 1397 3 is_stmt 1 view .LVU654
 2098 019a 74E7     		b	.L105
 2099              	.LVL195:
 2100              	.L91:
1400:D:/Git/VL53L1/lib/core/src\vl53l1_api_core.c **** 					pstatic,
 2101              		.loc 1 1400 3 view .LVU655
1400:D:/Git/VL53L1/lib/core/src\vl53l1_api_core.c **** 					pstatic,
 2102              		.loc 1 1400 12 is_stmt 0 view .LVU656
 2103 019c CDF808B0 		str	fp, [sp, #8]
 2104 01a0 CDF804A0 		str	r10, [sp, #4]
 2105 01a4 CDF80090 		str	r9, [sp]
 2106 01a8 059B     		ldr	r3, [sp, #20]
 2107 01aa 3246     		mov	r2, r6
 2108 01ac 4146     		mov	r1, r8
 2109 01ae 3846     		mov	r0, r7
 2110 01b0 FFF7FEFF 		bl	VL53L1_preset_mode_low_power_auto_long_ranging
 2111              	.LVL196:
1408:D:/Git/VL53L1/lib/core/src\vl53l1_api_core.c **** 
 2112              		.loc 1 1408 3 is_stmt 1 view .LVU657
 2113 01b4 67E7     		b	.L105
ARM GAS  C:\Users\Berbardo\AppData\Local\Temp\ccBMvrJ9.s 			page 66


 2114              	.LVL197:
 2115              	.L108:
1411:D:/Git/VL53L1/lib/core/src\vl53l1_api_core.c **** 		break;
 2116              		.loc 1 1411 10 is_stmt 0 view .LVU658
 2117 01b6 6FF00300 		mvn	r0, #3
 2118 01ba 69E7     		b	.L90
 2119              	.LVL198:
 2120              	.L110:
1433:D:/Git/VL53L1/lib/core/src\vl53l1_api_core.c **** 			VL53L1_set_timeouts_us(
 2121              		.loc 1 1433 3 is_stmt 1 view .LVU659
1434:D:/Git/VL53L1/lib/core/src\vl53l1_api_core.c **** 				Dev,
 2122              		.loc 1 1434 4 is_stmt 0 view .LVU660
 2123 01bc 139B     		ldr	r3, [sp, #76]
 2124 01be 129A     		ldr	r2, [sp, #72]
 2125 01c0 0799     		ldr	r1, [sp, #28]
 2126 01c2 2046     		mov	r0, r4
 2127 01c4 FFF7FEFF 		bl	VL53L1_set_timeouts_us
 2128              	.LVL199:
1434:D:/Git/VL53L1/lib/core/src\vl53l1_api_core.c **** 				Dev,
 2129              		.loc 1 1434 4 view .LVU661
 2130 01c8 65E7     		b	.L106
 2131              	.L111:
1441:D:/Git/VL53L1/lib/core/src\vl53l1_api_core.c **** 			VL53L1_set_inter_measurement_period_ms(
 2132              		.loc 1 1441 3 is_stmt 1 view .LVU662
1442:D:/Git/VL53L1/lib/core/src\vl53l1_api_core.c **** 				Dev,
 2133              		.loc 1 1442 4 is_stmt 0 view .LVU663
 2134 01ca 1499     		ldr	r1, [sp, #80]
 2135 01cc 2046     		mov	r0, r4
 2136              	.LVL200:
1442:D:/Git/VL53L1/lib/core/src\vl53l1_api_core.c **** 				Dev,
 2137              		.loc 1 1442 4 view .LVU664
 2138 01ce FFF7FEFF 		bl	VL53L1_set_inter_measurement_period_ms
 2139              	.LVL201:
1442:D:/Git/VL53L1/lib/core/src\vl53l1_api_core.c **** 				Dev,
 2140              		.loc 1 1442 4 view .LVU665
 2141 01d2 63E7     		b	.L107
 2142              		.cfi_endproc
 2143              	.LFE149:
 2145              		.section	.text.VL53L1_enable_xtalk_compensation,"ax",%progbits
 2146              		.align	1
 2147              		.global	VL53L1_enable_xtalk_compensation
 2148              		.syntax unified
 2149              		.thumb
 2150              		.thumb_func
 2151              		.fpu fpv4-sp-d16
 2153              	VL53L1_enable_xtalk_compensation:
 2154              	.LVL202:
 2155              	.LFB150:
1450:D:/Git/VL53L1/lib/core/src\vl53l1_api_core.c **** 
1451:D:/Git/VL53L1/lib/core/src\vl53l1_api_core.c **** 
1452:D:/Git/VL53L1/lib/core/src\vl53l1_api_core.c **** VL53L1_Error  VL53L1_enable_xtalk_compensation(
1453:D:/Git/VL53L1/lib/core/src\vl53l1_api_core.c **** 	VL53L1_DEV                 Dev)
1454:D:/Git/VL53L1/lib/core/src\vl53l1_api_core.c **** {
 2156              		.loc 1 1454 1 is_stmt 1 view -0
 2157              		.cfi_startproc
 2158              		@ args = 0, pretend = 0, frame = 0
 2159              		@ frame_needed = 0, uses_anonymous_args = 0
ARM GAS  C:\Users\Berbardo\AppData\Local\Temp\ccBMvrJ9.s 			page 67


 2160              		.loc 1 1454 1 is_stmt 0 view .LVU667
 2161 0000 10B5     		push	{r4, lr}
 2162              		.cfi_def_cfa_offset 8
 2163              		.cfi_offset 4, -8
 2164              		.cfi_offset 14, -4
 2165 0002 0446     		mov	r4, r0
1455:D:/Git/VL53L1/lib/core/src\vl53l1_api_core.c **** 	/**
1456:D:/Git/VL53L1/lib/core/src\vl53l1_api_core.c **** 	 * Currently a very simple function to copy
1457:D:/Git/VL53L1/lib/core/src\vl53l1_api_core.c **** 	 * private xtalk parms into customer section and apply to device
1458:D:/Git/VL53L1/lib/core/src\vl53l1_api_core.c **** 	 *
1459:D:/Git/VL53L1/lib/core/src\vl53l1_api_core.c **** 	 */
1460:D:/Git/VL53L1/lib/core/src\vl53l1_api_core.c **** 
1461:D:/Git/VL53L1/lib/core/src\vl53l1_api_core.c **** 	VL53L1_Error status = VL53L1_ERROR_NONE;
 2166              		.loc 1 1461 2 is_stmt 1 view .LVU668
 2167              	.LVL203:
1462:D:/Git/VL53L1/lib/core/src\vl53l1_api_core.c **** 	uint32_t tempu32;
 2168              		.loc 1 1462 2 view .LVU669
1463:D:/Git/VL53L1/lib/core/src\vl53l1_api_core.c **** 
1464:D:/Git/VL53L1/lib/core/src\vl53l1_api_core.c **** 	VL53L1_LLDriverData_t *pdev = VL53L1DevStructGetLLDriverHandle(Dev);
 2169              		.loc 1 1464 2 view .LVU670
1465:D:/Git/VL53L1/lib/core/src\vl53l1_api_core.c **** 
1466:D:/Git/VL53L1/lib/core/src\vl53l1_api_core.c **** 	LOG_FUNCTION_START("");
 2170              		.loc 1 1466 24 view .LVU671
1467:D:/Git/VL53L1/lib/core/src\vl53l1_api_core.c **** 
1468:D:/Git/VL53L1/lib/core/src\vl53l1_api_core.c **** 	/* Fill Public customer NVM data with Xtalk parms */
1469:D:/Git/VL53L1/lib/core/src\vl53l1_api_core.c **** 	tempu32 = VL53L1_calc_crosstalk_plane_offset_with_margin(
 2171              		.loc 1 1469 2 view .LVU672
 2172              		.loc 1 1469 12 is_stmt 0 view .LVU673
 2173 0004 B0F93E11 		ldrsh	r1, [r0, #318]
 2174 0008 D0F82C01 		ldr	r0, [r0, #300]
 2175              	.LVL204:
 2176              		.loc 1 1469 12 view .LVU674
 2177 000c FFF7FEFF 		bl	VL53L1_calc_crosstalk_plane_offset_with_margin
 2178              	.LVL205:
1470:D:/Git/VL53L1/lib/core/src\vl53l1_api_core.c **** 		pdev->xtalk_cfg.algo__crosstalk_compensation_plane_offset_kcps,
1471:D:/Git/VL53L1/lib/core/src\vl53l1_api_core.c **** 		pdev->xtalk_cfg.lite_mode_crosstalk_margin_kcps);
1472:D:/Git/VL53L1/lib/core/src\vl53l1_api_core.c **** 	if (tempu32 > 0xFFFF) {
 2179              		.loc 1 1472 2 is_stmt 1 view .LVU675
 2180              		.loc 1 1472 5 is_stmt 0 view .LVU676
 2181 0010 B0F5803F 		cmp	r0, #65536
 2182 0014 01D3     		bcc	.L113
1473:D:/Git/VL53L1/lib/core/src\vl53l1_api_core.c **** 		tempu32 = 0xFFFF;
 2183              		.loc 1 1473 11 view .LVU677
 2184 0016 4FF6FF70 		movw	r0, #65535
 2185              	.LVL206:
 2186              	.L113:
1474:D:/Git/VL53L1/lib/core/src\vl53l1_api_core.c **** 	}
1475:D:/Git/VL53L1/lib/core/src\vl53l1_api_core.c **** 	pdev->customer.algo__crosstalk_compensation_plane_offset_kcps =
 2187              		.loc 1 1475 2 is_stmt 1 view .LVU678
 2188              		.loc 1 1475 64 is_stmt 0 view .LVU679
 2189 001a A4F84C00 		strh	r0, [r4, #76]	@ movhi
1476:D:/Git/VL53L1/lib/core/src\vl53l1_api_core.c **** 		(uint16_t)tempu32;
1477:D:/Git/VL53L1/lib/core/src\vl53l1_api_core.c **** 
1478:D:/Git/VL53L1/lib/core/src\vl53l1_api_core.c **** 	pdev->customer.algo__crosstalk_compensation_x_plane_gradient_kcps =
 2190              		.loc 1 1478 2 is_stmt 1 view .LVU680
1479:D:/Git/VL53L1/lib/core/src\vl53l1_api_core.c **** 		pdev->xtalk_cfg.algo__crosstalk_compensation_x_plane_gradient_kcps;
 2191              		.loc 1 1479 18 is_stmt 0 view .LVU681
ARM GAS  C:\Users\Berbardo\AppData\Local\Temp\ccBMvrJ9.s 			page 68


 2192 001e B4F93011 		ldrsh	r1, [r4, #304]
1478:D:/Git/VL53L1/lib/core/src\vl53l1_api_core.c **** 		pdev->xtalk_cfg.algo__crosstalk_compensation_x_plane_gradient_kcps;
 2193              		.loc 1 1478 68 view .LVU682
 2194 0022 A4F84E10 		strh	r1, [r4, #78]	@ movhi
1480:D:/Git/VL53L1/lib/core/src\vl53l1_api_core.c **** 
1481:D:/Git/VL53L1/lib/core/src\vl53l1_api_core.c **** 	pdev->customer.algo__crosstalk_compensation_y_plane_gradient_kcps =
 2195              		.loc 1 1481 2 is_stmt 1 view .LVU683
1482:D:/Git/VL53L1/lib/core/src\vl53l1_api_core.c **** 		pdev->xtalk_cfg.algo__crosstalk_compensation_y_plane_gradient_kcps;
 2196              		.loc 1 1482 18 is_stmt 0 view .LVU684
 2197 0026 B4F93221 		ldrsh	r2, [r4, #306]
1481:D:/Git/VL53L1/lib/core/src\vl53l1_api_core.c **** 		pdev->xtalk_cfg.algo__crosstalk_compensation_y_plane_gradient_kcps;
 2198              		.loc 1 1481 68 view .LVU685
 2199 002a A4F85020 		strh	r2, [r4, #80]	@ movhi
1483:D:/Git/VL53L1/lib/core/src\vl53l1_api_core.c **** 
1484:D:/Git/VL53L1/lib/core/src\vl53l1_api_core.c **** 	/* Enable Xtalk compensation */
1485:D:/Git/VL53L1/lib/core/src\vl53l1_api_core.c **** 	pdev->xtalk_cfg.global_crosstalk_compensation_enable = 0x01;
 2200              		.loc 1 1485 2 is_stmt 1 view .LVU686
 2201              		.loc 1 1485 55 is_stmt 0 view .LVU687
 2202 002e 0123     		movs	r3, #1
 2203 0030 84F83C31 		strb	r3, [r4, #316]
1486:D:/Git/VL53L1/lib/core/src\vl53l1_api_core.c **** 
1487:D:/Git/VL53L1/lib/core/src\vl53l1_api_core.c **** 	/* Update Range Ignore Threshold Xtalk Parameter */
1488:D:/Git/VL53L1/lib/core/src\vl53l1_api_core.c **** 
1489:D:/Git/VL53L1/lib/core/src\vl53l1_api_core.c **** 	if (status == VL53L1_ERROR_NONE) {
 2204              		.loc 1 1489 2 is_stmt 1 view .LVU688
1490:D:/Git/VL53L1/lib/core/src\vl53l1_api_core.c **** 		pdev->xtalk_cfg.crosstalk_range_ignore_threshold_rate_mcps =
 2205              		.loc 1 1490 3 view .LVU689
1491:D:/Git/VL53L1/lib/core/src\vl53l1_api_core.c **** 			VL53L1_calc_range_ignore_threshold(
 2206              		.loc 1 1491 4 is_stmt 0 view .LVU690
 2207 0034 94F84031 		ldrb	r3, [r4, #320]	@ zero_extendqisi2
 2208 0038 D4F82C01 		ldr	r0, [r4, #300]
 2209              	.LVL207:
 2210              		.loc 1 1491 4 view .LVU691
 2211 003c FFF7FEFF 		bl	VL53L1_calc_range_ignore_threshold
 2212              	.LVL208:
1490:D:/Git/VL53L1/lib/core/src\vl53l1_api_core.c **** 		pdev->xtalk_cfg.crosstalk_range_ignore_threshold_rate_mcps =
 2213              		.loc 1 1490 62 view .LVU692
 2214 0040 A4F84201 		strh	r0, [r4, #322]	@ movhi
1492:D:/Git/VL53L1/lib/core/src\vl53l1_api_core.c **** 				pdev->xtalk_cfg.algo__crosstalk_compensation_plane_offset_kcps,
1493:D:/Git/VL53L1/lib/core/src\vl53l1_api_core.c **** 				pdev->xtalk_cfg.algo__crosstalk_compensation_x_plane_gradient_kcps,
1494:D:/Git/VL53L1/lib/core/src\vl53l1_api_core.c **** 				pdev->xtalk_cfg.algo__crosstalk_compensation_y_plane_gradient_kcps,
1495:D:/Git/VL53L1/lib/core/src\vl53l1_api_core.c **** 				pdev->xtalk_cfg.crosstalk_range_ignore_threshold_mult);
1496:D:/Git/VL53L1/lib/core/src\vl53l1_api_core.c **** 	}
1497:D:/Git/VL53L1/lib/core/src\vl53l1_api_core.c **** 
1498:D:/Git/VL53L1/lib/core/src\vl53l1_api_core.c **** 	/* Apply to device */
1499:D:/Git/VL53L1/lib/core/src\vl53l1_api_core.c **** 
1500:D:/Git/VL53L1/lib/core/src\vl53l1_api_core.c **** 	if (status == VL53L1_ERROR_NONE) /*lint !e774 always true*/
 2215              		.loc 1 1500 2 is_stmt 1 view .LVU693
1501:D:/Git/VL53L1/lib/core/src\vl53l1_api_core.c **** 		status =
 2216              		.loc 1 1501 3 view .LVU694
1502:D:/Git/VL53L1/lib/core/src\vl53l1_api_core.c **** 			VL53L1_set_customer_nvm_managed(
 2217              		.loc 1 1502 4 is_stmt 0 view .LVU695
 2218 0044 04F14201 		add	r1, r4, #66
 2219 0048 2046     		mov	r0, r4
 2220 004a FFF7FEFF 		bl	VL53L1_set_customer_nvm_managed
 2221              	.LVL209:
1503:D:/Git/VL53L1/lib/core/src\vl53l1_api_core.c **** 				Dev,
ARM GAS  C:\Users\Berbardo\AppData\Local\Temp\ccBMvrJ9.s 			page 69


1504:D:/Git/VL53L1/lib/core/src\vl53l1_api_core.c **** 				&(pdev->customer));
1505:D:/Git/VL53L1/lib/core/src\vl53l1_api_core.c **** 
1506:D:/Git/VL53L1/lib/core/src\vl53l1_api_core.c **** 	LOG_FUNCTION_END(status);
 2222              		.loc 1 1506 26 is_stmt 1 view .LVU696
1507:D:/Git/VL53L1/lib/core/src\vl53l1_api_core.c **** 
1508:D:/Git/VL53L1/lib/core/src\vl53l1_api_core.c **** 	return status;
 2223              		.loc 1 1508 2 view .LVU697
1509:D:/Git/VL53L1/lib/core/src\vl53l1_api_core.c **** 
1510:D:/Git/VL53L1/lib/core/src\vl53l1_api_core.c **** }
 2224              		.loc 1 1510 1 is_stmt 0 view .LVU698
 2225 004e 10BD     		pop	{r4, pc}
 2226              		.loc 1 1510 1 view .LVU699
 2227              		.cfi_endproc
 2228              	.LFE150:
 2230              		.section	.text.VL53L1_get_xtalk_compensation_enable,"ax",%progbits
 2231              		.align	1
 2232              		.global	VL53L1_get_xtalk_compensation_enable
 2233              		.syntax unified
 2234              		.thumb
 2235              		.thumb_func
 2236              		.fpu fpv4-sp-d16
 2238              	VL53L1_get_xtalk_compensation_enable:
 2239              	.LVL210:
 2240              	.LFB151:
1511:D:/Git/VL53L1/lib/core/src\vl53l1_api_core.c **** 
1512:D:/Git/VL53L1/lib/core/src\vl53l1_api_core.c **** void VL53L1_get_xtalk_compensation_enable(
1513:D:/Git/VL53L1/lib/core/src\vl53l1_api_core.c **** 	VL53L1_DEV    Dev,
1514:D:/Git/VL53L1/lib/core/src\vl53l1_api_core.c **** 	uint8_t       *pcrosstalk_compensation_enable)
1515:D:/Git/VL53L1/lib/core/src\vl53l1_api_core.c **** {
 2241              		.loc 1 1515 1 is_stmt 1 view -0
 2242              		.cfi_startproc
 2243              		@ args = 0, pretend = 0, frame = 0
 2244              		@ frame_needed = 0, uses_anonymous_args = 0
 2245              		@ link register save eliminated.
1516:D:/Git/VL53L1/lib/core/src\vl53l1_api_core.c **** 	/**
1517:D:/Git/VL53L1/lib/core/src\vl53l1_api_core.c **** 	 * Currently a very simple function to return
1518:D:/Git/VL53L1/lib/core/src\vl53l1_api_core.c **** 	 *
1519:D:/Git/VL53L1/lib/core/src\vl53l1_api_core.c **** 	 * - this flags whether xtalk compensation is enabled for all modes
1520:D:/Git/VL53L1/lib/core/src\vl53l1_api_core.c **** 	 * or not.
1521:D:/Git/VL53L1/lib/core/src\vl53l1_api_core.c **** 	 *
1522:D:/Git/VL53L1/lib/core/src\vl53l1_api_core.c **** 	 * #1 - Enabled
1523:D:/Git/VL53L1/lib/core/src\vl53l1_api_core.c **** 	 * #0 - Disabled
1524:D:/Git/VL53L1/lib/core/src\vl53l1_api_core.c **** 	 *
1525:D:/Git/VL53L1/lib/core/src\vl53l1_api_core.c **** 	 */
1526:D:/Git/VL53L1/lib/core/src\vl53l1_api_core.c **** 
1527:D:/Git/VL53L1/lib/core/src\vl53l1_api_core.c **** 	VL53L1_LLDriverData_t *pdev = VL53L1DevStructGetLLDriverHandle(Dev);
 2246              		.loc 1 1527 2 view .LVU701
1528:D:/Git/VL53L1/lib/core/src\vl53l1_api_core.c **** 
1529:D:/Git/VL53L1/lib/core/src\vl53l1_api_core.c **** 	LOG_FUNCTION_START("");
 2247              		.loc 1 1529 24 view .LVU702
1530:D:/Git/VL53L1/lib/core/src\vl53l1_api_core.c **** 
1531:D:/Git/VL53L1/lib/core/src\vl53l1_api_core.c **** 	/* Extract Xtalk Compensation Enable Status*/
1532:D:/Git/VL53L1/lib/core/src\vl53l1_api_core.c **** 
1533:D:/Git/VL53L1/lib/core/src\vl53l1_api_core.c **** 	*pcrosstalk_compensation_enable =
 2248              		.loc 1 1533 2 view .LVU703
1534:D:/Git/VL53L1/lib/core/src\vl53l1_api_core.c **** 		pdev->xtalk_cfg.global_crosstalk_compensation_enable;
 2249              		.loc 1 1534 18 is_stmt 0 view .LVU704
ARM GAS  C:\Users\Berbardo\AppData\Local\Temp\ccBMvrJ9.s 			page 70


 2250 0000 90F83C31 		ldrb	r3, [r0, #316]	@ zero_extendqisi2
1533:D:/Git/VL53L1/lib/core/src\vl53l1_api_core.c **** 		pdev->xtalk_cfg.global_crosstalk_compensation_enable;
 2251              		.loc 1 1533 34 view .LVU705
 2252 0004 0B70     		strb	r3, [r1]
1535:D:/Git/VL53L1/lib/core/src\vl53l1_api_core.c **** 
1536:D:/Git/VL53L1/lib/core/src\vl53l1_api_core.c **** }
 2253              		.loc 1 1536 1 view .LVU706
 2254 0006 7047     		bx	lr
 2255              		.cfi_endproc
 2256              	.LFE151:
 2258              		.section	.text.VL53L1_get_lite_xtalk_margin_kcps,"ax",%progbits
 2259              		.align	1
 2260              		.global	VL53L1_get_lite_xtalk_margin_kcps
 2261              		.syntax unified
 2262              		.thumb
 2263              		.thumb_func
 2264              		.fpu fpv4-sp-d16
 2266              	VL53L1_get_lite_xtalk_margin_kcps:
 2267              	.LVL211:
 2268              	.LFB152:
1537:D:/Git/VL53L1/lib/core/src\vl53l1_api_core.c **** 
1538:D:/Git/VL53L1/lib/core/src\vl53l1_api_core.c **** 
1539:D:/Git/VL53L1/lib/core/src\vl53l1_api_core.c **** VL53L1_Error VL53L1_get_lite_xtalk_margin_kcps(
1540:D:/Git/VL53L1/lib/core/src\vl53l1_api_core.c **** 	VL53L1_DEV                          Dev,
1541:D:/Git/VL53L1/lib/core/src\vl53l1_api_core.c **** 	int16_t                           *pxtalk_margin)
1542:D:/Git/VL53L1/lib/core/src\vl53l1_api_core.c **** {
 2269              		.loc 1 1542 1 is_stmt 1 view -0
 2270              		.cfi_startproc
 2271              		@ args = 0, pretend = 0, frame = 0
 2272              		@ frame_needed = 0, uses_anonymous_args = 0
 2273              		@ link register save eliminated.
1543:D:/Git/VL53L1/lib/core/src\vl53l1_api_core.c **** 
1544:D:/Git/VL53L1/lib/core/src\vl53l1_api_core.c **** 	/*
1545:D:/Git/VL53L1/lib/core/src\vl53l1_api_core.c **** 	 * Gets the Xtalk Margin Factor  in Kcps (fixed point 9.7)
1546:D:/Git/VL53L1/lib/core/src\vl53l1_api_core.c **** 	 */
1547:D:/Git/VL53L1/lib/core/src\vl53l1_api_core.c **** 
1548:D:/Git/VL53L1/lib/core/src\vl53l1_api_core.c **** 	VL53L1_Error  status = VL53L1_ERROR_NONE;
 2274              		.loc 1 1548 2 view .LVU708
1549:D:/Git/VL53L1/lib/core/src\vl53l1_api_core.c **** 
1550:D:/Git/VL53L1/lib/core/src\vl53l1_api_core.c **** 	VL53L1_LLDriverData_t *pdev = VL53L1DevStructGetLLDriverHandle(Dev);
 2275              		.loc 1 1550 2 view .LVU709
1551:D:/Git/VL53L1/lib/core/src\vl53l1_api_core.c **** 
1552:D:/Git/VL53L1/lib/core/src\vl53l1_api_core.c **** 	LOG_FUNCTION_START("");
 2276              		.loc 1 1552 24 view .LVU710
1553:D:/Git/VL53L1/lib/core/src\vl53l1_api_core.c **** 
1554:D:/Git/VL53L1/lib/core/src\vl53l1_api_core.c **** 	*pxtalk_margin = pdev->xtalk_cfg.lite_mode_crosstalk_margin_kcps;
 2277              		.loc 1 1554 2 view .LVU711
 2278              		.loc 1 1554 34 is_stmt 0 view .LVU712
 2279 0000 B0F93E31 		ldrsh	r3, [r0, #318]
 2280              		.loc 1 1554 17 view .LVU713
 2281 0004 0B80     		strh	r3, [r1]	@ movhi
1555:D:/Git/VL53L1/lib/core/src\vl53l1_api_core.c **** 
1556:D:/Git/VL53L1/lib/core/src\vl53l1_api_core.c **** 	LOG_FUNCTION_END(status);
 2282              		.loc 1 1556 26 is_stmt 1 view .LVU714
1557:D:/Git/VL53L1/lib/core/src\vl53l1_api_core.c **** 
1558:D:/Git/VL53L1/lib/core/src\vl53l1_api_core.c **** 	return status;
 2283              		.loc 1 1558 2 view .LVU715
ARM GAS  C:\Users\Berbardo\AppData\Local\Temp\ccBMvrJ9.s 			page 71


1559:D:/Git/VL53L1/lib/core/src\vl53l1_api_core.c **** 
1560:D:/Git/VL53L1/lib/core/src\vl53l1_api_core.c **** }
 2284              		.loc 1 1560 1 is_stmt 0 view .LVU716
 2285 0006 0020     		movs	r0, #0
 2286              	.LVL212:
 2287              		.loc 1 1560 1 view .LVU717
 2288 0008 7047     		bx	lr
 2289              		.cfi_endproc
 2290              	.LFE152:
 2292              		.section	.text.VL53L1_set_lite_xtalk_margin_kcps,"ax",%progbits
 2293              		.align	1
 2294              		.global	VL53L1_set_lite_xtalk_margin_kcps
 2295              		.syntax unified
 2296              		.thumb
 2297              		.thumb_func
 2298              		.fpu fpv4-sp-d16
 2300              	VL53L1_set_lite_xtalk_margin_kcps:
 2301              	.LVL213:
 2302              	.LFB153:
1561:D:/Git/VL53L1/lib/core/src\vl53l1_api_core.c **** 
1562:D:/Git/VL53L1/lib/core/src\vl53l1_api_core.c **** VL53L1_Error VL53L1_set_lite_xtalk_margin_kcps(
1563:D:/Git/VL53L1/lib/core/src\vl53l1_api_core.c **** 	VL53L1_DEV                     Dev,
1564:D:/Git/VL53L1/lib/core/src\vl53l1_api_core.c **** 	int16_t                        xtalk_margin)
1565:D:/Git/VL53L1/lib/core/src\vl53l1_api_core.c **** {
 2303              		.loc 1 1565 1 is_stmt 1 view -0
 2304              		.cfi_startproc
 2305              		@ args = 0, pretend = 0, frame = 0
 2306              		@ frame_needed = 0, uses_anonymous_args = 0
 2307              		@ link register save eliminated.
1566:D:/Git/VL53L1/lib/core/src\vl53l1_api_core.c **** 
1567:D:/Git/VL53L1/lib/core/src\vl53l1_api_core.c **** 	/*
1568:D:/Git/VL53L1/lib/core/src\vl53l1_api_core.c **** 	 * Sets the offset calibration mode
1569:D:/Git/VL53L1/lib/core/src\vl53l1_api_core.c **** 	 */
1570:D:/Git/VL53L1/lib/core/src\vl53l1_api_core.c **** 
1571:D:/Git/VL53L1/lib/core/src\vl53l1_api_core.c **** 	VL53L1_Error  status = VL53L1_ERROR_NONE;
 2308              		.loc 1 1571 2 view .LVU719
1572:D:/Git/VL53L1/lib/core/src\vl53l1_api_core.c **** 
1573:D:/Git/VL53L1/lib/core/src\vl53l1_api_core.c **** 	VL53L1_LLDriverData_t *pdev = VL53L1DevStructGetLLDriverHandle(Dev);
 2309              		.loc 1 1573 2 view .LVU720
