ARM GAS  C:\Users\Berbardo\AppData\Local\Temp\ccNyfDs0.s 			page 1


   1              		.cpu cortex-m4
   2              		.eabi_attribute 27, 1
   3              		.eabi_attribute 28, 1
   4              		.eabi_attribute 20, 1
   5              		.eabi_attribute 21, 1
   6              		.eabi_attribute 23, 3
   7              		.eabi_attribute 24, 1
   8              		.eabi_attribute 25, 1
   9              		.eabi_attribute 26, 1
  10              		.eabi_attribute 30, 1
  11              		.eabi_attribute 34, 1
  12              		.eabi_attribute 18, 4
  13              		.file	"vl53l1_api_calibration.c"
  14              		.text
  15              	.Ltext0:
  16              		.cfi_sections	.debug_frame
  17              		.section	.text.VL53L1_run_offset_calibration,"ax",%progbits
  18              		.align	1
  19              		.global	VL53L1_run_offset_calibration
  20              		.arch armv7e-m
  21              		.syntax unified
  22              		.thumb
  23              		.thumb_func
  24              		.fpu fpv4-sp-d16
  26              	VL53L1_run_offset_calibration:
  27              	.LVL0:
  28              	.LFB127:
  29              		.file 1 "D:/Git/VL53L1/lib/core/src/vl53l1_api_calibration.c"
   1:D:/Git/VL53L1/lib/core/src\vl53l1_api_calibration.c **** /*
   2:D:/Git/VL53L1/lib/core/src\vl53l1_api_calibration.c **** * Copyright (c) 2017, STMicroelectronics - All Rights Reserved
   3:D:/Git/VL53L1/lib/core/src\vl53l1_api_calibration.c **** *
   4:D:/Git/VL53L1/lib/core/src\vl53l1_api_calibration.c **** * This file is part of VL53L1 Core and is dual licensed,
   5:D:/Git/VL53L1/lib/core/src\vl53l1_api_calibration.c **** * either 'STMicroelectronics
   6:D:/Git/VL53L1/lib/core/src\vl53l1_api_calibration.c **** * Proprietary license'
   7:D:/Git/VL53L1/lib/core/src\vl53l1_api_calibration.c **** * or 'BSD 3-clause "New" or "Revised" License' , at your option.
   8:D:/Git/VL53L1/lib/core/src\vl53l1_api_calibration.c **** *
   9:D:/Git/VL53L1/lib/core/src\vl53l1_api_calibration.c **** ********************************************************************************
  10:D:/Git/VL53L1/lib/core/src\vl53l1_api_calibration.c **** *
  11:D:/Git/VL53L1/lib/core/src\vl53l1_api_calibration.c **** * 'STMicroelectronics Proprietary license'
  12:D:/Git/VL53L1/lib/core/src\vl53l1_api_calibration.c **** *
  13:D:/Git/VL53L1/lib/core/src\vl53l1_api_calibration.c **** ********************************************************************************
  14:D:/Git/VL53L1/lib/core/src\vl53l1_api_calibration.c **** *
  15:D:/Git/VL53L1/lib/core/src\vl53l1_api_calibration.c **** * License terms: STMicroelectronics Proprietary in accordance with licensing
  16:D:/Git/VL53L1/lib/core/src\vl53l1_api_calibration.c **** * terms at www.st.com/sla0081
  17:D:/Git/VL53L1/lib/core/src\vl53l1_api_calibration.c **** *
  18:D:/Git/VL53L1/lib/core/src\vl53l1_api_calibration.c **** * STMicroelectronics confidential
  19:D:/Git/VL53L1/lib/core/src\vl53l1_api_calibration.c **** * Reproduction and Communication of this document is strictly prohibited unless
  20:D:/Git/VL53L1/lib/core/src\vl53l1_api_calibration.c **** * specifically authorized in writing by STMicroelectronics.
  21:D:/Git/VL53L1/lib/core/src\vl53l1_api_calibration.c **** *
  22:D:/Git/VL53L1/lib/core/src\vl53l1_api_calibration.c **** *
  23:D:/Git/VL53L1/lib/core/src\vl53l1_api_calibration.c **** ********************************************************************************
  24:D:/Git/VL53L1/lib/core/src\vl53l1_api_calibration.c **** *
  25:D:/Git/VL53L1/lib/core/src\vl53l1_api_calibration.c **** * Alternatively, VL53L1 Core may be distributed under the terms of
  26:D:/Git/VL53L1/lib/core/src\vl53l1_api_calibration.c **** * 'BSD 3-clause "New" or "Revised" License', in which case the following
  27:D:/Git/VL53L1/lib/core/src\vl53l1_api_calibration.c **** * provisions apply instead of the ones mentioned above :
  28:D:/Git/VL53L1/lib/core/src\vl53l1_api_calibration.c **** *
  29:D:/Git/VL53L1/lib/core/src\vl53l1_api_calibration.c **** ********************************************************************************
ARM GAS  C:\Users\Berbardo\AppData\Local\Temp\ccNyfDs0.s 			page 2


  30:D:/Git/VL53L1/lib/core/src\vl53l1_api_calibration.c **** *
  31:D:/Git/VL53L1/lib/core/src\vl53l1_api_calibration.c **** * License terms: BSD 3-clause "New" or "Revised" License.
  32:D:/Git/VL53L1/lib/core/src\vl53l1_api_calibration.c **** *
  33:D:/Git/VL53L1/lib/core/src\vl53l1_api_calibration.c **** * Redistribution and use in source and binary forms, with or without
  34:D:/Git/VL53L1/lib/core/src\vl53l1_api_calibration.c **** * modification, are permitted provided that the following conditions are met:
  35:D:/Git/VL53L1/lib/core/src\vl53l1_api_calibration.c **** *
  36:D:/Git/VL53L1/lib/core/src\vl53l1_api_calibration.c **** * 1. Redistributions of source code must retain the above copyright notice, this
  37:D:/Git/VL53L1/lib/core/src\vl53l1_api_calibration.c **** * list of conditions and the following disclaimer.
  38:D:/Git/VL53L1/lib/core/src\vl53l1_api_calibration.c **** *
  39:D:/Git/VL53L1/lib/core/src\vl53l1_api_calibration.c **** * 2. Redistributions in binary form must reproduce the above copyright notice,
  40:D:/Git/VL53L1/lib/core/src\vl53l1_api_calibration.c **** * this list of conditions and the following disclaimer in the documentation
  41:D:/Git/VL53L1/lib/core/src\vl53l1_api_calibration.c **** * and/or other materials provided with the distribution.
  42:D:/Git/VL53L1/lib/core/src\vl53l1_api_calibration.c **** *
  43:D:/Git/VL53L1/lib/core/src\vl53l1_api_calibration.c **** * 3. Neither the name of the copyright holder nor the names of its contributors
  44:D:/Git/VL53L1/lib/core/src\vl53l1_api_calibration.c **** * may be used to endorse or promote products derived from this software
  45:D:/Git/VL53L1/lib/core/src\vl53l1_api_calibration.c **** * without specific prior written permission.
  46:D:/Git/VL53L1/lib/core/src\vl53l1_api_calibration.c **** *
  47:D:/Git/VL53L1/lib/core/src\vl53l1_api_calibration.c **** * THIS SOFTWARE IS PROVIDED BY THE COPYRIGHT HOLDERS AND CONTRIBUTORS "AS IS"
  48:D:/Git/VL53L1/lib/core/src\vl53l1_api_calibration.c **** * AND ANY EXPRESS OR IMPLIED WARRANTIES, INCLUDING, BUT NOT LIMITED TO, THE
  49:D:/Git/VL53L1/lib/core/src\vl53l1_api_calibration.c **** * IMPLIED WARRANTIES OF MERCHANTABILITY AND FITNESS FOR A PARTICULAR PURPOSE ARE
  50:D:/Git/VL53L1/lib/core/src\vl53l1_api_calibration.c **** * DISCLAIMED. IN NO EVENT SHALL THE COPYRIGHT HOLDER OR CONTRIBUTORS BE LIABLE
  51:D:/Git/VL53L1/lib/core/src\vl53l1_api_calibration.c **** * FOR ANY DIRECT, INDIRECT, INCIDENTAL, SPECIAL, EXEMPLARY, OR CONSEQUENTIAL
  52:D:/Git/VL53L1/lib/core/src\vl53l1_api_calibration.c **** * DAMAGES (INCLUDING, BUT NOT LIMITED TO, PROCUREMENT OF SUBSTITUTE GOODS OR
  53:D:/Git/VL53L1/lib/core/src\vl53l1_api_calibration.c **** * SERVICES; LOSS OF USE, DATA, OR PROFITS; OR BUSINESS INTERRUPTION) HOWEVER
  54:D:/Git/VL53L1/lib/core/src\vl53l1_api_calibration.c **** * CAUSED AND ON ANY THEORY OF LIABILITY, WHETHER IN CONTRACT, STRICT LIABILITY,
  55:D:/Git/VL53L1/lib/core/src\vl53l1_api_calibration.c **** * OR TORT (INCLUDING NEGLIGENCE OR OTHERWISE) ARISING IN ANY WAY OUT OF THE USE
  56:D:/Git/VL53L1/lib/core/src\vl53l1_api_calibration.c **** * OF THIS SOFTWARE, EVEN IF ADVISED OF THE POSSIBILITY OF SUCH DAMAGE.
  57:D:/Git/VL53L1/lib/core/src\vl53l1_api_calibration.c **** *
  58:D:/Git/VL53L1/lib/core/src\vl53l1_api_calibration.c **** *
  59:D:/Git/VL53L1/lib/core/src\vl53l1_api_calibration.c **** ********************************************************************************
  60:D:/Git/VL53L1/lib/core/src\vl53l1_api_calibration.c **** *
  61:D:/Git/VL53L1/lib/core/src\vl53l1_api_calibration.c **** */
  62:D:/Git/VL53L1/lib/core/src\vl53l1_api_calibration.c **** 
  63:D:/Git/VL53L1/lib/core/src\vl53l1_api_calibration.c **** /**
  64:D:/Git/VL53L1/lib/core/src\vl53l1_api_calibration.c ****  * @file  vl53l1_api_core.c
  65:D:/Git/VL53L1/lib/core/src\vl53l1_api_calibration.c ****  *
  66:D:/Git/VL53L1/lib/core/src\vl53l1_api_calibration.c ****  * @brief EwokPlus25 low level API function definition
  67:D:/Git/VL53L1/lib/core/src\vl53l1_api_calibration.c ****  */
  68:D:/Git/VL53L1/lib/core/src\vl53l1_api_calibration.c **** 
  69:D:/Git/VL53L1/lib/core/src\vl53l1_api_calibration.c **** 
  70:D:/Git/VL53L1/lib/core/src\vl53l1_api_calibration.c **** #include "vl53l1_ll_def.h"
  71:D:/Git/VL53L1/lib/core/src\vl53l1_api_calibration.c **** #include "vl53l1_ll_device.h"
  72:D:/Git/VL53L1/lib/core/src\vl53l1_api_calibration.c **** #include "vl53l1_platform.h"
  73:D:/Git/VL53L1/lib/core/src\vl53l1_api_calibration.c **** #include "vl53l1_register_map.h"
  74:D:/Git/VL53L1/lib/core/src\vl53l1_api_calibration.c **** #include "vl53l1_register_funcs.h"
  75:D:/Git/VL53L1/lib/core/src\vl53l1_api_calibration.c **** #include "vl53l1_register_settings.h"
  76:D:/Git/VL53L1/lib/core/src\vl53l1_api_calibration.c **** #include "vl53l1_core.h"
  77:D:/Git/VL53L1/lib/core/src\vl53l1_api_calibration.c **** #include "vl53l1_wait.h"
  78:D:/Git/VL53L1/lib/core/src\vl53l1_api_calibration.c **** #include "vl53l1_api_preset_modes.h"
  79:D:/Git/VL53L1/lib/core/src\vl53l1_api_calibration.c **** #include "vl53l1_silicon_core.h"
  80:D:/Git/VL53L1/lib/core/src\vl53l1_api_calibration.c **** #include "vl53l1_api_core.h"
  81:D:/Git/VL53L1/lib/core/src\vl53l1_api_calibration.c **** #include "vl53l1_api_calibration.h"
  82:D:/Git/VL53L1/lib/core/src\vl53l1_api_calibration.c **** 
  83:D:/Git/VL53L1/lib/core/src\vl53l1_api_calibration.c **** #ifdef VL53L1_LOG_ENABLE
  84:D:/Git/VL53L1/lib/core/src\vl53l1_api_calibration.c ****   #include "vl53l1_api_debug.h"
  85:D:/Git/VL53L1/lib/core/src\vl53l1_api_calibration.c **** #endif
  86:D:/Git/VL53L1/lib/core/src\vl53l1_api_calibration.c **** #ifdef VL53L1_LOGGING
ARM GAS  C:\Users\Berbardo\AppData\Local\Temp\ccNyfDs0.s 			page 3


  87:D:/Git/VL53L1/lib/core/src\vl53l1_api_calibration.c ****   #include "vl53l1_debug.h"
  88:D:/Git/VL53L1/lib/core/src\vl53l1_api_calibration.c **** #endif
  89:D:/Git/VL53L1/lib/core/src\vl53l1_api_calibration.c **** 
  90:D:/Git/VL53L1/lib/core/src\vl53l1_api_calibration.c **** #define LOG_FUNCTION_START(fmt, ...) \
  91:D:/Git/VL53L1/lib/core/src\vl53l1_api_calibration.c **** 	_LOG_FUNCTION_START(VL53L1_TRACE_MODULE_CORE, fmt, ##__VA_ARGS__)
  92:D:/Git/VL53L1/lib/core/src\vl53l1_api_calibration.c **** #define LOG_FUNCTION_END(status, ...) \
  93:D:/Git/VL53L1/lib/core/src\vl53l1_api_calibration.c **** 	_LOG_FUNCTION_END(VL53L1_TRACE_MODULE_CORE, status, ##__VA_ARGS__)
  94:D:/Git/VL53L1/lib/core/src\vl53l1_api_calibration.c **** #define LOG_FUNCTION_END_FMT(status, fmt, ...) \
  95:D:/Git/VL53L1/lib/core/src\vl53l1_api_calibration.c **** 	_LOG_FUNCTION_END_FMT(VL53L1_TRACE_MODULE_CORE, status, \
  96:D:/Git/VL53L1/lib/core/src\vl53l1_api_calibration.c **** 		fmt, ##__VA_ARGS__)
  97:D:/Git/VL53L1/lib/core/src\vl53l1_api_calibration.c **** 
  98:D:/Git/VL53L1/lib/core/src\vl53l1_api_calibration.c **** #define trace_print(level, ...) \
  99:D:/Git/VL53L1/lib/core/src\vl53l1_api_calibration.c **** 	_LOG_TRACE_PRINT(VL53L1_TRACE_MODULE_CORE, \
 100:D:/Git/VL53L1/lib/core/src\vl53l1_api_calibration.c **** 	level, VL53L1_TRACE_FUNCTION_NONE, ##__VA_ARGS__)
 101:D:/Git/VL53L1/lib/core/src\vl53l1_api_calibration.c **** 
 102:D:/Git/VL53L1/lib/core/src\vl53l1_api_calibration.c **** 
 103:D:/Git/VL53L1/lib/core/src\vl53l1_api_calibration.c **** #ifndef VL53L1_NOCALIB
 104:D:/Git/VL53L1/lib/core/src\vl53l1_api_calibration.c **** VL53L1_Error VL53L1_run_ref_spad_char(
 105:D:/Git/VL53L1/lib/core/src\vl53l1_api_calibration.c **** 	VL53L1_DEV        Dev,
 106:D:/Git/VL53L1/lib/core/src\vl53l1_api_calibration.c **** 	VL53L1_Error     *pcal_status)
 107:D:/Git/VL53L1/lib/core/src\vl53l1_api_calibration.c **** {
 108:D:/Git/VL53L1/lib/core/src\vl53l1_api_calibration.c **** 	/*
 109:D:/Git/VL53L1/lib/core/src\vl53l1_api_calibration.c **** 	 *  Runs Reference SPAD Characterisation
 110:D:/Git/VL53L1/lib/core/src\vl53l1_api_calibration.c **** 	 */
 111:D:/Git/VL53L1/lib/core/src\vl53l1_api_calibration.c **** 
 112:D:/Git/VL53L1/lib/core/src\vl53l1_api_calibration.c **** 	VL53L1_Error status = VL53L1_ERROR_NONE;
 113:D:/Git/VL53L1/lib/core/src\vl53l1_api_calibration.c **** 	VL53L1_LLDriverData_t *pdev = VL53L1DevStructGetLLDriverHandle(Dev);
 114:D:/Git/VL53L1/lib/core/src\vl53l1_api_calibration.c **** 
 115:D:/Git/VL53L1/lib/core/src\vl53l1_api_calibration.c **** 	uint8_t comms_buffer[6];
 116:D:/Git/VL53L1/lib/core/src\vl53l1_api_calibration.c **** 
 117:D:/Git/VL53L1/lib/core/src\vl53l1_api_calibration.c **** 	VL53L1_refspadchar_config_t *prefspadchar  = &(pdev->refspadchar);
 118:D:/Git/VL53L1/lib/core/src\vl53l1_api_calibration.c **** 
 119:D:/Git/VL53L1/lib/core/src\vl53l1_api_calibration.c **** 	LOG_FUNCTION_START("");
 120:D:/Git/VL53L1/lib/core/src\vl53l1_api_calibration.c **** 
 121:D:/Git/VL53L1/lib/core/src\vl53l1_api_calibration.c **** 	/*
 122:D:/Git/VL53L1/lib/core/src\vl53l1_api_calibration.c **** 	 * Ensure power force is enabled
 123:D:/Git/VL53L1/lib/core/src\vl53l1_api_calibration.c **** 	 */
 124:D:/Git/VL53L1/lib/core/src\vl53l1_api_calibration.c **** 
 125:D:/Git/VL53L1/lib/core/src\vl53l1_api_calibration.c **** 	if (status == VL53L1_ERROR_NONE) /*lint !e774 always true*/
 126:D:/Git/VL53L1/lib/core/src\vl53l1_api_calibration.c **** 		status = VL53L1_enable_powerforce(Dev);
 127:D:/Git/VL53L1/lib/core/src\vl53l1_api_calibration.c **** 
 128:D:/Git/VL53L1/lib/core/src\vl53l1_api_calibration.c **** 	/*
 129:D:/Git/VL53L1/lib/core/src\vl53l1_api_calibration.c **** 	 * Configure device
 130:D:/Git/VL53L1/lib/core/src\vl53l1_api_calibration.c **** 	 */
 131:D:/Git/VL53L1/lib/core/src\vl53l1_api_calibration.c **** 
 132:D:/Git/VL53L1/lib/core/src\vl53l1_api_calibration.c **** 	if (status == VL53L1_ERROR_NONE)
 133:D:/Git/VL53L1/lib/core/src\vl53l1_api_calibration.c **** 		status =
 134:D:/Git/VL53L1/lib/core/src\vl53l1_api_calibration.c **** 			VL53L1_set_ref_spad_char_config(
 135:D:/Git/VL53L1/lib/core/src\vl53l1_api_calibration.c **** 				Dev,
 136:D:/Git/VL53L1/lib/core/src\vl53l1_api_calibration.c **** 				prefspadchar->vcsel_period,
 137:D:/Git/VL53L1/lib/core/src\vl53l1_api_calibration.c **** 				prefspadchar->timeout_us,
 138:D:/Git/VL53L1/lib/core/src\vl53l1_api_calibration.c **** 				prefspadchar->target_count_rate_mcps,
 139:D:/Git/VL53L1/lib/core/src\vl53l1_api_calibration.c **** 				prefspadchar->max_count_rate_limit_mcps,
 140:D:/Git/VL53L1/lib/core/src\vl53l1_api_calibration.c **** 				prefspadchar->min_count_rate_limit_mcps,
 141:D:/Git/VL53L1/lib/core/src\vl53l1_api_calibration.c **** 				pdev->stat_nvm.osc_measured__fast_osc__frequency);
 142:D:/Git/VL53L1/lib/core/src\vl53l1_api_calibration.c **** 
 143:D:/Git/VL53L1/lib/core/src\vl53l1_api_calibration.c **** 	/*
ARM GAS  C:\Users\Berbardo\AppData\Local\Temp\ccNyfDs0.s 			page 4


 144:D:/Git/VL53L1/lib/core/src\vl53l1_api_calibration.c **** 	 * Run device test
 145:D:/Git/VL53L1/lib/core/src\vl53l1_api_calibration.c **** 	 */
 146:D:/Git/VL53L1/lib/core/src\vl53l1_api_calibration.c **** 
 147:D:/Git/VL53L1/lib/core/src\vl53l1_api_calibration.c **** 	if (status == VL53L1_ERROR_NONE)
 148:D:/Git/VL53L1/lib/core/src\vl53l1_api_calibration.c **** 		status = VL53L1_run_device_test(
 149:D:/Git/VL53L1/lib/core/src\vl53l1_api_calibration.c **** 					Dev,
 150:D:/Git/VL53L1/lib/core/src\vl53l1_api_calibration.c **** 					prefspadchar->device_test_mode);
 151:D:/Git/VL53L1/lib/core/src\vl53l1_api_calibration.c **** 
 152:D:/Git/VL53L1/lib/core/src\vl53l1_api_calibration.c **** 	/*
 153:D:/Git/VL53L1/lib/core/src\vl53l1_api_calibration.c **** 	 * Read results
 154:D:/Git/VL53L1/lib/core/src\vl53l1_api_calibration.c **** 	 */
 155:D:/Git/VL53L1/lib/core/src\vl53l1_api_calibration.c **** 
 156:D:/Git/VL53L1/lib/core/src\vl53l1_api_calibration.c **** 	if (status == VL53L1_ERROR_NONE)
 157:D:/Git/VL53L1/lib/core/src\vl53l1_api_calibration.c **** 		status =
 158:D:/Git/VL53L1/lib/core/src\vl53l1_api_calibration.c **** 			VL53L1_ReadMulti(
 159:D:/Git/VL53L1/lib/core/src\vl53l1_api_calibration.c **** 				Dev,
 160:D:/Git/VL53L1/lib/core/src\vl53l1_api_calibration.c **** 				VL53L1_REF_SPAD_CHAR_RESULT__NUM_ACTUAL_REF_SPADS,
 161:D:/Git/VL53L1/lib/core/src\vl53l1_api_calibration.c **** 				comms_buffer,
 162:D:/Git/VL53L1/lib/core/src\vl53l1_api_calibration.c **** 				2);
 163:D:/Git/VL53L1/lib/core/src\vl53l1_api_calibration.c **** 
 164:D:/Git/VL53L1/lib/core/src\vl53l1_api_calibration.c **** 	if (status == VL53L1_ERROR_NONE) {
 165:D:/Git/VL53L1/lib/core/src\vl53l1_api_calibration.c **** 		pdev->dbg_results.ref_spad_char_result__num_actual_ref_spads =
 166:D:/Git/VL53L1/lib/core/src\vl53l1_api_calibration.c **** 				comms_buffer[0];
 167:D:/Git/VL53L1/lib/core/src\vl53l1_api_calibration.c **** 		pdev->dbg_results.ref_spad_char_result__ref_location =
 168:D:/Git/VL53L1/lib/core/src\vl53l1_api_calibration.c **** 				comms_buffer[1];
 169:D:/Git/VL53L1/lib/core/src\vl53l1_api_calibration.c **** 	}
 170:D:/Git/VL53L1/lib/core/src\vl53l1_api_calibration.c **** 
 171:D:/Git/VL53L1/lib/core/src\vl53l1_api_calibration.c **** 	/*
 172:D:/Git/VL53L1/lib/core/src\vl53l1_api_calibration.c **** 	 * copy results to customer nvm managed G02 registers
 173:D:/Git/VL53L1/lib/core/src\vl53l1_api_calibration.c **** 	 */
 174:D:/Git/VL53L1/lib/core/src\vl53l1_api_calibration.c **** 
 175:D:/Git/VL53L1/lib/core/src\vl53l1_api_calibration.c **** 	if (status == VL53L1_ERROR_NONE)
 176:D:/Git/VL53L1/lib/core/src\vl53l1_api_calibration.c **** 		status =
 177:D:/Git/VL53L1/lib/core/src\vl53l1_api_calibration.c **** 			VL53L1_WriteMulti(
 178:D:/Git/VL53L1/lib/core/src\vl53l1_api_calibration.c **** 				Dev,
 179:D:/Git/VL53L1/lib/core/src\vl53l1_api_calibration.c **** 				VL53L1_REF_SPAD_MAN__NUM_REQUESTED_REF_SPADS,
 180:D:/Git/VL53L1/lib/core/src\vl53l1_api_calibration.c **** 				comms_buffer,
 181:D:/Git/VL53L1/lib/core/src\vl53l1_api_calibration.c **** 				2);
 182:D:/Git/VL53L1/lib/core/src\vl53l1_api_calibration.c **** 
 183:D:/Git/VL53L1/lib/core/src\vl53l1_api_calibration.c **** 	if (status == VL53L1_ERROR_NONE) {
 184:D:/Git/VL53L1/lib/core/src\vl53l1_api_calibration.c **** 		pdev->customer.ref_spad_man__num_requested_ref_spads =
 185:D:/Git/VL53L1/lib/core/src\vl53l1_api_calibration.c **** 				comms_buffer[0];
 186:D:/Git/VL53L1/lib/core/src\vl53l1_api_calibration.c **** 		pdev->customer.ref_spad_man__ref_location =
 187:D:/Git/VL53L1/lib/core/src\vl53l1_api_calibration.c **** 				comms_buffer[1];
 188:D:/Git/VL53L1/lib/core/src\vl53l1_api_calibration.c **** 	}
 189:D:/Git/VL53L1/lib/core/src\vl53l1_api_calibration.c **** 
 190:D:/Git/VL53L1/lib/core/src\vl53l1_api_calibration.c **** 	/* After Ref Spad Char the final set of good SPAD enables
 191:D:/Git/VL53L1/lib/core/src\vl53l1_api_calibration.c **** 	 * are stored in the NCY results registers below
 192:D:/Git/VL53L1/lib/core/src\vl53l1_api_calibration.c **** 	 *
 193:D:/Git/VL53L1/lib/core/src\vl53l1_api_calibration.c **** 	 *  - RESULT__SPARE_0_SD_1
 194:D:/Git/VL53L1/lib/core/src\vl53l1_api_calibration.c **** 	 *  - RESULT__SPARE_1_SD_1
 195:D:/Git/VL53L1/lib/core/src\vl53l1_api_calibration.c **** 	 *  - RESULT__SPARE_2_SD_1
 196:D:/Git/VL53L1/lib/core/src\vl53l1_api_calibration.c **** 	 */
 197:D:/Git/VL53L1/lib/core/src\vl53l1_api_calibration.c **** 
 198:D:/Git/VL53L1/lib/core/src\vl53l1_api_calibration.c **** 	if (status == VL53L1_ERROR_NONE)
 199:D:/Git/VL53L1/lib/core/src\vl53l1_api_calibration.c **** 		status =
 200:D:/Git/VL53L1/lib/core/src\vl53l1_api_calibration.c **** 			VL53L1_ReadMulti(
ARM GAS  C:\Users\Berbardo\AppData\Local\Temp\ccNyfDs0.s 			page 5


 201:D:/Git/VL53L1/lib/core/src\vl53l1_api_calibration.c **** 				Dev,
 202:D:/Git/VL53L1/lib/core/src\vl53l1_api_calibration.c **** 				VL53L1_RESULT__SPARE_0_SD1,
 203:D:/Git/VL53L1/lib/core/src\vl53l1_api_calibration.c **** 				comms_buffer,
 204:D:/Git/VL53L1/lib/core/src\vl53l1_api_calibration.c **** 				6);
 205:D:/Git/VL53L1/lib/core/src\vl53l1_api_calibration.c **** 
 206:D:/Git/VL53L1/lib/core/src\vl53l1_api_calibration.c **** 	/*
 207:D:/Git/VL53L1/lib/core/src\vl53l1_api_calibration.c **** 	 * copy reference SPAD enables to customer nvm managed
 208:D:/Git/VL53L1/lib/core/src\vl53l1_api_calibration.c **** 	 * G02 registers
 209:D:/Git/VL53L1/lib/core/src\vl53l1_api_calibration.c **** 	 */
 210:D:/Git/VL53L1/lib/core/src\vl53l1_api_calibration.c **** 
 211:D:/Git/VL53L1/lib/core/src\vl53l1_api_calibration.c **** 	if (status == VL53L1_ERROR_NONE)
 212:D:/Git/VL53L1/lib/core/src\vl53l1_api_calibration.c **** 		status =
 213:D:/Git/VL53L1/lib/core/src\vl53l1_api_calibration.c **** 			VL53L1_WriteMulti(
 214:D:/Git/VL53L1/lib/core/src\vl53l1_api_calibration.c **** 				Dev,
 215:D:/Git/VL53L1/lib/core/src\vl53l1_api_calibration.c **** 				VL53L1_GLOBAL_CONFIG__SPAD_ENABLES_REF_0,
 216:D:/Git/VL53L1/lib/core/src\vl53l1_api_calibration.c **** 				comms_buffer,
 217:D:/Git/VL53L1/lib/core/src\vl53l1_api_calibration.c **** 				6);
 218:D:/Git/VL53L1/lib/core/src\vl53l1_api_calibration.c **** 
 219:D:/Git/VL53L1/lib/core/src\vl53l1_api_calibration.c **** 	if (status == VL53L1_ERROR_NONE) {
 220:D:/Git/VL53L1/lib/core/src\vl53l1_api_calibration.c **** 		pdev->customer.global_config__spad_enables_ref_0 =
 221:D:/Git/VL53L1/lib/core/src\vl53l1_api_calibration.c **** 				comms_buffer[0];
 222:D:/Git/VL53L1/lib/core/src\vl53l1_api_calibration.c **** 		pdev->customer.global_config__spad_enables_ref_1 =
 223:D:/Git/VL53L1/lib/core/src\vl53l1_api_calibration.c **** 				comms_buffer[1];
 224:D:/Git/VL53L1/lib/core/src\vl53l1_api_calibration.c **** 		pdev->customer.global_config__spad_enables_ref_2 =
 225:D:/Git/VL53L1/lib/core/src\vl53l1_api_calibration.c **** 				comms_buffer[2];
 226:D:/Git/VL53L1/lib/core/src\vl53l1_api_calibration.c **** 		pdev->customer.global_config__spad_enables_ref_3 =
 227:D:/Git/VL53L1/lib/core/src\vl53l1_api_calibration.c **** 				comms_buffer[3];
 228:D:/Git/VL53L1/lib/core/src\vl53l1_api_calibration.c **** 		pdev->customer.global_config__spad_enables_ref_4 =
 229:D:/Git/VL53L1/lib/core/src\vl53l1_api_calibration.c **** 				comms_buffer[4];
 230:D:/Git/VL53L1/lib/core/src\vl53l1_api_calibration.c **** 		pdev->customer.global_config__spad_enables_ref_5 =
 231:D:/Git/VL53L1/lib/core/src\vl53l1_api_calibration.c **** 				comms_buffer[5];
 232:D:/Git/VL53L1/lib/core/src\vl53l1_api_calibration.c **** 	}
 233:D:/Git/VL53L1/lib/core/src\vl53l1_api_calibration.c **** 
 234:D:/Git/VL53L1/lib/core/src\vl53l1_api_calibration.c **** #ifdef VL53L1_LOG_ENABLE
 235:D:/Git/VL53L1/lib/core/src\vl53l1_api_calibration.c **** 	/* Print customer nvm managed data */
 236:D:/Git/VL53L1/lib/core/src\vl53l1_api_calibration.c **** 	if (status == VL53L1_ERROR_NONE)
 237:D:/Git/VL53L1/lib/core/src\vl53l1_api_calibration.c **** 		VL53L1_print_customer_nvm_managed(
 238:D:/Git/VL53L1/lib/core/src\vl53l1_api_calibration.c **** 			&(pdev->customer),
 239:D:/Git/VL53L1/lib/core/src\vl53l1_api_calibration.c **** 			"run_ref_spad_char():pdev->lldata.customer.",
 240:D:/Git/VL53L1/lib/core/src\vl53l1_api_calibration.c **** 			VL53L1_TRACE_MODULE_REF_SPAD_CHAR);
 241:D:/Git/VL53L1/lib/core/src\vl53l1_api_calibration.c **** #endif
 242:D:/Git/VL53L1/lib/core/src\vl53l1_api_calibration.c **** 
 243:D:/Git/VL53L1/lib/core/src\vl53l1_api_calibration.c **** 	if (status == VL53L1_ERROR_NONE) {
 244:D:/Git/VL53L1/lib/core/src\vl53l1_api_calibration.c **** 
 245:D:/Git/VL53L1/lib/core/src\vl53l1_api_calibration.c **** 		switch (pdev->sys_results.result__range_status) {
 246:D:/Git/VL53L1/lib/core/src\vl53l1_api_calibration.c **** 
 247:D:/Git/VL53L1/lib/core/src\vl53l1_api_calibration.c **** 		case VL53L1_DEVICEERROR_REFSPADCHARNOTENOUGHDPADS:
 248:D:/Git/VL53L1/lib/core/src\vl53l1_api_calibration.c **** 			status = VL53L1_WARNING_REF_SPAD_CHAR_NOT_ENOUGH_SPADS;
 249:D:/Git/VL53L1/lib/core/src\vl53l1_api_calibration.c **** 			break;
 250:D:/Git/VL53L1/lib/core/src\vl53l1_api_calibration.c **** 
 251:D:/Git/VL53L1/lib/core/src\vl53l1_api_calibration.c **** 		case VL53L1_DEVICEERROR_REFSPADCHARMORETHANTARGET:
 252:D:/Git/VL53L1/lib/core/src\vl53l1_api_calibration.c **** 			status = VL53L1_WARNING_REF_SPAD_CHAR_RATE_TOO_HIGH;
 253:D:/Git/VL53L1/lib/core/src\vl53l1_api_calibration.c **** 			break;
 254:D:/Git/VL53L1/lib/core/src\vl53l1_api_calibration.c **** 
 255:D:/Git/VL53L1/lib/core/src\vl53l1_api_calibration.c **** 		case VL53L1_DEVICEERROR_REFSPADCHARLESSTHANTARGET:
 256:D:/Git/VL53L1/lib/core/src\vl53l1_api_calibration.c **** 			status = VL53L1_WARNING_REF_SPAD_CHAR_RATE_TOO_LOW;
 257:D:/Git/VL53L1/lib/core/src\vl53l1_api_calibration.c **** 			break;
ARM GAS  C:\Users\Berbardo\AppData\Local\Temp\ccNyfDs0.s 			page 6


 258:D:/Git/VL53L1/lib/core/src\vl53l1_api_calibration.c **** 		}
 259:D:/Git/VL53L1/lib/core/src\vl53l1_api_calibration.c **** 	}
 260:D:/Git/VL53L1/lib/core/src\vl53l1_api_calibration.c **** 
 261:D:/Git/VL53L1/lib/core/src\vl53l1_api_calibration.c **** 	/*
 262:D:/Git/VL53L1/lib/core/src\vl53l1_api_calibration.c **** 	 * Save unfiltered status
 263:D:/Git/VL53L1/lib/core/src\vl53l1_api_calibration.c **** 	 */
 264:D:/Git/VL53L1/lib/core/src\vl53l1_api_calibration.c **** 
 265:D:/Git/VL53L1/lib/core/src\vl53l1_api_calibration.c **** 	*pcal_status = status;
 266:D:/Git/VL53L1/lib/core/src\vl53l1_api_calibration.c **** 
 267:D:/Git/VL53L1/lib/core/src\vl53l1_api_calibration.c **** 	/* Status exception code */
 268:D:/Git/VL53L1/lib/core/src\vl53l1_api_calibration.c **** 
 269:D:/Git/VL53L1/lib/core/src\vl53l1_api_calibration.c **** 	IGNORE_STATUS(
 270:D:/Git/VL53L1/lib/core/src\vl53l1_api_calibration.c **** 		IGNORE_REF_SPAD_CHAR_NOT_ENOUGH_SPADS,
 271:D:/Git/VL53L1/lib/core/src\vl53l1_api_calibration.c **** 		VL53L1_WARNING_REF_SPAD_CHAR_NOT_ENOUGH_SPADS,
 272:D:/Git/VL53L1/lib/core/src\vl53l1_api_calibration.c **** 		status);
 273:D:/Git/VL53L1/lib/core/src\vl53l1_api_calibration.c **** 
 274:D:/Git/VL53L1/lib/core/src\vl53l1_api_calibration.c **** 	IGNORE_STATUS(
 275:D:/Git/VL53L1/lib/core/src\vl53l1_api_calibration.c **** 		IGNORE_REF_SPAD_CHAR_RATE_TOO_HIGH,
 276:D:/Git/VL53L1/lib/core/src\vl53l1_api_calibration.c **** 		VL53L1_WARNING_REF_SPAD_CHAR_RATE_TOO_HIGH,
 277:D:/Git/VL53L1/lib/core/src\vl53l1_api_calibration.c **** 		status);
 278:D:/Git/VL53L1/lib/core/src\vl53l1_api_calibration.c **** 
 279:D:/Git/VL53L1/lib/core/src\vl53l1_api_calibration.c **** 	IGNORE_STATUS(
 280:D:/Git/VL53L1/lib/core/src\vl53l1_api_calibration.c **** 		IGNORE_REF_SPAD_CHAR_RATE_TOO_LOW,
 281:D:/Git/VL53L1/lib/core/src\vl53l1_api_calibration.c **** 		VL53L1_WARNING_REF_SPAD_CHAR_RATE_TOO_LOW,
 282:D:/Git/VL53L1/lib/core/src\vl53l1_api_calibration.c **** 		status);
 283:D:/Git/VL53L1/lib/core/src\vl53l1_api_calibration.c **** 
 284:D:/Git/VL53L1/lib/core/src\vl53l1_api_calibration.c **** 
 285:D:/Git/VL53L1/lib/core/src\vl53l1_api_calibration.c **** 	LOG_FUNCTION_END(status);
 286:D:/Git/VL53L1/lib/core/src\vl53l1_api_calibration.c **** 
 287:D:/Git/VL53L1/lib/core/src\vl53l1_api_calibration.c **** 	return status;
 288:D:/Git/VL53L1/lib/core/src\vl53l1_api_calibration.c **** }
 289:D:/Git/VL53L1/lib/core/src\vl53l1_api_calibration.c **** 
 290:D:/Git/VL53L1/lib/core/src\vl53l1_api_calibration.c **** VL53L1_Error VL53L1_run_offset_calibration(
 291:D:/Git/VL53L1/lib/core/src\vl53l1_api_calibration.c **** 	VL53L1_DEV	                  Dev,
 292:D:/Git/VL53L1/lib/core/src\vl53l1_api_calibration.c **** 	int16_t                       cal_distance_mm,
 293:D:/Git/VL53L1/lib/core/src\vl53l1_api_calibration.c **** 	VL53L1_Error                 *pcal_status)
 294:D:/Git/VL53L1/lib/core/src\vl53l1_api_calibration.c **** {
  30              		.loc 1 294 1 view -0
  31              		.cfi_startproc
  32              		@ args = 0, pretend = 0, frame = 144
  33              		@ frame_needed = 0, uses_anonymous_args = 0
  34              		.loc 1 294 1 is_stmt 0 view .LVU1
  35 0000 2DE9F047 		push	{r4, r5, r6, r7, r8, r9, r10, lr}
  36              		.cfi_def_cfa_offset 32
  37              		.cfi_offset 4, -32
  38              		.cfi_offset 5, -28
  39              		.cfi_offset 6, -24
  40              		.cfi_offset 7, -20
  41              		.cfi_offset 8, -16
  42              		.cfi_offset 9, -12
  43              		.cfi_offset 10, -8
  44              		.cfi_offset 14, -4
  45 0004 A8B0     		sub	sp, sp, #160
  46              		.cfi_def_cfa_offset 192
  47 0006 0546     		mov	r5, r0
  48 0008 8946     		mov	r9, r1
  49 000a 9246     		mov	r10, r2
ARM GAS  C:\Users\Berbardo\AppData\Local\Temp\ccNyfDs0.s 			page 7


 295:D:/Git/VL53L1/lib/core/src\vl53l1_api_calibration.c **** 	/*
 296:D:/Git/VL53L1/lib/core/src\vl53l1_api_calibration.c **** 	 * Runs offset calibration
 297:D:/Git/VL53L1/lib/core/src\vl53l1_api_calibration.c **** 	 *
 298:D:/Git/VL53L1/lib/core/src\vl53l1_api_calibration.c **** 	 * Recommended tuning parm settings:
 299:D:/Git/VL53L1/lib/core/src\vl53l1_api_calibration.c **** 	 *
 300:D:/Git/VL53L1/lib/core/src\vl53l1_api_calibration.c **** 	 *  - pre_num_of_samples    =    32
 301:D:/Git/VL53L1/lib/core/src\vl53l1_api_calibration.c **** 	 *  - mm1_num_of_samples    =   100
 302:D:/Git/VL53L1/lib/core/src\vl53l1_api_calibration.c **** 	 *  - mm2_num_of_samples    =    64
 303:D:/Git/VL53L1/lib/core/src\vl53l1_api_calibration.c **** 	 *  - target_distance_mm    =   140mm
 304:D:/Git/VL53L1/lib/core/src\vl53l1_api_calibration.c **** 	 *  - target reflectance    =     5%
 305:D:/Git/VL53L1/lib/core/src\vl53l1_api_calibration.c **** 	 *
 306:D:/Git/VL53L1/lib/core/src\vl53l1_api_calibration.c **** 	 * Standard Ranging (sigma delta mode):
 307:D:/Git/VL53L1/lib/core/src\vl53l1_api_calibration.c **** 	 *  - dss_config__target_total_rate_mcps = 20.0 -40.0 Mcps
 308:D:/Git/VL53L1/lib/core/src\vl53l1_api_calibration.c **** 	 *  - phasecal_config_timeout_us        =  1000
 309:D:/Git/VL53L1/lib/core/src\vl53l1_api_calibration.c **** 	 *  - range_config_timeout_us           = 13000
 310:D:/Git/VL53L1/lib/core/src\vl53l1_api_calibration.c **** 	 *  - mm_config_timeout_us              = 13000
 311:D:/Git/VL53L1/lib/core/src\vl53l1_api_calibration.c **** 	 *
 312:D:/Git/VL53L1/lib/core/src\vl53l1_api_calibration.c **** 	 *
 313:D:/Git/VL53L1/lib/core/src\vl53l1_api_calibration.c **** 	 * Note: function parms simplified as part of
 314:D:/Git/VL53L1/lib/core/src\vl53l1_api_calibration.c **** 	 * Patch_CalFunctionSimplification_11791
 315:D:/Git/VL53L1/lib/core/src\vl53l1_api_calibration.c **** 	 *
 316:D:/Git/VL53L1/lib/core/src\vl53l1_api_calibration.c **** 	 */
 317:D:/Git/VL53L1/lib/core/src\vl53l1_api_calibration.c **** 
 318:D:/Git/VL53L1/lib/core/src\vl53l1_api_calibration.c **** 	VL53L1_Error status        = VL53L1_ERROR_NONE;
  50              		.loc 1 318 2 is_stmt 1 view .LVU2
  51              	.LVL1:
 319:D:/Git/VL53L1/lib/core/src\vl53l1_api_calibration.c **** 	VL53L1_LLDriverData_t *pdev =
  52              		.loc 1 319 2 view .LVU3
 320:D:/Git/VL53L1/lib/core/src\vl53l1_api_calibration.c **** 		VL53L1DevStructGetLLDriverHandle(Dev);
 321:D:/Git/VL53L1/lib/core/src\vl53l1_api_calibration.c **** 
 322:D:/Git/VL53L1/lib/core/src\vl53l1_api_calibration.c **** 	VL53L1_DevicePresetModes device_preset_modes[VL53L1_MAX_OFFSET_RANGE_RESULTS];
  53              		.loc 1 322 2 view .LVU4
 323:D:/Git/VL53L1/lib/core/src\vl53l1_api_calibration.c **** 
 324:D:/Git/VL53L1/lib/core/src\vl53l1_api_calibration.c **** 	VL53L1_range_results_t      range_results;
  54              		.loc 1 324 2 view .LVU5
 325:D:/Git/VL53L1/lib/core/src\vl53l1_api_calibration.c **** 	VL53L1_range_results_t     *prange_results = &range_results;
  55              		.loc 1 325 2 view .LVU6
 326:D:/Git/VL53L1/lib/core/src\vl53l1_api_calibration.c **** 	VL53L1_range_data_t        *prange_data = NULL;
  56              		.loc 1 326 2 view .LVU7
 327:D:/Git/VL53L1/lib/core/src\vl53l1_api_calibration.c **** 	VL53L1_offset_range_data_t *poffset     = NULL;
  57              		.loc 1 327 2 view .LVU8
 328:D:/Git/VL53L1/lib/core/src\vl53l1_api_calibration.c **** 
 329:D:/Git/VL53L1/lib/core/src\vl53l1_api_calibration.c **** 	uint8_t  i                      = 0;
  58              		.loc 1 329 2 view .LVU9
 330:D:/Git/VL53L1/lib/core/src\vl53l1_api_calibration.c **** 	uint8_t  m                      = 0;
  59              		.loc 1 330 2 view .LVU10
 331:D:/Git/VL53L1/lib/core/src\vl53l1_api_calibration.c **** 	uint8_t  measurement_mode       =
  60              		.loc 1 331 2 view .LVU11
 332:D:/Git/VL53L1/lib/core/src\vl53l1_api_calibration.c **** 		VL53L1_DEVICEMEASUREMENTMODE_BACKTOBACK;
 333:D:/Git/VL53L1/lib/core/src\vl53l1_api_calibration.c **** 	uint16_t manual_effective_spads =
  61              		.loc 1 333 2 view .LVU12
  62              		.loc 1 333 11 is_stmt 0 view .LVU13
  63 000c B0F89481 		ldrh	r8, [r0, #404]
  64              	.LVL2:
 334:D:/Git/VL53L1/lib/core/src\vl53l1_api_calibration.c **** 		pdev->gen_cfg.dss_config__manual_effective_spads_select;
 335:D:/Git/VL53L1/lib/core/src\vl53l1_api_calibration.c **** 
 336:D:/Git/VL53L1/lib/core/src\vl53l1_api_calibration.c **** 	uint8_t num_of_samples[VL53L1_MAX_OFFSET_RANGE_RESULTS];
ARM GAS  C:\Users\Berbardo\AppData\Local\Temp\ccNyfDs0.s 			page 8


  65              		.loc 1 336 2 is_stmt 1 view .LVU14
 337:D:/Git/VL53L1/lib/core/src\vl53l1_api_calibration.c **** 
 338:D:/Git/VL53L1/lib/core/src\vl53l1_api_calibration.c **** 	LOG_FUNCTION_START("");
  66              		.loc 1 338 24 view .LVU15
 339:D:/Git/VL53L1/lib/core/src\vl53l1_api_calibration.c **** 
 340:D:/Git/VL53L1/lib/core/src\vl53l1_api_calibration.c **** 	/* select requested offset calibration mode */
 341:D:/Git/VL53L1/lib/core/src\vl53l1_api_calibration.c **** 
 342:D:/Git/VL53L1/lib/core/src\vl53l1_api_calibration.c **** 	switch (pdev->offset_calibration_mode) {
  67              		.loc 1 342 2 view .LVU16
  68              		.loc 1 342 14 is_stmt 0 view .LVU17
  69 0010 C378     		ldrb	r3, [r0, #3]	@ zero_extendqisi2
 343:D:/Git/VL53L1/lib/core/src\vl53l1_api_calibration.c **** 
 344:D:/Git/VL53L1/lib/core/src\vl53l1_api_calibration.c **** 	default:
 345:D:/Git/VL53L1/lib/core/src\vl53l1_api_calibration.c **** 		device_preset_modes[0] =
  70              		.loc 1 345 3 is_stmt 1 view .LVU18
  71              		.loc 1 345 26 is_stmt 0 view .LVU19
  72 0012 0122     		movs	r2, #1
  73              	.LVL3:
  74              		.loc 1 345 26 view .LVU20
  75 0014 8DF89C20 		strb	r2, [sp, #156]
 346:D:/Git/VL53L1/lib/core/src\vl53l1_api_calibration.c **** 			VL53L1_DEVICEPRESETMODE_STANDARD_RANGING;
 347:D:/Git/VL53L1/lib/core/src\vl53l1_api_calibration.c **** 		device_preset_modes[1] =
  76              		.loc 1 347 3 is_stmt 1 view .LVU21
  77              		.loc 1 347 26 is_stmt 0 view .LVU22
  78 0018 0422     		movs	r2, #4
  79 001a 8DF89D20 		strb	r2, [sp, #157]
 348:D:/Git/VL53L1/lib/core/src\vl53l1_api_calibration.c **** 			VL53L1_DEVICEPRESETMODE_STANDARD_RANGING_MM1_CAL;
 349:D:/Git/VL53L1/lib/core/src\vl53l1_api_calibration.c **** 		device_preset_modes[2] =
  80              		.loc 1 349 3 is_stmt 1 view .LVU23
  81              		.loc 1 349 26 is_stmt 0 view .LVU24
  82 001e 0522     		movs	r2, #5
  83 0020 8DF89E20 		strb	r2, [sp, #158]
 350:D:/Git/VL53L1/lib/core/src\vl53l1_api_calibration.c **** 			VL53L1_DEVICEPRESETMODE_STANDARD_RANGING_MM2_CAL;
 351:D:/Git/VL53L1/lib/core/src\vl53l1_api_calibration.c **** 	break;
  84              		.loc 1 351 2 is_stmt 1 view .LVU25
 352:D:/Git/VL53L1/lib/core/src\vl53l1_api_calibration.c **** 	}
 353:D:/Git/VL53L1/lib/core/src\vl53l1_api_calibration.c **** 
 354:D:/Git/VL53L1/lib/core/src\vl53l1_api_calibration.c **** 	/* initialise num_of_samples */
 355:D:/Git/VL53L1/lib/core/src\vl53l1_api_calibration.c **** 	/* Start Patch_CalFunctionSimplification_11791 */
 356:D:/Git/VL53L1/lib/core/src\vl53l1_api_calibration.c **** 	num_of_samples[0] = pdev->offsetcal_cfg.pre_num_of_samples;
  85              		.loc 1 356 2 view .LVU26
  86              		.loc 1 356 41 is_stmt 0 view .LVU27
  87 0024 90F85421 		ldrb	r2, [r0, #340]	@ zero_extendqisi2
  88              		.loc 1 356 20 view .LVU28
  89 0028 8DF81420 		strb	r2, [sp, #20]
 357:D:/Git/VL53L1/lib/core/src\vl53l1_api_calibration.c **** 	num_of_samples[1] = pdev->offsetcal_cfg.mm1_num_of_samples;
  90              		.loc 1 357 2 is_stmt 1 view .LVU29
  91              		.loc 1 357 41 is_stmt 0 view .LVU30
  92 002c 90F85521 		ldrb	r2, [r0, #341]	@ zero_extendqisi2
  93              		.loc 1 357 20 view .LVU31
  94 0030 8DF81520 		strb	r2, [sp, #21]
 358:D:/Git/VL53L1/lib/core/src\vl53l1_api_calibration.c **** 	num_of_samples[2] = pdev->offsetcal_cfg.mm2_num_of_samples;
  95              		.loc 1 358 2 is_stmt 1 view .LVU32
  96              		.loc 1 358 41 is_stmt 0 view .LVU33
  97 0034 90F85621 		ldrb	r2, [r0, #342]	@ zero_extendqisi2
  98              		.loc 1 358 20 view .LVU34
  99 0038 8DF81620 		strb	r2, [sp, #22]
ARM GAS  C:\Users\Berbardo\AppData\Local\Temp\ccNyfDs0.s 			page 9


 359:D:/Git/VL53L1/lib/core/src\vl53l1_api_calibration.c **** 	/* End Patch_CalFunctionSimplification_11791 */
 360:D:/Git/VL53L1/lib/core/src\vl53l1_api_calibration.c **** 
 361:D:/Git/VL53L1/lib/core/src\vl53l1_api_calibration.c **** 	/* force all offsets to zero */
 362:D:/Git/VL53L1/lib/core/src\vl53l1_api_calibration.c **** 
 363:D:/Git/VL53L1/lib/core/src\vl53l1_api_calibration.c **** 	switch (pdev->offset_calibration_mode) {
 100              		.loc 1 363 2 is_stmt 1 view .LVU35
 101 003c 032B     		cmp	r3, #3
 102 003e 10D0     		beq	.L38
 364:D:/Git/VL53L1/lib/core/src\vl53l1_api_calibration.c **** 
 365:D:/Git/VL53L1/lib/core/src\vl53l1_api_calibration.c **** 	case VL53L1_OFFSETCALIBRATIONMODE__MM1_MM2__STANDARD_PRE_RANGE_ONLY:
 366:D:/Git/VL53L1/lib/core/src\vl53l1_api_calibration.c **** 		/* only run pre range */
 367:D:/Git/VL53L1/lib/core/src\vl53l1_api_calibration.c **** 		pdev->offset_results.active_results  = 1;
 368:D:/Git/VL53L1/lib/core/src\vl53l1_api_calibration.c **** 
 369:D:/Git/VL53L1/lib/core/src\vl53l1_api_calibration.c **** 	break;
 370:D:/Git/VL53L1/lib/core/src\vl53l1_api_calibration.c **** 
 371:D:/Git/VL53L1/lib/core/src\vl53l1_api_calibration.c **** 	default:
 372:D:/Git/VL53L1/lib/core/src\vl53l1_api_calibration.c **** 
 373:D:/Git/VL53L1/lib/core/src\vl53l1_api_calibration.c **** 		pdev->customer.mm_config__inner_offset_mm  = 0;
 103              		.loc 1 373 3 view .LVU36
 104              		.loc 1 373 46 is_stmt 0 view .LVU37
 105 0040 0023     		movs	r3, #0
 106 0042 A0F85630 		strh	r3, [r0, #86]	@ movhi
 374:D:/Git/VL53L1/lib/core/src\vl53l1_api_calibration.c **** 		pdev->customer.mm_config__outer_offset_mm  = 0;
 107              		.loc 1 374 3 is_stmt 1 view .LVU38
 108              		.loc 1 374 46 is_stmt 0 view .LVU39
 109 0046 A0F85830 		strh	r3, [r0, #88]	@ movhi
 375:D:/Git/VL53L1/lib/core/src\vl53l1_api_calibration.c **** 		pdev->offset_results.active_results  =
 110              		.loc 1 375 3 is_stmt 1 view .LVU40
 111              		.loc 1 375 40 is_stmt 0 view .LVU41
 112 004a 0323     		movs	r3, #3
 113 004c 80F83132 		strb	r3, [r0, #561]
 376:D:/Git/VL53L1/lib/core/src\vl53l1_api_calibration.c **** 			VL53L1_MAX_OFFSET_RANGE_RESULTS;
 377:D:/Git/VL53L1/lib/core/src\vl53l1_api_calibration.c **** 
 378:D:/Git/VL53L1/lib/core/src\vl53l1_api_calibration.c **** 	break;
 114              		.loc 1 378 2 is_stmt 1 view .LVU42
 115              	.L3:
 379:D:/Git/VL53L1/lib/core/src\vl53l1_api_calibration.c **** 	}
 380:D:/Git/VL53L1/lib/core/src\vl53l1_api_calibration.c **** 
 381:D:/Git/VL53L1/lib/core/src\vl53l1_api_calibration.c **** 	pdev->customer.algo__part_to_part_range_offset_mm = 0;
 116              		.loc 1 381 2 view .LVU43
 117              		.loc 1 381 52 is_stmt 0 view .LVU44
 118 0050 0023     		movs	r3, #0
 119 0052 A5F85430 		strh	r3, [r5, #84]	@ movhi
 382:D:/Git/VL53L1/lib/core/src\vl53l1_api_calibration.c **** 
 383:D:/Git/VL53L1/lib/core/src\vl53l1_api_calibration.c **** 	/* initialise offset range results */
 384:D:/Git/VL53L1/lib/core/src\vl53l1_api_calibration.c **** 
 385:D:/Git/VL53L1/lib/core/src\vl53l1_api_calibration.c **** 	pdev->offset_results.max_results           = VL53L1_MAX_OFFSET_RANGE_RESULTS;
 120              		.loc 1 385 2 is_stmt 1 view .LVU45
 121              		.loc 1 385 45 is_stmt 0 view .LVU46
 122 0056 0322     		movs	r2, #3
 123 0058 85F83022 		strb	r2, [r5, #560]
 386:D:/Git/VL53L1/lib/core/src\vl53l1_api_calibration.c **** 	pdev->offset_results.cal_distance_mm       = cal_distance_mm;
 124              		.loc 1 386 2 is_stmt 1 view .LVU47
 125              		.loc 1 386 45 is_stmt 0 view .LVU48
 126 005c A5F82C92 		strh	r9, [r5, #556]	@ movhi
 387:D:/Git/VL53L1/lib/core/src\vl53l1_api_calibration.c **** 
 388:D:/Git/VL53L1/lib/core/src\vl53l1_api_calibration.c **** 	for (m = 0 ; m <  VL53L1_MAX_OFFSET_RANGE_RESULTS; m++) {
ARM GAS  C:\Users\Berbardo\AppData\Local\Temp\ccNyfDs0.s 			page 10


 127              		.loc 1 388 2 is_stmt 1 view .LVU49
 128              		.loc 1 388 2 is_stmt 0 view .LVU50
 129 0060 16E0     		b	.L4
 130              	.L38:
 367:D:/Git/VL53L1/lib/core/src\vl53l1_api_calibration.c **** 
 131              		.loc 1 367 3 is_stmt 1 view .LVU51
 367:D:/Git/VL53L1/lib/core/src\vl53l1_api_calibration.c **** 
 132              		.loc 1 367 40 is_stmt 0 view .LVU52
 133 0062 0123     		movs	r3, #1
 134 0064 80F83132 		strb	r3, [r0, #561]
 369:D:/Git/VL53L1/lib/core/src\vl53l1_api_calibration.c **** 
 135              		.loc 1 369 2 is_stmt 1 view .LVU53
 136 0068 F2E7     		b	.L3
 137              	.LVL4:
 138              	.L5:
 389:D:/Git/VL53L1/lib/core/src\vl53l1_api_calibration.c **** 
 390:D:/Git/VL53L1/lib/core/src\vl53l1_api_calibration.c **** 		poffset = &(pdev->offset_results.data[m]);
 139              		.loc 1 390 3 discriminator 3 view .LVU54
 391:D:/Git/VL53L1/lib/core/src\vl53l1_api_calibration.c **** 		poffset->preset_mode         = 0;
 140              		.loc 1 391 3 discriminator 3 view .LVU55
 141              		.loc 1 391 32 is_stmt 0 discriminator 3 view .LVU56
 142 006a D900     		lsls	r1, r3, #3
 143 006c CA1A     		subs	r2, r1, r3
 144 006e 05EB8202 		add	r2, r5, r2, lsl #2
 145 0072 0020     		movs	r0, #0
 146 0074 82F83402 		strb	r0, [r2, #564]
 392:D:/Git/VL53L1/lib/core/src\vl53l1_api_calibration.c **** 		poffset->no_of_samples       = 0;
 147              		.loc 1 392 3 is_stmt 1 discriminator 3 view .LVU57
 148              		.loc 1 392 32 is_stmt 0 discriminator 3 view .LVU58
 149 0078 82F83802 		strb	r0, [r2, #568]
 393:D:/Git/VL53L1/lib/core/src\vl53l1_api_calibration.c **** 		poffset->effective_spads     = 0;
 150              		.loc 1 393 3 is_stmt 1 discriminator 3 view .LVU59
 151              		.loc 1 393 32 is_stmt 0 discriminator 3 view .LVU60
 152 007c C2F83C02 		str	r0, [r2, #572]
 394:D:/Git/VL53L1/lib/core/src\vl53l1_api_calibration.c **** 		poffset->peak_rate_mcps      = 0;
 153              		.loc 1 394 3 is_stmt 1 discriminator 3 view .LVU61
 154              		.loc 1 394 32 is_stmt 0 discriminator 3 view .LVU62
 155 0080 C2F84002 		str	r0, [r2, #576]
 395:D:/Git/VL53L1/lib/core/src\vl53l1_api_calibration.c **** 		poffset->sigma_mm            = 0;
 156              		.loc 1 395 3 is_stmt 1 discriminator 3 view .LVU63
 157              		.loc 1 395 32 is_stmt 0 discriminator 3 view .LVU64
 158 0084 C2F84402 		str	r0, [r2, #580]
 396:D:/Git/VL53L1/lib/core/src\vl53l1_api_calibration.c **** 		poffset->median_range_mm     = 0;
 159              		.loc 1 396 3 is_stmt 1 discriminator 3 view .LVU65
 160              		.loc 1 396 32 is_stmt 0 discriminator 3 view .LVU66
 161 0088 C2F84802 		str	r0, [r2, #584]
 388:D:/Git/VL53L1/lib/core/src\vl53l1_api_calibration.c **** 
 162              		.loc 1 388 54 discriminator 3 view .LVU67
 163 008c 0133     		adds	r3, r3, #1
 164              	.LVL5:
 388:D:/Git/VL53L1/lib/core/src\vl53l1_api_calibration.c **** 
 165              		.loc 1 388 54 discriminator 3 view .LVU68
 166 008e DBB2     		uxtb	r3, r3
 167              	.LVL6:
 168              	.L4:
 388:D:/Git/VL53L1/lib/core/src\vl53l1_api_calibration.c **** 
 169              		.loc 1 388 2 discriminator 1 view .LVU69
ARM GAS  C:\Users\Berbardo\AppData\Local\Temp\ccNyfDs0.s 			page 11


 170 0090 022B     		cmp	r3, #2
 171 0092 EAD9     		bls	.L5
 397:D:/Git/VL53L1/lib/core/src\vl53l1_api_calibration.c **** 	}
 398:D:/Git/VL53L1/lib/core/src\vl53l1_api_calibration.c **** 
 399:D:/Git/VL53L1/lib/core/src\vl53l1_api_calibration.c **** 	for (m = 0 ; m < pdev->offset_results.active_results ; m++) {
 172              		.loc 1 399 9 view .LVU70
 173 0094 0027     		movs	r7, #0
 318:D:/Git/VL53L1/lib/core/src\vl53l1_api_calibration.c **** 	VL53L1_LLDriverData_t *pdev =
 174              		.loc 1 318 15 view .LVU71
 175 0096 3846     		mov	r0, r7
 176 0098 A8E0     		b	.L6
 177              	.LVL7:
 178              	.L48:
 400:D:/Git/VL53L1/lib/core/src\vl53l1_api_calibration.c **** 
 401:D:/Git/VL53L1/lib/core/src\vl53l1_api_calibration.c **** 		poffset = &(pdev->offset_results.data[m]);
 402:D:/Git/VL53L1/lib/core/src\vl53l1_api_calibration.c **** 
 403:D:/Git/VL53L1/lib/core/src\vl53l1_api_calibration.c **** 		poffset->preset_mode         = device_preset_modes[m];
 404:D:/Git/VL53L1/lib/core/src\vl53l1_api_calibration.c **** 
 405:D:/Git/VL53L1/lib/core/src\vl53l1_api_calibration.c **** 		/* Apply preset mode */
 406:D:/Git/VL53L1/lib/core/src\vl53l1_api_calibration.c **** 
 407:D:/Git/VL53L1/lib/core/src\vl53l1_api_calibration.c **** 		if (status == VL53L1_ERROR_NONE)
 408:D:/Git/VL53L1/lib/core/src\vl53l1_api_calibration.c **** 			status =
 179              		.loc 1 408 4 is_stmt 1 view .LVU72
 409:D:/Git/VL53L1/lib/core/src\vl53l1_api_calibration.c **** 				VL53L1_set_preset_mode(
 180              		.loc 1 409 5 is_stmt 0 view .LVU73
 181 009a 6423     		movs	r3, #100
 182 009c 0293     		str	r3, [sp, #8]
 183 009e D5F84C31 		ldr	r3, [r5, #332]
 184 00a2 0193     		str	r3, [sp, #4]
 185 00a4 D5F85031 		ldr	r3, [r5, #336]
 186 00a8 0093     		str	r3, [sp]
 187 00aa D5F84831 		ldr	r3, [r5, #328]
 188 00ae B5F84421 		ldrh	r2, [r5, #324]
 189 00b2 2846     		mov	r0, r5
 190              	.LVL8:
 191              		.loc 1 409 5 view .LVU74
 192 00b4 FFF7FEFF 		bl	VL53L1_set_preset_mode
 193              	.LVL9:
 194              		.loc 1 409 5 view .LVU75
 195 00b8 AAE0     		b	.L7
 196              	.L49:
 410:D:/Git/VL53L1/lib/core/src\vl53l1_api_calibration.c **** 					Dev,
 411:D:/Git/VL53L1/lib/core/src\vl53l1_api_calibration.c **** 					device_preset_modes[m],
 412:D:/Git/VL53L1/lib/core/src\vl53l1_api_calibration.c **** 					/* Start Patch_CalFunctionSimplification_11791 */
 413:D:/Git/VL53L1/lib/core/src\vl53l1_api_calibration.c **** 					pdev->offsetcal_cfg.dss_config__target_total_rate_mcps,
 414:D:/Git/VL53L1/lib/core/src\vl53l1_api_calibration.c **** 					pdev->offsetcal_cfg.phasecal_config_timeout_us,
 415:D:/Git/VL53L1/lib/core/src\vl53l1_api_calibration.c **** 					pdev->offsetcal_cfg.mm_config_timeout_us,
 416:D:/Git/VL53L1/lib/core/src\vl53l1_api_calibration.c **** 					pdev->offsetcal_cfg.range_config_timeout_us,
 417:D:/Git/VL53L1/lib/core/src\vl53l1_api_calibration.c **** 					/* End Patch_CalFunctionSimplification_11791 */
 418:D:/Git/VL53L1/lib/core/src\vl53l1_api_calibration.c **** 					100);
 419:D:/Git/VL53L1/lib/core/src\vl53l1_api_calibration.c **** 
 420:D:/Git/VL53L1/lib/core/src\vl53l1_api_calibration.c **** 		pdev->gen_cfg.dss_config__manual_effective_spads_select =
 421:D:/Git/VL53L1/lib/core/src\vl53l1_api_calibration.c **** 				manual_effective_spads;
 422:D:/Git/VL53L1/lib/core/src\vl53l1_api_calibration.c **** 
 423:D:/Git/VL53L1/lib/core/src\vl53l1_api_calibration.c **** 		/* Initialise device and start range */
 424:D:/Git/VL53L1/lib/core/src\vl53l1_api_calibration.c **** 
 425:D:/Git/VL53L1/lib/core/src\vl53l1_api_calibration.c **** 		if (status == VL53L1_ERROR_NONE)
ARM GAS  C:\Users\Berbardo\AppData\Local\Temp\ccNyfDs0.s 			page 12


 426:D:/Git/VL53L1/lib/core/src\vl53l1_api_calibration.c **** 			status =
 197              		.loc 1 426 4 is_stmt 1 view .LVU76
 427:D:/Git/VL53L1/lib/core/src\vl53l1_api_calibration.c **** 				VL53L1_init_and_start_range(
 198              		.loc 1 427 5 is_stmt 0 view .LVU77
 199 00ba 0522     		movs	r2, #5
 200 00bc 2021     		movs	r1, #32
 201 00be 2846     		mov	r0, r5
 202              	.LVL10:
 203              		.loc 1 427 5 view .LVU78
 204 00c0 FFF7FEFF 		bl	VL53L1_init_and_start_range
 205              	.LVL11:
 206              		.loc 1 427 5 view .LVU79
 207 00c4 A9E0     		b	.L8
 208              	.LVL12:
 209              	.L42:
 428:D:/Git/VL53L1/lib/core/src\vl53l1_api_calibration.c **** 					Dev,
 429:D:/Git/VL53L1/lib/core/src\vl53l1_api_calibration.c **** 					measurement_mode,
 430:D:/Git/VL53L1/lib/core/src\vl53l1_api_calibration.c **** 					VL53L1_DEVICECONFIGLEVEL_CUSTOMER_ONWARDS);
 431:D:/Git/VL53L1/lib/core/src\vl53l1_api_calibration.c **** 
 432:D:/Git/VL53L1/lib/core/src\vl53l1_api_calibration.c **** 		for (i = 0 ; i <= (num_of_samples[m]+2) ; i++) {
 433:D:/Git/VL53L1/lib/core/src\vl53l1_api_calibration.c **** 
 434:D:/Git/VL53L1/lib/core/src\vl53l1_api_calibration.c **** 			/* Wait for range completion */
 435:D:/Git/VL53L1/lib/core/src\vl53l1_api_calibration.c **** 
 436:D:/Git/VL53L1/lib/core/src\vl53l1_api_calibration.c **** 			if (status == VL53L1_ERROR_NONE)
 437:D:/Git/VL53L1/lib/core/src\vl53l1_api_calibration.c **** 				status =
 210              		.loc 1 437 5 is_stmt 1 view .LVU80
 438:D:/Git/VL53L1/lib/core/src\vl53l1_api_calibration.c **** 					VL53L1_wait_for_range_completion(Dev);
 211              		.loc 1 438 6 is_stmt 0 view .LVU81
 212 00c6 2846     		mov	r0, r5
 213              	.LVL13:
 214              		.loc 1 438 6 view .LVU82
 215 00c8 FFF7FEFF 		bl	VL53L1_wait_for_range_completion
 216              	.LVL14:
 217              		.loc 1 438 6 view .LVU83
 218 00cc 14E0     		b	.L9
 219              	.L43:
 439:D:/Git/VL53L1/lib/core/src\vl53l1_api_calibration.c **** 
 440:D:/Git/VL53L1/lib/core/src\vl53l1_api_calibration.c **** 			/*
 441:D:/Git/VL53L1/lib/core/src\vl53l1_api_calibration.c **** 			 *  Get Device Results
 442:D:/Git/VL53L1/lib/core/src\vl53l1_api_calibration.c **** 			 *  - Checks the stream count is the expected one
 443:D:/Git/VL53L1/lib/core/src\vl53l1_api_calibration.c **** 			 *  - Read device system results
 444:D:/Git/VL53L1/lib/core/src\vl53l1_api_calibration.c **** 			 */
 445:D:/Git/VL53L1/lib/core/src\vl53l1_api_calibration.c **** 
 446:D:/Git/VL53L1/lib/core/src\vl53l1_api_calibration.c **** 			if (status == VL53L1_ERROR_NONE)
 447:D:/Git/VL53L1/lib/core/src\vl53l1_api_calibration.c **** 				status =
 220              		.loc 1 447 5 is_stmt 1 view .LVU84
 448:D:/Git/VL53L1/lib/core/src\vl53l1_api_calibration.c **** 					VL53L1_get_device_results(
 221              		.loc 1 448 6 is_stmt 0 view .LVU85
 222 00ce 06AA     		add	r2, sp, #24
 223              	.LVL15:
 224              		.loc 1 448 6 view .LVU86
 225 00d0 0221     		movs	r1, #2
 226 00d2 2846     		mov	r0, r5
 227              	.LVL16:
 228              		.loc 1 448 6 view .LVU87
 229 00d4 FFF7FEFF 		bl	VL53L1_get_device_results
 230              	.LVL17:
ARM GAS  C:\Users\Berbardo\AppData\Local\Temp\ccNyfDs0.s 			page 13


 231              		.loc 1 448 6 view .LVU88
 232 00d8 10E0     		b	.L10
 233              	.LVL18:
 234              	.L11:
 449:D:/Git/VL53L1/lib/core/src\vl53l1_api_calibration.c **** 						Dev,
 450:D:/Git/VL53L1/lib/core/src\vl53l1_api_calibration.c **** 						VL53L1_DEVICERESULTSLEVEL_FULL,
 451:D:/Git/VL53L1/lib/core/src\vl53l1_api_calibration.c **** 						prange_results);
 452:D:/Git/VL53L1/lib/core/src\vl53l1_api_calibration.c **** 
 453:D:/Git/VL53L1/lib/core/src\vl53l1_api_calibration.c **** 			/*
 454:D:/Git/VL53L1/lib/core/src\vl53l1_api_calibration.c **** 			 * Ignore 1st two ranges to give the sigma delta initial
 455:D:/Git/VL53L1/lib/core/src\vl53l1_api_calibration.c **** 			 * phase time to settle
 456:D:/Git/VL53L1/lib/core/src\vl53l1_api_calibration.c **** 			 *
 457:D:/Git/VL53L1/lib/core/src\vl53l1_api_calibration.c **** 			 * accummulate range results if range is successful
 458:D:/Git/VL53L1/lib/core/src\vl53l1_api_calibration.c **** 			 */
 459:D:/Git/VL53L1/lib/core/src\vl53l1_api_calibration.c **** 
 460:D:/Git/VL53L1/lib/core/src\vl53l1_api_calibration.c **** 			prange_data  = &(prange_results->data[0]);
 461:D:/Git/VL53L1/lib/core/src\vl53l1_api_calibration.c **** 
 462:D:/Git/VL53L1/lib/core/src\vl53l1_api_calibration.c **** 			if (prange_results->stream_count   > 1) {
 463:D:/Git/VL53L1/lib/core/src\vl53l1_api_calibration.c **** 
 464:D:/Git/VL53L1/lib/core/src\vl53l1_api_calibration.c **** 				if (prange_data->range_status ==
 465:D:/Git/VL53L1/lib/core/src\vl53l1_api_calibration.c **** 						VL53L1_DEVICEERROR_RANGECOMPLETE) {
 466:D:/Git/VL53L1/lib/core/src\vl53l1_api_calibration.c **** 
 467:D:/Git/VL53L1/lib/core/src\vl53l1_api_calibration.c **** 					poffset->no_of_samples++;
 468:D:/Git/VL53L1/lib/core/src\vl53l1_api_calibration.c **** 					poffset->effective_spads +=
 469:D:/Git/VL53L1/lib/core/src\vl53l1_api_calibration.c **** 						(uint32_t)prange_data->actual_effective_spads;
 470:D:/Git/VL53L1/lib/core/src\vl53l1_api_calibration.c **** 					poffset->peak_rate_mcps  +=
 471:D:/Git/VL53L1/lib/core/src\vl53l1_api_calibration.c **** 						(uint32_t)prange_data->peak_signal_count_rate_mcps;
 472:D:/Git/VL53L1/lib/core/src\vl53l1_api_calibration.c **** 					poffset->sigma_mm        +=
 473:D:/Git/VL53L1/lib/core/src\vl53l1_api_calibration.c **** 						(uint32_t)prange_data->sigma_mm;
 474:D:/Git/VL53L1/lib/core/src\vl53l1_api_calibration.c **** 					poffset->median_range_mm +=
 475:D:/Git/VL53L1/lib/core/src\vl53l1_api_calibration.c **** 						(int32_t)prange_data->median_range_mm;
 476:D:/Git/VL53L1/lib/core/src\vl53l1_api_calibration.c **** 
 477:D:/Git/VL53L1/lib/core/src\vl53l1_api_calibration.c **** 					poffset->dss_config__roi_mode_control =
 478:D:/Git/VL53L1/lib/core/src\vl53l1_api_calibration.c **** 						pdev->gen_cfg.dss_config__roi_mode_control;
 479:D:/Git/VL53L1/lib/core/src\vl53l1_api_calibration.c **** 					poffset->dss_config__manual_effective_spads_select =
 480:D:/Git/VL53L1/lib/core/src\vl53l1_api_calibration.c **** 						pdev->gen_cfg.dss_config__manual_effective_spads_select;
 481:D:/Git/VL53L1/lib/core/src\vl53l1_api_calibration.c **** 				}
 482:D:/Git/VL53L1/lib/core/src\vl53l1_api_calibration.c **** 			}
 483:D:/Git/VL53L1/lib/core/src\vl53l1_api_calibration.c **** 
 484:D:/Git/VL53L1/lib/core/src\vl53l1_api_calibration.c **** 			/*
 485:D:/Git/VL53L1/lib/core/src\vl53l1_api_calibration.c **** 			 * Conditional wait for firmware ready. Only waits for timed
 486:D:/Git/VL53L1/lib/core/src\vl53l1_api_calibration.c **** 			 * and single shot modes. Mode check is performed inside the
 487:D:/Git/VL53L1/lib/core/src\vl53l1_api_calibration.c **** 			 * wait function
 488:D:/Git/VL53L1/lib/core/src\vl53l1_api_calibration.c **** 			 */
 489:D:/Git/VL53L1/lib/core/src\vl53l1_api_calibration.c **** 
 490:D:/Git/VL53L1/lib/core/src\vl53l1_api_calibration.c **** 			if (status == VL53L1_ERROR_NONE)
 235              		.loc 1 490 4 is_stmt 1 view .LVU89
 236              		.loc 1 490 7 is_stmt 0 view .LVU90
 237 00da 0028     		cmp	r0, #0
 238 00dc 44D0     		beq	.L39
 239              	.L12:
 491:D:/Git/VL53L1/lib/core/src\vl53l1_api_calibration.c **** 				status =
 492:D:/Git/VL53L1/lib/core/src\vl53l1_api_calibration.c **** 					VL53L1_wait_for_firmware_ready(Dev);
 493:D:/Git/VL53L1/lib/core/src\vl53l1_api_calibration.c **** 
 494:D:/Git/VL53L1/lib/core/src\vl53l1_api_calibration.c **** 			/*
 495:D:/Git/VL53L1/lib/core/src\vl53l1_api_calibration.c **** 			 * Send ranging handshake
 496:D:/Git/VL53L1/lib/core/src\vl53l1_api_calibration.c **** 			 *
ARM GAS  C:\Users\Berbardo\AppData\Local\Temp\ccNyfDs0.s 			page 14


 497:D:/Git/VL53L1/lib/core/src\vl53l1_api_calibration.c **** 			 *  - Update Zone management
 498:D:/Git/VL53L1/lib/core/src\vl53l1_api_calibration.c **** 			 *  - Update GPH registers
 499:D:/Git/VL53L1/lib/core/src\vl53l1_api_calibration.c **** 			 *  - Clear current interrupt
 500:D:/Git/VL53L1/lib/core/src\vl53l1_api_calibration.c **** 			 *  - Initialise SYSTEM__MODE_START for next range (if there is one!)
 501:D:/Git/VL53L1/lib/core/src\vl53l1_api_calibration.c **** 			 */
 502:D:/Git/VL53L1/lib/core/src\vl53l1_api_calibration.c **** 
 503:D:/Git/VL53L1/lib/core/src\vl53l1_api_calibration.c **** 			if (status == VL53L1_ERROR_NONE)
 240              		.loc 1 503 4 is_stmt 1 view .LVU91
 241              		.loc 1 503 7 is_stmt 0 view .LVU92
 242 00de 0028     		cmp	r0, #0
 243 00e0 46D0     		beq	.L40
 244              	.L13:
 432:D:/Git/VL53L1/lib/core/src\vl53l1_api_calibration.c **** 
 245              		.loc 1 432 46 discriminator 2 view .LVU93
 246 00e2 0134     		adds	r4, r4, #1
 247              	.LVL19:
 432:D:/Git/VL53L1/lib/core/src\vl53l1_api_calibration.c **** 
 248              		.loc 1 432 46 discriminator 2 view .LVU94
 249 00e4 E4B2     		uxtb	r4, r4
 250              	.LVL20:
 251              	.L14:
 432:D:/Git/VL53L1/lib/core/src\vl53l1_api_calibration.c **** 
 252              		.loc 1 432 36 discriminator 1 view .LVU95
 253 00e6 28AB     		add	r3, sp, #160
 254 00e8 3344     		add	r3, r3, r6
 255 00ea 13F88C3C 		ldrb	r3, [r3, #-140]	@ zero_extendqisi2
 432:D:/Git/VL53L1/lib/core/src\vl53l1_api_calibration.c **** 
 256              		.loc 1 432 39 discriminator 1 view .LVU96
 257 00ee 0233     		adds	r3, r3, #2
 432:D:/Git/VL53L1/lib/core/src\vl53l1_api_calibration.c **** 
 258              		.loc 1 432 3 discriminator 1 view .LVU97
 259 00f0 9C42     		cmp	r4, r3
 260 00f2 42DC     		bgt	.L41
 436:D:/Git/VL53L1/lib/core/src\vl53l1_api_calibration.c **** 				status =
 261              		.loc 1 436 4 is_stmt 1 view .LVU98
 436:D:/Git/VL53L1/lib/core/src\vl53l1_api_calibration.c **** 				status =
 262              		.loc 1 436 7 is_stmt 0 view .LVU99
 263 00f4 0028     		cmp	r0, #0
 264 00f6 E6D0     		beq	.L42
 265              	.L9:
 446:D:/Git/VL53L1/lib/core/src\vl53l1_api_calibration.c **** 				status =
 266              		.loc 1 446 4 is_stmt 1 view .LVU100
 446:D:/Git/VL53L1/lib/core/src\vl53l1_api_calibration.c **** 				status =
 267              		.loc 1 446 7 is_stmt 0 view .LVU101
 268 00f8 0028     		cmp	r0, #0
 269 00fa E8D0     		beq	.L43
 270              	.L10:
 460:D:/Git/VL53L1/lib/core/src\vl53l1_api_calibration.c **** 
 271              		.loc 1 460 4 is_stmt 1 view .LVU102
 272              	.LVL21:
 462:D:/Git/VL53L1/lib/core/src\vl53l1_api_calibration.c **** 
 273              		.loc 1 462 4 view .LVU103
 462:D:/Git/VL53L1/lib/core/src\vl53l1_api_calibration.c **** 
 274              		.loc 1 462 22 is_stmt 0 view .LVU104
 275 00fc 9DF81A30 		ldrb	r3, [sp, #26]	@ zero_extendqisi2
 462:D:/Git/VL53L1/lib/core/src\vl53l1_api_calibration.c **** 
 276              		.loc 1 462 7 view .LVU105
ARM GAS  C:\Users\Berbardo\AppData\Local\Temp\ccNyfDs0.s 			page 15


 277 0100 012B     		cmp	r3, #1
 278 0102 EAD9     		bls	.L11
 464:D:/Git/VL53L1/lib/core/src\vl53l1_api_calibration.c **** 						VL53L1_DEVICEERROR_RANGECOMPLETE) {
 279              		.loc 1 464 5 is_stmt 1 view .LVU106
 464:D:/Git/VL53L1/lib/core/src\vl53l1_api_calibration.c **** 						VL53L1_DEVICEERROR_RANGECOMPLETE) {
 280              		.loc 1 464 20 is_stmt 0 view .LVU107
 281 0104 9DF85A30 		ldrb	r3, [sp, #90]	@ zero_extendqisi2
 464:D:/Git/VL53L1/lib/core/src\vl53l1_api_calibration.c **** 						VL53L1_DEVICEERROR_RANGECOMPLETE) {
 282              		.loc 1 464 8 view .LVU108
 283 0108 092B     		cmp	r3, #9
 284 010a E6D1     		bne	.L11
 467:D:/Git/VL53L1/lib/core/src\vl53l1_api_calibration.c **** 					poffset->effective_spads +=
 285              		.loc 1 467 6 is_stmt 1 view .LVU109
 467:D:/Git/VL53L1/lib/core/src\vl53l1_api_calibration.c **** 					poffset->effective_spads +=
 286              		.loc 1 467 13 is_stmt 0 view .LVU110
 287 010c C6EBC603 		rsb	r3, r6, r6, lsl #3
 288 0110 05EB8303 		add	r3, r5, r3, lsl #2
 289 0114 93F83822 		ldrb	r2, [r3, #568]	@ zero_extendqisi2
 467:D:/Git/VL53L1/lib/core/src\vl53l1_api_calibration.c **** 					poffset->effective_spads +=
 290              		.loc 1 467 28 view .LVU111
 291 0118 0132     		adds	r2, r2, #1
 292 011a 83F83822 		strb	r2, [r3, #568]
 468:D:/Git/VL53L1/lib/core/src\vl53l1_api_calibration.c **** 						(uint32_t)prange_data->actual_effective_spads;
 293              		.loc 1 468 6 is_stmt 1 view .LVU112
 469:D:/Git/VL53L1/lib/core/src\vl53l1_api_calibration.c **** 					poffset->peak_rate_mcps  +=
 294              		.loc 1 469 28 is_stmt 0 view .LVU113
 295 011e BDF82C10 		ldrh	r1, [sp, #44]
 468:D:/Git/VL53L1/lib/core/src\vl53l1_api_calibration.c **** 						(uint32_t)prange_data->actual_effective_spads;
 296              		.loc 1 468 31 view .LVU114
 297 0122 D3F83C22 		ldr	r2, [r3, #572]
 298 0126 0A44     		add	r2, r2, r1
 299 0128 C3F83C22 		str	r2, [r3, #572]
 470:D:/Git/VL53L1/lib/core/src\vl53l1_api_calibration.c **** 						(uint32_t)prange_data->peak_signal_count_rate_mcps;
 300              		.loc 1 470 6 is_stmt 1 view .LVU115
 471:D:/Git/VL53L1/lib/core/src\vl53l1_api_calibration.c **** 					poffset->sigma_mm        +=
 301              		.loc 1 471 28 is_stmt 0 view .LVU116
 302 012c BDF84810 		ldrh	r1, [sp, #72]
 470:D:/Git/VL53L1/lib/core/src\vl53l1_api_calibration.c **** 						(uint32_t)prange_data->peak_signal_count_rate_mcps;
 303              		.loc 1 470 31 view .LVU117
 304 0130 D3F84022 		ldr	r2, [r3, #576]
 305 0134 0A44     		add	r2, r2, r1
 306 0136 C3F84022 		str	r2, [r3, #576]
 472:D:/Git/VL53L1/lib/core/src\vl53l1_api_calibration.c **** 						(uint32_t)prange_data->sigma_mm;
 307              		.loc 1 472 6 is_stmt 1 view .LVU118
 473:D:/Git/VL53L1/lib/core/src\vl53l1_api_calibration.c **** 					poffset->median_range_mm +=
 308              		.loc 1 473 28 is_stmt 0 view .LVU119
 309 013a BDF85410 		ldrh	r1, [sp, #84]
 472:D:/Git/VL53L1/lib/core/src\vl53l1_api_calibration.c **** 						(uint32_t)prange_data->sigma_mm;
 310              		.loc 1 472 31 view .LVU120
 311 013e D3F84422 		ldr	r2, [r3, #580]
 312 0142 0A44     		add	r2, r2, r1
 313 0144 C3F84422 		str	r2, [r3, #580]
 474:D:/Git/VL53L1/lib/core/src\vl53l1_api_calibration.c **** 						(int32_t)prange_data->median_range_mm;
 314              		.loc 1 474 6 is_stmt 1 view .LVU121
 475:D:/Git/VL53L1/lib/core/src\vl53l1_api_calibration.c **** 
 315              		.loc 1 475 27 is_stmt 0 view .LVU122
 316 0148 BDF95810 		ldrsh	r1, [sp, #88]
ARM GAS  C:\Users\Berbardo\AppData\Local\Temp\ccNyfDs0.s 			page 16


 474:D:/Git/VL53L1/lib/core/src\vl53l1_api_calibration.c **** 						(int32_t)prange_data->median_range_mm;
 317              		.loc 1 474 31 view .LVU123
 318 014c D3F84822 		ldr	r2, [r3, #584]
 319 0150 0A44     		add	r2, r2, r1
 320 0152 C3F84822 		str	r2, [r3, #584]
 477:D:/Git/VL53L1/lib/core/src\vl53l1_api_calibration.c **** 						pdev->gen_cfg.dss_config__roi_mode_control;
 321              		.loc 1 477 6 is_stmt 1 view .LVU124
 478:D:/Git/VL53L1/lib/core/src\vl53l1_api_calibration.c **** 					poffset->dss_config__manual_effective_spads_select =
 322              		.loc 1 478 20 is_stmt 0 view .LVU125
 323 0156 95F88E21 		ldrb	r2, [r5, #398]	@ zero_extendqisi2
 477:D:/Git/VL53L1/lib/core/src\vl53l1_api_calibration.c **** 						pdev->gen_cfg.dss_config__roi_mode_control;
 324              		.loc 1 477 44 view .LVU126
 325 015a 83F83522 		strb	r2, [r3, #565]
 479:D:/Git/VL53L1/lib/core/src\vl53l1_api_calibration.c **** 						pdev->gen_cfg.dss_config__manual_effective_spads_select;
 326              		.loc 1 479 6 is_stmt 1 view .LVU127
 480:D:/Git/VL53L1/lib/core/src\vl53l1_api_calibration.c **** 				}
 327              		.loc 1 480 20 is_stmt 0 view .LVU128
 328 015e B5F89421 		ldrh	r2, [r5, #404]
 479:D:/Git/VL53L1/lib/core/src\vl53l1_api_calibration.c **** 						pdev->gen_cfg.dss_config__manual_effective_spads_select;
 329              		.loc 1 479 57 view .LVU129
 330 0162 A3F83622 		strh	r2, [r3, #566]	@ movhi
 331 0166 B8E7     		b	.L11
 332              	.L39:
 491:D:/Git/VL53L1/lib/core/src\vl53l1_api_calibration.c **** 					VL53L1_wait_for_firmware_ready(Dev);
 333              		.loc 1 491 5 is_stmt 1 view .LVU130
 492:D:/Git/VL53L1/lib/core/src\vl53l1_api_calibration.c **** 
 334              		.loc 1 492 6 is_stmt 0 view .LVU131
 335 0168 2846     		mov	r0, r5
 336              	.LVL22:
 492:D:/Git/VL53L1/lib/core/src\vl53l1_api_calibration.c **** 
 337              		.loc 1 492 6 view .LVU132
 338 016a FFF7FEFF 		bl	VL53L1_wait_for_firmware_ready
 339              	.LVL23:
 492:D:/Git/VL53L1/lib/core/src\vl53l1_api_calibration.c **** 
 340              		.loc 1 492 6 view .LVU133
 341 016e B6E7     		b	.L12
 342              	.L40:
 504:D:/Git/VL53L1/lib/core/src\vl53l1_api_calibration.c **** 				status =
 343              		.loc 1 504 5 is_stmt 1 view .LVU134
 505:D:/Git/VL53L1/lib/core/src\vl53l1_api_calibration.c **** 					VL53L1_clear_interrupt_and_enable_next_range(
 344              		.loc 1 505 6 is_stmt 0 view .LVU135
 345 0170 2021     		movs	r1, #32
 346 0172 2846     		mov	r0, r5
 347              	.LVL24:
 348              		.loc 1 505 6 view .LVU136
 349 0174 FFF7FEFF 		bl	VL53L1_clear_interrupt_and_enable_next_range
 350              	.LVL25:
 351              		.loc 1 505 6 view .LVU137
 352 0178 B3E7     		b	.L13
 353              	.LVL26:
 354              	.L41:
 506:D:/Git/VL53L1/lib/core/src\vl53l1_api_calibration.c **** 						Dev,
 507:D:/Git/VL53L1/lib/core/src\vl53l1_api_calibration.c **** 						measurement_mode);
 508:D:/Git/VL53L1/lib/core/src\vl53l1_api_calibration.c **** 		}
 509:D:/Git/VL53L1/lib/core/src\vl53l1_api_calibration.c **** 
 510:D:/Git/VL53L1/lib/core/src\vl53l1_api_calibration.c **** 		/* Stop range */
 511:D:/Git/VL53L1/lib/core/src\vl53l1_api_calibration.c **** 
ARM GAS  C:\Users\Berbardo\AppData\Local\Temp\ccNyfDs0.s 			page 17


 512:D:/Git/VL53L1/lib/core/src\vl53l1_api_calibration.c **** 		if (status == VL53L1_ERROR_NONE)
 355              		.loc 1 512 3 is_stmt 1 view .LVU138
 356              		.loc 1 512 6 is_stmt 0 view .LVU139
 357 017a 0028     		cmp	r0, #0
 358 017c 4FD0     		beq	.L44
 359              	.L16:
 513:D:/Git/VL53L1/lib/core/src\vl53l1_api_calibration.c **** 			status = VL53L1_stop_range(Dev);
 514:D:/Git/VL53L1/lib/core/src\vl53l1_api_calibration.c **** 
 515:D:/Git/VL53L1/lib/core/src\vl53l1_api_calibration.c **** 		/* Wait for Stop (abort) range to complete */
 516:D:/Git/VL53L1/lib/core/src\vl53l1_api_calibration.c **** 
 517:D:/Git/VL53L1/lib/core/src\vl53l1_api_calibration.c **** 		if (status == VL53L1_ERROR_NONE)
 360              		.loc 1 517 3 is_stmt 1 view .LVU140
 361              		.loc 1 517 6 is_stmt 0 view .LVU141
 362 017e 0028     		cmp	r0, #0
 363 0180 51D0     		beq	.L45
 364              	.L17:
 518:D:/Git/VL53L1/lib/core/src\vl53l1_api_calibration.c **** 			status = VL53L1_WaitUs(Dev, 1000);
 519:D:/Git/VL53L1/lib/core/src\vl53l1_api_calibration.c **** 
 520:D:/Git/VL53L1/lib/core/src\vl53l1_api_calibration.c **** 		/* generate average values */
 521:D:/Git/VL53L1/lib/core/src\vl53l1_api_calibration.c **** 		if (poffset->no_of_samples > 0) {
 365              		.loc 1 521 3 is_stmt 1 view .LVU142
 366              		.loc 1 521 14 is_stmt 0 view .LVU143
 367 0182 C6EBC603 		rsb	r3, r6, r6, lsl #3
 368 0186 05EB8303 		add	r3, r5, r3, lsl #2
 369 018a 93F83812 		ldrb	r1, [r3, #568]	@ zero_extendqisi2
 370              		.loc 1 521 6 view .LVU144
 371 018e 59B3     		cbz	r1, .L18
 522:D:/Git/VL53L1/lib/core/src\vl53l1_api_calibration.c **** 
 523:D:/Git/VL53L1/lib/core/src\vl53l1_api_calibration.c **** 			poffset->effective_spads += (poffset->no_of_samples/2);
 372              		.loc 1 523 4 is_stmt 1 view .LVU145
 373              		.loc 1 523 29 is_stmt 0 view .LVU146
 374 0190 C6EBC603 		rsb	r3, r6, r6, lsl #3
 375 0194 05EB8303 		add	r3, r5, r3, lsl #2
 376 0198 D3F83C22 		ldr	r2, [r3, #572]
 377 019c 02EB5102 		add	r2, r2, r1, lsr #1
 524:D:/Git/VL53L1/lib/core/src\vl53l1_api_calibration.c **** 			poffset->effective_spads /= poffset->no_of_samples;
 378              		.loc 1 524 4 is_stmt 1 view .LVU147
 379              		.loc 1 524 29 is_stmt 0 view .LVU148
 380 01a0 B2FBF1F2 		udiv	r2, r2, r1
 381 01a4 C3F83C22 		str	r2, [r3, #572]
 525:D:/Git/VL53L1/lib/core/src\vl53l1_api_calibration.c **** 
 526:D:/Git/VL53L1/lib/core/src\vl53l1_api_calibration.c **** 			poffset->peak_rate_mcps  += (poffset->no_of_samples/2);
 382              		.loc 1 526 4 is_stmt 1 view .LVU149
 383              		.loc 1 526 29 is_stmt 0 view .LVU150
 384 01a8 D3F84022 		ldr	r2, [r3, #576]
 385 01ac 02EB5102 		add	r2, r2, r1, lsr #1
 527:D:/Git/VL53L1/lib/core/src\vl53l1_api_calibration.c **** 			poffset->peak_rate_mcps  /= poffset->no_of_samples;
 386              		.loc 1 527 4 is_stmt 1 view .LVU151
 387              		.loc 1 527 29 is_stmt 0 view .LVU152
 388 01b0 B2FBF1F2 		udiv	r2, r2, r1
 389 01b4 C3F84022 		str	r2, [r3, #576]
 528:D:/Git/VL53L1/lib/core/src\vl53l1_api_calibration.c **** 
 529:D:/Git/VL53L1/lib/core/src\vl53l1_api_calibration.c **** 			poffset->sigma_mm        += (poffset->no_of_samples/2);
 390              		.loc 1 529 4 is_stmt 1 view .LVU153
 391              		.loc 1 529 29 is_stmt 0 view .LVU154
 392 01b8 D3F84422 		ldr	r2, [r3, #580]
 393 01bc 02EB5102 		add	r2, r2, r1, lsr #1
ARM GAS  C:\Users\Berbardo\AppData\Local\Temp\ccNyfDs0.s 			page 18


 530:D:/Git/VL53L1/lib/core/src\vl53l1_api_calibration.c **** 			poffset->sigma_mm        /= poffset->no_of_samples;
 394              		.loc 1 530 4 is_stmt 1 view .LVU155
 395              		.loc 1 530 29 is_stmt 0 view .LVU156
 396 01c0 B2FBF1F2 		udiv	r2, r2, r1
 397 01c4 C3F84422 		str	r2, [r3, #580]
 531:D:/Git/VL53L1/lib/core/src\vl53l1_api_calibration.c **** 
 532:D:/Git/VL53L1/lib/core/src\vl53l1_api_calibration.c **** 			poffset->median_range_mm += (poffset->no_of_samples/2);
 398              		.loc 1 532 4 is_stmt 1 view .LVU157
 399              		.loc 1 532 29 is_stmt 0 view .LVU158
 400 01c8 D3F84822 		ldr	r2, [r3, #584]
 401 01cc 02EB5102 		add	r2, r2, r1, lsr #1
 533:D:/Git/VL53L1/lib/core/src\vl53l1_api_calibration.c **** 			poffset->median_range_mm /= poffset->no_of_samples;
 402              		.loc 1 533 4 is_stmt 1 view .LVU159
 403              		.loc 1 533 29 is_stmt 0 view .LVU160
 404 01d0 92FBF1F2 		sdiv	r2, r2, r1
 405 01d4 C3F84822 		str	r2, [r3, #584]
 534:D:/Git/VL53L1/lib/core/src\vl53l1_api_calibration.c **** 
 535:D:/Git/VL53L1/lib/core/src\vl53l1_api_calibration.c **** 			poffset->range_mm_offset  =  (int32_t)cal_distance_mm;
 406              		.loc 1 535 4 is_stmt 1 view .LVU161
 536:D:/Git/VL53L1/lib/core/src\vl53l1_api_calibration.c **** 			poffset->range_mm_offset -= poffset->median_range_mm;
 407              		.loc 1 536 4 view .LVU162
 408              		.loc 1 536 29 is_stmt 0 view .LVU163
 409 01d8 A9EB0202 		sub	r2, r9, r2
 410 01dc C3F84C22 		str	r2, [r3, #588]
 537:D:/Git/VL53L1/lib/core/src\vl53l1_api_calibration.c **** 
 538:D:/Git/VL53L1/lib/core/src\vl53l1_api_calibration.c **** 			/* remember the number of SPADs for standard ranging */
 539:D:/Git/VL53L1/lib/core/src\vl53l1_api_calibration.c **** 			if (poffset->preset_mode ==
 411              		.loc 1 539 4 is_stmt 1 view .LVU164
 412              		.loc 1 539 15 is_stmt 0 view .LVU165
 413 01e0 93F83432 		ldrb	r3, [r3, #564]	@ zero_extendqisi2
 414              		.loc 1 539 7 view .LVU166
 415 01e4 012B     		cmp	r3, #1
 416 01e6 24D0     		beq	.L46
 417              	.LVL27:
 418              	.L18:
 399:D:/Git/VL53L1/lib/core/src\vl53l1_api_calibration.c **** 
 419              		.loc 1 399 58 discriminator 2 view .LVU167
 420 01e8 0137     		adds	r7, r7, #1
 421              	.LVL28:
 399:D:/Git/VL53L1/lib/core/src\vl53l1_api_calibration.c **** 
 422              		.loc 1 399 58 discriminator 2 view .LVU168
 423 01ea FFB2     		uxtb	r7, r7
 424              	.LVL29:
 425              	.L6:
 399:D:/Git/VL53L1/lib/core/src\vl53l1_api_calibration.c **** 
 426              		.loc 1 399 39 discriminator 1 view .LVU169
 427 01ec 95F83132 		ldrb	r3, [r5, #561]	@ zero_extendqisi2
 399:D:/Git/VL53L1/lib/core/src\vl53l1_api_calibration.c **** 
 428              		.loc 1 399 2 discriminator 1 view .LVU170
 429 01f0 BB42     		cmp	r3, r7
 430 01f2 25D9     		bls	.L47
 401:D:/Git/VL53L1/lib/core/src\vl53l1_api_calibration.c **** 
 431              		.loc 1 401 3 is_stmt 1 view .LVU171
 401:D:/Git/VL53L1/lib/core/src\vl53l1_api_calibration.c **** 
 432              		.loc 1 401 40 is_stmt 0 view .LVU172
 433 01f4 3E46     		mov	r6, r7
 434              	.LVL30:
ARM GAS  C:\Users\Berbardo\AppData\Local\Temp\ccNyfDs0.s 			page 19


 403:D:/Git/VL53L1/lib/core/src\vl53l1_api_calibration.c **** 
 435              		.loc 1 403 3 is_stmt 1 view .LVU173
 403:D:/Git/VL53L1/lib/core/src\vl53l1_api_calibration.c **** 
 436              		.loc 1 403 53 is_stmt 0 view .LVU174
 437 01f6 28AB     		add	r3, sp, #160
 438 01f8 3B44     		add	r3, r3, r7
 439 01fa 13F8041C 		ldrb	r1, [r3, #-4]	@ zero_extendqisi2
 403:D:/Git/VL53L1/lib/core/src\vl53l1_api_calibration.c **** 
 440              		.loc 1 403 32 view .LVU175
 441 01fe C7EBC703 		rsb	r3, r7, r7, lsl #3
 442 0202 05EB8303 		add	r3, r5, r3, lsl #2
 443 0206 83F83412 		strb	r1, [r3, #564]
 407:D:/Git/VL53L1/lib/core/src\vl53l1_api_calibration.c **** 			status =
 444              		.loc 1 407 3 is_stmt 1 view .LVU176
 407:D:/Git/VL53L1/lib/core/src\vl53l1_api_calibration.c **** 			status =
 445              		.loc 1 407 6 is_stmt 0 view .LVU177
 446 020a 0028     		cmp	r0, #0
 447 020c 3FF445AF 		beq	.L48
 448              	.L7:
 420:D:/Git/VL53L1/lib/core/src\vl53l1_api_calibration.c **** 				manual_effective_spads;
 449              		.loc 1 420 3 is_stmt 1 view .LVU178
 420:D:/Git/VL53L1/lib/core/src\vl53l1_api_calibration.c **** 				manual_effective_spads;
 450              		.loc 1 420 59 is_stmt 0 view .LVU179
 451 0210 A5F89481 		strh	r8, [r5, #404]	@ movhi
 425:D:/Git/VL53L1/lib/core/src\vl53l1_api_calibration.c **** 			status =
 452              		.loc 1 425 3 is_stmt 1 view .LVU180
 425:D:/Git/VL53L1/lib/core/src\vl53l1_api_calibration.c **** 			status =
 453              		.loc 1 425 6 is_stmt 0 view .LVU181
 454 0214 0028     		cmp	r0, #0
 455 0216 3FF450AF 		beq	.L49
 456              	.L8:
 388:D:/Git/VL53L1/lib/core/src\vl53l1_api_calibration.c **** 
 457              		.loc 1 388 9 discriminator 1 view .LVU182
 458 021a 0024     		movs	r4, #0
 459 021c 63E7     		b	.L14
 460              	.LVL31:
 461              	.L44:
 513:D:/Git/VL53L1/lib/core/src\vl53l1_api_calibration.c **** 
 462              		.loc 1 513 4 is_stmt 1 view .LVU183
 513:D:/Git/VL53L1/lib/core/src\vl53l1_api_calibration.c **** 
 463              		.loc 1 513 13 is_stmt 0 view .LVU184
 464 021e 2846     		mov	r0, r5
 465              	.LVL32:
 513:D:/Git/VL53L1/lib/core/src\vl53l1_api_calibration.c **** 
 466              		.loc 1 513 13 view .LVU185
 467 0220 FFF7FEFF 		bl	VL53L1_stop_range
 468              	.LVL33:
 513:D:/Git/VL53L1/lib/core/src\vl53l1_api_calibration.c **** 
 469              		.loc 1 513 13 view .LVU186
 470 0224 ABE7     		b	.L16
 471              	.L45:
 518:D:/Git/VL53L1/lib/core/src\vl53l1_api_calibration.c **** 
 472              		.loc 1 518 4 is_stmt 1 view .LVU187
 518:D:/Git/VL53L1/lib/core/src\vl53l1_api_calibration.c **** 
 473              		.loc 1 518 13 is_stmt 0 view .LVU188
 474 0226 4FF47A71 		mov	r1, #1000
 475 022a 2846     		mov	r0, r5
ARM GAS  C:\Users\Berbardo\AppData\Local\Temp\ccNyfDs0.s 			page 20


 476              	.LVL34:
 518:D:/Git/VL53L1/lib/core/src\vl53l1_api_calibration.c **** 
 477              		.loc 1 518 13 view .LVU189
 478 022c FFF7FEFF 		bl	VL53L1_WaitUs
 479              	.LVL35:
 518:D:/Git/VL53L1/lib/core/src\vl53l1_api_calibration.c **** 
 480              		.loc 1 518 13 view .LVU190
 481 0230 A7E7     		b	.L17
 482              	.L46:
 540:D:/Git/VL53L1/lib/core/src\vl53l1_api_calibration.c **** 				VL53L1_DEVICEPRESETMODE_STANDARD_RANGING)
 541:D:/Git/VL53L1/lib/core/src\vl53l1_api_calibration.c **** 				manual_effective_spads =
 483              		.loc 1 541 5 is_stmt 1 view .LVU191
 542:D:/Git/VL53L1/lib/core/src\vl53l1_api_calibration.c **** 					(uint16_t)poffset->effective_spads;
 484              		.loc 1 542 23 is_stmt 0 view .LVU192
 485 0232 C6EBC606 		rsb	r6, r6, r6, lsl #3
 486              	.LVL36:
 487              		.loc 1 542 23 view .LVU193
 488 0236 05EB8606 		add	r6, r5, r6, lsl #2
 541:D:/Git/VL53L1/lib/core/src\vl53l1_api_calibration.c **** 					(uint16_t)poffset->effective_spads;
 489              		.loc 1 541 28 view .LVU194
 490 023a B6F83C82 		ldrh	r8, [r6, #572]
 491              	.LVL37:
 541:D:/Git/VL53L1/lib/core/src\vl53l1_api_calibration.c **** 					(uint16_t)poffset->effective_spads;
 492              		.loc 1 541 28 view .LVU195
 493 023e D3E7     		b	.L18
 494              	.LVL38:
 495              	.L47:
 543:D:/Git/VL53L1/lib/core/src\vl53l1_api_calibration.c **** 		}
 544:D:/Git/VL53L1/lib/core/src\vl53l1_api_calibration.c **** 	}
 545:D:/Git/VL53L1/lib/core/src\vl53l1_api_calibration.c **** 
 546:D:/Git/VL53L1/lib/core/src\vl53l1_api_calibration.c **** 	/* Calculate offsets */
 547:D:/Git/VL53L1/lib/core/src\vl53l1_api_calibration.c **** 
 548:D:/Git/VL53L1/lib/core/src\vl53l1_api_calibration.c **** 	switch (pdev->offset_calibration_mode) {
 496              		.loc 1 548 2 is_stmt 1 view .LVU196
 497              		.loc 1 548 14 is_stmt 0 view .LVU197
 498 0240 EB78     		ldrb	r3, [r5, #3]	@ zero_extendqisi2
 499              		.loc 1 548 2 view .LVU198
 500 0242 032B     		cmp	r3, #3
 501 0244 1DD0     		beq	.L50
 549:D:/Git/VL53L1/lib/core/src\vl53l1_api_calibration.c **** 
 550:D:/Git/VL53L1/lib/core/src\vl53l1_api_calibration.c **** 	case VL53L1_OFFSETCALIBRATIONMODE__MM1_MM2__STANDARD_PRE_RANGE_ONLY:
 551:D:/Git/VL53L1/lib/core/src\vl53l1_api_calibration.c **** 
 552:D:/Git/VL53L1/lib/core/src\vl53l1_api_calibration.c **** 		/* copy offsets to customer data structure */
 553:D:/Git/VL53L1/lib/core/src\vl53l1_api_calibration.c **** 		pdev->customer.mm_config__inner_offset_mm +=
 554:D:/Git/VL53L1/lib/core/src\vl53l1_api_calibration.c **** 			(int16_t)pdev->offset_results.data[0].range_mm_offset;
 555:D:/Git/VL53L1/lib/core/src\vl53l1_api_calibration.c **** 		pdev->customer.mm_config__outer_offset_mm +=
 556:D:/Git/VL53L1/lib/core/src\vl53l1_api_calibration.c **** 			(int16_t)pdev->offset_results.data[0].range_mm_offset;
 557:D:/Git/VL53L1/lib/core/src\vl53l1_api_calibration.c **** 	break;
 558:D:/Git/VL53L1/lib/core/src\vl53l1_api_calibration.c **** 
 559:D:/Git/VL53L1/lib/core/src\vl53l1_api_calibration.c **** 	default:
 560:D:/Git/VL53L1/lib/core/src\vl53l1_api_calibration.c **** 		/* copy offsets to customer data structure */
 561:D:/Git/VL53L1/lib/core/src\vl53l1_api_calibration.c **** 		pdev->customer.mm_config__inner_offset_mm =
 502              		.loc 1 561 3 is_stmt 1 view .LVU199
 562:D:/Git/VL53L1/lib/core/src\vl53l1_api_calibration.c **** 			(int16_t)pdev->offset_results.data[1].range_mm_offset;
 503              		.loc 1 562 4 is_stmt 0 view .LVU200
 504 0246 B5F96832 		ldrsh	r3, [r5, #616]
 561:D:/Git/VL53L1/lib/core/src\vl53l1_api_calibration.c **** 			(int16_t)pdev->offset_results.data[1].range_mm_offset;
ARM GAS  C:\Users\Berbardo\AppData\Local\Temp\ccNyfDs0.s 			page 21


 505              		.loc 1 561 45 view .LVU201
 506 024a A5F85630 		strh	r3, [r5, #86]	@ movhi
 563:D:/Git/VL53L1/lib/core/src\vl53l1_api_calibration.c **** 		pdev->customer.mm_config__outer_offset_mm =
 507              		.loc 1 563 3 is_stmt 1 view .LVU202
 564:D:/Git/VL53L1/lib/core/src\vl53l1_api_calibration.c **** 			(int16_t)pdev->offset_results.data[2].range_mm_offset;
 508              		.loc 1 564 4 is_stmt 0 view .LVU203
 509 024e B5F98432 		ldrsh	r3, [r5, #644]
 563:D:/Git/VL53L1/lib/core/src\vl53l1_api_calibration.c **** 		pdev->customer.mm_config__outer_offset_mm =
 510              		.loc 1 563 45 view .LVU204
 511 0252 A5F85830 		strh	r3, [r5, #88]	@ movhi
 565:D:/Git/VL53L1/lib/core/src\vl53l1_api_calibration.c **** 		pdev->customer.algo__part_to_part_range_offset_mm = 0;
 512              		.loc 1 565 3 is_stmt 1 view .LVU205
 513              		.loc 1 565 53 is_stmt 0 view .LVU206
 514 0256 0023     		movs	r3, #0
 515 0258 A5F85430 		strh	r3, [r5, #84]	@ movhi
 566:D:/Git/VL53L1/lib/core/src\vl53l1_api_calibration.c **** 
 567:D:/Git/VL53L1/lib/core/src\vl53l1_api_calibration.c **** 		/* copy average rate and effective SPAD count to
 568:D:/Git/VL53L1/lib/core/src\vl53l1_api_calibration.c **** 		   additional offset calibration data structure */
 569:D:/Git/VL53L1/lib/core/src\vl53l1_api_calibration.c **** 
 570:D:/Git/VL53L1/lib/core/src\vl53l1_api_calibration.c **** 		pdev->add_off_cal_data.result__mm_inner_actual_effective_spads =
 516              		.loc 1 570 3 is_stmt 1 view .LVU207
 571:D:/Git/VL53L1/lib/core/src\vl53l1_api_calibration.c **** 			(uint16_t)pdev->offset_results.data[1].effective_spads;
 517              		.loc 1 571 4 is_stmt 0 view .LVU208
 518 025c B5F85832 		ldrh	r3, [r5, #600]
 570:D:/Git/VL53L1/lib/core/src\vl53l1_api_calibration.c **** 			(uint16_t)pdev->offset_results.data[1].effective_spads;
 519              		.loc 1 570 66 view .LVU209
 520 0260 A5F89430 		strh	r3, [r5, #148]	@ movhi
 572:D:/Git/VL53L1/lib/core/src\vl53l1_api_calibration.c **** 		pdev->add_off_cal_data.result__mm_outer_actual_effective_spads =
 521              		.loc 1 572 3 is_stmt 1 view .LVU210
 573:D:/Git/VL53L1/lib/core/src\vl53l1_api_calibration.c **** 			(uint16_t)pdev->offset_results.data[2].effective_spads;
 522              		.loc 1 573 4 is_stmt 0 view .LVU211
 523 0264 B5F87432 		ldrh	r3, [r5, #628]
 572:D:/Git/VL53L1/lib/core/src\vl53l1_api_calibration.c **** 		pdev->add_off_cal_data.result__mm_outer_actual_effective_spads =
 524              		.loc 1 572 66 view .LVU212
 525 0268 A5F89630 		strh	r3, [r5, #150]	@ movhi
 574:D:/Git/VL53L1/lib/core/src\vl53l1_api_calibration.c **** 
 575:D:/Git/VL53L1/lib/core/src\vl53l1_api_calibration.c **** 		pdev->add_off_cal_data.result__mm_inner_peak_signal_count_rtn_mcps =
 526              		.loc 1 575 3 is_stmt 1 view .LVU213
 576:D:/Git/VL53L1/lib/core/src\vl53l1_api_calibration.c **** 			(uint16_t)pdev->offset_results.data[1].peak_rate_mcps;
 527              		.loc 1 576 4 is_stmt 0 view .LVU214
 528 026c B5F85C32 		ldrh	r3, [r5, #604]
 575:D:/Git/VL53L1/lib/core/src\vl53l1_api_calibration.c **** 			(uint16_t)pdev->offset_results.data[1].peak_rate_mcps;
 529              		.loc 1 575 70 view .LVU215
 530 0270 A5F89830 		strh	r3, [r5, #152]	@ movhi
 577:D:/Git/VL53L1/lib/core/src\vl53l1_api_calibration.c **** 		pdev->add_off_cal_data.result__mm_outer_peak_signal_count_rtn_mcps =
 531              		.loc 1 577 3 is_stmt 1 view .LVU216
 578:D:/Git/VL53L1/lib/core/src\vl53l1_api_calibration.c **** 			(uint16_t)pdev->offset_results.data[2].peak_rate_mcps;
 532              		.loc 1 578 4 is_stmt 0 view .LVU217
 533 0274 B5F87832 		ldrh	r3, [r5, #632]
 577:D:/Git/VL53L1/lib/core/src\vl53l1_api_calibration.c **** 		pdev->add_off_cal_data.result__mm_outer_peak_signal_count_rtn_mcps =
 534              		.loc 1 577 70 view .LVU218
 535 0278 A5F89A30 		strh	r3, [r5, #154]	@ movhi
 579:D:/Git/VL53L1/lib/core/src\vl53l1_api_calibration.c **** 
 580:D:/Git/VL53L1/lib/core/src\vl53l1_api_calibration.c **** 		break;
 536              		.loc 1 580 3 is_stmt 1 view .LVU219
 537              	.L21:
 581:D:/Git/VL53L1/lib/core/src\vl53l1_api_calibration.c **** 	}
ARM GAS  C:\Users\Berbardo\AppData\Local\Temp\ccNyfDs0.s 			page 22


 582:D:/Git/VL53L1/lib/core/src\vl53l1_api_calibration.c **** 
 583:D:/Git/VL53L1/lib/core/src\vl53l1_api_calibration.c **** 
 584:D:/Git/VL53L1/lib/core/src\vl53l1_api_calibration.c **** 	/* apply to device */
 585:D:/Git/VL53L1/lib/core/src\vl53l1_api_calibration.c **** 
 586:D:/Git/VL53L1/lib/core/src\vl53l1_api_calibration.c **** 	if (status == VL53L1_ERROR_NONE)
 538              		.loc 1 586 2 view .LVU220
 539              		.loc 1 586 5 is_stmt 0 view .LVU221
 540 027c 70B1     		cbz	r0, .L51
 541              	.L22:
 587:D:/Git/VL53L1/lib/core/src\vl53l1_api_calibration.c **** 		status =
 588:D:/Git/VL53L1/lib/core/src\vl53l1_api_calibration.c **** 			VL53L1_set_customer_nvm_managed(
 589:D:/Git/VL53L1/lib/core/src\vl53l1_api_calibration.c **** 				Dev,
 590:D:/Git/VL53L1/lib/core/src\vl53l1_api_calibration.c **** 				&(pdev->customer));
 591:D:/Git/VL53L1/lib/core/src\vl53l1_api_calibration.c **** 
 592:D:/Git/VL53L1/lib/core/src\vl53l1_api_calibration.c **** 	/*
 593:D:/Git/VL53L1/lib/core/src\vl53l1_api_calibration.c **** 	 *  Check the peak rates, sigma, min spads for each stage
 594:D:/Git/VL53L1/lib/core/src\vl53l1_api_calibration.c **** 	 */
 595:D:/Git/VL53L1/lib/core/src\vl53l1_api_calibration.c **** 
 596:D:/Git/VL53L1/lib/core/src\vl53l1_api_calibration.c **** 	for (m = 0 ; m < pdev->offset_results.active_results ; m++) {
 597:D:/Git/VL53L1/lib/core/src\vl53l1_api_calibration.c **** 
 598:D:/Git/VL53L1/lib/core/src\vl53l1_api_calibration.c **** 		poffset = &(pdev->offset_results.data[m]);
 599:D:/Git/VL53L1/lib/core/src\vl53l1_api_calibration.c **** 
 600:D:/Git/VL53L1/lib/core/src\vl53l1_api_calibration.c **** 		if (status == VL53L1_ERROR_NONE) {
 601:D:/Git/VL53L1/lib/core/src\vl53l1_api_calibration.c **** 
 602:D:/Git/VL53L1/lib/core/src\vl53l1_api_calibration.c **** 			pdev->offset_results.cal_report = m;
 603:D:/Git/VL53L1/lib/core/src\vl53l1_api_calibration.c **** 
 604:D:/Git/VL53L1/lib/core/src\vl53l1_api_calibration.c **** 			if (poffset->no_of_samples < num_of_samples[m])
 605:D:/Git/VL53L1/lib/core/src\vl53l1_api_calibration.c **** 				status = VL53L1_WARNING_OFFSET_CAL_MISSING_SAMPLES;
 606:D:/Git/VL53L1/lib/core/src\vl53l1_api_calibration.c **** 
 607:D:/Git/VL53L1/lib/core/src\vl53l1_api_calibration.c **** 			/* only check sigma for the pre-range as
 608:D:/Git/VL53L1/lib/core/src\vl53l1_api_calibration.c **** 			 * the it is not calculated by the device
 609:D:/Git/VL53L1/lib/core/src\vl53l1_api_calibration.c **** 			 * for the MM1 and MM2 stages
 610:D:/Git/VL53L1/lib/core/src\vl53l1_api_calibration.c **** 			 */
 611:D:/Git/VL53L1/lib/core/src\vl53l1_api_calibration.c **** 			if (m == 0 && poffset->sigma_mm >
 612:D:/Git/VL53L1/lib/core/src\vl53l1_api_calibration.c **** 				((uint32_t)VL53L1_OFFSET_CAL_MAX_SIGMA_MM<<5))
 613:D:/Git/VL53L1/lib/core/src\vl53l1_api_calibration.c **** 				status = VL53L1_WARNING_OFFSET_CAL_SIGMA_TOO_HIGH;
 614:D:/Git/VL53L1/lib/core/src\vl53l1_api_calibration.c **** 
 615:D:/Git/VL53L1/lib/core/src\vl53l1_api_calibration.c **** 			if (poffset->peak_rate_mcps >
 616:D:/Git/VL53L1/lib/core/src\vl53l1_api_calibration.c **** 				VL53L1_OFFSET_CAL_MAX_PRE_PEAK_RATE_MCPS)
 617:D:/Git/VL53L1/lib/core/src\vl53l1_api_calibration.c **** 				status = VL53L1_WARNING_OFFSET_CAL_RATE_TOO_HIGH;
 618:D:/Git/VL53L1/lib/core/src\vl53l1_api_calibration.c **** 
 619:D:/Git/VL53L1/lib/core/src\vl53l1_api_calibration.c **** 			if (poffset->dss_config__manual_effective_spads_select <
 620:D:/Git/VL53L1/lib/core/src\vl53l1_api_calibration.c **** 				VL53L1_OFFSET_CAL_MIN_EFFECTIVE_SPADS)
 621:D:/Git/VL53L1/lib/core/src\vl53l1_api_calibration.c **** 				status = VL53L1_WARNING_OFFSET_CAL_SPAD_COUNT_TOO_LOW;
 622:D:/Git/VL53L1/lib/core/src\vl53l1_api_calibration.c **** 
 623:D:/Git/VL53L1/lib/core/src\vl53l1_api_calibration.c **** 			if (poffset->dss_config__manual_effective_spads_select == 0)
 624:D:/Git/VL53L1/lib/core/src\vl53l1_api_calibration.c **** 				status = VL53L1_ERROR_OFFSET_CAL_NO_SPADS_ENABLED_FAIL;
 625:D:/Git/VL53L1/lib/core/src\vl53l1_api_calibration.c **** 
 626:D:/Git/VL53L1/lib/core/src\vl53l1_api_calibration.c **** 			if (poffset->no_of_samples == 0)
 627:D:/Git/VL53L1/lib/core/src\vl53l1_api_calibration.c **** 				status = VL53L1_ERROR_OFFSET_CAL_NO_SAMPLE_FAIL;
 542              		.loc 1 627 12 discriminator 1 view .LVU222
 543 027e 0023     		movs	r3, #0
 544 0280 30E0     		b	.L29
 545              	.L50:
 553:D:/Git/VL53L1/lib/core/src\vl53l1_api_calibration.c **** 			(int16_t)pdev->offset_results.data[0].range_mm_offset;
 546              		.loc 1 553 3 is_stmt 1 view .LVU223
 554:D:/Git/VL53L1/lib/core/src\vl53l1_api_calibration.c **** 		pdev->customer.mm_config__outer_offset_mm +=
ARM GAS  C:\Users\Berbardo\AppData\Local\Temp\ccNyfDs0.s 			page 23


 547              		.loc 1 554 4 is_stmt 0 view .LVU224
 548 0282 B5F84C32 		ldrh	r3, [r5, #588]
 553:D:/Git/VL53L1/lib/core/src\vl53l1_api_calibration.c **** 			(int16_t)pdev->offset_results.data[0].range_mm_offset;
 549              		.loc 1 553 45 view .LVU225
 550 0286 B5F85620 		ldrh	r2, [r5, #86]
 551 028a 1A44     		add	r2, r2, r3
 552 028c A5F85620 		strh	r2, [r5, #86]	@ movhi
 555:D:/Git/VL53L1/lib/core/src\vl53l1_api_calibration.c **** 			(int16_t)pdev->offset_results.data[0].range_mm_offset;
 553              		.loc 1 555 3 is_stmt 1 view .LVU226
 555:D:/Git/VL53L1/lib/core/src\vl53l1_api_calibration.c **** 			(int16_t)pdev->offset_results.data[0].range_mm_offset;
 554              		.loc 1 555 45 is_stmt 0 view .LVU227
 555 0290 B5F85820 		ldrh	r2, [r5, #88]
 556 0294 1344     		add	r3, r3, r2
 557 0296 A5F85830 		strh	r3, [r5, #88]	@ movhi
 557:D:/Git/VL53L1/lib/core/src\vl53l1_api_calibration.c **** 
 558              		.loc 1 557 2 is_stmt 1 view .LVU228
 559 029a EFE7     		b	.L21
 560              	.L51:
 587:D:/Git/VL53L1/lib/core/src\vl53l1_api_calibration.c **** 			VL53L1_set_customer_nvm_managed(
 561              		.loc 1 587 3 view .LVU229
 588:D:/Git/VL53L1/lib/core/src\vl53l1_api_calibration.c **** 				Dev,
 562              		.loc 1 588 4 is_stmt 0 view .LVU230
 563 029c 05F14201 		add	r1, r5, #66
 564 02a0 2846     		mov	r0, r5
 565              	.LVL39:
 588:D:/Git/VL53L1/lib/core/src\vl53l1_api_calibration.c **** 				Dev,
 566              		.loc 1 588 4 view .LVU231
 567 02a2 FFF7FEFF 		bl	VL53L1_set_customer_nvm_managed
 568              	.LVL40:
 588:D:/Git/VL53L1/lib/core/src\vl53l1_api_calibration.c **** 				Dev,
 569              		.loc 1 588 4 view .LVU232
 570 02a6 EAE7     		b	.L22
 571              	.LVL41:
 572              	.L25:
 615:D:/Git/VL53L1/lib/core/src\vl53l1_api_calibration.c **** 				VL53L1_OFFSET_CAL_MAX_PRE_PEAK_RATE_MCPS)
 573              		.loc 1 615 4 is_stmt 1 view .LVU233
 615:D:/Git/VL53L1/lib/core/src\vl53l1_api_calibration.c **** 				VL53L1_OFFSET_CAL_MAX_PRE_PEAK_RATE_MCPS)
 574              		.loc 1 615 15 is_stmt 0 view .LVU234
 575 02a8 C2EBC201 		rsb	r1, r2, r2, lsl #3
 576 02ac 05EB8101 		add	r1, r5, r1, lsl #2
 577 02b0 D1F84012 		ldr	r1, [r1, #576]
 615:D:/Git/VL53L1/lib/core/src\vl53l1_api_calibration.c **** 				VL53L1_OFFSET_CAL_MAX_PRE_PEAK_RATE_MCPS)
 578              		.loc 1 615 7 view .LVU235
 579 02b4 B1F5C85F 		cmp	r1, #6400
 580 02b8 01D9     		bls	.L26
 617:D:/Git/VL53L1/lib/core/src\vl53l1_api_calibration.c **** 
 581              		.loc 1 617 12 view .LVU236
 582 02ba 6FF02000 		mvn	r0, #32
 583              	.LVL42:
 584              	.L26:
 619:D:/Git/VL53L1/lib/core/src\vl53l1_api_calibration.c **** 				VL53L1_OFFSET_CAL_MIN_EFFECTIVE_SPADS)
 585              		.loc 1 619 4 is_stmt 1 view .LVU237
 619:D:/Git/VL53L1/lib/core/src\vl53l1_api_calibration.c **** 				VL53L1_OFFSET_CAL_MIN_EFFECTIVE_SPADS)
 586              		.loc 1 619 15 is_stmt 0 view .LVU238
 587 02be C2EBC202 		rsb	r2, r2, r2, lsl #3
 588              	.LVL43:
 619:D:/Git/VL53L1/lib/core/src\vl53l1_api_calibration.c **** 				VL53L1_OFFSET_CAL_MIN_EFFECTIVE_SPADS)
ARM GAS  C:\Users\Berbardo\AppData\Local\Temp\ccNyfDs0.s 			page 24


 589              		.loc 1 619 15 view .LVU239
 590 02c2 05EB8202 		add	r2, r5, r2, lsl #2
 591 02c6 B2F83622 		ldrh	r2, [r2, #566]
 619:D:/Git/VL53L1/lib/core/src\vl53l1_api_calibration.c **** 				VL53L1_OFFSET_CAL_MIN_EFFECTIVE_SPADS)
 592              		.loc 1 619 7 view .LVU240
 593 02ca B2F5A06F 		cmp	r2, #1280
 594 02ce 01D2     		bcs	.L27
 621:D:/Git/VL53L1/lib/core/src\vl53l1_api_calibration.c **** 
 595              		.loc 1 621 12 view .LVU241
 596 02d0 6FF02100 		mvn	r0, #33
 597              	.LVL44:
 598              	.L27:
 623:D:/Git/VL53L1/lib/core/src\vl53l1_api_calibration.c **** 				status = VL53L1_ERROR_OFFSET_CAL_NO_SPADS_ENABLED_FAIL;
 599              		.loc 1 623 4 is_stmt 1 view .LVU242
 623:D:/Git/VL53L1/lib/core/src\vl53l1_api_calibration.c **** 				status = VL53L1_ERROR_OFFSET_CAL_NO_SPADS_ENABLED_FAIL;
 600              		.loc 1 623 7 is_stmt 0 view .LVU243
 601 02d4 0AB9     		cbnz	r2, .L28
 624:D:/Git/VL53L1/lib/core/src\vl53l1_api_calibration.c **** 
 602              		.loc 1 624 12 view .LVU244
 603 02d6 6FF01800 		mvn	r0, #24
 604              	.LVL45:
 605              	.L28:
 626:D:/Git/VL53L1/lib/core/src\vl53l1_api_calibration.c **** 				status = VL53L1_ERROR_OFFSET_CAL_NO_SAMPLE_FAIL;
 606              		.loc 1 626 4 is_stmt 1 view .LVU245
 626:D:/Git/VL53L1/lib/core/src\vl53l1_api_calibration.c **** 				status = VL53L1_ERROR_OFFSET_CAL_NO_SAMPLE_FAIL;
 607              		.loc 1 626 7 is_stmt 0 view .LVU246
 608 02da 0CB9     		cbnz	r4, .L23
 609              		.loc 1 627 12 view .LVU247
 610 02dc 6FF01700 		mvn	r0, #23
 611              	.LVL46:
 612              	.L23:
 596:D:/Git/VL53L1/lib/core/src\vl53l1_api_calibration.c **** 
 613              		.loc 1 596 58 discriminator 2 view .LVU248
 614 02e0 0133     		adds	r3, r3, #1
 615              	.LVL47:
 596:D:/Git/VL53L1/lib/core/src\vl53l1_api_calibration.c **** 
 616              		.loc 1 596 58 discriminator 2 view .LVU249
 617 02e2 DBB2     		uxtb	r3, r3
 618              	.LVL48:
 619              	.L29:
 596:D:/Git/VL53L1/lib/core/src\vl53l1_api_calibration.c **** 
 620              		.loc 1 596 39 discriminator 1 view .LVU250
 621 02e4 95F83122 		ldrb	r2, [r5, #561]	@ zero_extendqisi2
 596:D:/Git/VL53L1/lib/core/src\vl53l1_api_calibration.c **** 
 622              		.loc 1 596 2 discriminator 1 view .LVU251
 623 02e8 9A42     		cmp	r2, r3
 624 02ea 20D9     		bls	.L52
 598:D:/Git/VL53L1/lib/core/src\vl53l1_api_calibration.c **** 
 625              		.loc 1 598 3 is_stmt 1 view .LVU252
 598:D:/Git/VL53L1/lib/core/src\vl53l1_api_calibration.c **** 
 626              		.loc 1 598 40 is_stmt 0 view .LVU253
 627 02ec 1A46     		mov	r2, r3
 628              	.LVL49:
 600:D:/Git/VL53L1/lib/core/src\vl53l1_api_calibration.c **** 
 629              		.loc 1 600 3 is_stmt 1 view .LVU254
 600:D:/Git/VL53L1/lib/core/src\vl53l1_api_calibration.c **** 
 630              		.loc 1 600 6 is_stmt 0 view .LVU255
ARM GAS  C:\Users\Berbardo\AppData\Local\Temp\ccNyfDs0.s 			page 25


 631 02ee 0028     		cmp	r0, #0
 632 02f0 F6D1     		bne	.L23
 602:D:/Git/VL53L1/lib/core/src\vl53l1_api_calibration.c **** 
 633              		.loc 1 602 4 is_stmt 1 view .LVU256
 602:D:/Git/VL53L1/lib/core/src\vl53l1_api_calibration.c **** 
 634              		.loc 1 602 36 is_stmt 0 view .LVU257
 635 02f2 85F82F32 		strb	r3, [r5, #559]
 604:D:/Git/VL53L1/lib/core/src\vl53l1_api_calibration.c **** 				status = VL53L1_WARNING_OFFSET_CAL_MISSING_SAMPLES;
 636              		.loc 1 604 4 is_stmt 1 view .LVU258
 604:D:/Git/VL53L1/lib/core/src\vl53l1_api_calibration.c **** 				status = VL53L1_WARNING_OFFSET_CAL_MISSING_SAMPLES;
 637              		.loc 1 604 15 is_stmt 0 view .LVU259
 638 02f6 C3EBC301 		rsb	r1, r3, r3, lsl #3
 639 02fa 05EB8101 		add	r1, r5, r1, lsl #2
 640 02fe 91F83842 		ldrb	r4, [r1, #568]	@ zero_extendqisi2
 604:D:/Git/VL53L1/lib/core/src\vl53l1_api_calibration.c **** 				status = VL53L1_WARNING_OFFSET_CAL_MISSING_SAMPLES;
 641              		.loc 1 604 47 view .LVU260
 642 0302 28A9     		add	r1, sp, #160
 643 0304 1944     		add	r1, r1, r3
 644 0306 11F88C1C 		ldrb	r1, [r1, #-140]	@ zero_extendqisi2
 604:D:/Git/VL53L1/lib/core/src\vl53l1_api_calibration.c **** 				status = VL53L1_WARNING_OFFSET_CAL_MISSING_SAMPLES;
 645              		.loc 1 604 7 view .LVU261
 646 030a 8C42     		cmp	r4, r1
 647 030c 01D2     		bcs	.L24
 605:D:/Git/VL53L1/lib/core/src\vl53l1_api_calibration.c **** 
 648              		.loc 1 605 12 view .LVU262
 649 030e 6FF01E00 		mvn	r0, #30
 650              	.LVL50:
 651              	.L24:
 611:D:/Git/VL53L1/lib/core/src\vl53l1_api_calibration.c **** 				((uint32_t)VL53L1_OFFSET_CAL_MAX_SIGMA_MM<<5))
 652              		.loc 1 611 4 is_stmt 1 view .LVU263
 611:D:/Git/VL53L1/lib/core/src\vl53l1_api_calibration.c **** 				((uint32_t)VL53L1_OFFSET_CAL_MAX_SIGMA_MM<<5))
 653              		.loc 1 611 7 is_stmt 0 view .LVU264
 654 0312 002B     		cmp	r3, #0
 655 0314 C8D1     		bne	.L25
 611:D:/Git/VL53L1/lib/core/src\vl53l1_api_calibration.c **** 				((uint32_t)VL53L1_OFFSET_CAL_MAX_SIGMA_MM<<5))
 656              		.loc 1 611 25 discriminator 1 view .LVU265
 657 0316 C2EBC201 		rsb	r1, r2, r2, lsl #3
 658 031a 05EB8101 		add	r1, r5, r1, lsl #2
 659 031e D1F84412 		ldr	r1, [r1, #580]
 611:D:/Git/VL53L1/lib/core/src\vl53l1_api_calibration.c **** 				((uint32_t)VL53L1_OFFSET_CAL_MAX_SIGMA_MM<<5))
 660              		.loc 1 611 15 discriminator 1 view .LVU266
 661 0322 B1F5006F 		cmp	r1, #2048
 662 0326 BFD9     		bls	.L25
 613:D:/Git/VL53L1/lib/core/src\vl53l1_api_calibration.c **** 
 663              		.loc 1 613 12 view .LVU267
 664 0328 6FF01F00 		mvn	r0, #31
 665              	.LVL51:
 613:D:/Git/VL53L1/lib/core/src\vl53l1_api_calibration.c **** 
 666              		.loc 1 613 12 view .LVU268
 667 032c BCE7     		b	.L25
 668              	.LVL52:
 669              	.L52:
 628:D:/Git/VL53L1/lib/core/src\vl53l1_api_calibration.c **** 		}
 629:D:/Git/VL53L1/lib/core/src\vl53l1_api_calibration.c **** 	}
 630:D:/Git/VL53L1/lib/core/src\vl53l1_api_calibration.c **** 
 631:D:/Git/VL53L1/lib/core/src\vl53l1_api_calibration.c **** 	/*
 632:D:/Git/VL53L1/lib/core/src\vl53l1_api_calibration.c **** 	 * Save unfiltered status
ARM GAS  C:\Users\Berbardo\AppData\Local\Temp\ccNyfDs0.s 			page 26


 633:D:/Git/VL53L1/lib/core/src\vl53l1_api_calibration.c **** 	 */
 634:D:/Git/VL53L1/lib/core/src\vl53l1_api_calibration.c **** 
 635:D:/Git/VL53L1/lib/core/src\vl53l1_api_calibration.c **** 	pdev->offset_results.cal_status = status;
 670              		.loc 1 635 2 is_stmt 1 view .LVU269
 671              		.loc 1 635 34 is_stmt 0 view .LVU270
 672 032e 85F82E02 		strb	r0, [r5, #558]
 636:D:/Git/VL53L1/lib/core/src\vl53l1_api_calibration.c **** 	*pcal_status = pdev->offset_results.cal_status;
 673              		.loc 1 636 2 is_stmt 1 view .LVU271
 674              		.loc 1 636 15 is_stmt 0 view .LVU272
 675 0332 8AF80000 		strb	r0, [r10]
 637:D:/Git/VL53L1/lib/core/src\vl53l1_api_calibration.c **** 
 638:D:/Git/VL53L1/lib/core/src\vl53l1_api_calibration.c **** 	/* Status exception codes */
 639:D:/Git/VL53L1/lib/core/src\vl53l1_api_calibration.c **** 
 640:D:/Git/VL53L1/lib/core/src\vl53l1_api_calibration.c **** 	IGNORE_STATUS(
 676              		.loc 1 640 2 is_stmt 1 view .LVU273
 677              		.loc 1 640 2 view .LVU274
 678              		.loc 1 640 2 view .LVU275
 679              		.loc 1 640 2 view .LVU276
 680              		.loc 1 640 2 view .LVU277
 681              		.loc 1 640 2 view .LVU278
 641:D:/Git/VL53L1/lib/core/src\vl53l1_api_calibration.c **** 		IGNORE_OFFSET_CAL_MISSING_SAMPLES,
 642:D:/Git/VL53L1/lib/core/src\vl53l1_api_calibration.c **** 		VL53L1_WARNING_OFFSET_CAL_MISSING_SAMPLES,
 643:D:/Git/VL53L1/lib/core/src\vl53l1_api_calibration.c **** 		status);
 644:D:/Git/VL53L1/lib/core/src\vl53l1_api_calibration.c **** 
 645:D:/Git/VL53L1/lib/core/src\vl53l1_api_calibration.c **** 	IGNORE_STATUS(
 682              		.loc 1 645 2 view .LVU279
 683              		.loc 1 645 2 view .LVU280
 684              		.loc 1 645 2 view .LVU281
 685              		.loc 1 645 2 view .LVU282
 686              		.loc 1 645 2 view .LVU283
 687              		.loc 1 645 2 view .LVU284
 646:D:/Git/VL53L1/lib/core/src\vl53l1_api_calibration.c **** 		IGNORE_OFFSET_CAL_SIGMA_TOO_HIGH,
 647:D:/Git/VL53L1/lib/core/src\vl53l1_api_calibration.c **** 		VL53L1_WARNING_OFFSET_CAL_SIGMA_TOO_HIGH,
 648:D:/Git/VL53L1/lib/core/src\vl53l1_api_calibration.c **** 		status);
 649:D:/Git/VL53L1/lib/core/src\vl53l1_api_calibration.c **** 
 650:D:/Git/VL53L1/lib/core/src\vl53l1_api_calibration.c **** 	IGNORE_STATUS(
 688              		.loc 1 650 2 view .LVU285
 689              		.loc 1 650 2 view .LVU286
 690              		.loc 1 650 2 view .LVU287
 691              		.loc 1 650 2 view .LVU288
 692              		.loc 1 650 2 view .LVU289
 693              		.loc 1 650 2 view .LVU290
 651:D:/Git/VL53L1/lib/core/src\vl53l1_api_calibration.c **** 		IGNORE_OFFSET_CAL_RATE_TOO_HIGH,
 652:D:/Git/VL53L1/lib/core/src\vl53l1_api_calibration.c **** 		VL53L1_WARNING_OFFSET_CAL_RATE_TOO_HIGH,
 653:D:/Git/VL53L1/lib/core/src\vl53l1_api_calibration.c **** 		status);
 654:D:/Git/VL53L1/lib/core/src\vl53l1_api_calibration.c **** 
 655:D:/Git/VL53L1/lib/core/src\vl53l1_api_calibration.c **** 	IGNORE_STATUS(
 694              		.loc 1 655 2 view .LVU291
 695              		.loc 1 655 2 view .LVU292
 696              		.loc 1 655 2 view .LVU293
 697              		.loc 1 655 2 view .LVU294
 698              		.loc 1 655 2 view .LVU295
 699              		.loc 1 655 2 view .LVU296
 656:D:/Git/VL53L1/lib/core/src\vl53l1_api_calibration.c **** 		IGNORE_OFFSET_CAL_SPAD_COUNT_TOO_LOW,
 657:D:/Git/VL53L1/lib/core/src\vl53l1_api_calibration.c **** 		VL53L1_WARNING_OFFSET_CAL_SPAD_COUNT_TOO_LOW,
 658:D:/Git/VL53L1/lib/core/src\vl53l1_api_calibration.c **** 		status);
 659:D:/Git/VL53L1/lib/core/src\vl53l1_api_calibration.c **** 
ARM GAS  C:\Users\Berbardo\AppData\Local\Temp\ccNyfDs0.s 			page 27


 660:D:/Git/VL53L1/lib/core/src\vl53l1_api_calibration.c **** #ifdef VL53L1_LOG_ENABLE
 661:D:/Git/VL53L1/lib/core/src\vl53l1_api_calibration.c **** 
 662:D:/Git/VL53L1/lib/core/src\vl53l1_api_calibration.c **** 	/* Prints out the offset calibration data for debug */
 663:D:/Git/VL53L1/lib/core/src\vl53l1_api_calibration.c **** 
 664:D:/Git/VL53L1/lib/core/src\vl53l1_api_calibration.c **** 	VL53L1_print_customer_nvm_managed(
 665:D:/Git/VL53L1/lib/core/src\vl53l1_api_calibration.c **** 		&(pdev->customer),
 666:D:/Git/VL53L1/lib/core/src\vl53l1_api_calibration.c **** 		"run_offset_calibration():pdev->lldata.customer.",
 667:D:/Git/VL53L1/lib/core/src\vl53l1_api_calibration.c **** 		VL53L1_TRACE_MODULE_OFFSET_DATA);
 668:D:/Git/VL53L1/lib/core/src\vl53l1_api_calibration.c **** 
 669:D:/Git/VL53L1/lib/core/src\vl53l1_api_calibration.c **** 	VL53L1_print_additional_offset_cal_data(
 670:D:/Git/VL53L1/lib/core/src\vl53l1_api_calibration.c **** 		&(pdev->add_off_cal_data),
 671:D:/Git/VL53L1/lib/core/src\vl53l1_api_calibration.c **** 		"run_offset_calibration():pdev->lldata.add_off_cal_data.",
 672:D:/Git/VL53L1/lib/core/src\vl53l1_api_calibration.c **** 		VL53L1_TRACE_MODULE_OFFSET_DATA);
 673:D:/Git/VL53L1/lib/core/src\vl53l1_api_calibration.c **** 
 674:D:/Git/VL53L1/lib/core/src\vl53l1_api_calibration.c **** 	VL53L1_print_offset_range_results(
 675:D:/Git/VL53L1/lib/core/src\vl53l1_api_calibration.c **** 		&(pdev->offset_results),
 676:D:/Git/VL53L1/lib/core/src\vl53l1_api_calibration.c **** 		"run_offset_calibration():pdev->lldata.offset_results.",
 677:D:/Git/VL53L1/lib/core/src\vl53l1_api_calibration.c **** 		VL53L1_TRACE_MODULE_OFFSET_DATA);
 678:D:/Git/VL53L1/lib/core/src\vl53l1_api_calibration.c **** #endif
 679:D:/Git/VL53L1/lib/core/src\vl53l1_api_calibration.c **** 
 680:D:/Git/VL53L1/lib/core/src\vl53l1_api_calibration.c **** 	LOG_FUNCTION_END(status);
 700              		.loc 1 680 26 view .LVU297
 681:D:/Git/VL53L1/lib/core/src\vl53l1_api_calibration.c **** 
 682:D:/Git/VL53L1/lib/core/src\vl53l1_api_calibration.c **** 	return status;
 701              		.loc 1 682 2 view .LVU298
 683:D:/Git/VL53L1/lib/core/src\vl53l1_api_calibration.c **** }
 702              		.loc 1 683 1 is_stmt 0 view .LVU299
 703 0336 28B0     		add	sp, sp, #160
 704              		.cfi_def_cfa_offset 32
 705              		@ sp needed
 706 0338 BDE8F087 		pop	{r4, r5, r6, r7, r8, r9, r10, pc}
 707              		.loc 1 683 1 view .LVU300
 708              		.cfi_endproc
 709              	.LFE127:
 711              		.section	.text.VL53L1_run_device_test,"ax",%progbits
 712              		.align	1
 713              		.global	VL53L1_run_device_test
 714              		.syntax unified
 715              		.thumb
 716              		.thumb_func
 717              		.fpu fpv4-sp-d16
 719              	VL53L1_run_device_test:
 720              	.LVL53:
 721              	.LFB129:
 684:D:/Git/VL53L1/lib/core/src\vl53l1_api_calibration.c **** #endif
 685:D:/Git/VL53L1/lib/core/src\vl53l1_api_calibration.c **** 
 686:D:/Git/VL53L1/lib/core/src\vl53l1_api_calibration.c **** #ifndef VL53L1_NOCALIB
 687:D:/Git/VL53L1/lib/core/src\vl53l1_api_calibration.c **** VL53L1_Error VL53L1_run_spad_rate_map(
 688:D:/Git/VL53L1/lib/core/src\vl53l1_api_calibration.c **** 	VL53L1_DEV                 Dev,
 689:D:/Git/VL53L1/lib/core/src\vl53l1_api_calibration.c **** 	VL53L1_DeviceTestMode      device_test_mode,
 690:D:/Git/VL53L1/lib/core/src\vl53l1_api_calibration.c **** 	VL53L1_DeviceSscArray      array_select,
 691:D:/Git/VL53L1/lib/core/src\vl53l1_api_calibration.c **** 	uint32_t                   ssc_config_timeout_us,
 692:D:/Git/VL53L1/lib/core/src\vl53l1_api_calibration.c ****     VL53L1_spad_rate_data_t   *pspad_rate_data)
 693:D:/Git/VL53L1/lib/core/src\vl53l1_api_calibration.c **** {
 694:D:/Git/VL53L1/lib/core/src\vl53l1_api_calibration.c **** 
 695:D:/Git/VL53L1/lib/core/src\vl53l1_api_calibration.c ****     /**
 696:D:/Git/VL53L1/lib/core/src\vl53l1_api_calibration.c ****      *  Runs SPAD Rate Map
ARM GAS  C:\Users\Berbardo\AppData\Local\Temp\ccNyfDs0.s 			page 28


 697:D:/Git/VL53L1/lib/core/src\vl53l1_api_calibration.c ****      */
 698:D:/Git/VL53L1/lib/core/src\vl53l1_api_calibration.c **** 
 699:D:/Git/VL53L1/lib/core/src\vl53l1_api_calibration.c **** 	VL53L1_Error status = VL53L1_ERROR_NONE;
 700:D:/Git/VL53L1/lib/core/src\vl53l1_api_calibration.c **** 
 701:D:/Git/VL53L1/lib/core/src\vl53l1_api_calibration.c **** 	VL53L1_LLDriverData_t *pdev =
 702:D:/Git/VL53L1/lib/core/src\vl53l1_api_calibration.c **** 		VL53L1DevStructGetLLDriverHandle(Dev);
 703:D:/Git/VL53L1/lib/core/src\vl53l1_api_calibration.c **** 
 704:D:/Git/VL53L1/lib/core/src\vl53l1_api_calibration.c **** 	LOG_FUNCTION_START("");
 705:D:/Git/VL53L1/lib/core/src\vl53l1_api_calibration.c **** 
 706:D:/Git/VL53L1/lib/core/src\vl53l1_api_calibration.c **** 	/*
 707:D:/Git/VL53L1/lib/core/src\vl53l1_api_calibration.c **** 	 * Ensure power force is enabled
 708:D:/Git/VL53L1/lib/core/src\vl53l1_api_calibration.c **** 	 */
 709:D:/Git/VL53L1/lib/core/src\vl53l1_api_calibration.c **** 	if (status == VL53L1_ERROR_NONE)
 710:D:/Git/VL53L1/lib/core/src\vl53l1_api_calibration.c **** 		status = VL53L1_enable_powerforce(Dev);
 711:D:/Git/VL53L1/lib/core/src\vl53l1_api_calibration.c **** 
 712:D:/Git/VL53L1/lib/core/src\vl53l1_api_calibration.c **** 	/*
 713:D:/Git/VL53L1/lib/core/src\vl53l1_api_calibration.c **** 	 * Configure the test
 714:D:/Git/VL53L1/lib/core/src\vl53l1_api_calibration.c **** 	 */
 715:D:/Git/VL53L1/lib/core/src\vl53l1_api_calibration.c **** 
 716:D:/Git/VL53L1/lib/core/src\vl53l1_api_calibration.c **** 	if (status == VL53L1_ERROR_NONE) {
 717:D:/Git/VL53L1/lib/core/src\vl53l1_api_calibration.c **** 		pdev->ssc_cfg.array_select = array_select;
 718:D:/Git/VL53L1/lib/core/src\vl53l1_api_calibration.c **** 		pdev->ssc_cfg.timeout_us   = ssc_config_timeout_us;
 719:D:/Git/VL53L1/lib/core/src\vl53l1_api_calibration.c **** 		status =
 720:D:/Git/VL53L1/lib/core/src\vl53l1_api_calibration.c **** 			VL53L1_set_ssc_config(
 721:D:/Git/VL53L1/lib/core/src\vl53l1_api_calibration.c **** 				Dev,
 722:D:/Git/VL53L1/lib/core/src\vl53l1_api_calibration.c **** 				&(pdev->ssc_cfg),
 723:D:/Git/VL53L1/lib/core/src\vl53l1_api_calibration.c **** 				pdev->stat_nvm.osc_measured__fast_osc__frequency);
 724:D:/Git/VL53L1/lib/core/src\vl53l1_api_calibration.c **** 	}
 725:D:/Git/VL53L1/lib/core/src\vl53l1_api_calibration.c **** 
 726:D:/Git/VL53L1/lib/core/src\vl53l1_api_calibration.c **** 	/*
 727:D:/Git/VL53L1/lib/core/src\vl53l1_api_calibration.c **** 	 * Run device test
 728:D:/Git/VL53L1/lib/core/src\vl53l1_api_calibration.c **** 	 */
 729:D:/Git/VL53L1/lib/core/src\vl53l1_api_calibration.c **** 
 730:D:/Git/VL53L1/lib/core/src\vl53l1_api_calibration.c **** 	if (status == VL53L1_ERROR_NONE)
 731:D:/Git/VL53L1/lib/core/src\vl53l1_api_calibration.c **** 		status =
 732:D:/Git/VL53L1/lib/core/src\vl53l1_api_calibration.c **** 			VL53L1_run_device_test(
 733:D:/Git/VL53L1/lib/core/src\vl53l1_api_calibration.c **** 				Dev,
 734:D:/Git/VL53L1/lib/core/src\vl53l1_api_calibration.c **** 				device_test_mode);
 735:D:/Git/VL53L1/lib/core/src\vl53l1_api_calibration.c **** 
 736:D:/Git/VL53L1/lib/core/src\vl53l1_api_calibration.c **** 	/*
 737:D:/Git/VL53L1/lib/core/src\vl53l1_api_calibration.c **** 	 * Read Rate Data from Patch Ram
 738:D:/Git/VL53L1/lib/core/src\vl53l1_api_calibration.c **** 	 */
 739:D:/Git/VL53L1/lib/core/src\vl53l1_api_calibration.c **** 
 740:D:/Git/VL53L1/lib/core/src\vl53l1_api_calibration.c ****     if (status == VL53L1_ERROR_NONE)
 741:D:/Git/VL53L1/lib/core/src\vl53l1_api_calibration.c **** 		status =
 742:D:/Git/VL53L1/lib/core/src\vl53l1_api_calibration.c **** 			VL53L1_get_spad_rate_data(
 743:D:/Git/VL53L1/lib/core/src\vl53l1_api_calibration.c **** 				Dev,
 744:D:/Git/VL53L1/lib/core/src\vl53l1_api_calibration.c **** 				pspad_rate_data);
 745:D:/Git/VL53L1/lib/core/src\vl53l1_api_calibration.c **** 
 746:D:/Git/VL53L1/lib/core/src\vl53l1_api_calibration.c **** 	if (device_test_mode == VL53L1_DEVICETESTMODE_LCR_VCSEL_ON)
 747:D:/Git/VL53L1/lib/core/src\vl53l1_api_calibration.c **** 		pspad_rate_data->fractional_bits =  7;
 748:D:/Git/VL53L1/lib/core/src\vl53l1_api_calibration.c **** 	else
 749:D:/Git/VL53L1/lib/core/src\vl53l1_api_calibration.c **** 		pspad_rate_data->fractional_bits = 15;
 750:D:/Git/VL53L1/lib/core/src\vl53l1_api_calibration.c **** 
 751:D:/Git/VL53L1/lib/core/src\vl53l1_api_calibration.c **** 	/* Ensure power force is disabled */
 752:D:/Git/VL53L1/lib/core/src\vl53l1_api_calibration.c **** 
 753:D:/Git/VL53L1/lib/core/src\vl53l1_api_calibration.c **** 	if (status == VL53L1_ERROR_NONE)
ARM GAS  C:\Users\Berbardo\AppData\Local\Temp\ccNyfDs0.s 			page 29


 754:D:/Git/VL53L1/lib/core/src\vl53l1_api_calibration.c **** 		status = VL53L1_disable_powerforce(Dev);
 755:D:/Git/VL53L1/lib/core/src\vl53l1_api_calibration.c **** 
 756:D:/Git/VL53L1/lib/core/src\vl53l1_api_calibration.c **** #ifdef VL53L1_LOG_ENABLE
 757:D:/Git/VL53L1/lib/core/src\vl53l1_api_calibration.c ****     /* Print return rate data and map */
 758:D:/Git/VL53L1/lib/core/src\vl53l1_api_calibration.c **** 
 759:D:/Git/VL53L1/lib/core/src\vl53l1_api_calibration.c ****     if (status == VL53L1_ERROR_NONE) {
 760:D:/Git/VL53L1/lib/core/src\vl53l1_api_calibration.c **** 		VL53L1_print_spad_rate_data(
 761:D:/Git/VL53L1/lib/core/src\vl53l1_api_calibration.c **** 			pspad_rate_data,
 762:D:/Git/VL53L1/lib/core/src\vl53l1_api_calibration.c **** 			"run_spad_rate_map():",
 763:D:/Git/VL53L1/lib/core/src\vl53l1_api_calibration.c **** 			VL53L1_TRACE_MODULE_SPAD_RATE_MAP);
 764:D:/Git/VL53L1/lib/core/src\vl53l1_api_calibration.c **** 		VL53L1_print_spad_rate_map(
 765:D:/Git/VL53L1/lib/core/src\vl53l1_api_calibration.c **** 			pspad_rate_data,
 766:D:/Git/VL53L1/lib/core/src\vl53l1_api_calibration.c **** 			"run_spad_rate_map():",
 767:D:/Git/VL53L1/lib/core/src\vl53l1_api_calibration.c **** 			VL53L1_TRACE_MODULE_SPAD_RATE_MAP);
 768:D:/Git/VL53L1/lib/core/src\vl53l1_api_calibration.c ****     }
 769:D:/Git/VL53L1/lib/core/src\vl53l1_api_calibration.c **** #endif
 770:D:/Git/VL53L1/lib/core/src\vl53l1_api_calibration.c **** 
 771:D:/Git/VL53L1/lib/core/src\vl53l1_api_calibration.c **** 	LOG_FUNCTION_END(status);
 772:D:/Git/VL53L1/lib/core/src\vl53l1_api_calibration.c **** 
 773:D:/Git/VL53L1/lib/core/src\vl53l1_api_calibration.c **** 	return status;
 774:D:/Git/VL53L1/lib/core/src\vl53l1_api_calibration.c **** }
 775:D:/Git/VL53L1/lib/core/src\vl53l1_api_calibration.c **** #endif
 776:D:/Git/VL53L1/lib/core/src\vl53l1_api_calibration.c **** 
 777:D:/Git/VL53L1/lib/core/src\vl53l1_api_calibration.c **** 
 778:D:/Git/VL53L1/lib/core/src\vl53l1_api_calibration.c **** #ifndef VL53L1_NOCALIB
 779:D:/Git/VL53L1/lib/core/src\vl53l1_api_calibration.c **** VL53L1_Error VL53L1_run_device_test(
 780:D:/Git/VL53L1/lib/core/src\vl53l1_api_calibration.c **** 	VL53L1_DEV             Dev,
 781:D:/Git/VL53L1/lib/core/src\vl53l1_api_calibration.c **** 	VL53L1_DeviceTestMode  device_test_mode)
 782:D:/Git/VL53L1/lib/core/src\vl53l1_api_calibration.c **** {
 722              		.loc 1 782 1 is_stmt 1 view -0
 723              		.cfi_startproc
 724              		@ args = 0, pretend = 0, frame = 8
 725              		@ frame_needed = 0, uses_anonymous_args = 0
 726              		.loc 1 782 1 is_stmt 0 view .LVU302
 727 0000 30B5     		push	{r4, r5, lr}
 728              		.cfi_def_cfa_offset 12
 729              		.cfi_offset 4, -12
 730              		.cfi_offset 5, -8
 731              		.cfi_offset 14, -4
 732 0002 83B0     		sub	sp, sp, #12
 733              		.cfi_def_cfa_offset 24
 734 0004 0446     		mov	r4, r0
 735 0006 0D46     		mov	r5, r1
 783:D:/Git/VL53L1/lib/core/src\vl53l1_api_calibration.c **** 	/*
 784:D:/Git/VL53L1/lib/core/src\vl53l1_api_calibration.c **** 	 *  Runs the selected Device Test Mode
 785:D:/Git/VL53L1/lib/core/src\vl53l1_api_calibration.c **** 	 */
 786:D:/Git/VL53L1/lib/core/src\vl53l1_api_calibration.c **** 
 787:D:/Git/VL53L1/lib/core/src\vl53l1_api_calibration.c **** 	VL53L1_Error status = VL53L1_ERROR_NONE;
 736              		.loc 1 787 2 is_stmt 1 view .LVU303
 737              	.LVL54:
 788:D:/Git/VL53L1/lib/core/src\vl53l1_api_calibration.c **** 	VL53L1_LLDriverData_t *pdev = VL53L1DevStructGetLLDriverHandle(Dev);
 738              		.loc 1 788 2 view .LVU304
 789:D:/Git/VL53L1/lib/core/src\vl53l1_api_calibration.c **** 
 790:D:/Git/VL53L1/lib/core/src\vl53l1_api_calibration.c **** 	uint8_t      comms_buffer[2];
 739              		.loc 1 790 2 view .LVU305
 791:D:/Git/VL53L1/lib/core/src\vl53l1_api_calibration.c **** 	uint8_t      gpio_hv_mux__ctrl = 0;
 740              		.loc 1 791 2 view .LVU306
ARM GAS  C:\Users\Berbardo\AppData\Local\Temp\ccNyfDs0.s 			page 30


 741              		.loc 1 791 15 is_stmt 0 view .LVU307
 742 0008 0023     		movs	r3, #0
 743 000a 8DF80330 		strb	r3, [sp, #3]
 792:D:/Git/VL53L1/lib/core/src\vl53l1_api_calibration.c **** 
 793:D:/Git/VL53L1/lib/core/src\vl53l1_api_calibration.c **** 	LOG_FUNCTION_START("");
 744              		.loc 1 793 24 is_stmt 1 view .LVU308
 794:D:/Git/VL53L1/lib/core/src\vl53l1_api_calibration.c **** 
 795:D:/Git/VL53L1/lib/core/src\vl53l1_api_calibration.c **** 	/*
 796:D:/Git/VL53L1/lib/core/src\vl53l1_api_calibration.c **** 	 * Get current interrupt config
 797:D:/Git/VL53L1/lib/core/src\vl53l1_api_calibration.c **** 	 */
 798:D:/Git/VL53L1/lib/core/src\vl53l1_api_calibration.c **** 
 799:D:/Git/VL53L1/lib/core/src\vl53l1_api_calibration.c **** 	if (status == VL53L1_ERROR_NONE) /*lint !e774 always true*/
 745              		.loc 1 799 2 view .LVU309
 800:D:/Git/VL53L1/lib/core/src\vl53l1_api_calibration.c **** 		status =
 746              		.loc 1 800 3 view .LVU310
 801:D:/Git/VL53L1/lib/core/src\vl53l1_api_calibration.c **** 			VL53L1_RdByte(
 747              		.loc 1 801 4 is_stmt 0 view .LVU311
 748 000e 0DF10302 		add	r2, sp, #3
 749 0012 3021     		movs	r1, #48
 750              	.LVL55:
 751              		.loc 1 801 4 view .LVU312
 752 0014 FFF7FEFF 		bl	VL53L1_RdByte
 753              	.LVL56:
 802:D:/Git/VL53L1/lib/core/src\vl53l1_api_calibration.c **** 				Dev,
 803:D:/Git/VL53L1/lib/core/src\vl53l1_api_calibration.c **** 				VL53L1_GPIO_HV_MUX__CTRL,
 804:D:/Git/VL53L1/lib/core/src\vl53l1_api_calibration.c **** 				&gpio_hv_mux__ctrl);
 805:D:/Git/VL53L1/lib/core/src\vl53l1_api_calibration.c **** 
 806:D:/Git/VL53L1/lib/core/src\vl53l1_api_calibration.c **** 	if (status == VL53L1_ERROR_NONE)
 754              		.loc 1 806 2 is_stmt 1 view .LVU313
 755              		.loc 1 806 5 is_stmt 0 view .LVU314
 756 0018 0346     		mov	r3, r0
 757 001a 18B9     		cbnz	r0, .L54
 807:D:/Git/VL53L1/lib/core/src\vl53l1_api_calibration.c **** 		pdev->stat_cfg.gpio_hv_mux__ctrl = gpio_hv_mux__ctrl;
 758              		.loc 1 807 3 is_stmt 1 view .LVU315
 759              		.loc 1 807 36 is_stmt 0 view .LVU316
 760 001c 9DF80320 		ldrb	r2, [sp, #3]	@ zero_extendqisi2
 761 0020 84F87021 		strb	r2, [r4, #368]
 762              	.L54:
 808:D:/Git/VL53L1/lib/core/src\vl53l1_api_calibration.c **** 
 809:D:/Git/VL53L1/lib/core/src\vl53l1_api_calibration.c **** 	/*
 810:D:/Git/VL53L1/lib/core/src\vl53l1_api_calibration.c **** 	 * Trigger the test
 811:D:/Git/VL53L1/lib/core/src\vl53l1_api_calibration.c **** 	 */
 812:D:/Git/VL53L1/lib/core/src\vl53l1_api_calibration.c **** 	if (status == VL53L1_ERROR_NONE)
 763              		.loc 1 812 2 is_stmt 1 view .LVU317
 764              		.loc 1 812 5 is_stmt 0 view .LVU318
 765 0024 ABB1     		cbz	r3, .L62
 766              	.LVL57:
 767              	.L55:
 813:D:/Git/VL53L1/lib/core/src\vl53l1_api_calibration.c **** 		status = VL53L1_start_test(
 814:D:/Git/VL53L1/lib/core/src\vl53l1_api_calibration.c **** 					Dev,
 815:D:/Git/VL53L1/lib/core/src\vl53l1_api_calibration.c **** 					device_test_mode);
 816:D:/Git/VL53L1/lib/core/src\vl53l1_api_calibration.c **** 
 817:D:/Git/VL53L1/lib/core/src\vl53l1_api_calibration.c **** 	/*
 818:D:/Git/VL53L1/lib/core/src\vl53l1_api_calibration.c **** 	 * Wait for test completion
 819:D:/Git/VL53L1/lib/core/src\vl53l1_api_calibration.c **** 	 */
 820:D:/Git/VL53L1/lib/core/src\vl53l1_api_calibration.c **** 	if (status == VL53L1_ERROR_NONE)
 768              		.loc 1 820 2 is_stmt 1 view .LVU319
ARM GAS  C:\Users\Berbardo\AppData\Local\Temp\ccNyfDs0.s 			page 31


 769              		.loc 1 820 5 is_stmt 0 view .LVU320
 770 0026 D3B1     		cbz	r3, .L63
 771              	.L56:
 821:D:/Git/VL53L1/lib/core/src\vl53l1_api_calibration.c **** 		status = VL53L1_wait_for_test_completion(Dev);
 822:D:/Git/VL53L1/lib/core/src\vl53l1_api_calibration.c **** 
 823:D:/Git/VL53L1/lib/core/src\vl53l1_api_calibration.c **** 	/*
 824:D:/Git/VL53L1/lib/core/src\vl53l1_api_calibration.c **** 	 * Read range and report status
 825:D:/Git/VL53L1/lib/core/src\vl53l1_api_calibration.c **** 	 */
 826:D:/Git/VL53L1/lib/core/src\vl53l1_api_calibration.c **** 	if (status == VL53L1_ERROR_NONE)
 772              		.loc 1 826 2 is_stmt 1 view .LVU321
 773              		.loc 1 826 5 is_stmt 0 view .LVU322
 774 0028 F3B1     		cbz	r3, .L64
 775              	.L57:
 827:D:/Git/VL53L1/lib/core/src\vl53l1_api_calibration.c **** 		status =
 828:D:/Git/VL53L1/lib/core/src\vl53l1_api_calibration.c **** 			VL53L1_ReadMulti(
 829:D:/Git/VL53L1/lib/core/src\vl53l1_api_calibration.c **** 				Dev,
 830:D:/Git/VL53L1/lib/core/src\vl53l1_api_calibration.c **** 				VL53L1_RESULT__RANGE_STATUS,
 831:D:/Git/VL53L1/lib/core/src\vl53l1_api_calibration.c **** 				comms_buffer,
 832:D:/Git/VL53L1/lib/core/src\vl53l1_api_calibration.c **** 				2);
 833:D:/Git/VL53L1/lib/core/src\vl53l1_api_calibration.c **** 
 834:D:/Git/VL53L1/lib/core/src\vl53l1_api_calibration.c **** 	if (status == VL53L1_ERROR_NONE) {
 776              		.loc 1 834 2 is_stmt 1 view .LVU323
 777              		.loc 1 834 5 is_stmt 0 view .LVU324
 778 002a 3BB9     		cbnz	r3, .L58
 835:D:/Git/VL53L1/lib/core/src\vl53l1_api_calibration.c **** 		pdev->sys_results.result__range_status  = comms_buffer[0];
 779              		.loc 1 835 3 is_stmt 1 view .LVU325
 780              		.loc 1 835 57 is_stmt 0 view .LVU326
 781 002c 9DF80420 		ldrb	r2, [sp, #4]	@ zero_extendqisi2
 782              		.loc 1 835 43 view .LVU327
 783 0030 84F8CF21 		strb	r2, [r4, #463]
 836:D:/Git/VL53L1/lib/core/src\vl53l1_api_calibration.c **** 		pdev->sys_results.result__report_status = comms_buffer[1];
 784              		.loc 1 836 3 is_stmt 1 view .LVU328
 785              		.loc 1 836 57 is_stmt 0 view .LVU329
 786 0034 9DF80520 		ldrb	r2, [sp, #5]	@ zero_extendqisi2
 787              		.loc 1 836 43 view .LVU330
 788 0038 84F8D021 		strb	r2, [r4, #464]
 789              	.L58:
 837:D:/Git/VL53L1/lib/core/src\vl53l1_api_calibration.c **** 	}
 838:D:/Git/VL53L1/lib/core/src\vl53l1_api_calibration.c **** 
 839:D:/Git/VL53L1/lib/core/src\vl53l1_api_calibration.c **** 	/* mask range status bits */
 840:D:/Git/VL53L1/lib/core/src\vl53l1_api_calibration.c **** 
 841:D:/Git/VL53L1/lib/core/src\vl53l1_api_calibration.c **** 	pdev->sys_results.result__range_status &=
 790              		.loc 1 841 2 is_stmt 1 view .LVU331
 791              		.loc 1 841 41 is_stmt 0 view .LVU332
 792 003c 94F8CF21 		ldrb	r2, [r4, #463]	@ zero_extendqisi2
 793 0040 02F01F02 		and	r2, r2, #31
 794 0044 84F8CF21 		strb	r2, [r4, #463]
 842:D:/Git/VL53L1/lib/core/src\vl53l1_api_calibration.c **** 		VL53L1_RANGE_STATUS__RANGE_STATUS_MASK;
 843:D:/Git/VL53L1/lib/core/src\vl53l1_api_calibration.c **** 
 844:D:/Git/VL53L1/lib/core/src\vl53l1_api_calibration.c **** 	if (status == VL53L1_ERROR_NONE) {
 795              		.loc 1 844 2 is_stmt 1 view .LVU333
 796              		.loc 1 844 5 is_stmt 0 view .LVU334
 797 0048 B3B1     		cbz	r3, .L65
 798              	.L59:
 845:D:/Git/VL53L1/lib/core/src\vl53l1_api_calibration.c **** 		trace_print(
 846:D:/Git/VL53L1/lib/core/src\vl53l1_api_calibration.c **** 			VL53L1_TRACE_LEVEL_INFO,
 847:D:/Git/VL53L1/lib/core/src\vl53l1_api_calibration.c **** 			"    Device Test Complete:\n\t%-32s = %3u\n\t%-32s = %3u\n",
ARM GAS  C:\Users\Berbardo\AppData\Local\Temp\ccNyfDs0.s 			page 32


 848:D:/Git/VL53L1/lib/core/src\vl53l1_api_calibration.c **** 			"result__range_status",
 849:D:/Git/VL53L1/lib/core/src\vl53l1_api_calibration.c **** 			pdev->sys_results.result__range_status,
 850:D:/Git/VL53L1/lib/core/src\vl53l1_api_calibration.c **** 			"result__report_status",
 851:D:/Git/VL53L1/lib/core/src\vl53l1_api_calibration.c **** 			pdev->sys_results.result__report_status);
 852:D:/Git/VL53L1/lib/core/src\vl53l1_api_calibration.c **** 
 853:D:/Git/VL53L1/lib/core/src\vl53l1_api_calibration.c **** 		/*
 854:D:/Git/VL53L1/lib/core/src\vl53l1_api_calibration.c **** 		 * Clear interrupt
 855:D:/Git/VL53L1/lib/core/src\vl53l1_api_calibration.c **** 		 */
 856:D:/Git/VL53L1/lib/core/src\vl53l1_api_calibration.c **** 		if (status == VL53L1_ERROR_NONE)
 857:D:/Git/VL53L1/lib/core/src\vl53l1_api_calibration.c **** 			status = VL53L1_clear_interrupt(Dev);
 858:D:/Git/VL53L1/lib/core/src\vl53l1_api_calibration.c **** 	}
 859:D:/Git/VL53L1/lib/core/src\vl53l1_api_calibration.c **** 
 860:D:/Git/VL53L1/lib/core/src\vl53l1_api_calibration.c **** 	/*
 861:D:/Git/VL53L1/lib/core/src\vl53l1_api_calibration.c **** 	 * Clear test mode register
 862:D:/Git/VL53L1/lib/core/src\vl53l1_api_calibration.c **** 	 *  - required so that next test command will trigger
 863:D:/Git/VL53L1/lib/core/src\vl53l1_api_calibration.c **** 	 *    internal MCU interrupt
 864:D:/Git/VL53L1/lib/core/src\vl53l1_api_calibration.c **** 	 */
 865:D:/Git/VL53L1/lib/core/src\vl53l1_api_calibration.c **** 
 866:D:/Git/VL53L1/lib/core/src\vl53l1_api_calibration.c **** 	if (status == VL53L1_ERROR_NONE)
 799              		.loc 1 866 2 is_stmt 1 view .LVU335
 800              		.loc 1 866 5 is_stmt 0 view .LVU336
 801 004a D3B1     		cbz	r3, .L66
 802              	.L60:
 867:D:/Git/VL53L1/lib/core/src\vl53l1_api_calibration.c **** 		status =
 868:D:/Git/VL53L1/lib/core/src\vl53l1_api_calibration.c **** 			VL53L1_start_test(
 869:D:/Git/VL53L1/lib/core/src\vl53l1_api_calibration.c **** 				Dev,
 870:D:/Git/VL53L1/lib/core/src\vl53l1_api_calibration.c **** 				0x00);
 871:D:/Git/VL53L1/lib/core/src\vl53l1_api_calibration.c **** 
 872:D:/Git/VL53L1/lib/core/src\vl53l1_api_calibration.c **** 	LOG_FUNCTION_END(status);
 803              		.loc 1 872 26 is_stmt 1 view .LVU337
 873:D:/Git/VL53L1/lib/core/src\vl53l1_api_calibration.c **** 
 874:D:/Git/VL53L1/lib/core/src\vl53l1_api_calibration.c **** 	return status;
 804              		.loc 1 874 2 view .LVU338
 875:D:/Git/VL53L1/lib/core/src\vl53l1_api_calibration.c **** }
 805              		.loc 1 875 1 is_stmt 0 view .LVU339
 806 004c 1846     		mov	r0, r3
 807 004e 03B0     		add	sp, sp, #12
 808              		.cfi_remember_state
 809              		.cfi_def_cfa_offset 12
 810              		@ sp needed
 811 0050 30BD     		pop	{r4, r5, pc}
 812              	.LVL58:
 813              	.L62:
 814              		.cfi_restore_state
 813:D:/Git/VL53L1/lib/core/src\vl53l1_api_calibration.c **** 					Dev,
 815              		.loc 1 813 3 is_stmt 1 view .LVU340
 813:D:/Git/VL53L1/lib/core/src\vl53l1_api_calibration.c **** 					Dev,
 816              		.loc 1 813 12 is_stmt 0 view .LVU341
 817 0052 2946     		mov	r1, r5
 818 0054 2046     		mov	r0, r4
 819              	.LVL59:
 813:D:/Git/VL53L1/lib/core/src\vl53l1_api_calibration.c **** 					Dev,
 820              		.loc 1 813 12 view .LVU342
 821 0056 FFF7FEFF 		bl	VL53L1_start_test
 822              	.LVL60:
 823 005a 0346     		mov	r3, r0
 824              	.LVL61:
ARM GAS  C:\Users\Berbardo\AppData\Local\Temp\ccNyfDs0.s 			page 33


 813:D:/Git/VL53L1/lib/core/src\vl53l1_api_calibration.c **** 					Dev,
 825              		.loc 1 813 12 view .LVU343
 826 005c E3E7     		b	.L55
 827              	.L63:
 821:D:/Git/VL53L1/lib/core/src\vl53l1_api_calibration.c **** 
 828              		.loc 1 821 3 is_stmt 1 view .LVU344
 821:D:/Git/VL53L1/lib/core/src\vl53l1_api_calibration.c **** 
 829              		.loc 1 821 12 is_stmt 0 view .LVU345
 830 005e 2046     		mov	r0, r4
 831 0060 FFF7FEFF 		bl	VL53L1_wait_for_test_completion
 832              	.LVL62:
 821:D:/Git/VL53L1/lib/core/src\vl53l1_api_calibration.c **** 
 833              		.loc 1 821 12 view .LVU346
 834 0064 0346     		mov	r3, r0
 835              	.LVL63:
 821:D:/Git/VL53L1/lib/core/src\vl53l1_api_calibration.c **** 
 836              		.loc 1 821 12 view .LVU347
 837 0066 DFE7     		b	.L56
 838              	.L64:
 827:D:/Git/VL53L1/lib/core/src\vl53l1_api_calibration.c **** 			VL53L1_ReadMulti(
 839              		.loc 1 827 3 is_stmt 1 view .LVU348
 828:D:/Git/VL53L1/lib/core/src\vl53l1_api_calibration.c **** 				Dev,
 840              		.loc 1 828 4 is_stmt 0 view .LVU349
 841 0068 0223     		movs	r3, #2
 842              	.LVL64:
 828:D:/Git/VL53L1/lib/core/src\vl53l1_api_calibration.c **** 				Dev,
 843              		.loc 1 828 4 view .LVU350
 844 006a 01AA     		add	r2, sp, #4
 845 006c 8921     		movs	r1, #137
 846 006e 2046     		mov	r0, r4
 847 0070 FFF7FEFF 		bl	VL53L1_ReadMulti
 848              	.LVL65:
 849 0074 0346     		mov	r3, r0
 850              	.LVL66:
 828:D:/Git/VL53L1/lib/core/src\vl53l1_api_calibration.c **** 				Dev,
 851              		.loc 1 828 4 view .LVU351
 852 0076 D8E7     		b	.L57
 853              	.L65:
 851:D:/Git/VL53L1/lib/core/src\vl53l1_api_calibration.c **** 
 854              		.loc 1 851 44 is_stmt 1 view .LVU352
 856:D:/Git/VL53L1/lib/core/src\vl53l1_api_calibration.c **** 			status = VL53L1_clear_interrupt(Dev);
 855              		.loc 1 856 3 view .LVU353
 857:D:/Git/VL53L1/lib/core/src\vl53l1_api_calibration.c **** 	}
 856              		.loc 1 857 4 view .LVU354
 857:D:/Git/VL53L1/lib/core/src\vl53l1_api_calibration.c **** 	}
 857              		.loc 1 857 13 is_stmt 0 view .LVU355
 858 0078 2046     		mov	r0, r4
 859 007a FFF7FEFF 		bl	VL53L1_clear_interrupt
 860              	.LVL67:
 857:D:/Git/VL53L1/lib/core/src\vl53l1_api_calibration.c **** 	}
 861              		.loc 1 857 13 view .LVU356
 862 007e 0346     		mov	r3, r0
 863              	.LVL68:
 857:D:/Git/VL53L1/lib/core/src\vl53l1_api_calibration.c **** 	}
 864              		.loc 1 857 13 view .LVU357
 865 0080 E3E7     		b	.L59
 866              	.L66:
ARM GAS  C:\Users\Berbardo\AppData\Local\Temp\ccNyfDs0.s 			page 34


 867:D:/Git/VL53L1/lib/core/src\vl53l1_api_calibration.c **** 			VL53L1_start_test(
 867              		.loc 1 867 3 is_stmt 1 view .LVU358
 868:D:/Git/VL53L1/lib/core/src\vl53l1_api_calibration.c **** 				Dev,
 868              		.loc 1 868 4 is_stmt 0 view .LVU359
 869 0082 0021     		movs	r1, #0
 870 0084 2046     		mov	r0, r4
 871 0086 FFF7FEFF 		bl	VL53L1_start_test
 872              	.LVL69:
 868:D:/Git/VL53L1/lib/core/src\vl53l1_api_calibration.c **** 				Dev,
 873              		.loc 1 868 4 view .LVU360
 874 008a 0346     		mov	r3, r0
 875              	.LVL70:
 868:D:/Git/VL53L1/lib/core/src\vl53l1_api_calibration.c **** 				Dev,
 876              		.loc 1 868 4 view .LVU361
 877 008c DEE7     		b	.L60
 878              		.cfi_endproc
 879              	.LFE129:
 881              		.section	.text.VL53L1_run_ref_spad_char,"ax",%progbits
 882              		.align	1
 883              		.global	VL53L1_run_ref_spad_char
 884              		.syntax unified
 885              		.thumb
 886              		.thumb_func
 887              		.fpu fpv4-sp-d16
 889              	VL53L1_run_ref_spad_char:
 890              	.LVL71:
 891              	.LFB126:
 107:D:/Git/VL53L1/lib/core/src\vl53l1_api_calibration.c **** 	/*
 892              		.loc 1 107 1 is_stmt 1 view -0
 893              		.cfi_startproc
 894              		@ args = 0, pretend = 0, frame = 8
 895              		@ frame_needed = 0, uses_anonymous_args = 0
 107:D:/Git/VL53L1/lib/core/src\vl53l1_api_calibration.c **** 	/*
 896              		.loc 1 107 1 is_stmt 0 view .LVU363
 897 0000 30B5     		push	{r4, r5, lr}
 898              		.cfi_def_cfa_offset 12
 899              		.cfi_offset 4, -12
 900              		.cfi_offset 5, -8
 901              		.cfi_offset 14, -4
 902 0002 87B0     		sub	sp, sp, #28
 903              		.cfi_def_cfa_offset 40
 904 0004 0446     		mov	r4, r0
 905 0006 0D46     		mov	r5, r1
 112:D:/Git/VL53L1/lib/core/src\vl53l1_api_calibration.c **** 	VL53L1_LLDriverData_t *pdev = VL53L1DevStructGetLLDriverHandle(Dev);
 906              		.loc 1 112 2 is_stmt 1 view .LVU364
 907              	.LVL72:
 113:D:/Git/VL53L1/lib/core/src\vl53l1_api_calibration.c **** 
 908              		.loc 1 113 2 view .LVU365
 115:D:/Git/VL53L1/lib/core/src\vl53l1_api_calibration.c **** 
 909              		.loc 1 115 2 view .LVU366
 117:D:/Git/VL53L1/lib/core/src\vl53l1_api_calibration.c **** 
 910              		.loc 1 117 2 view .LVU367
 119:D:/Git/VL53L1/lib/core/src\vl53l1_api_calibration.c **** 
 911              		.loc 1 119 24 view .LVU368
 125:D:/Git/VL53L1/lib/core/src\vl53l1_api_calibration.c **** 		status = VL53L1_enable_powerforce(Dev);
 912              		.loc 1 125 2 view .LVU369
 126:D:/Git/VL53L1/lib/core/src\vl53l1_api_calibration.c **** 
ARM GAS  C:\Users\Berbardo\AppData\Local\Temp\ccNyfDs0.s 			page 35


 913              		.loc 1 126 3 view .LVU370
 126:D:/Git/VL53L1/lib/core/src\vl53l1_api_calibration.c **** 
 914              		.loc 1 126 12 is_stmt 0 view .LVU371
 915 0008 FFF7FEFF 		bl	VL53L1_enable_powerforce
 916              	.LVL73:
 132:D:/Git/VL53L1/lib/core/src\vl53l1_api_calibration.c **** 		status =
 917              		.loc 1 132 2 is_stmt 1 view .LVU372
 132:D:/Git/VL53L1/lib/core/src\vl53l1_api_calibration.c **** 		status =
 918              		.loc 1 132 5 is_stmt 0 view .LVU373
 919 000c 0346     		mov	r3, r0
 920 000e 0028     		cmp	r0, #0
 921 0010 41D0     		beq	.L82
 922              	.LVL74:
 923              	.L68:
 147:D:/Git/VL53L1/lib/core/src\vl53l1_api_calibration.c **** 		status = VL53L1_run_device_test(
 924              		.loc 1 147 2 is_stmt 1 view .LVU374
 147:D:/Git/VL53L1/lib/core/src\vl53l1_api_calibration.c **** 		status = VL53L1_run_device_test(
 925              		.loc 1 147 5 is_stmt 0 view .LVU375
 926 0012 002B     		cmp	r3, #0
 927 0014 53D0     		beq	.L83
 928              	.L69:
 156:D:/Git/VL53L1/lib/core/src\vl53l1_api_calibration.c **** 		status =
 929              		.loc 1 156 2 is_stmt 1 view .LVU376
 156:D:/Git/VL53L1/lib/core/src\vl53l1_api_calibration.c **** 		status =
 930              		.loc 1 156 5 is_stmt 0 view .LVU377
 931 0016 002B     		cmp	r3, #0
 932 0018 58D0     		beq	.L84
 933              	.L70:
 164:D:/Git/VL53L1/lib/core/src\vl53l1_api_calibration.c **** 		pdev->dbg_results.ref_spad_char_result__num_actual_ref_spads =
 934              		.loc 1 164 2 is_stmt 1 view .LVU378
 164:D:/Git/VL53L1/lib/core/src\vl53l1_api_calibration.c **** 		pdev->dbg_results.ref_spad_char_result__num_actual_ref_spads =
 935              		.loc 1 164 5 is_stmt 0 view .LVU379
 936 001a 3BB9     		cbnz	r3, .L71
 165:D:/Git/VL53L1/lib/core/src\vl53l1_api_calibration.c **** 				comms_buffer[0];
 937              		.loc 1 165 3 is_stmt 1 view .LVU380
 166:D:/Git/VL53L1/lib/core/src\vl53l1_api_calibration.c **** 		pdev->dbg_results.ref_spad_char_result__ref_location =
 938              		.loc 1 166 17 is_stmt 0 view .LVU381
 939 001c 9DF81020 		ldrb	r2, [sp, #16]	@ zero_extendqisi2
 165:D:/Git/VL53L1/lib/core/src\vl53l1_api_calibration.c **** 				comms_buffer[0];
 940              		.loc 1 165 64 view .LVU382
 941 0020 84F8AF22 		strb	r2, [r4, #687]
 167:D:/Git/VL53L1/lib/core/src\vl53l1_api_calibration.c **** 				comms_buffer[1];
 942              		.loc 1 167 3 is_stmt 1 view .LVU383
 168:D:/Git/VL53L1/lib/core/src\vl53l1_api_calibration.c **** 	}
 943              		.loc 1 168 17 is_stmt 0 view .LVU384
 944 0024 9DF81120 		ldrb	r2, [sp, #17]	@ zero_extendqisi2
 167:D:/Git/VL53L1/lib/core/src\vl53l1_api_calibration.c **** 				comms_buffer[1];
 945              		.loc 1 167 56 view .LVU385
 946 0028 84F8B022 		strb	r2, [r4, #688]
 947              	.L71:
 175:D:/Git/VL53L1/lib/core/src\vl53l1_api_calibration.c **** 		status =
 948              		.loc 1 175 2 is_stmt 1 view .LVU386
 175:D:/Git/VL53L1/lib/core/src\vl53l1_api_calibration.c **** 		status =
 949              		.loc 1 175 5 is_stmt 0 view .LVU387
 950 002c 002B     		cmp	r3, #0
 951 002e 55D0     		beq	.L85
 952              	.L72:
ARM GAS  C:\Users\Berbardo\AppData\Local\Temp\ccNyfDs0.s 			page 36


 183:D:/Git/VL53L1/lib/core/src\vl53l1_api_calibration.c **** 		pdev->customer.ref_spad_man__num_requested_ref_spads =
 953              		.loc 1 183 2 is_stmt 1 view .LVU388
 183:D:/Git/VL53L1/lib/core/src\vl53l1_api_calibration.c **** 		pdev->customer.ref_spad_man__num_requested_ref_spads =
 954              		.loc 1 183 5 is_stmt 0 view .LVU389
 955 0030 3BB9     		cbnz	r3, .L73
 184:D:/Git/VL53L1/lib/core/src\vl53l1_api_calibration.c **** 				comms_buffer[0];
 956              		.loc 1 184 3 is_stmt 1 view .LVU390
 185:D:/Git/VL53L1/lib/core/src\vl53l1_api_calibration.c **** 		pdev->customer.ref_spad_man__ref_location =
 957              		.loc 1 185 17 is_stmt 0 view .LVU391
 958 0032 9DF81020 		ldrb	r2, [sp, #16]	@ zero_extendqisi2
 184:D:/Git/VL53L1/lib/core/src\vl53l1_api_calibration.c **** 				comms_buffer[0];
 959              		.loc 1 184 56 view .LVU392
 960 0036 84F84920 		strb	r2, [r4, #73]
 186:D:/Git/VL53L1/lib/core/src\vl53l1_api_calibration.c **** 				comms_buffer[1];
 961              		.loc 1 186 3 is_stmt 1 view .LVU393
 187:D:/Git/VL53L1/lib/core/src\vl53l1_api_calibration.c **** 	}
 962              		.loc 1 187 17 is_stmt 0 view .LVU394
 963 003a 9DF81120 		ldrb	r2, [sp, #17]	@ zero_extendqisi2
 186:D:/Git/VL53L1/lib/core/src\vl53l1_api_calibration.c **** 				comms_buffer[1];
 964              		.loc 1 186 45 view .LVU395
 965 003e 84F84A20 		strb	r2, [r4, #74]
 966              	.L73:
 198:D:/Git/VL53L1/lib/core/src\vl53l1_api_calibration.c **** 		status =
 967              		.loc 1 198 2 is_stmt 1 view .LVU396
 198:D:/Git/VL53L1/lib/core/src\vl53l1_api_calibration.c **** 		status =
 968              		.loc 1 198 5 is_stmt 0 view .LVU397
 969 0042 002B     		cmp	r3, #0
 970 0044 52D0     		beq	.L86
 971              	.L74:
 211:D:/Git/VL53L1/lib/core/src\vl53l1_api_calibration.c **** 		status =
 972              		.loc 1 211 2 is_stmt 1 view .LVU398
 211:D:/Git/VL53L1/lib/core/src\vl53l1_api_calibration.c **** 		status =
 973              		.loc 1 211 5 is_stmt 0 view .LVU399
 974 0046 002B     		cmp	r3, #0
 975 0048 58D0     		beq	.L87
 976              	.L75:
 219:D:/Git/VL53L1/lib/core/src\vl53l1_api_calibration.c **** 		pdev->customer.global_config__spad_enables_ref_0 =
 977              		.loc 1 219 2 is_stmt 1 view .LVU400
 219:D:/Git/VL53L1/lib/core/src\vl53l1_api_calibration.c **** 		pdev->customer.global_config__spad_enables_ref_0 =
 978              		.loc 1 219 5 is_stmt 0 view .LVU401
 979 004a BBB9     		cbnz	r3, .L76
 220:D:/Git/VL53L1/lib/core/src\vl53l1_api_calibration.c **** 				comms_buffer[0];
 980              		.loc 1 220 3 is_stmt 1 view .LVU402
 221:D:/Git/VL53L1/lib/core/src\vl53l1_api_calibration.c **** 		pdev->customer.global_config__spad_enables_ref_1 =
 981              		.loc 1 221 17 is_stmt 0 view .LVU403
 982 004c 9DF81020 		ldrb	r2, [sp, #16]	@ zero_extendqisi2
 220:D:/Git/VL53L1/lib/core/src\vl53l1_api_calibration.c **** 				comms_buffer[0];
 983              		.loc 1 220 52 view .LVU404
 984 0050 84F84220 		strb	r2, [r4, #66]
 222:D:/Git/VL53L1/lib/core/src\vl53l1_api_calibration.c **** 				comms_buffer[1];
 985              		.loc 1 222 3 is_stmt 1 view .LVU405
 223:D:/Git/VL53L1/lib/core/src\vl53l1_api_calibration.c **** 		pdev->customer.global_config__spad_enables_ref_2 =
 986              		.loc 1 223 17 is_stmt 0 view .LVU406
 987 0054 9DF81120 		ldrb	r2, [sp, #17]	@ zero_extendqisi2
 222:D:/Git/VL53L1/lib/core/src\vl53l1_api_calibration.c **** 				comms_buffer[1];
 988              		.loc 1 222 52 view .LVU407
 989 0058 84F84320 		strb	r2, [r4, #67]
ARM GAS  C:\Users\Berbardo\AppData\Local\Temp\ccNyfDs0.s 			page 37


 224:D:/Git/VL53L1/lib/core/src\vl53l1_api_calibration.c **** 				comms_buffer[2];
 990              		.loc 1 224 3 is_stmt 1 view .LVU408
 225:D:/Git/VL53L1/lib/core/src\vl53l1_api_calibration.c **** 		pdev->customer.global_config__spad_enables_ref_3 =
 991              		.loc 1 225 17 is_stmt 0 view .LVU409
 992 005c 9DF81220 		ldrb	r2, [sp, #18]	@ zero_extendqisi2
 224:D:/Git/VL53L1/lib/core/src\vl53l1_api_calibration.c **** 				comms_buffer[2];
 993              		.loc 1 224 52 view .LVU410
 994 0060 84F84420 		strb	r2, [r4, #68]
 226:D:/Git/VL53L1/lib/core/src\vl53l1_api_calibration.c **** 				comms_buffer[3];
 995              		.loc 1 226 3 is_stmt 1 view .LVU411
 227:D:/Git/VL53L1/lib/core/src\vl53l1_api_calibration.c **** 		pdev->customer.global_config__spad_enables_ref_4 =
 996              		.loc 1 227 17 is_stmt 0 view .LVU412
 997 0064 9DF81320 		ldrb	r2, [sp, #19]	@ zero_extendqisi2
 226:D:/Git/VL53L1/lib/core/src\vl53l1_api_calibration.c **** 				comms_buffer[3];
 998              		.loc 1 226 52 view .LVU413
 999 0068 84F84520 		strb	r2, [r4, #69]
 228:D:/Git/VL53L1/lib/core/src\vl53l1_api_calibration.c **** 				comms_buffer[4];
 1000              		.loc 1 228 3 is_stmt 1 view .LVU414
 229:D:/Git/VL53L1/lib/core/src\vl53l1_api_calibration.c **** 		pdev->customer.global_config__spad_enables_ref_5 =
 1001              		.loc 1 229 17 is_stmt 0 view .LVU415
 1002 006c 9DF81420 		ldrb	r2, [sp, #20]	@ zero_extendqisi2
 228:D:/Git/VL53L1/lib/core/src\vl53l1_api_calibration.c **** 				comms_buffer[4];
 1003              		.loc 1 228 52 view .LVU416
 1004 0070 84F84620 		strb	r2, [r4, #70]
 230:D:/Git/VL53L1/lib/core/src\vl53l1_api_calibration.c **** 				comms_buffer[5];
 1005              		.loc 1 230 3 is_stmt 1 view .LVU417
 231:D:/Git/VL53L1/lib/core/src\vl53l1_api_calibration.c **** 	}
 1006              		.loc 1 231 17 is_stmt 0 view .LVU418
 1007 0074 9DF81520 		ldrb	r2, [sp, #21]	@ zero_extendqisi2
 230:D:/Git/VL53L1/lib/core/src\vl53l1_api_calibration.c **** 				comms_buffer[5];
 1008              		.loc 1 230 52 view .LVU419
 1009 0078 84F84720 		strb	r2, [r4, #71]
 1010              	.L76:
 243:D:/Git/VL53L1/lib/core/src\vl53l1_api_calibration.c **** 
 1011              		.loc 1 243 2 is_stmt 1 view .LVU420
 243:D:/Git/VL53L1/lib/core/src\vl53l1_api_calibration.c **** 
 1012              		.loc 1 243 5 is_stmt 0 view .LVU421
 1013 007c 3BB9     		cbnz	r3, .L77
 245:D:/Git/VL53L1/lib/core/src\vl53l1_api_calibration.c **** 
 1014              		.loc 1 245 3 is_stmt 1 view .LVU422
 245:D:/Git/VL53L1/lib/core/src\vl53l1_api_calibration.c **** 
 1015              		.loc 1 245 28 is_stmt 0 view .LVU423
 1016 007e 94F8CF21 		ldrb	r2, [r4, #463]	@ zero_extendqisi2
 245:D:/Git/VL53L1/lib/core/src\vl53l1_api_calibration.c **** 
 1017              		.loc 1 245 3 view .LVU424
 1018 0082 0F2A     		cmp	r2, #15
 1019 0084 42D0     		beq	.L78
 1020 0086 102A     		cmp	r2, #16
 1021 0088 43D0     		beq	.L79
 1022 008a 0E2A     		cmp	r2, #14
 1023 008c 44D0     		beq	.L88
 1024              	.LVL75:
 1025              	.L77:
 265:D:/Git/VL53L1/lib/core/src\vl53l1_api_calibration.c **** 
 1026              		.loc 1 265 2 is_stmt 1 view .LVU425
 265:D:/Git/VL53L1/lib/core/src\vl53l1_api_calibration.c **** 
 1027              		.loc 1 265 15 is_stmt 0 view .LVU426
ARM GAS  C:\Users\Berbardo\AppData\Local\Temp\ccNyfDs0.s 			page 38


 1028 008e 2B70     		strb	r3, [r5]
 269:D:/Git/VL53L1/lib/core/src\vl53l1_api_calibration.c **** 		IGNORE_REF_SPAD_CHAR_NOT_ENOUGH_SPADS,
 1029              		.loc 1 269 2 is_stmt 1 view .LVU427
 269:D:/Git/VL53L1/lib/core/src\vl53l1_api_calibration.c **** 		IGNORE_REF_SPAD_CHAR_NOT_ENOUGH_SPADS,
 1030              		.loc 1 269 2 view .LVU428
 269:D:/Git/VL53L1/lib/core/src\vl53l1_api_calibration.c **** 		IGNORE_REF_SPAD_CHAR_NOT_ENOUGH_SPADS,
 1031              		.loc 1 269 2 view .LVU429
 269:D:/Git/VL53L1/lib/core/src\vl53l1_api_calibration.c **** 		IGNORE_REF_SPAD_CHAR_NOT_ENOUGH_SPADS,
 1032              		.loc 1 269 2 view .LVU430
 269:D:/Git/VL53L1/lib/core/src\vl53l1_api_calibration.c **** 		IGNORE_REF_SPAD_CHAR_NOT_ENOUGH_SPADS,
 1033              		.loc 1 269 2 view .LVU431
 269:D:/Git/VL53L1/lib/core/src\vl53l1_api_calibration.c **** 		IGNORE_REF_SPAD_CHAR_NOT_ENOUGH_SPADS,
 1034              		.loc 1 269 2 view .LVU432
 274:D:/Git/VL53L1/lib/core/src\vl53l1_api_calibration.c **** 		IGNORE_REF_SPAD_CHAR_RATE_TOO_HIGH,
 1035              		.loc 1 274 2 view .LVU433
 274:D:/Git/VL53L1/lib/core/src\vl53l1_api_calibration.c **** 		IGNORE_REF_SPAD_CHAR_RATE_TOO_HIGH,
 1036              		.loc 1 274 2 view .LVU434
 274:D:/Git/VL53L1/lib/core/src\vl53l1_api_calibration.c **** 		IGNORE_REF_SPAD_CHAR_RATE_TOO_HIGH,
 1037              		.loc 1 274 2 view .LVU435
 274:D:/Git/VL53L1/lib/core/src\vl53l1_api_calibration.c **** 		IGNORE_REF_SPAD_CHAR_RATE_TOO_HIGH,
 1038              		.loc 1 274 2 view .LVU436
 274:D:/Git/VL53L1/lib/core/src\vl53l1_api_calibration.c **** 		IGNORE_REF_SPAD_CHAR_RATE_TOO_HIGH,
 1039              		.loc 1 274 2 view .LVU437
 274:D:/Git/VL53L1/lib/core/src\vl53l1_api_calibration.c **** 		IGNORE_REF_SPAD_CHAR_RATE_TOO_HIGH,
 1040              		.loc 1 274 2 view .LVU438
 279:D:/Git/VL53L1/lib/core/src\vl53l1_api_calibration.c **** 		IGNORE_REF_SPAD_CHAR_RATE_TOO_LOW,
 1041              		.loc 1 279 2 view .LVU439
 279:D:/Git/VL53L1/lib/core/src\vl53l1_api_calibration.c **** 		IGNORE_REF_SPAD_CHAR_RATE_TOO_LOW,
 1042              		.loc 1 279 2 view .LVU440
 279:D:/Git/VL53L1/lib/core/src\vl53l1_api_calibration.c **** 		IGNORE_REF_SPAD_CHAR_RATE_TOO_LOW,
 1043              		.loc 1 279 2 view .LVU441
 279:D:/Git/VL53L1/lib/core/src\vl53l1_api_calibration.c **** 		IGNORE_REF_SPAD_CHAR_RATE_TOO_LOW,
 1044              		.loc 1 279 2 view .LVU442
 279:D:/Git/VL53L1/lib/core/src\vl53l1_api_calibration.c **** 		IGNORE_REF_SPAD_CHAR_RATE_TOO_LOW,
 1045              		.loc 1 279 2 view .LVU443
 279:D:/Git/VL53L1/lib/core/src\vl53l1_api_calibration.c **** 		IGNORE_REF_SPAD_CHAR_RATE_TOO_LOW,
 1046              		.loc 1 279 2 view .LVU444
 285:D:/Git/VL53L1/lib/core/src\vl53l1_api_calibration.c **** 
 1047              		.loc 1 285 26 view .LVU445
 287:D:/Git/VL53L1/lib/core/src\vl53l1_api_calibration.c **** }
 1048              		.loc 1 287 2 view .LVU446
 288:D:/Git/VL53L1/lib/core/src\vl53l1_api_calibration.c **** 
 1049              		.loc 1 288 1 is_stmt 0 view .LVU447
 1050 0090 1846     		mov	r0, r3
 1051 0092 07B0     		add	sp, sp, #28
 1052              		.cfi_remember_state
 1053              		.cfi_def_cfa_offset 12
 1054              		@ sp needed
 1055 0094 30BD     		pop	{r4, r5, pc}
 1056              	.LVL76:
 1057              	.L82:
 1058              		.cfi_restore_state
 133:D:/Git/VL53L1/lib/core/src\vl53l1_api_calibration.c **** 			VL53L1_set_ref_spad_char_config(
 1059              		.loc 1 133 3 is_stmt 1 view .LVU448
 134:D:/Git/VL53L1/lib/core/src\vl53l1_api_calibration.c **** 				Dev,
 1060              		.loc 1 134 4 is_stmt 0 view .LVU449
 1061 0096 B4F85E31 		ldrh	r3, [r4, #350]
ARM GAS  C:\Users\Berbardo\AppData\Local\Temp\ccNyfDs0.s 			page 39


 1062 009a 0293     		str	r3, [sp, #8]
 1063 009c B4F81A31 		ldrh	r3, [r4, #282]
 1064 00a0 0193     		str	r3, [sp, #4]
 1065 00a2 B4F81C31 		ldrh	r3, [r4, #284]
 1066 00a6 0093     		str	r3, [sp]
 1067 00a8 B4F81831 		ldrh	r3, [r4, #280]
 1068 00ac D4F81421 		ldr	r2, [r4, #276]
 1069 00b0 94F81111 		ldrb	r1, [r4, #273]	@ zero_extendqisi2
 1070 00b4 2046     		mov	r0, r4
 1071              	.LVL77:
 134:D:/Git/VL53L1/lib/core/src\vl53l1_api_calibration.c **** 				Dev,
 1072              		.loc 1 134 4 view .LVU450
 1073 00b6 FFF7FEFF 		bl	VL53L1_set_ref_spad_char_config
 1074              	.LVL78:
 1075 00ba 0346     		mov	r3, r0
 1076              	.LVL79:
 134:D:/Git/VL53L1/lib/core/src\vl53l1_api_calibration.c **** 				Dev,
 1077              		.loc 1 134 4 view .LVU451
 1078 00bc A9E7     		b	.L68
 1079              	.L83:
 148:D:/Git/VL53L1/lib/core/src\vl53l1_api_calibration.c **** 					Dev,
 1080              		.loc 1 148 3 is_stmt 1 view .LVU452
 148:D:/Git/VL53L1/lib/core/src\vl53l1_api_calibration.c **** 					Dev,
 1081              		.loc 1 148 12 is_stmt 0 view .LVU453
 1082 00be 94F81011 		ldrb	r1, [r4, #272]	@ zero_extendqisi2
 1083 00c2 2046     		mov	r0, r4
 1084 00c4 FFF7FEFF 		bl	VL53L1_run_device_test
 1085              	.LVL80:
 148:D:/Git/VL53L1/lib/core/src\vl53l1_api_calibration.c **** 					Dev,
 1086              		.loc 1 148 12 view .LVU454
 1087 00c8 0346     		mov	r3, r0
 1088              	.LVL81:
 148:D:/Git/VL53L1/lib/core/src\vl53l1_api_calibration.c **** 					Dev,
 1089              		.loc 1 148 12 view .LVU455
 1090 00ca A4E7     		b	.L69
 1091              	.L84:
 157:D:/Git/VL53L1/lib/core/src\vl53l1_api_calibration.c **** 			VL53L1_ReadMulti(
 1092              		.loc 1 157 3 is_stmt 1 view .LVU456
 158:D:/Git/VL53L1/lib/core/src\vl53l1_api_calibration.c **** 				Dev,
 1093              		.loc 1 158 4 is_stmt 0 view .LVU457
 1094 00cc 0223     		movs	r3, #2
 1095              	.LVL82:
 158:D:/Git/VL53L1/lib/core/src\vl53l1_api_calibration.c **** 				Dev,
 1096              		.loc 1 158 4 view .LVU458
 1097 00ce 04AA     		add	r2, sp, #16
 1098 00d0 D921     		movs	r1, #217
 1099 00d2 2046     		mov	r0, r4
 1100 00d4 FFF7FEFF 		bl	VL53L1_ReadMulti
 1101              	.LVL83:
 1102 00d8 0346     		mov	r3, r0
 1103              	.LVL84:
 158:D:/Git/VL53L1/lib/core/src\vl53l1_api_calibration.c **** 				Dev,
 1104              		.loc 1 158 4 view .LVU459
 1105 00da 9EE7     		b	.L70
 1106              	.L85:
 176:D:/Git/VL53L1/lib/core/src\vl53l1_api_calibration.c **** 			VL53L1_WriteMulti(
 1107              		.loc 1 176 3 is_stmt 1 view .LVU460
ARM GAS  C:\Users\Berbardo\AppData\Local\Temp\ccNyfDs0.s 			page 40


 177:D:/Git/VL53L1/lib/core/src\vl53l1_api_calibration.c **** 				Dev,
 1108              		.loc 1 177 4 is_stmt 0 view .LVU461
 1109 00dc 0223     		movs	r3, #2
 1110              	.LVL85:
 177:D:/Git/VL53L1/lib/core/src\vl53l1_api_calibration.c **** 				Dev,
 1111              		.loc 1 177 4 view .LVU462
 1112 00de 04AA     		add	r2, sp, #16
 1113 00e0 1421     		movs	r1, #20
 1114 00e2 2046     		mov	r0, r4
 1115 00e4 FFF7FEFF 		bl	VL53L1_WriteMulti
 1116              	.LVL86:
 1117 00e8 0346     		mov	r3, r0
 1118              	.LVL87:
 177:D:/Git/VL53L1/lib/core/src\vl53l1_api_calibration.c **** 				Dev,
 1119              		.loc 1 177 4 view .LVU463
 1120 00ea A1E7     		b	.L72
 1121              	.L86:
 199:D:/Git/VL53L1/lib/core/src\vl53l1_api_calibration.c **** 			VL53L1_ReadMulti(
 1122              		.loc 1 199 3 is_stmt 1 view .LVU464
 200:D:/Git/VL53L1/lib/core/src\vl53l1_api_calibration.c **** 				Dev,
 1123              		.loc 1 200 4 is_stmt 0 view .LVU465
 1124 00ec 0623     		movs	r3, #6
 1125              	.LVL88:
 200:D:/Git/VL53L1/lib/core/src\vl53l1_api_calibration.c **** 				Dev,
 1126              		.loc 1 200 4 view .LVU466
 1127 00ee 04AA     		add	r2, sp, #16
 1128 00f0 AC21     		movs	r1, #172
 1129 00f2 2046     		mov	r0, r4
 1130 00f4 FFF7FEFF 		bl	VL53L1_ReadMulti
 1131              	.LVL89:
 1132 00f8 0346     		mov	r3, r0
 1133              	.LVL90:
 200:D:/Git/VL53L1/lib/core/src\vl53l1_api_calibration.c **** 				Dev,
 1134              		.loc 1 200 4 view .LVU467
 1135 00fa A4E7     		b	.L74
 1136              	.L87:
 212:D:/Git/VL53L1/lib/core/src\vl53l1_api_calibration.c **** 			VL53L1_WriteMulti(
 1137              		.loc 1 212 3 is_stmt 1 view .LVU468
 213:D:/Git/VL53L1/lib/core/src\vl53l1_api_calibration.c **** 				Dev,
 1138              		.loc 1 213 4 is_stmt 0 view .LVU469
 1139 00fc 0623     		movs	r3, #6
 1140              	.LVL91:
 213:D:/Git/VL53L1/lib/core/src\vl53l1_api_calibration.c **** 				Dev,
 1141              		.loc 1 213 4 view .LVU470
 1142 00fe 04AA     		add	r2, sp, #16
 1143 0100 0D21     		movs	r1, #13
 1144 0102 2046     		mov	r0, r4
 1145 0104 FFF7FEFF 		bl	VL53L1_WriteMulti
 1146              	.LVL92:
 1147 0108 0346     		mov	r3, r0
 1148              	.LVL93:
 213:D:/Git/VL53L1/lib/core/src\vl53l1_api_calibration.c **** 				Dev,
 1149              		.loc 1 213 4 view .LVU471
 1150 010a 9EE7     		b	.L75
 1151              	.L78:
 252:D:/Git/VL53L1/lib/core/src\vl53l1_api_calibration.c **** 			break;
 1152              		.loc 1 252 11 view .LVU472
ARM GAS  C:\Users\Berbardo\AppData\Local\Temp\ccNyfDs0.s 			page 41


 1153 010c 6FF01C03 		mvn	r3, #28
 1154              	.LVL94:
 252:D:/Git/VL53L1/lib/core/src\vl53l1_api_calibration.c **** 			break;
 1155              		.loc 1 252 11 view .LVU473
 1156 0110 BDE7     		b	.L77
 1157              	.LVL95:
 1158              	.L79:
 256:D:/Git/VL53L1/lib/core/src\vl53l1_api_calibration.c **** 			break;
 1159              		.loc 1 256 11 view .LVU474
 1160 0112 6FF01D03 		mvn	r3, #29
 1161              	.LVL96:
 256:D:/Git/VL53L1/lib/core/src\vl53l1_api_calibration.c **** 			break;
 1162              		.loc 1 256 11 view .LVU475
 1163 0116 BAE7     		b	.L77
 1164              	.LVL97:
 1165              	.L88:
 248:D:/Git/VL53L1/lib/core/src\vl53l1_api_calibration.c **** 			break;
 1166              		.loc 1 248 11 view .LVU476
 1167 0118 6FF01B03 		mvn	r3, #27
 1168              	.LVL98:
 248:D:/Git/VL53L1/lib/core/src\vl53l1_api_calibration.c **** 			break;
 1169              		.loc 1 248 11 view .LVU477
 1170 011c B7E7     		b	.L77
 1171              		.cfi_endproc
 1172              	.LFE126:
 1174              		.section	.text.VL53L1_run_spad_rate_map,"ax",%progbits
 1175              		.align	1
 1176              		.global	VL53L1_run_spad_rate_map
 1177              		.syntax unified
 1178              		.thumb
 1179              		.thumb_func
 1180              		.fpu fpv4-sp-d16
 1182              	VL53L1_run_spad_rate_map:
 1183              	.LVL99:
 1184              	.LFB128:
 693:D:/Git/VL53L1/lib/core/src\vl53l1_api_calibration.c **** 
 1185              		.loc 1 693 1 is_stmt 1 view -0
 1186              		.cfi_startproc
 1187              		@ args = 4, pretend = 0, frame = 0
 1188              		@ frame_needed = 0, uses_anonymous_args = 0
 693:D:/Git/VL53L1/lib/core/src\vl53l1_api_calibration.c **** 
 1189              		.loc 1 693 1 is_stmt 0 view .LVU479
 1190 0000 2DE9F041 		push	{r4, r5, r6, r7, r8, lr}
 1191              		.cfi_def_cfa_offset 24
 1192              		.cfi_offset 4, -24
 1193              		.cfi_offset 5, -20
 1194              		.cfi_offset 6, -16
 1195              		.cfi_offset 7, -12
 1196              		.cfi_offset 8, -8
 1197              		.cfi_offset 14, -4
 1198 0004 0446     		mov	r4, r0
 1199 0006 0E46     		mov	r6, r1
 1200 0008 9046     		mov	r8, r2
 1201 000a 1F46     		mov	r7, r3
 1202 000c 069D     		ldr	r5, [sp, #24]
 699:D:/Git/VL53L1/lib/core/src\vl53l1_api_calibration.c **** 
 1203              		.loc 1 699 2 is_stmt 1 view .LVU480
ARM GAS  C:\Users\Berbardo\AppData\Local\Temp\ccNyfDs0.s 			page 42


 1204              	.LVL100:
 701:D:/Git/VL53L1/lib/core/src\vl53l1_api_calibration.c **** 		VL53L1DevStructGetLLDriverHandle(Dev);
 1205              		.loc 1 701 2 view .LVU481
 704:D:/Git/VL53L1/lib/core/src\vl53l1_api_calibration.c **** 
 1206              		.loc 1 704 24 view .LVU482
 709:D:/Git/VL53L1/lib/core/src\vl53l1_api_calibration.c **** 		status = VL53L1_enable_powerforce(Dev);
 1207              		.loc 1 709 2 view .LVU483
 710:D:/Git/VL53L1/lib/core/src\vl53l1_api_calibration.c **** 
 1208              		.loc 1 710 3 view .LVU484
 710:D:/Git/VL53L1/lib/core/src\vl53l1_api_calibration.c **** 
 1209              		.loc 1 710 12 is_stmt 0 view .LVU485
 1210 000e FFF7FEFF 		bl	VL53L1_enable_powerforce
 1211              	.LVL101:
 716:D:/Git/VL53L1/lib/core/src\vl53l1_api_calibration.c **** 		pdev->ssc_cfg.array_select = array_select;
 1212              		.loc 1 716 2 is_stmt 1 view .LVU486
 716:D:/Git/VL53L1/lib/core/src\vl53l1_api_calibration.c **** 		pdev->ssc_cfg.array_select = array_select;
 1213              		.loc 1 716 5 is_stmt 0 view .LVU487
 1214 0012 0346     		mov	r3, r0
 1215 0014 50B1     		cbz	r0, .L97
 1216              	.LVL102:
 1217              	.L90:
 730:D:/Git/VL53L1/lib/core/src\vl53l1_api_calibration.c **** 		status =
 1218              		.loc 1 730 2 is_stmt 1 view .LVU488
 730:D:/Git/VL53L1/lib/core/src\vl53l1_api_calibration.c **** 		status =
 1219              		.loc 1 730 5 is_stmt 0 view .LVU489
 1220 0016 B3B1     		cbz	r3, .L98
 1221              	.L91:
 740:D:/Git/VL53L1/lib/core/src\vl53l1_api_calibration.c **** 		status =
 1222              		.loc 1 740 5 is_stmt 1 view .LVU490
 740:D:/Git/VL53L1/lib/core/src\vl53l1_api_calibration.c **** 		status =
 1223              		.loc 1 740 8 is_stmt 0 view .LVU491
 1224 0018 DBB1     		cbz	r3, .L99
 1225              	.L92:
 746:D:/Git/VL53L1/lib/core/src\vl53l1_api_calibration.c **** 		pspad_rate_data->fractional_bits =  7;
 1226              		.loc 1 746 2 is_stmt 1 view .LVU492
 746:D:/Git/VL53L1/lib/core/src\vl53l1_api_calibration.c **** 		pspad_rate_data->fractional_bits =  7;
 1227              		.loc 1 746 5 is_stmt 0 view .LVU493
 1228 001a 062E     		cmp	r6, #6
 1229 001c 1FD0     		beq	.L100
 749:D:/Git/VL53L1/lib/core/src\vl53l1_api_calibration.c **** 
 1230              		.loc 1 749 3 is_stmt 1 view .LVU494
 749:D:/Git/VL53L1/lib/core/src\vl53l1_api_calibration.c **** 
 1231              		.loc 1 749 36 is_stmt 0 view .LVU495
 1232 001e 0F22     		movs	r2, #15
 1233 0020 85F80622 		strb	r2, [r5, #518]
 1234              	.L94:
 753:D:/Git/VL53L1/lib/core/src\vl53l1_api_calibration.c **** 		status = VL53L1_disable_powerforce(Dev);
 1235              		.loc 1 753 2 is_stmt 1 view .LVU496
 753:D:/Git/VL53L1/lib/core/src\vl53l1_api_calibration.c **** 		status = VL53L1_disable_powerforce(Dev);
 1236              		.loc 1 753 5 is_stmt 0 view .LVU497
 1237 0024 FBB1     		cbz	r3, .L101
 1238              	.L95:
 771:D:/Git/VL53L1/lib/core/src\vl53l1_api_calibration.c **** 
 1239              		.loc 1 771 26 is_stmt 1 view .LVU498
 773:D:/Git/VL53L1/lib/core/src\vl53l1_api_calibration.c **** }
 1240              		.loc 1 773 2 view .LVU499
 774:D:/Git/VL53L1/lib/core/src\vl53l1_api_calibration.c **** #endif
ARM GAS  C:\Users\Berbardo\AppData\Local\Temp\ccNyfDs0.s 			page 43


 1241              		.loc 1 774 1 is_stmt 0 view .LVU500
 1242 0026 1846     		mov	r0, r3
 1243 0028 BDE8F081 		pop	{r4, r5, r6, r7, r8, pc}
 1244              	.LVL103:
 1245              	.L97:
 717:D:/Git/VL53L1/lib/core/src\vl53l1_api_calibration.c **** 		pdev->ssc_cfg.timeout_us   = ssc_config_timeout_us;
 1246              		.loc 1 717 3 is_stmt 1 view .LVU501
 717:D:/Git/VL53L1/lib/core/src\vl53l1_api_calibration.c **** 		pdev->ssc_cfg.timeout_us   = ssc_config_timeout_us;
 1247              		.loc 1 717 30 is_stmt 0 view .LVU502
 1248 002c 84F82081 		strb	r8, [r4, #288]
 718:D:/Git/VL53L1/lib/core/src\vl53l1_api_calibration.c **** 		status =
 1249              		.loc 1 718 3 is_stmt 1 view .LVU503
 718:D:/Git/VL53L1/lib/core/src\vl53l1_api_calibration.c **** 		status =
 1250              		.loc 1 718 30 is_stmt 0 view .LVU504
 1251 0030 C4F82471 		str	r7, [r4, #292]
 719:D:/Git/VL53L1/lib/core/src\vl53l1_api_calibration.c **** 			VL53L1_set_ssc_config(
 1252              		.loc 1 719 3 is_stmt 1 view .LVU505
 720:D:/Git/VL53L1/lib/core/src\vl53l1_api_calibration.c **** 				Dev,
 1253              		.loc 1 720 4 is_stmt 0 view .LVU506
 1254 0034 B4F85E21 		ldrh	r2, [r4, #350]
 1255 0038 04F59071 		add	r1, r4, #288
 1256 003c 2046     		mov	r0, r4
 1257              	.LVL104:
 720:D:/Git/VL53L1/lib/core/src\vl53l1_api_calibration.c **** 				Dev,
 1258              		.loc 1 720 4 view .LVU507
 1259 003e FFF7FEFF 		bl	VL53L1_set_ssc_config
 1260              	.LVL105:
 1261 0042 0346     		mov	r3, r0
 1262              	.LVL106:
 720:D:/Git/VL53L1/lib/core/src\vl53l1_api_calibration.c **** 				Dev,
 1263              		.loc 1 720 4 view .LVU508
 1264 0044 E7E7     		b	.L90
 1265              	.L98:
 731:D:/Git/VL53L1/lib/core/src\vl53l1_api_calibration.c **** 			VL53L1_run_device_test(
 1266              		.loc 1 731 3 is_stmt 1 view .LVU509
 732:D:/Git/VL53L1/lib/core/src\vl53l1_api_calibration.c **** 				Dev,
 1267              		.loc 1 732 4 is_stmt 0 view .LVU510
 1268 0046 3146     		mov	r1, r6
 1269 0048 2046     		mov	r0, r4
 1270 004a FFF7FEFF 		bl	VL53L1_run_device_test
 1271              	.LVL107:
 732:D:/Git/VL53L1/lib/core/src\vl53l1_api_calibration.c **** 				Dev,
 1272              		.loc 1 732 4 view .LVU511
 1273 004e 0346     		mov	r3, r0
 1274              	.LVL108:
 732:D:/Git/VL53L1/lib/core/src\vl53l1_api_calibration.c **** 				Dev,
 1275              		.loc 1 732 4 view .LVU512
 1276 0050 E2E7     		b	.L91
 1277              	.L99:
 741:D:/Git/VL53L1/lib/core/src\vl53l1_api_calibration.c **** 			VL53L1_get_spad_rate_data(
 1278              		.loc 1 741 3 is_stmt 1 view .LVU513
 742:D:/Git/VL53L1/lib/core/src\vl53l1_api_calibration.c **** 				Dev,
 1279              		.loc 1 742 4 is_stmt 0 view .LVU514
 1280 0052 2946     		mov	r1, r5
 1281 0054 2046     		mov	r0, r4
 1282 0056 FFF7FEFF 		bl	VL53L1_get_spad_rate_data
 1283              	.LVL109:
ARM GAS  C:\Users\Berbardo\AppData\Local\Temp\ccNyfDs0.s 			page 44


 742:D:/Git/VL53L1/lib/core/src\vl53l1_api_calibration.c **** 				Dev,
 1284              		.loc 1 742 4 view .LVU515
 1285 005a 0346     		mov	r3, r0
 1286              	.LVL110:
 742:D:/Git/VL53L1/lib/core/src\vl53l1_api_calibration.c **** 				Dev,
 1287              		.loc 1 742 4 view .LVU516
 1288 005c DDE7     		b	.L92
 1289              	.L100:
 747:D:/Git/VL53L1/lib/core/src\vl53l1_api_calibration.c **** 	else
 1290              		.loc 1 747 3 is_stmt 1 view .LVU517
 747:D:/Git/VL53L1/lib/core/src\vl53l1_api_calibration.c **** 	else
 1291              		.loc 1 747 36 is_stmt 0 view .LVU518
 1292 005e 0722     		movs	r2, #7
 1293 0060 85F80622 		strb	r2, [r5, #518]
 1294 0064 DEE7     		b	.L94
 1295              	.L101:
 754:D:/Git/VL53L1/lib/core/src\vl53l1_api_calibration.c **** 
 1296              		.loc 1 754 3 is_stmt 1 view .LVU519
 754:D:/Git/VL53L1/lib/core/src\vl53l1_api_calibration.c **** 
 1297              		.loc 1 754 12 is_stmt 0 view .LVU520
 1298 0066 2046     		mov	r0, r4
 1299 0068 FFF7FEFF 		bl	VL53L1_disable_powerforce
 1300              	.LVL111:
 754:D:/Git/VL53L1/lib/core/src\vl53l1_api_calibration.c **** 
 1301              		.loc 1 754 12 view .LVU521
 1302 006c 0346     		mov	r3, r0
 1303              	.LVL112:
 754:D:/Git/VL53L1/lib/core/src\vl53l1_api_calibration.c **** 
 1304              		.loc 1 754 12 view .LVU522
 1305 006e DAE7     		b	.L95
 1306              		.cfi_endproc
 1307              	.LFE128:
 1309              		.text
 1310              	.Letext0:
 1311              		.file 2 "c:\\program files (x86)\\gnu tools arm embedded\\8 2019-q3-update\\arm-none-eabi\\include
 1312              		.file 3 "c:\\program files (x86)\\gnu tools arm embedded\\8 2019-q3-update\\arm-none-eabi\\include
 1313              		.file 4 "c:\\program files (x86)\\gnu tools arm embedded\\8 2019-q3-update\\lib\\gcc\\arm-none-eab
 1314              		.file 5 "c:\\program files (x86)\\gnu tools arm embedded\\8 2019-q3-update\\arm-none-eabi\\include
 1315              		.file 6 "c:\\program files (x86)\\gnu tools arm embedded\\8 2019-q3-update\\arm-none-eabi\\include
 1316              		.file 7 "c:\\program files (x86)\\gnu tools arm embedded\\8 2019-q3-update\\arm-none-eabi\\include
 1317              		.file 8 "D:/Git/VL53L1/lib/platform/inc/vl53l1_types.h"
 1318              		.file 9 "D:/Git/VL53L1/lib/core/inc/vl53l1_ll_device.h"
 1319              		.file 10 "D:/Git/VL53L1/lib/core/inc/vl53l1_error_codes.h"
 1320              		.file 11 "D:/Git/VL53L1/lib/core/inc/vl53l1_register_structs.h"
 1321              		.file 12 "D:/Git/VL53L1/lib/core/inc/vl53l1_ll_def.h"
 1322              		.file 13 "cube/Drivers/CMSIS/Include/core_cm4.h"
 1323              		.file 14 "cube/Drivers/CMSIS/Device/ST/STM32F3xx/Include/system_stm32f3xx.h"
 1324              		.file 15 "cube/Drivers/CMSIS/Device/ST/STM32F3xx/Include/stm32f303xe.h"
 1325              		.file 16 "cube/Drivers/STM32F3xx_HAL_Driver/Inc/stm32f3xx_hal_def.h"
 1326              		.file 17 "cube/Drivers/STM32F3xx_HAL_Driver/Inc/stm32f3xx_hal_dma.h"
 1327              		.file 18 "cube/Drivers/STM32F3xx_HAL_Driver/Inc/stm32f3xx_hal_i2c.h"
 1328              		.file 19 "cube/Drivers/STM32F3xx_HAL_Driver/Inc/stm32f3xx_hal.h"
 1329              		.file 20 "D:/Git/VL53L1/lib/core/inc/vl53l1_def.h"
 1330              		.file 21 "D:/Git/VL53L1/lib/platform/inc/vl53l1_platform_user_data.h"
 1331              		.file 22 "D:/Git/VL53L1/lib/platform/inc/vl53l1_platform.h"
 1332              		.file 23 "D:/Git/VL53L1/lib/core/inc/vl53l1_core.h"
 1333              		.file 24 "D:/Git/VL53L1/lib/core/inc/vl53l1_wait.h"
ARM GAS  C:\Users\Berbardo\AppData\Local\Temp\ccNyfDs0.s 			page 45


 1334              		.file 25 "D:/Git/VL53L1/lib/core/inc/vl53l1_api_core.h"
 1335              		.file 26 "D:/Git/VL53L1/lib/core/inc/vl53l1_register_funcs.h"
ARM GAS  C:\Users\Berbardo\AppData\Local\Temp\ccNyfDs0.s 			page 46

