ARM GAS  C:\Users\Berbardo\AppData\Local\Temp\cclJowlg.s 			page 1


   1              		.cpu cortex-m4
   2              		.eabi_attribute 27, 1
   3              		.eabi_attribute 28, 1
   4              		.eabi_attribute 20, 1
   5              		.eabi_attribute 21, 1
   6              		.eabi_attribute 23, 3
   7              		.eabi_attribute 24, 1
   8              		.eabi_attribute 25, 1
   9              		.eabi_attribute 26, 1
  10              		.eabi_attribute 30, 1
  11              		.eabi_attribute 34, 1
  12              		.eabi_attribute 18, 4
  13              		.file	"vl53l1.c"
  14              		.text
  15              	.Ltext0:
  16              		.cfi_sections	.debug_frame
  17              		.section	.text.vl53l1_init,"ax",%progbits
  18              		.align	1
  19              		.global	vl53l1_init
  20              		.arch armv7e-m
  21              		.syntax unified
  22              		.thumb
  23              		.thumb_func
  24              		.fpu fpv4-sp-d16
  26              	vl53l1_init:
  27              	.LVL0:
  28              	.LFB126:
  29              		.file 1 "D:/Git/VL53L1/lib/src/vl53l1.c"
   1:D:/Git/VL53L1/lib/src\vl53l1.c **** /**
   2:D:/Git/VL53L1/lib/src\vl53l1.c ****  * @file vl53l1.c
   3:D:/Git/VL53L1/lib/src\vl53l1.c ****  *
   4:D:/Git/VL53L1/lib/src\vl53l1.c ****  * @brief User functions to deal with ST's VL53L1 API
   5:D:/Git/VL53L1/lib/src\vl53l1.c ****  *
   6:D:/Git/VL53L1/lib/src\vl53l1.c ****  * @author Lucas Schneider <lucas.schneider@thunderatz.org>
   7:D:/Git/VL53L1/lib/src\vl53l1.c ****  * @author Bernardo Coutinho <bernardo.coutinho@thunderatz.org>
   8:D:/Git/VL53L1/lib/src\vl53l1.c ****  *
   9:D:/Git/VL53L1/lib/src\vl53l1.c ****  * @date 10/2019
  10:D:/Git/VL53L1/lib/src\vl53l1.c ****  */
  11:D:/Git/VL53L1/lib/src\vl53l1.c **** 
  12:D:/Git/VL53L1/lib/src\vl53l1.c **** #include "vl53l1.h"
  13:D:/Git/VL53L1/lib/src\vl53l1.c **** #include "gpio.h"
  14:D:/Git/VL53L1/lib/src\vl53l1.c **** 
  15:D:/Git/VL53L1/lib/src\vl53l1.c **** /*****************************************
  16:D:/Git/VL53L1/lib/src\vl53l1.c ****  * Private Macro
  17:D:/Git/VL53L1/lib/src\vl53l1.c ****  *****************************************/
  18:D:/Git/VL53L1/lib/src\vl53l1.c **** 
  19:D:/Git/VL53L1/lib/src\vl53l1.c **** /**
  20:D:/Git/VL53L1/lib/src\vl53l1.c ****  * @brief Returns minimum value between x and y.
  21:D:/Git/VL53L1/lib/src\vl53l1.c ****  */
  22:D:/Git/VL53L1/lib/src\vl53l1.c **** #define min(x, y) ((x) < (y) ? (x) : (y))
  23:D:/Git/VL53L1/lib/src\vl53l1.c **** 
  24:D:/Git/VL53L1/lib/src\vl53l1.c **** /*****************************************
  25:D:/Git/VL53L1/lib/src\vl53l1.c ****  * Private Constants
  26:D:/Git/VL53L1/lib/src\vl53l1.c ****  *****************************************/
  27:D:/Git/VL53L1/lib/src\vl53l1.c **** 
  28:D:/Git/VL53L1/lib/src\vl53l1.c **** #define DISTANCEMODE VL53L1_DISTANCEMODE_MEDIUM
  29:D:/Git/VL53L1/lib/src\vl53l1.c **** #define SIGMA_LIMIT_VALUE_MM 18
ARM GAS  C:\Users\Berbardo\AppData\Local\Temp\cclJowlg.s 			page 2


  30:D:/Git/VL53L1/lib/src\vl53l1.c **** #define SIGNAL_RATE_LIMIT_VALUE_MCPS 0.25
  31:D:/Git/VL53L1/lib/src\vl53l1.c **** #define MEASUREMENT_TIME_BUDGET_US 50000
  32:D:/Git/VL53L1/lib/src\vl53l1.c **** 
  33:D:/Git/VL53L1/lib/src\vl53l1.c **** /**
  34:D:/Git/VL53L1/lib/src\vl53l1.c ****  * @brief Filter values, depending on range status
  35:D:/Git/VL53L1/lib/src\vl53l1.c ****  */
  36:D:/Git/VL53L1/lib/src\vl53l1.c **** #define VALID_RANGE_FILTER 0.8
  37:D:/Git/VL53L1/lib/src\vl53l1.c **** #define SIGMA_FAIL_FILTER 0.2
  38:D:/Git/VL53L1/lib/src\vl53l1.c **** #define DAFAULT_FILTER 0.4
  39:D:/Git/VL53L1/lib/src\vl53l1.c **** 
  40:D:/Git/VL53L1/lib/src\vl53l1.c **** /*****************************************
  41:D:/Git/VL53L1/lib/src\vl53l1.c ****  * Public Functions Bodies Definitions
  42:D:/Git/VL53L1/lib/src\vl53l1.c ****  *****************************************/
  43:D:/Git/VL53L1/lib/src\vl53l1.c **** 
  44:D:/Git/VL53L1/lib/src\vl53l1.c **** VL53L1_Error vl53l1_init(VL53L1_Dev_t* p_device, VL53L1_DeviceInfo_t device_info,
  45:D:/Git/VL53L1/lib/src\vl53l1.c ****                            VL53L1_CalibrationData_t* calibration) {
  30              		.loc 1 45 67 view -0
  31              		.cfi_startproc
  32              		@ args = 108, pretend = 16, frame = 0
  33              		@ frame_needed = 0, uses_anonymous_args = 0
  34              		.loc 1 45 67 is_stmt 0 view .LVU1
  35 0000 84B0     		sub	sp, sp, #16
  36              		.cfi_def_cfa_offset 16
  37 0002 38B5     		push	{r3, r4, r5, lr}
  38              		.cfi_def_cfa_offset 32
  39              		.cfi_offset 3, -32
  40              		.cfi_offset 4, -28
  41              		.cfi_offset 5, -24
  42              		.cfi_offset 14, -20
  43 0004 0446     		mov	r4, r0
  44 0006 05AD     		add	r5, sp, #20
  45 0008 85E80E00 		stm	r5, {r1, r2, r3}
  46:D:/Git/VL53L1/lib/src\vl53l1.c ****     VL53L1_Error Status = VL53L1_ERROR_NONE;
  46              		.loc 1 46 5 is_stmt 1 view .LVU2
  47              	.LVL1:
  47:D:/Git/VL53L1/lib/src\vl53l1.c **** 
  48:D:/Git/VL53L1/lib/src\vl53l1.c ****     // Wait Device Booted
  49:D:/Git/VL53L1/lib/src\vl53l1.c ****     VL53L1_WaitDeviceBooted(p_device);
  48              		.loc 1 49 5 view .LVU3
  49 000c FFF7FEFF 		bl	VL53L1_WaitDeviceBooted
  50              	.LVL2:
  50:D:/Git/VL53L1/lib/src\vl53l1.c **** 
  51:D:/Git/VL53L1/lib/src\vl53l1.c ****     // Data initialization
  52:D:/Git/VL53L1/lib/src\vl53l1.c ****     Status = VL53L1_DataInit(p_device);
  51              		.loc 1 52 5 view .LVU4
  52              		.loc 1 52 14 is_stmt 0 view .LVU5
  53 0010 2046     		mov	r0, r4
  54 0012 FFF7FEFF 		bl	VL53L1_DataInit
  55              	.LVL3:
  53:D:/Git/VL53L1/lib/src\vl53l1.c **** 
  54:D:/Git/VL53L1/lib/src\vl53l1.c ****     if (Status == VL53L1_ERROR_NONE) {
  56              		.loc 1 54 5 is_stmt 1 view .LVU6
  57              		.loc 1 54 8 is_stmt 0 view .LVU7
  58 0016 0346     		mov	r3, r0
  59 0018 C0B1     		cbz	r0, .L16
  60              	.L2:
  61              	.LVL4:
ARM GAS  C:\Users\Berbardo\AppData\Local\Temp\cclJowlg.s 			page 3


  55:D:/Git/VL53L1/lib/src\vl53l1.c ****         Status = VL53L1_GetDeviceInfo(p_device, &device_info);
  56:D:/Git/VL53L1/lib/src\vl53l1.c **** 
  57:D:/Git/VL53L1/lib/src\vl53l1.c ****         if (Status == VL53L1_ERROR_NONE) {
  58:D:/Git/VL53L1/lib/src\vl53l1.c ****             if ((device_info.ProductRevisionMinor != 1) && (device_info.ProductRevisionMinor != 1))
  59:D:/Git/VL53L1/lib/src\vl53l1.c ****                 Status = VL53L1_ERROR_NOT_SUPPORTED;
  60:D:/Git/VL53L1/lib/src\vl53l1.c ****             }
  61:D:/Git/VL53L1/lib/src\vl53l1.c ****         }
  62:D:/Git/VL53L1/lib/src\vl53l1.c ****     }
  63:D:/Git/VL53L1/lib/src\vl53l1.c **** 
  64:D:/Git/VL53L1/lib/src\vl53l1.c ****     if (Status == VL53L1_ERROR_NONE) {
  62              		.loc 1 64 5 is_stmt 1 view .LVU8
  63              		.loc 1 64 8 is_stmt 0 view .LVU9
  64 001a 2BB3     		cbz	r3, .L17
  65              	.LVL5:
  66              	.L3:
  65:D:/Git/VL53L1/lib/src\vl53l1.c ****         // Device Initialization
  66:D:/Git/VL53L1/lib/src\vl53l1.c ****         Status = VL53L1_StaticInit(p_device);
  67:D:/Git/VL53L1/lib/src\vl53l1.c ****     }
  68:D:/Git/VL53L1/lib/src\vl53l1.c **** 
  69:D:/Git/VL53L1/lib/src\vl53l1.c ****     if (p_device->calibrated) {
  67              		.loc 1 69 5 is_stmt 1 view .LVU10
  68              		.loc 1 69 17 is_stmt 0 view .LVU11
  69 001c 94F89D23 		ldrb	r2, [r4, #925]	@ zero_extendqisi2
  70              		.loc 1 69 8 view .LVU12
  71 0020 002A     		cmp	r2, #0
  72 0022 2CD0     		beq	.L4
  70:D:/Git/VL53L1/lib/src\vl53l1.c ****         // Load calibration data
  71:D:/Git/VL53L1/lib/src\vl53l1.c ****         if (Status == VL53L1_ERROR_NONE) {
  73              		.loc 1 71 9 is_stmt 1 view .LVU13
  74              		.loc 1 71 12 is_stmt 0 view .LVU14
  75 0024 2BB3     		cbz	r3, .L18
  76              	.L5:
  72:D:/Git/VL53L1/lib/src\vl53l1.c ****             Status = VL53L1_SetCalibrationData(p_device, calibration);
  73:D:/Git/VL53L1/lib/src\vl53l1.c ****         }
  74:D:/Git/VL53L1/lib/src\vl53l1.c **** 
  75:D:/Git/VL53L1/lib/src\vl53l1.c ****     } else {
  76:D:/Git/VL53L1/lib/src\vl53l1.c ****         // Device calibration
  77:D:/Git/VL53L1/lib/src\vl53l1.c ****         if (Status == VL53L1_ERROR_NONE) {
  78:D:/Git/VL53L1/lib/src\vl53l1.c ****             Status = VL53L1_PerformRefSpadManagement(p_device);
  79:D:/Git/VL53L1/lib/src\vl53l1.c ****         }
  80:D:/Git/VL53L1/lib/src\vl53l1.c ****         
  81:D:/Git/VL53L1/lib/src\vl53l1.c ****         // Saving device calibration data
  82:D:/Git/VL53L1/lib/src\vl53l1.c ****         if (Status == VL53L1_ERROR_NONE) {
  83:D:/Git/VL53L1/lib/src\vl53l1.c ****             Status = VL53L1_GetCalibrationData(p_device, calibration);
  84:D:/Git/VL53L1/lib/src\vl53l1.c ****         }
  85:D:/Git/VL53L1/lib/src\vl53l1.c ****     }
  86:D:/Git/VL53L1/lib/src\vl53l1.c **** 
  87:D:/Git/VL53L1/lib/src\vl53l1.c ****     if (Status == VL53L1_ERROR_NONE) {
  77              		.loc 1 87 5 is_stmt 1 view .LVU15
  78              		.loc 1 87 8 is_stmt 0 view .LVU16
  79 0026 002B     		cmp	r3, #0
  80 0028 37D0     		beq	.L19
  81              	.L7:
  88:D:/Git/VL53L1/lib/src\vl53l1.c ****         // Set Distance Mode as Medium
  89:D:/Git/VL53L1/lib/src\vl53l1.c ****         Status = VL53L1_SetDistanceMode(p_device, DISTANCEMODE);
  90:D:/Git/VL53L1/lib/src\vl53l1.c ****     }
  91:D:/Git/VL53L1/lib/src\vl53l1.c **** 
ARM GAS  C:\Users\Berbardo\AppData\Local\Temp\cclJowlg.s 			page 4


  92:D:/Git/VL53L1/lib/src\vl53l1.c ****     // Enable Sigma Signal and Threshold check
  93:D:/Git/VL53L1/lib/src\vl53l1.c ****     if (Status == VL53L1_ERROR_NONE) {
  82              		.loc 1 93 5 is_stmt 1 view .LVU17
  83              		.loc 1 93 8 is_stmt 0 view .LVU18
  84 002a 002B     		cmp	r3, #0
  85 002c 3BD0     		beq	.L20
  86              	.L8:
  94:D:/Git/VL53L1/lib/src\vl53l1.c ****         Status = VL53L1_SetLimitCheckEnable(p_device,
  95:D:/Git/VL53L1/lib/src\vl53l1.c ****                                              VL53L1_CHECKENABLE_SIGMA_FINAL_RANGE, 1);
  96:D:/Git/VL53L1/lib/src\vl53l1.c ****     }
  97:D:/Git/VL53L1/lib/src\vl53l1.c **** 
  98:D:/Git/VL53L1/lib/src\vl53l1.c ****     if (Status == VL53L1_ERROR_NONE) {
  87              		.loc 1 98 5 is_stmt 1 view .LVU19
  88              		.loc 1 98 8 is_stmt 0 view .LVU20
  89 002e 002B     		cmp	r3, #0
  90 0030 40D0     		beq	.L21
  91              	.L9:
  99:D:/Git/VL53L1/lib/src\vl53l1.c ****         Status = VL53L1_SetLimitCheckEnable(p_device,
 100:D:/Git/VL53L1/lib/src\vl53l1.c ****                                              VL53L1_CHECKENABLE_SIGNAL_RATE_FINAL_RANGE, 1);
 101:D:/Git/VL53L1/lib/src\vl53l1.c ****     }
 102:D:/Git/VL53L1/lib/src\vl53l1.c **** 
 103:D:/Git/VL53L1/lib/src\vl53l1.c ****     // Set Values
 104:D:/Git/VL53L1/lib/src\vl53l1.c ****     if (Status == VL53L1_ERROR_NONE) {
  92              		.loc 1 104 5 is_stmt 1 view .LVU21
  93              		.loc 1 104 8 is_stmt 0 view .LVU22
  94 0032 002B     		cmp	r3, #0
  95 0034 45D0     		beq	.L22
  96              	.L10:
 105:D:/Git/VL53L1/lib/src\vl53l1.c ****         // Aumentar Sigma -> Aumenta a range
 106:D:/Git/VL53L1/lib/src\vl53l1.c ****         Status = VL53L1_SetLimitCheckValue(p_device,
 107:D:/Git/VL53L1/lib/src\vl53l1.c ****                                             VL53L1_CHECKENABLE_SIGMA_FINAL_RANGE,
 108:D:/Git/VL53L1/lib/src\vl53l1.c ****                                             (FixPoint1616_t) (SIGMA_LIMIT_VALUE_MM * (1 << 16)));
 109:D:/Git/VL53L1/lib/src\vl53l1.c ****     }
 110:D:/Git/VL53L1/lib/src\vl53l1.c **** 
 111:D:/Git/VL53L1/lib/src\vl53l1.c ****     if (Status == VL53L1_ERROR_NONE) {
  97              		.loc 1 111 5 is_stmt 1 view .LVU23
  98              		.loc 1 111 8 is_stmt 0 view .LVU24
  99 0036 002B     		cmp	r3, #0
 100 0038 4BD0     		beq	.L23
 101              	.L11:
 112:D:/Git/VL53L1/lib/src\vl53l1.c ****         // Diminuir Signal Rate -> Aumenta a range
 113:D:/Git/VL53L1/lib/src\vl53l1.c ****         Status = VL53L1_SetLimitCheckValue(p_device,
 114:D:/Git/VL53L1/lib/src\vl53l1.c ****                                             VL53L1_CHECKENABLE_SIGNAL_RATE_FINAL_RANGE,
 115:D:/Git/VL53L1/lib/src\vl53l1.c ****                                             (FixPoint1616_t) (SIGNAL_RATE_LIMIT_VALUE_MCPS * (1 << 
 116:D:/Git/VL53L1/lib/src\vl53l1.c ****     }
 117:D:/Git/VL53L1/lib/src\vl53l1.c **** 
 118:D:/Git/VL53L1/lib/src\vl53l1.c ****     // VL53L1_UserRoi_t roiConfig;
 119:D:/Git/VL53L1/lib/src\vl53l1.c ****     // roiConfig.TopLeftX = 0;
 120:D:/Git/VL53L1/lib/src\vl53l1.c ****     // roiConfig.TopLeftY = 15;
 121:D:/Git/VL53L1/lib/src\vl53l1.c ****     // roiConfig.BotRightX = 15;
 122:D:/Git/VL53L1/lib/src\vl53l1.c ****     // roiConfig.BotRightY = 0;
 123:D:/Git/VL53L1/lib/src\vl53l1.c ****     // if (Status == VL53L1_ERROR_NONE) {
 124:D:/Git/VL53L1/lib/src\vl53l1.c ****     //     // Set Region of Interest (deixar padrão sla)
 125:D:/Git/VL53L1/lib/src\vl53l1.c ****     //     Status = VL53L1_SetUserROI(p_device, &roiConfig);
 126:D:/Git/VL53L1/lib/src\vl53l1.c ****     // }
 127:D:/Git/VL53L1/lib/src\vl53l1.c **** 
 128:D:/Git/VL53L1/lib/src\vl53l1.c ****     if (Status == VL53L1_ERROR_NONE) {
ARM GAS  C:\Users\Berbardo\AppData\Local\Temp\cclJowlg.s 			page 5


 102              		.loc 1 128 5 is_stmt 1 view .LVU25
 103              		.loc 1 128 8 is_stmt 0 view .LVU26
 104 003a 002B     		cmp	r3, #0
 105 003c 51D0     		beq	.L24
 106              	.L12:
 129:D:/Git/VL53L1/lib/src\vl53l1.c ****         Status = VL53L1_SetMeasurementTimingBudgetMicroSeconds(p_device, MEASUREMENT_TIME_BUDGET_US
 130:D:/Git/VL53L1/lib/src\vl53l1.c ****     }
 131:D:/Git/VL53L1/lib/src\vl53l1.c **** 
 132:D:/Git/VL53L1/lib/src\vl53l1.c ****     // Start reading
 133:D:/Git/VL53L1/lib/src\vl53l1.c ****     if (Status == VL53L1_ERROR_NONE) {
 107              		.loc 1 133 5 is_stmt 1 view .LVU27
 108              		.loc 1 133 8 is_stmt 0 view .LVU28
 109 003e 002B     		cmp	r3, #0
 110 0040 56D0     		beq	.L25
 111              	.L13:
 134:D:/Git/VL53L1/lib/src\vl53l1.c ****         Status = VL53L1_StartMeasurement(p_device);
 135:D:/Git/VL53L1/lib/src\vl53l1.c ****     }
 136:D:/Git/VL53L1/lib/src\vl53l1.c **** 
 137:D:/Git/VL53L1/lib/src\vl53l1.c ****     return Status;
 112              		.loc 1 137 5 is_stmt 1 view .LVU29
 138:D:/Git/VL53L1/lib/src\vl53l1.c **** }
 113              		.loc 1 138 1 is_stmt 0 view .LVU30
 114 0042 1846     		mov	r0, r3
 115 0044 BDE83840 		pop	{r3, r4, r5, lr}
 116              		.cfi_remember_state
 117              		.cfi_restore 14
 118              		.cfi_restore 5
 119              		.cfi_restore 4
 120              		.cfi_restore 3
 121              		.cfi_def_cfa_offset 16
 122              	.LVL6:
 123              		.loc 1 138 1 view .LVU31
 124 0048 04B0     		add	sp, sp, #16
 125              		.cfi_def_cfa_offset 0
 126 004a 7047     		bx	lr
 127              	.LVL7:
 128              	.L16:
 129              		.cfi_restore_state
  55:D:/Git/VL53L1/lib/src\vl53l1.c **** 
 130              		.loc 1 55 9 is_stmt 1 view .LVU32
  55:D:/Git/VL53L1/lib/src\vl53l1.c **** 
 131              		.loc 1 55 18 is_stmt 0 view .LVU33
 132 004c 05A9     		add	r1, sp, #20
 133 004e 2046     		mov	r0, r4
 134              	.LVL8:
  55:D:/Git/VL53L1/lib/src\vl53l1.c **** 
 135              		.loc 1 55 18 view .LVU34
 136 0050 FFF7FEFF 		bl	VL53L1_GetDeviceInfo
 137              	.LVL9:
  57:D:/Git/VL53L1/lib/src\vl53l1.c ****             if ((device_info.ProductRevisionMinor != 1) && (device_info.ProductRevisionMinor != 1))
 138              		.loc 1 57 9 is_stmt 1 view .LVU35
  57:D:/Git/VL53L1/lib/src\vl53l1.c ****             if ((device_info.ProductRevisionMinor != 1) && (device_info.ProductRevisionMinor != 1))
 139              		.loc 1 57 12 is_stmt 0 view .LVU36
 140 0054 0346     		mov	r3, r0
 141 0056 0028     		cmp	r0, #0
 142 0058 DFD1     		bne	.L2
  58:D:/Git/VL53L1/lib/src\vl53l1.c ****                 Status = VL53L1_ERROR_NOT_SUPPORTED;
ARM GAS  C:\Users\Berbardo\AppData\Local\Temp\cclJowlg.s 			page 6


 143              		.loc 1 58 13 is_stmt 1 view .LVU37
  58:D:/Git/VL53L1/lib/src\vl53l1.c ****                 Status = VL53L1_ERROR_NOT_SUPPORTED;
 144              		.loc 1 58 29 is_stmt 0 view .LVU38
 145 005a 9DF87620 		ldrb	r2, [sp, #118]	@ zero_extendqisi2
  58:D:/Git/VL53L1/lib/src\vl53l1.c ****                 Status = VL53L1_ERROR_NOT_SUPPORTED;
 146              		.loc 1 58 16 view .LVU39
 147 005e 012A     		cmp	r2, #1
 148 0060 DBD0     		beq	.L2
  59:D:/Git/VL53L1/lib/src\vl53l1.c ****             }
 149              		.loc 1 59 24 view .LVU40
 150 0062 6FF00403 		mvn	r3, #4
 151 0066 D9E7     		b	.L3
 152              	.LVL10:
 153              	.L17:
  66:D:/Git/VL53L1/lib/src\vl53l1.c ****     }
 154              		.loc 1 66 9 is_stmt 1 view .LVU41
  66:D:/Git/VL53L1/lib/src\vl53l1.c ****     }
 155              		.loc 1 66 18 is_stmt 0 view .LVU42
 156 0068 2046     		mov	r0, r4
 157 006a FFF7FEFF 		bl	VL53L1_StaticInit
 158              	.LVL11:
  66:D:/Git/VL53L1/lib/src\vl53l1.c ****     }
 159              		.loc 1 66 18 view .LVU43
 160 006e 0346     		mov	r3, r0
 161              	.LVL12:
  66:D:/Git/VL53L1/lib/src\vl53l1.c ****     }
 162              		.loc 1 66 18 view .LVU44
 163 0070 D4E7     		b	.L3
 164              	.L18:
  72:D:/Git/VL53L1/lib/src\vl53l1.c ****         }
 165              		.loc 1 72 13 is_stmt 1 view .LVU45
  72:D:/Git/VL53L1/lib/src\vl53l1.c ****         }
 166              		.loc 1 72 22 is_stmt 0 view .LVU46
 167 0072 1E99     		ldr	r1, [sp, #120]
 168 0074 2046     		mov	r0, r4
 169 0076 FFF7FEFF 		bl	VL53L1_SetCalibrationData
 170              	.LVL13:
  72:D:/Git/VL53L1/lib/src\vl53l1.c ****         }
 171              		.loc 1 72 22 view .LVU47
 172 007a 0346     		mov	r3, r0
 173              	.LVL14:
  72:D:/Git/VL53L1/lib/src\vl53l1.c ****         }
 174              		.loc 1 72 22 view .LVU48
 175 007c D3E7     		b	.L5
 176              	.L4:
  77:D:/Git/VL53L1/lib/src\vl53l1.c ****             Status = VL53L1_PerformRefSpadManagement(p_device);
 177              		.loc 1 77 9 is_stmt 1 view .LVU49
  77:D:/Git/VL53L1/lib/src\vl53l1.c ****             Status = VL53L1_PerformRefSpadManagement(p_device);
 178              		.loc 1 77 12 is_stmt 0 view .LVU50
 179 007e 3BB1     		cbz	r3, .L26
 180              	.L6:
  82:D:/Git/VL53L1/lib/src\vl53l1.c ****             Status = VL53L1_GetCalibrationData(p_device, calibration);
 181              		.loc 1 82 9 is_stmt 1 view .LVU51
  82:D:/Git/VL53L1/lib/src\vl53l1.c ****             Status = VL53L1_GetCalibrationData(p_device, calibration);
 182              		.loc 1 82 12 is_stmt 0 view .LVU52
 183 0080 002B     		cmp	r3, #0
 184 0082 D0D1     		bne	.L5
ARM GAS  C:\Users\Berbardo\AppData\Local\Temp\cclJowlg.s 			page 7


  83:D:/Git/VL53L1/lib/src\vl53l1.c ****         }
 185              		.loc 1 83 13 is_stmt 1 view .LVU53
  83:D:/Git/VL53L1/lib/src\vl53l1.c ****         }
 186              		.loc 1 83 22 is_stmt 0 view .LVU54
 187 0084 1E99     		ldr	r1, [sp, #120]
 188 0086 2046     		mov	r0, r4
 189 0088 FFF7FEFF 		bl	VL53L1_GetCalibrationData
 190              	.LVL15:
  83:D:/Git/VL53L1/lib/src\vl53l1.c ****         }
 191              		.loc 1 83 22 view .LVU55
 192 008c 0346     		mov	r3, r0
 193              	.LVL16:
  83:D:/Git/VL53L1/lib/src\vl53l1.c ****         }
 194              		.loc 1 83 22 view .LVU56
 195 008e CAE7     		b	.L5
 196              	.L26:
  78:D:/Git/VL53L1/lib/src\vl53l1.c ****         }
 197              		.loc 1 78 13 is_stmt 1 view .LVU57
  78:D:/Git/VL53L1/lib/src\vl53l1.c ****         }
 198              		.loc 1 78 22 is_stmt 0 view .LVU58
 199 0090 2046     		mov	r0, r4
 200 0092 FFF7FEFF 		bl	VL53L1_PerformRefSpadManagement
 201              	.LVL17:
  78:D:/Git/VL53L1/lib/src\vl53l1.c ****         }
 202              		.loc 1 78 22 view .LVU59
 203 0096 0346     		mov	r3, r0
 204              	.LVL18:
  78:D:/Git/VL53L1/lib/src\vl53l1.c ****         }
 205              		.loc 1 78 22 view .LVU60
 206 0098 F2E7     		b	.L6
 207              	.L19:
  89:D:/Git/VL53L1/lib/src\vl53l1.c ****     }
 208              		.loc 1 89 9 is_stmt 1 view .LVU61
  89:D:/Git/VL53L1/lib/src\vl53l1.c ****     }
 209              		.loc 1 89 18 is_stmt 0 view .LVU62
 210 009a 0221     		movs	r1, #2
 211 009c 2046     		mov	r0, r4
 212 009e FFF7FEFF 		bl	VL53L1_SetDistanceMode
 213              	.LVL19:
  89:D:/Git/VL53L1/lib/src\vl53l1.c ****     }
 214              		.loc 1 89 18 view .LVU63
 215 00a2 0346     		mov	r3, r0
 216              	.LVL20:
  89:D:/Git/VL53L1/lib/src\vl53l1.c ****     }
 217              		.loc 1 89 18 view .LVU64
 218 00a4 C1E7     		b	.L7
 219              	.L20:
  94:D:/Git/VL53L1/lib/src\vl53l1.c ****                                              VL53L1_CHECKENABLE_SIGMA_FINAL_RANGE, 1);
 220              		.loc 1 94 9 is_stmt 1 view .LVU65
  94:D:/Git/VL53L1/lib/src\vl53l1.c ****                                              VL53L1_CHECKENABLE_SIGMA_FINAL_RANGE, 1);
 221              		.loc 1 94 18 is_stmt 0 view .LVU66
 222 00a6 0122     		movs	r2, #1
 223 00a8 0021     		movs	r1, #0
 224 00aa 2046     		mov	r0, r4
 225 00ac FFF7FEFF 		bl	VL53L1_SetLimitCheckEnable
 226              	.LVL21:
  94:D:/Git/VL53L1/lib/src\vl53l1.c ****                                              VL53L1_CHECKENABLE_SIGMA_FINAL_RANGE, 1);
ARM GAS  C:\Users\Berbardo\AppData\Local\Temp\cclJowlg.s 			page 8


 227              		.loc 1 94 18 view .LVU67
 228 00b0 0346     		mov	r3, r0
 229              	.LVL22:
  94:D:/Git/VL53L1/lib/src\vl53l1.c ****                                              VL53L1_CHECKENABLE_SIGMA_FINAL_RANGE, 1);
 230              		.loc 1 94 18 view .LVU68
 231 00b2 BCE7     		b	.L8
 232              	.L21:
  99:D:/Git/VL53L1/lib/src\vl53l1.c ****                                              VL53L1_CHECKENABLE_SIGNAL_RATE_FINAL_RANGE, 1);
 233              		.loc 1 99 9 is_stmt 1 view .LVU69
  99:D:/Git/VL53L1/lib/src\vl53l1.c ****                                              VL53L1_CHECKENABLE_SIGNAL_RATE_FINAL_RANGE, 1);
 234              		.loc 1 99 18 is_stmt 0 view .LVU70
 235 00b4 0122     		movs	r2, #1
 236 00b6 1146     		mov	r1, r2
 237 00b8 2046     		mov	r0, r4
 238 00ba FFF7FEFF 		bl	VL53L1_SetLimitCheckEnable
 239              	.LVL23:
  99:D:/Git/VL53L1/lib/src\vl53l1.c ****                                              VL53L1_CHECKENABLE_SIGNAL_RATE_FINAL_RANGE, 1);
 240              		.loc 1 99 18 view .LVU71
 241 00be 0346     		mov	r3, r0
 242              	.LVL24:
  99:D:/Git/VL53L1/lib/src\vl53l1.c ****                                              VL53L1_CHECKENABLE_SIGNAL_RATE_FINAL_RANGE, 1);
 243              		.loc 1 99 18 view .LVU72
 244 00c0 B7E7     		b	.L9
 245              	.L22:
 106:D:/Git/VL53L1/lib/src\vl53l1.c ****                                             VL53L1_CHECKENABLE_SIGMA_FINAL_RANGE,
 246              		.loc 1 106 9 is_stmt 1 view .LVU73
 106:D:/Git/VL53L1/lib/src\vl53l1.c ****                                             VL53L1_CHECKENABLE_SIGMA_FINAL_RANGE,
 247              		.loc 1 106 18 is_stmt 0 view .LVU74
 248 00c2 4FF49012 		mov	r2, #1179648
 249 00c6 0021     		movs	r1, #0
 250 00c8 2046     		mov	r0, r4
 251 00ca FFF7FEFF 		bl	VL53L1_SetLimitCheckValue
 252              	.LVL25:
 106:D:/Git/VL53L1/lib/src\vl53l1.c ****                                             VL53L1_CHECKENABLE_SIGMA_FINAL_RANGE,
 253              		.loc 1 106 18 view .LVU75
 254 00ce 0346     		mov	r3, r0
 255              	.LVL26:
 106:D:/Git/VL53L1/lib/src\vl53l1.c ****                                             VL53L1_CHECKENABLE_SIGMA_FINAL_RANGE,
 256              		.loc 1 106 18 view .LVU76
 257 00d0 B1E7     		b	.L10
 258              	.L23:
 113:D:/Git/VL53L1/lib/src\vl53l1.c ****                                             VL53L1_CHECKENABLE_SIGNAL_RATE_FINAL_RANGE,
 259              		.loc 1 113 9 is_stmt 1 view .LVU77
 113:D:/Git/VL53L1/lib/src\vl53l1.c ****                                             VL53L1_CHECKENABLE_SIGNAL_RATE_FINAL_RANGE,
 260              		.loc 1 113 18 is_stmt 0 view .LVU78
 261 00d2 4FF48042 		mov	r2, #16384
 262 00d6 0121     		movs	r1, #1
 263 00d8 2046     		mov	r0, r4
 264 00da FFF7FEFF 		bl	VL53L1_SetLimitCheckValue
 265              	.LVL27:
 113:D:/Git/VL53L1/lib/src\vl53l1.c ****                                             VL53L1_CHECKENABLE_SIGNAL_RATE_FINAL_RANGE,
 266              		.loc 1 113 18 view .LVU79
 267 00de 0346     		mov	r3, r0
 268              	.LVL28:
 113:D:/Git/VL53L1/lib/src\vl53l1.c ****                                             VL53L1_CHECKENABLE_SIGNAL_RATE_FINAL_RANGE,
 269              		.loc 1 113 18 view .LVU80
 270 00e0 ABE7     		b	.L11
ARM GAS  C:\Users\Berbardo\AppData\Local\Temp\cclJowlg.s 			page 9


 271              	.L24:
 129:D:/Git/VL53L1/lib/src\vl53l1.c ****     }
 272              		.loc 1 129 9 is_stmt 1 view .LVU81
 129:D:/Git/VL53L1/lib/src\vl53l1.c ****     }
 273              		.loc 1 129 18 is_stmt 0 view .LVU82
 274 00e2 4CF25031 		movw	r1, #50000
 275 00e6 2046     		mov	r0, r4
 276 00e8 FFF7FEFF 		bl	VL53L1_SetMeasurementTimingBudgetMicroSeconds
 277              	.LVL29:
 129:D:/Git/VL53L1/lib/src\vl53l1.c ****     }
 278              		.loc 1 129 18 view .LVU83
 279 00ec 0346     		mov	r3, r0
 280              	.LVL30:
 129:D:/Git/VL53L1/lib/src\vl53l1.c ****     }
 281              		.loc 1 129 18 view .LVU84
 282 00ee A6E7     		b	.L12
 283              	.L25:
 134:D:/Git/VL53L1/lib/src\vl53l1.c ****     }
 284              		.loc 1 134 9 is_stmt 1 view .LVU85
 134:D:/Git/VL53L1/lib/src\vl53l1.c ****     }
 285              		.loc 1 134 18 is_stmt 0 view .LVU86
 286 00f0 2046     		mov	r0, r4
 287 00f2 FFF7FEFF 		bl	VL53L1_StartMeasurement
 288              	.LVL31:
 134:D:/Git/VL53L1/lib/src\vl53l1.c ****     }
 289              		.loc 1 134 18 view .LVU87
 290 00f6 0346     		mov	r3, r0
 291              	.LVL32:
 134:D:/Git/VL53L1/lib/src\vl53l1.c ****     }
 292              		.loc 1 134 18 view .LVU88
 293 00f8 A3E7     		b	.L13
 294              		.cfi_endproc
 295              	.LFE126:
 297              		.section	.text.vl53l1_turn_off,"ax",%progbits
 298              		.align	1
 299              		.global	vl53l1_turn_off
 300              		.syntax unified
 301              		.thumb
 302              		.thumb_func
 303              		.fpu fpv4-sp-d16
 305              	vl53l1_turn_off:
 306              	.LVL33:
 307              	.LFB127:
 139:D:/Git/VL53L1/lib/src\vl53l1.c **** 
 140:D:/Git/VL53L1/lib/src\vl53l1.c **** void vl53l1_turn_off(VL53L1_Dev_t* p_device) {
 308              		.loc 1 140 46 is_stmt 1 view -0
 309              		.cfi_startproc
 310              		@ args = 0, pretend = 0, frame = 0
 311              		@ frame_needed = 0, uses_anonymous_args = 0
 312              		.loc 1 140 46 is_stmt 0 view .LVU90
 313 0000 08B5     		push	{r3, lr}
 314              		.cfi_def_cfa_offset 8
 315              		.cfi_offset 3, -8
 316              		.cfi_offset 14, -4
 141:D:/Git/VL53L1/lib/src\vl53l1.c ****     HAL_GPIO_WritePin(p_device->xshut_port, p_device->xshut_pin, GPIO_PIN_RESET);
 317              		.loc 1 141 5 is_stmt 1 view .LVU91
 318 0002 0022     		movs	r2, #0
ARM GAS  C:\Users\Berbardo\AppData\Local\Temp\cclJowlg.s 			page 10


 319 0004 B0F8AC13 		ldrh	r1, [r0, #940]
 320 0008 D0F8A803 		ldr	r0, [r0, #936]
 321              	.LVL34:
 322              		.loc 1 141 5 is_stmt 0 view .LVU92
 323 000c FFF7FEFF 		bl	HAL_GPIO_WritePin
 324              	.LVL35:
 142:D:/Git/VL53L1/lib/src\vl53l1.c **** }
 325              		.loc 1 142 1 view .LVU93
 326 0010 08BD     		pop	{r3, pc}
 327              		.cfi_endproc
 328              	.LFE127:
 330              		.section	.text.vl53l1_turn_on,"ax",%progbits
 331              		.align	1
 332              		.global	vl53l1_turn_on
 333              		.syntax unified
 334              		.thumb
 335              		.thumb_func
 336              		.fpu fpv4-sp-d16
 338              	vl53l1_turn_on:
 339              	.LVL36:
 340              	.LFB128:
 143:D:/Git/VL53L1/lib/src\vl53l1.c **** 
 144:D:/Git/VL53L1/lib/src\vl53l1.c **** void vl53l1_turn_on(VL53L1_Dev_t* p_device) {
 341              		.loc 1 144 45 is_stmt 1 view -0
 342              		.cfi_startproc
 343              		@ args = 0, pretend = 0, frame = 0
 344              		@ frame_needed = 0, uses_anonymous_args = 0
 345              		.loc 1 144 45 is_stmt 0 view .LVU95
 346 0000 08B5     		push	{r3, lr}
 347              		.cfi_def_cfa_offset 8
 348              		.cfi_offset 3, -8
 349              		.cfi_offset 14, -4
 145:D:/Git/VL53L1/lib/src\vl53l1.c ****     HAL_GPIO_WritePin(p_device->xshut_port, p_device->xshut_pin, GPIO_PIN_SET);
 350              		.loc 1 145 5 is_stmt 1 view .LVU96
 351 0002 0122     		movs	r2, #1
 352 0004 B0F8AC13 		ldrh	r1, [r0, #940]
 353 0008 D0F8A803 		ldr	r0, [r0, #936]
 354              	.LVL37:
 355              		.loc 1 145 5 is_stmt 0 view .LVU97
 356 000c FFF7FEFF 		bl	HAL_GPIO_WritePin
 357              	.LVL38:
 146:D:/Git/VL53L1/lib/src\vl53l1.c **** }
 358              		.loc 1 146 1 view .LVU98
 359 0010 08BD     		pop	{r3, pc}
 360              		.cfi_endproc
 361              	.LFE128:
 363              		.global	__aeabi_i2d
 364              		.global	__aeabi_dmul
 365              		.global	__aeabi_dadd
 366              		.global	__aeabi_d2uiz
 367              		.section	.text.vl53l1_update_range,"ax",%progbits
 368              		.align	1
 369              		.global	vl53l1_update_range
 370              		.syntax unified
 371              		.thumb
 372              		.thumb_func
 373              		.fpu fpv4-sp-d16
ARM GAS  C:\Users\Berbardo\AppData\Local\Temp\cclJowlg.s 			page 11


 375              	vl53l1_update_range:
 376              	.LVL39:
 377              	.LFB129:
 147:D:/Git/VL53L1/lib/src\vl53l1.c **** 
 148:D:/Git/VL53L1/lib/src\vl53l1.c **** uint8_t vl53l1_update_range(VL53L1_Dev_t* p_device, VL53L1_RangingMeasurementData_t* p_ranging_data
 149:D:/Git/VL53L1/lib/src\vl53l1.c ****                              uint16_t max_range) {
 378              		.loc 1 149 50 is_stmt 1 view -0
 379              		.cfi_startproc
 380              		@ args = 0, pretend = 0, frame = 0
 381              		@ frame_needed = 0, uses_anonymous_args = 0
 382              		.loc 1 149 50 is_stmt 0 view .LVU100
 383 0000 2DE9F843 		push	{r3, r4, r5, r6, r7, r8, r9, lr}
 384              		.cfi_def_cfa_offset 32
 385              		.cfi_offset 3, -32
 386              		.cfi_offset 4, -28
 387              		.cfi_offset 5, -24
 388              		.cfi_offset 6, -20
 389              		.cfi_offset 7, -16
 390              		.cfi_offset 8, -12
 391              		.cfi_offset 9, -8
 392              		.cfi_offset 14, -4
 393 0004 8846     		mov	r8, r1
 394 0006 1646     		mov	r6, r2
 395 0008 1F46     		mov	r7, r3
 150:D:/Git/VL53L1/lib/src\vl53l1.c ****     uint8_t status = 0;
 396              		.loc 1 150 5 is_stmt 1 view .LVU101
 397              	.LVL40:
 151:D:/Git/VL53L1/lib/src\vl53l1.c ****     uint16_t aux_range = *range;
 398              		.loc 1 151 5 view .LVU102
 399              		.loc 1 151 14 is_stmt 0 view .LVU103
 400 000a 1588     		ldrh	r5, [r2]
 401              	.LVL41:
 152:D:/Git/VL53L1/lib/src\vl53l1.c ****     status = VL53L1_GetRangingMeasurementData(p_device, p_ranging_data);
 402              		.loc 1 152 5 is_stmt 1 view .LVU104
 403              		.loc 1 152 14 is_stmt 0 view .LVU105
 404 000c FFF7FEFF 		bl	VL53L1_GetRangingMeasurementData
 405              	.LVL42:
 406              		.loc 1 152 12 view .LVU106
 407 0010 C4B2     		uxtb	r4, r0
 408              	.LVL43:
 153:D:/Git/VL53L1/lib/src\vl53l1.c **** 
 154:D:/Git/VL53L1/lib/src\vl53l1.c ****     if (status != VL53L1_ERROR_NONE) {
 409              		.loc 1 154 5 is_stmt 1 view .LVU107
 410              		.loc 1 154 8 is_stmt 0 view .LVU108
 411 0012 14BB     		cbnz	r4, .L32
 155:D:/Git/VL53L1/lib/src\vl53l1.c ****         return status;
 156:D:/Git/VL53L1/lib/src\vl53l1.c ****     }
 157:D:/Git/VL53L1/lib/src\vl53l1.c **** 
 158:D:/Git/VL53L1/lib/src\vl53l1.c ****     uint8_t range_status = p_ranging_data->RangeStatus;
 412              		.loc 1 158 5 is_stmt 1 view .LVU109
 413              		.loc 1 158 13 is_stmt 0 view .LVU110
 414 0014 98F81B40 		ldrb	r4, [r8, #27]	@ zero_extendqisi2
 415              	.LVL44:
 159:D:/Git/VL53L1/lib/src\vl53l1.c **** 
 160:D:/Git/VL53L1/lib/src\vl53l1.c ****     if (range_status == 0) {  // VALID RANGE
 416              		.loc 1 160 5 is_stmt 1 view .LVU111
 417              		.loc 1 160 8 is_stmt 0 view .LVU112
ARM GAS  C:\Users\Berbardo\AppData\Local\Temp\cclJowlg.s 			page 12


 418 0018 14BB     		cbnz	r4, .L33
 161:D:/Git/VL53L1/lib/src\vl53l1.c ****         aux_range = (p_ranging_data->RangeMilliMeter) * VALID_RANGE_FILTER + (1 - VALID_RANGE_FILTE
 419              		.loc 1 161 9 is_stmt 1 view .LVU113
 420              		.loc 1 161 55 is_stmt 0 view .LVU114
 421 001a B8F91800 		ldrsh	r0, [r8, #24]
 422              	.LVL45:
 423              		.loc 1 161 55 view .LVU115
 424 001e FFF7FEFF 		bl	__aeabi_i2d
 425              	.LVL46:
 426 0022 31A3     		adr	r3, .L39
 427 0024 D3E90023 		ldrd	r2, [r3]
 428 0028 FFF7FEFF 		bl	__aeabi_dmul
 429              	.LVL47:
 430 002c 8046     		mov	r8, r0
 431              	.LVL48:
 432              		.loc 1 161 55 view .LVU116
 433 002e 8946     		mov	r9, r1
 434              		.loc 1 161 103 view .LVU117
 435 0030 2846     		mov	r0, r5
 436 0032 FFF7FEFF 		bl	__aeabi_i2d
 437              	.LVL49:
 438 0036 2EA3     		adr	r3, .L39+8
 439 0038 D3E90023 		ldrd	r2, [r3]
 440 003c FFF7FEFF 		bl	__aeabi_dmul
 441              	.LVL50:
 442              		.loc 1 161 76 view .LVU118
 443 0040 0246     		mov	r2, r0
 444 0042 0B46     		mov	r3, r1
 445 0044 4046     		mov	r0, r8
 446 0046 4946     		mov	r1, r9
 447 0048 FFF7FEFF 		bl	__aeabi_dadd
 448              	.LVL51:
 449              		.loc 1 161 19 view .LVU119
 450 004c FFF7FEFF 		bl	__aeabi_d2uiz
 451              	.LVL52:
 452 0050 85B2     		uxth	r5, r0
 453              	.LVL53:
 454              	.L34:
 162:D:/Git/VL53L1/lib/src\vl53l1.c ****     } else if (range_status == 1) {  // SIGMA FAIL
 163:D:/Git/VL53L1/lib/src\vl53l1.c ****         aux_range = (p_ranging_data->RangeMilliMeter) * SIGMA_FAIL_FILTER + (1 - SIGMA_FAIL_FILTER)
 164:D:/Git/VL53L1/lib/src\vl53l1.c ****     } else if (range_status == 4) {  // PHASE FAIL
 165:D:/Git/VL53L1/lib/src\vl53l1.c ****         /* In this case, aux_range will not be updated, because the reading is mostly random when t
 166:D:/Git/VL53L1/lib/src\vl53l1.c ****     } else if (range_status == 5) {  // HARDWARE FAIL
 167:D:/Git/VL53L1/lib/src\vl53l1.c ****         aux_range = max_range;
 168:D:/Git/VL53L1/lib/src\vl53l1.c ****     } else {
 169:D:/Git/VL53L1/lib/src\vl53l1.c ****         // 2 - SIGNAL FAIL
 170:D:/Git/VL53L1/lib/src\vl53l1.c ****         // 3 - MIN RANGE FAIL
 171:D:/Git/VL53L1/lib/src\vl53l1.c ****         aux_range = (p_ranging_data->RangeMilliMeter) * DAFAULT_FILTER + (1 - DAFAULT_FILTER) * aux
 172:D:/Git/VL53L1/lib/src\vl53l1.c ****     }
 173:D:/Git/VL53L1/lib/src\vl53l1.c **** 
 174:D:/Git/VL53L1/lib/src\vl53l1.c ****     *range = min(aux_range, max_range);
 455              		.loc 1 174 5 is_stmt 1 view .LVU120
 456              		.loc 1 174 14 is_stmt 0 view .LVU121
 457 0052 BD42     		cmp	r5, r7
 458 0054 28BF     		it	cs
 459 0056 3D46     		movcs	r5, r7
 460              	.LVL54:
ARM GAS  C:\Users\Berbardo\AppData\Local\Temp\cclJowlg.s 			page 13


 461              		.loc 1 174 12 view .LVU122
 462 0058 3580     		strh	r5, [r6]	@ movhi
 175:D:/Git/VL53L1/lib/src\vl53l1.c **** 
 176:D:/Git/VL53L1/lib/src\vl53l1.c ****     if (status == 0) {
 463              		.loc 1 176 5 is_stmt 1 view .LVU123
 177:D:/Git/VL53L1/lib/src\vl53l1.c ****         status = range_status;
 464              		.loc 1 177 9 view .LVU124
 465              	.LVL55:
 466              	.L32:
 178:D:/Git/VL53L1/lib/src\vl53l1.c ****     }
 179:D:/Git/VL53L1/lib/src\vl53l1.c **** 
 180:D:/Git/VL53L1/lib/src\vl53l1.c ****     return status;
 181:D:/Git/VL53L1/lib/src\vl53l1.c **** }
 467              		.loc 1 181 1 is_stmt 0 view .LVU125
 468 005a 2046     		mov	r0, r4
 469 005c BDE8F883 		pop	{r3, r4, r5, r6, r7, r8, r9, pc}
 470              	.LVL56:
 471              	.L33:
 162:D:/Git/VL53L1/lib/src\vl53l1.c ****         aux_range = (p_ranging_data->RangeMilliMeter) * SIGMA_FAIL_FILTER + (1 - SIGMA_FAIL_FILTER)
 472              		.loc 1 162 12 is_stmt 1 view .LVU126
 162:D:/Git/VL53L1/lib/src\vl53l1.c ****         aux_range = (p_ranging_data->RangeMilliMeter) * SIGMA_FAIL_FILTER + (1 - SIGMA_FAIL_FILTER)
 473              		.loc 1 162 15 is_stmt 0 view .LVU127
 474 0060 012C     		cmp	r4, #1
 475 0062 20D0     		beq	.L38
 164:D:/Git/VL53L1/lib/src\vl53l1.c ****         /* In this case, aux_range will not be updated, because the reading is mostly random when t
 476              		.loc 1 164 12 is_stmt 1 view .LVU128
 164:D:/Git/VL53L1/lib/src\vl53l1.c ****         /* In this case, aux_range will not be updated, because the reading is mostly random when t
 477              		.loc 1 164 15 is_stmt 0 view .LVU129
 478 0064 042C     		cmp	r4, #4
 479 0066 F4D0     		beq	.L34
 166:D:/Git/VL53L1/lib/src\vl53l1.c ****         aux_range = max_range;
 480              		.loc 1 166 12 is_stmt 1 view .LVU130
 166:D:/Git/VL53L1/lib/src\vl53l1.c ****         aux_range = max_range;
 481              		.loc 1 166 15 is_stmt 0 view .LVU131
 482 0068 052C     		cmp	r4, #5
 483 006a 39D0     		beq	.L36
 171:D:/Git/VL53L1/lib/src\vl53l1.c ****     }
 484              		.loc 1 171 9 is_stmt 1 view .LVU132
 171:D:/Git/VL53L1/lib/src\vl53l1.c ****     }
 485              		.loc 1 171 55 is_stmt 0 view .LVU133
 486 006c B8F91800 		ldrsh	r0, [r8, #24]
 487              	.LVL57:
 171:D:/Git/VL53L1/lib/src\vl53l1.c ****     }
 488              		.loc 1 171 55 view .LVU134
 489 0070 FFF7FEFF 		bl	__aeabi_i2d
 490              	.LVL58:
 491 0074 20A3     		adr	r3, .L39+16
 492 0076 D3E90023 		ldrd	r2, [r3]
 493 007a FFF7FEFF 		bl	__aeabi_dmul
 494              	.LVL59:
 495 007e 8046     		mov	r8, r0
 496              	.LVL60:
 171:D:/Git/VL53L1/lib/src\vl53l1.c ****     }
 497              		.loc 1 171 55 view .LVU135
 498 0080 8946     		mov	r9, r1
 171:D:/Git/VL53L1/lib/src\vl53l1.c ****     }
 499              		.loc 1 171 95 view .LVU136
ARM GAS  C:\Users\Berbardo\AppData\Local\Temp\cclJowlg.s 			page 14


 500 0082 2846     		mov	r0, r5
 501 0084 FFF7FEFF 		bl	__aeabi_i2d
 502              	.LVL61:
 503 0088 1DA3     		adr	r3, .L39+24
 504 008a D3E90023 		ldrd	r2, [r3]
 505 008e FFF7FEFF 		bl	__aeabi_dmul
 506              	.LVL62:
 171:D:/Git/VL53L1/lib/src\vl53l1.c ****     }
 507              		.loc 1 171 72 view .LVU137
 508 0092 0246     		mov	r2, r0
 509 0094 0B46     		mov	r3, r1
 510 0096 4046     		mov	r0, r8
 511 0098 4946     		mov	r1, r9
 512 009a FFF7FEFF 		bl	__aeabi_dadd
 513              	.LVL63:
 171:D:/Git/VL53L1/lib/src\vl53l1.c ****     }
 514              		.loc 1 171 19 view .LVU138
 515 009e FFF7FEFF 		bl	__aeabi_d2uiz
 516              	.LVL64:
 517 00a2 85B2     		uxth	r5, r0
 518              	.LVL65:
 171:D:/Git/VL53L1/lib/src\vl53l1.c ****     }
 519              		.loc 1 171 19 view .LVU139
 520 00a4 D5E7     		b	.L34
 521              	.LVL66:
 522              	.L38:
 163:D:/Git/VL53L1/lib/src\vl53l1.c ****     } else if (range_status == 4) {  // PHASE FAIL
 523              		.loc 1 163 9 is_stmt 1 view .LVU140
 163:D:/Git/VL53L1/lib/src\vl53l1.c ****     } else if (range_status == 4) {  // PHASE FAIL
 524              		.loc 1 163 55 is_stmt 0 view .LVU141
 525 00a6 B8F91800 		ldrsh	r0, [r8, #24]
 526              	.LVL67:
 163:D:/Git/VL53L1/lib/src\vl53l1.c ****     } else if (range_status == 4) {  // PHASE FAIL
 527              		.loc 1 163 55 view .LVU142
 528 00aa FFF7FEFF 		bl	__aeabi_i2d
 529              	.LVL68:
 530 00ae 16A3     		adr	r3, .L39+32
 531 00b0 D3E90023 		ldrd	r2, [r3]
 532 00b4 FFF7FEFF 		bl	__aeabi_dmul
 533              	.LVL69:
 534 00b8 8046     		mov	r8, r0
 535              	.LVL70:
 163:D:/Git/VL53L1/lib/src\vl53l1.c ****     } else if (range_status == 4) {  // PHASE FAIL
 536              		.loc 1 163 55 view .LVU143
 537 00ba 8946     		mov	r9, r1
 163:D:/Git/VL53L1/lib/src\vl53l1.c ****     } else if (range_status == 4) {  // PHASE FAIL
 538              		.loc 1 163 101 view .LVU144
 539 00bc 2846     		mov	r0, r5
 540 00be FFF7FEFF 		bl	__aeabi_i2d
 541              	.LVL71:
 542 00c2 09A3     		adr	r3, .L39
 543 00c4 D3E90023 		ldrd	r2, [r3]
 544 00c8 FFF7FEFF 		bl	__aeabi_dmul
 545              	.LVL72:
 163:D:/Git/VL53L1/lib/src\vl53l1.c ****     } else if (range_status == 4) {  // PHASE FAIL
 546              		.loc 1 163 75 view .LVU145
 547 00cc 0246     		mov	r2, r0
ARM GAS  C:\Users\Berbardo\AppData\Local\Temp\cclJowlg.s 			page 15


 548 00ce 0B46     		mov	r3, r1
 549 00d0 4046     		mov	r0, r8
 550 00d2 4946     		mov	r1, r9
 551 00d4 FFF7FEFF 		bl	__aeabi_dadd
 552              	.LVL73:
 163:D:/Git/VL53L1/lib/src\vl53l1.c ****     } else if (range_status == 4) {  // PHASE FAIL
 553              		.loc 1 163 19 view .LVU146
 554 00d8 FFF7FEFF 		bl	__aeabi_d2uiz
 555              	.LVL74:
 556 00dc 85B2     		uxth	r5, r0
 557              	.LVL75:
 163:D:/Git/VL53L1/lib/src\vl53l1.c ****     } else if (range_status == 4) {  // PHASE FAIL
 558              		.loc 1 163 19 view .LVU147
 559 00de B8E7     		b	.L34
 560              	.LVL76:
 561              	.L36:
 167:D:/Git/VL53L1/lib/src\vl53l1.c ****     } else {
 562              		.loc 1 167 19 view .LVU148
 563 00e0 3D46     		mov	r5, r7
 564              	.LVL77:
 167:D:/Git/VL53L1/lib/src\vl53l1.c ****     } else {
 565              		.loc 1 167 19 view .LVU149
 566 00e2 B6E7     		b	.L34
 567              	.L40:
 568 00e4 AFF30080 		.align	3
 569              	.L39:
 570 00e8 9A999999 		.word	-1717986918
 571 00ec 9999E93F 		.word	1072273817
 572 00f0 98999999 		.word	-1717986920
 573 00f4 9999C93F 		.word	1070176665
 574 00f8 9A999999 		.word	-1717986918
 575 00fc 9999D93F 		.word	1071225241
 576 0100 33333333 		.word	858993459
 577 0104 3333E33F 		.word	1071854387
 578 0108 9A999999 		.word	-1717986918
 579 010c 9999C93F 		.word	1070176665
 580              		.cfi_endproc
 581              	.LFE129:
 583              		.text
 584              	.Letext0:
 585              		.file 2 "c:\\program files (x86)\\gnu tools arm embedded\\8 2019-q3-update\\arm-none-eabi\\include
 586              		.file 3 "c:\\program files (x86)\\gnu tools arm embedded\\8 2019-q3-update\\arm-none-eabi\\include
 587              		.file 4 "c:\\program files (x86)\\gnu tools arm embedded\\8 2019-q3-update\\lib\\gcc\\arm-none-eab
 588              		.file 5 "c:\\program files (x86)\\gnu tools arm embedded\\8 2019-q3-update\\arm-none-eabi\\include
 589              		.file 6 "c:\\program files (x86)\\gnu tools arm embedded\\8 2019-q3-update\\arm-none-eabi\\include
 590              		.file 7 "c:\\program files (x86)\\gnu tools arm embedded\\8 2019-q3-update\\arm-none-eabi\\include
 591              		.file 8 "D:/Git/VL53L1/lib/platform/inc/vl53l1_types.h"
 592              		.file 9 "D:/Git/VL53L1/lib/core/inc/vl53l1_ll_device.h"
 593              		.file 10 "D:/Git/VL53L1/lib/core/inc/vl53l1_error_codes.h"
 594              		.file 11 "D:/Git/VL53L1/lib/core/inc/vl53l1_register_structs.h"
 595              		.file 12 "D:/Git/VL53L1/lib/core/inc/vl53l1_ll_def.h"
 596              		.file 13 "D:/Git/VL53L1/lib/core/inc/vl53l1_def.h"
 597              		.file 14 "cube/Drivers/CMSIS/Include/core_cm4.h"
 598              		.file 15 "cube/Drivers/CMSIS/Device/ST/STM32F3xx/Include/system_stm32f3xx.h"
 599              		.file 16 "cube/Drivers/CMSIS/Device/ST/STM32F3xx/Include/stm32f303xe.h"
 600              		.file 17 "cube/Drivers/STM32F3xx_HAL_Driver/Inc/stm32f3xx_hal_def.h"
 601              		.file 18 "cube/Drivers/STM32F3xx_HAL_Driver/Inc/stm32f3xx_hal_gpio.h"
ARM GAS  C:\Users\Berbardo\AppData\Local\Temp\cclJowlg.s 			page 16


 602              		.file 19 "cube/Drivers/STM32F3xx_HAL_Driver/Inc/stm32f3xx_hal_dma.h"
 603              		.file 20 "cube/Drivers/STM32F3xx_HAL_Driver/Inc/stm32f3xx_hal_i2c.h"
 604              		.file 21 "cube/Drivers/STM32F3xx_HAL_Driver/Inc/stm32f3xx_hal.h"
 605              		.file 22 "D:/Git/VL53L1/lib/platform/inc/vl53l1_platform_user_data.h"
 606              		.file 23 "D:/Git/VL53L1/lib/core/inc/vl53l1_api.h"
ARM GAS  C:\Users\Berbardo\AppData\Local\Temp\cclJowlg.s 			page 17

