ARM GAS  C:\Users\Berbardo\AppData\Local\Temp\ccoHSf6h.s 			page 1


   1              		.cpu cortex-m4
   2              		.eabi_attribute 27, 1
   3              		.eabi_attribute 28, 1
   4              		.eabi_attribute 20, 1
   5              		.eabi_attribute 21, 1
   6              		.eabi_attribute 23, 3
   7              		.eabi_attribute 24, 1
   8              		.eabi_attribute 25, 1
   9              		.eabi_attribute 26, 1
  10              		.eabi_attribute 30, 1
  11              		.eabi_attribute 34, 1
  12              		.eabi_attribute 18, 4
  13              		.file	"vl53l1_wait.c"
  14              		.text
  15              	.Ltext0:
  16              		.cfi_sections	.debug_frame
  17              		.section	.text.VL53L1_is_boot_complete,"ax",%progbits
  18              		.align	1
  19              		.global	VL53L1_is_boot_complete
  20              		.arch armv7e-m
  21              		.syntax unified
  22              		.thumb
  23              		.thumb_func
  24              		.fpu fpv4-sp-d16
  26              	VL53L1_is_boot_complete:
  27              	.LVL0:
  28              	.LFB130:
  29              		.file 1 "D:/Git/VL53L1/lib/core/src/vl53l1_wait.c"
   1:D:/Git/VL53L1/lib/core/src\vl53l1_wait.c **** /*
   2:D:/Git/VL53L1/lib/core/src\vl53l1_wait.c **** * Copyright (c) 2017, STMicroelectronics - All Rights Reserved
   3:D:/Git/VL53L1/lib/core/src\vl53l1_wait.c **** *
   4:D:/Git/VL53L1/lib/core/src\vl53l1_wait.c **** * This file is part of VL53L1 Core and is dual licensed,
   5:D:/Git/VL53L1/lib/core/src\vl53l1_wait.c **** * either 'STMicroelectronics
   6:D:/Git/VL53L1/lib/core/src\vl53l1_wait.c **** * Proprietary license'
   7:D:/Git/VL53L1/lib/core/src\vl53l1_wait.c **** * or 'BSD 3-clause "New" or "Revised" License' , at your option.
   8:D:/Git/VL53L1/lib/core/src\vl53l1_wait.c **** *
   9:D:/Git/VL53L1/lib/core/src\vl53l1_wait.c **** ********************************************************************************
  10:D:/Git/VL53L1/lib/core/src\vl53l1_wait.c **** *
  11:D:/Git/VL53L1/lib/core/src\vl53l1_wait.c **** * 'STMicroelectronics Proprietary license'
  12:D:/Git/VL53L1/lib/core/src\vl53l1_wait.c **** *
  13:D:/Git/VL53L1/lib/core/src\vl53l1_wait.c **** ********************************************************************************
  14:D:/Git/VL53L1/lib/core/src\vl53l1_wait.c **** *
  15:D:/Git/VL53L1/lib/core/src\vl53l1_wait.c **** * License terms: STMicroelectronics Proprietary in accordance with licensing
  16:D:/Git/VL53L1/lib/core/src\vl53l1_wait.c **** * terms at www.st.com/sla0081
  17:D:/Git/VL53L1/lib/core/src\vl53l1_wait.c **** *
  18:D:/Git/VL53L1/lib/core/src\vl53l1_wait.c **** * STMicroelectronics confidential
  19:D:/Git/VL53L1/lib/core/src\vl53l1_wait.c **** * Reproduction and Communication of this document is strictly prohibited unless
  20:D:/Git/VL53L1/lib/core/src\vl53l1_wait.c **** * specifically authorized in writing by STMicroelectronics.
  21:D:/Git/VL53L1/lib/core/src\vl53l1_wait.c **** *
  22:D:/Git/VL53L1/lib/core/src\vl53l1_wait.c **** *
  23:D:/Git/VL53L1/lib/core/src\vl53l1_wait.c **** ********************************************************************************
  24:D:/Git/VL53L1/lib/core/src\vl53l1_wait.c **** *
  25:D:/Git/VL53L1/lib/core/src\vl53l1_wait.c **** * Alternatively, VL53L1 Core may be distributed under the terms of
  26:D:/Git/VL53L1/lib/core/src\vl53l1_wait.c **** * 'BSD 3-clause "New" or "Revised" License', in which case the following
  27:D:/Git/VL53L1/lib/core/src\vl53l1_wait.c **** * provisions apply instead of the ones mentioned above :
  28:D:/Git/VL53L1/lib/core/src\vl53l1_wait.c **** *
  29:D:/Git/VL53L1/lib/core/src\vl53l1_wait.c **** ********************************************************************************
ARM GAS  C:\Users\Berbardo\AppData\Local\Temp\ccoHSf6h.s 			page 2


  30:D:/Git/VL53L1/lib/core/src\vl53l1_wait.c **** *
  31:D:/Git/VL53L1/lib/core/src\vl53l1_wait.c **** * License terms: BSD 3-clause "New" or "Revised" License.
  32:D:/Git/VL53L1/lib/core/src\vl53l1_wait.c **** *
  33:D:/Git/VL53L1/lib/core/src\vl53l1_wait.c **** * Redistribution and use in source and binary forms, with or without
  34:D:/Git/VL53L1/lib/core/src\vl53l1_wait.c **** * modification, are permitted provided that the following conditions are met:
  35:D:/Git/VL53L1/lib/core/src\vl53l1_wait.c **** *
  36:D:/Git/VL53L1/lib/core/src\vl53l1_wait.c **** * 1. Redistributions of source code must retain the above copyright notice, this
  37:D:/Git/VL53L1/lib/core/src\vl53l1_wait.c **** * list of conditions and the following disclaimer.
  38:D:/Git/VL53L1/lib/core/src\vl53l1_wait.c **** *
  39:D:/Git/VL53L1/lib/core/src\vl53l1_wait.c **** * 2. Redistributions in binary form must reproduce the above copyright notice,
  40:D:/Git/VL53L1/lib/core/src\vl53l1_wait.c **** * this list of conditions and the following disclaimer in the documentation
  41:D:/Git/VL53L1/lib/core/src\vl53l1_wait.c **** * and/or other materials provided with the distribution.
  42:D:/Git/VL53L1/lib/core/src\vl53l1_wait.c **** *
  43:D:/Git/VL53L1/lib/core/src\vl53l1_wait.c **** * 3. Neither the name of the copyright holder nor the names of its contributors
  44:D:/Git/VL53L1/lib/core/src\vl53l1_wait.c **** * may be used to endorse or promote products derived from this software
  45:D:/Git/VL53L1/lib/core/src\vl53l1_wait.c **** * without specific prior written permission.
  46:D:/Git/VL53L1/lib/core/src\vl53l1_wait.c **** *
  47:D:/Git/VL53L1/lib/core/src\vl53l1_wait.c **** * THIS SOFTWARE IS PROVIDED BY THE COPYRIGHT HOLDERS AND CONTRIBUTORS "AS IS"
  48:D:/Git/VL53L1/lib/core/src\vl53l1_wait.c **** * AND ANY EXPRESS OR IMPLIED WARRANTIES, INCLUDING, BUT NOT LIMITED TO, THE
  49:D:/Git/VL53L1/lib/core/src\vl53l1_wait.c **** * IMPLIED WARRANTIES OF MERCHANTABILITY AND FITNESS FOR A PARTICULAR PURPOSE ARE
  50:D:/Git/VL53L1/lib/core/src\vl53l1_wait.c **** * DISCLAIMED. IN NO EVENT SHALL THE COPYRIGHT HOLDER OR CONTRIBUTORS BE LIABLE
  51:D:/Git/VL53L1/lib/core/src\vl53l1_wait.c **** * FOR ANY DIRECT, INDIRECT, INCIDENTAL, SPECIAL, EXEMPLARY, OR CONSEQUENTIAL
  52:D:/Git/VL53L1/lib/core/src\vl53l1_wait.c **** * DAMAGES (INCLUDING, BUT NOT LIMITED TO, PROCUREMENT OF SUBSTITUTE GOODS OR
  53:D:/Git/VL53L1/lib/core/src\vl53l1_wait.c **** * SERVICES; LOSS OF USE, DATA, OR PROFITS; OR BUSINESS INTERRUPTION) HOWEVER
  54:D:/Git/VL53L1/lib/core/src\vl53l1_wait.c **** * CAUSED AND ON ANY THEORY OF LIABILITY, WHETHER IN CONTRACT, STRICT LIABILITY,
  55:D:/Git/VL53L1/lib/core/src\vl53l1_wait.c **** * OR TORT (INCLUDING NEGLIGENCE OR OTHERWISE) ARISING IN ANY WAY OUT OF THE USE
  56:D:/Git/VL53L1/lib/core/src\vl53l1_wait.c **** * OF THIS SOFTWARE, EVEN IF ADVISED OF THE POSSIBILITY OF SUCH DAMAGE.
  57:D:/Git/VL53L1/lib/core/src\vl53l1_wait.c **** *
  58:D:/Git/VL53L1/lib/core/src\vl53l1_wait.c **** *
  59:D:/Git/VL53L1/lib/core/src\vl53l1_wait.c **** ********************************************************************************
  60:D:/Git/VL53L1/lib/core/src\vl53l1_wait.c **** *
  61:D:/Git/VL53L1/lib/core/src\vl53l1_wait.c **** */
  62:D:/Git/VL53L1/lib/core/src\vl53l1_wait.c **** 
  63:D:/Git/VL53L1/lib/core/src\vl53l1_wait.c **** /**
  64:D:/Git/VL53L1/lib/core/src\vl53l1_wait.c ****  * @file  vl53l1_wait.c
  65:D:/Git/VL53L1/lib/core/src\vl53l1_wait.c ****  *
  66:D:/Git/VL53L1/lib/core/src\vl53l1_wait.c ****  * @brief EwokPlus25 low level Driver wait function definition
  67:D:/Git/VL53L1/lib/core/src\vl53l1_wait.c ****  */
  68:D:/Git/VL53L1/lib/core/src\vl53l1_wait.c **** 
  69:D:/Git/VL53L1/lib/core/src\vl53l1_wait.c **** 
  70:D:/Git/VL53L1/lib/core/src\vl53l1_wait.c **** #include "vl53l1_ll_def.h"
  71:D:/Git/VL53L1/lib/core/src\vl53l1_wait.c **** #include "vl53l1_ll_device.h"
  72:D:/Git/VL53L1/lib/core/src\vl53l1_wait.c **** #include "vl53l1_platform.h"
  73:D:/Git/VL53L1/lib/core/src\vl53l1_wait.c **** #include "vl53l1_core.h"
  74:D:/Git/VL53L1/lib/core/src\vl53l1_wait.c **** #include "vl53l1_silicon_core.h"
  75:D:/Git/VL53L1/lib/core/src\vl53l1_wait.c **** #include "vl53l1_wait.h"
  76:D:/Git/VL53L1/lib/core/src\vl53l1_wait.c **** #include "vl53l1_register_settings.h"
  77:D:/Git/VL53L1/lib/core/src\vl53l1_wait.c **** 
  78:D:/Git/VL53L1/lib/core/src\vl53l1_wait.c **** 
  79:D:/Git/VL53L1/lib/core/src\vl53l1_wait.c **** #define LOG_FUNCTION_START(fmt, ...) \
  80:D:/Git/VL53L1/lib/core/src\vl53l1_wait.c **** 	_LOG_FUNCTION_START(VL53L1_TRACE_MODULE_CORE, fmt, ##__VA_ARGS__)
  81:D:/Git/VL53L1/lib/core/src\vl53l1_wait.c **** #define LOG_FUNCTION_END(status, ...) \
  82:D:/Git/VL53L1/lib/core/src\vl53l1_wait.c **** 	_LOG_FUNCTION_END(VL53L1_TRACE_MODULE_CORE, status, ##__VA_ARGS__)
  83:D:/Git/VL53L1/lib/core/src\vl53l1_wait.c **** #define LOG_FUNCTION_END_FMT(status, fmt, ...) \
  84:D:/Git/VL53L1/lib/core/src\vl53l1_wait.c **** 	_LOG_FUNCTION_END_FMT(VL53L1_TRACE_MODULE_CORE, status, \
  85:D:/Git/VL53L1/lib/core/src\vl53l1_wait.c **** 		fmt, ##__VA_ARGS__)
  86:D:/Git/VL53L1/lib/core/src\vl53l1_wait.c **** 
ARM GAS  C:\Users\Berbardo\AppData\Local\Temp\ccoHSf6h.s 			page 3


  87:D:/Git/VL53L1/lib/core/src\vl53l1_wait.c **** 
  88:D:/Git/VL53L1/lib/core/src\vl53l1_wait.c **** VL53L1_Error VL53L1_wait_for_boot_completion(
  89:D:/Git/VL53L1/lib/core/src\vl53l1_wait.c **** 	VL53L1_DEV     Dev)
  90:D:/Git/VL53L1/lib/core/src\vl53l1_wait.c **** {
  91:D:/Git/VL53L1/lib/core/src\vl53l1_wait.c **** 
  92:D:/Git/VL53L1/lib/core/src\vl53l1_wait.c **** 	/* Waits for firmware boot to finish
  93:D:/Git/VL53L1/lib/core/src\vl53l1_wait.c **** 	 */
  94:D:/Git/VL53L1/lib/core/src\vl53l1_wait.c **** 
  95:D:/Git/VL53L1/lib/core/src\vl53l1_wait.c **** 	VL53L1_Error status = VL53L1_ERROR_NONE;
  96:D:/Git/VL53L1/lib/core/src\vl53l1_wait.c **** 	VL53L1_LLDriverData_t *pdev = VL53L1DevStructGetLLDriverHandle(Dev);
  97:D:/Git/VL53L1/lib/core/src\vl53l1_wait.c **** 
  98:D:/Git/VL53L1/lib/core/src\vl53l1_wait.c **** 	uint8_t      fw_ready  = 0;
  99:D:/Git/VL53L1/lib/core/src\vl53l1_wait.c **** 
 100:D:/Git/VL53L1/lib/core/src\vl53l1_wait.c **** 	LOG_FUNCTION_START("");
 101:D:/Git/VL53L1/lib/core/src\vl53l1_wait.c **** 
 102:D:/Git/VL53L1/lib/core/src\vl53l1_wait.c **** 	if (pdev->wait_method == VL53L1_WAIT_METHOD_BLOCKING) {
 103:D:/Git/VL53L1/lib/core/src\vl53l1_wait.c **** 
 104:D:/Git/VL53L1/lib/core/src\vl53l1_wait.c **** 		/* blocking version */
 105:D:/Git/VL53L1/lib/core/src\vl53l1_wait.c **** 
 106:D:/Git/VL53L1/lib/core/src\vl53l1_wait.c **** 		status =
 107:D:/Git/VL53L1/lib/core/src\vl53l1_wait.c **** 			VL53L1_poll_for_boot_completion(
 108:D:/Git/VL53L1/lib/core/src\vl53l1_wait.c **** 				Dev,
 109:D:/Git/VL53L1/lib/core/src\vl53l1_wait.c **** 				VL53L1_BOOT_COMPLETION_POLLING_TIMEOUT_MS);
 110:D:/Git/VL53L1/lib/core/src\vl53l1_wait.c **** 
 111:D:/Git/VL53L1/lib/core/src\vl53l1_wait.c **** 	} else {
 112:D:/Git/VL53L1/lib/core/src\vl53l1_wait.c **** 
 113:D:/Git/VL53L1/lib/core/src\vl53l1_wait.c **** 		/* implement non blocking version below */
 114:D:/Git/VL53L1/lib/core/src\vl53l1_wait.c **** 
 115:D:/Git/VL53L1/lib/core/src\vl53l1_wait.c **** 		fw_ready = 0;
 116:D:/Git/VL53L1/lib/core/src\vl53l1_wait.c **** 		while (fw_ready == 0x00 && status == VL53L1_ERROR_NONE) {
 117:D:/Git/VL53L1/lib/core/src\vl53l1_wait.c **** 			status = VL53L1_is_boot_complete(
 118:D:/Git/VL53L1/lib/core/src\vl53l1_wait.c **** 				Dev,
 119:D:/Git/VL53L1/lib/core/src\vl53l1_wait.c **** 				&fw_ready);
 120:D:/Git/VL53L1/lib/core/src\vl53l1_wait.c **** 
 121:D:/Git/VL53L1/lib/core/src\vl53l1_wait.c **** 			if (status == VL53L1_ERROR_NONE) {
 122:D:/Git/VL53L1/lib/core/src\vl53l1_wait.c **** 				status = VL53L1_WaitMs(
 123:D:/Git/VL53L1/lib/core/src\vl53l1_wait.c **** 					Dev,
 124:D:/Git/VL53L1/lib/core/src\vl53l1_wait.c **** 					VL53L1_POLLING_DELAY_MS);
 125:D:/Git/VL53L1/lib/core/src\vl53l1_wait.c **** 			}
 126:D:/Git/VL53L1/lib/core/src\vl53l1_wait.c **** 		}
 127:D:/Git/VL53L1/lib/core/src\vl53l1_wait.c **** 	}
 128:D:/Git/VL53L1/lib/core/src\vl53l1_wait.c **** 
 129:D:/Git/VL53L1/lib/core/src\vl53l1_wait.c **** 	LOG_FUNCTION_END(status);
 130:D:/Git/VL53L1/lib/core/src\vl53l1_wait.c **** 
 131:D:/Git/VL53L1/lib/core/src\vl53l1_wait.c **** 	return status;
 132:D:/Git/VL53L1/lib/core/src\vl53l1_wait.c **** 
 133:D:/Git/VL53L1/lib/core/src\vl53l1_wait.c **** }
 134:D:/Git/VL53L1/lib/core/src\vl53l1_wait.c **** 
 135:D:/Git/VL53L1/lib/core/src\vl53l1_wait.c **** 
 136:D:/Git/VL53L1/lib/core/src\vl53l1_wait.c **** VL53L1_Error VL53L1_wait_for_firmware_ready(
 137:D:/Git/VL53L1/lib/core/src\vl53l1_wait.c **** 	VL53L1_DEV     Dev)
 138:D:/Git/VL53L1/lib/core/src\vl53l1_wait.c **** {
 139:D:/Git/VL53L1/lib/core/src\vl53l1_wait.c **** 
 140:D:/Git/VL53L1/lib/core/src\vl53l1_wait.c **** 	/* If in timed mode or single shot then check firmware is ready
 141:D:/Git/VL53L1/lib/core/src\vl53l1_wait.c **** 	 * before sending handshake
 142:D:/Git/VL53L1/lib/core/src\vl53l1_wait.c **** 	 */
 143:D:/Git/VL53L1/lib/core/src\vl53l1_wait.c **** 
ARM GAS  C:\Users\Berbardo\AppData\Local\Temp\ccoHSf6h.s 			page 4


 144:D:/Git/VL53L1/lib/core/src\vl53l1_wait.c **** 	VL53L1_Error status = VL53L1_ERROR_NONE;
 145:D:/Git/VL53L1/lib/core/src\vl53l1_wait.c **** 	VL53L1_LLDriverData_t *pdev = VL53L1DevStructGetLLDriverHandle(Dev);
 146:D:/Git/VL53L1/lib/core/src\vl53l1_wait.c **** 
 147:D:/Git/VL53L1/lib/core/src\vl53l1_wait.c **** 	uint8_t      fw_ready  = 0;
 148:D:/Git/VL53L1/lib/core/src\vl53l1_wait.c **** 	uint8_t      mode_start  = 0;
 149:D:/Git/VL53L1/lib/core/src\vl53l1_wait.c **** 
 150:D:/Git/VL53L1/lib/core/src\vl53l1_wait.c **** 	LOG_FUNCTION_START("");
 151:D:/Git/VL53L1/lib/core/src\vl53l1_wait.c **** 
 152:D:/Git/VL53L1/lib/core/src\vl53l1_wait.c **** 	/* Filter out tje measure mode part of the mode
 153:D:/Git/VL53L1/lib/core/src\vl53l1_wait.c **** 	 * start register
 154:D:/Git/VL53L1/lib/core/src\vl53l1_wait.c **** 	 */
 155:D:/Git/VL53L1/lib/core/src\vl53l1_wait.c **** 	mode_start =
 156:D:/Git/VL53L1/lib/core/src\vl53l1_wait.c **** 		pdev->sys_ctrl.system__mode_start &
 157:D:/Git/VL53L1/lib/core/src\vl53l1_wait.c **** 		VL53L1_DEVICEMEASUREMENTMODE_MODE_MASK;
 158:D:/Git/VL53L1/lib/core/src\vl53l1_wait.c **** 
 159:D:/Git/VL53L1/lib/core/src\vl53l1_wait.c **** 	/*
 160:D:/Git/VL53L1/lib/core/src\vl53l1_wait.c **** 	 * conditional wait for firmware ready
 161:D:/Git/VL53L1/lib/core/src\vl53l1_wait.c **** 	 * only waits for timed and single shot modes
 162:D:/Git/VL53L1/lib/core/src\vl53l1_wait.c **** 	 */
 163:D:/Git/VL53L1/lib/core/src\vl53l1_wait.c **** 
 164:D:/Git/VL53L1/lib/core/src\vl53l1_wait.c **** 	if ((mode_start == VL53L1_DEVICEMEASUREMENTMODE_TIMED) ||
 165:D:/Git/VL53L1/lib/core/src\vl53l1_wait.c **** 		(mode_start == VL53L1_DEVICEMEASUREMENTMODE_SINGLESHOT)) {
 166:D:/Git/VL53L1/lib/core/src\vl53l1_wait.c **** 
 167:D:/Git/VL53L1/lib/core/src\vl53l1_wait.c **** 		if (pdev->wait_method == VL53L1_WAIT_METHOD_BLOCKING) {
 168:D:/Git/VL53L1/lib/core/src\vl53l1_wait.c **** 
 169:D:/Git/VL53L1/lib/core/src\vl53l1_wait.c **** 			/* blocking version */
 170:D:/Git/VL53L1/lib/core/src\vl53l1_wait.c **** 
 171:D:/Git/VL53L1/lib/core/src\vl53l1_wait.c **** 			status =
 172:D:/Git/VL53L1/lib/core/src\vl53l1_wait.c **** 				VL53L1_poll_for_firmware_ready(
 173:D:/Git/VL53L1/lib/core/src\vl53l1_wait.c **** 					Dev,
 174:D:/Git/VL53L1/lib/core/src\vl53l1_wait.c **** 					VL53L1_RANGE_COMPLETION_POLLING_TIMEOUT_MS);
 175:D:/Git/VL53L1/lib/core/src\vl53l1_wait.c **** 
 176:D:/Git/VL53L1/lib/core/src\vl53l1_wait.c **** 		} else {
 177:D:/Git/VL53L1/lib/core/src\vl53l1_wait.c **** 
 178:D:/Git/VL53L1/lib/core/src\vl53l1_wait.c **** 			/* implement non blocking version below */
 179:D:/Git/VL53L1/lib/core/src\vl53l1_wait.c **** 
 180:D:/Git/VL53L1/lib/core/src\vl53l1_wait.c **** 			fw_ready = 0;
 181:D:/Git/VL53L1/lib/core/src\vl53l1_wait.c **** 			while (fw_ready == 0x00 && status == VL53L1_ERROR_NONE) {
 182:D:/Git/VL53L1/lib/core/src\vl53l1_wait.c **** 				status = VL53L1_is_firmware_ready(
 183:D:/Git/VL53L1/lib/core/src\vl53l1_wait.c **** 					Dev,
 184:D:/Git/VL53L1/lib/core/src\vl53l1_wait.c **** 					&fw_ready);
 185:D:/Git/VL53L1/lib/core/src\vl53l1_wait.c **** 
 186:D:/Git/VL53L1/lib/core/src\vl53l1_wait.c **** 				if (status == VL53L1_ERROR_NONE) {
 187:D:/Git/VL53L1/lib/core/src\vl53l1_wait.c **** 					status = VL53L1_WaitMs(
 188:D:/Git/VL53L1/lib/core/src\vl53l1_wait.c **** 						Dev,
 189:D:/Git/VL53L1/lib/core/src\vl53l1_wait.c **** 						VL53L1_POLLING_DELAY_MS);
 190:D:/Git/VL53L1/lib/core/src\vl53l1_wait.c **** 				}
 191:D:/Git/VL53L1/lib/core/src\vl53l1_wait.c **** 			}
 192:D:/Git/VL53L1/lib/core/src\vl53l1_wait.c **** 		}
 193:D:/Git/VL53L1/lib/core/src\vl53l1_wait.c **** 	}
 194:D:/Git/VL53L1/lib/core/src\vl53l1_wait.c **** 
 195:D:/Git/VL53L1/lib/core/src\vl53l1_wait.c **** 	LOG_FUNCTION_END(status);
 196:D:/Git/VL53L1/lib/core/src\vl53l1_wait.c **** 
 197:D:/Git/VL53L1/lib/core/src\vl53l1_wait.c **** 	return status;
 198:D:/Git/VL53L1/lib/core/src\vl53l1_wait.c **** }
 199:D:/Git/VL53L1/lib/core/src\vl53l1_wait.c **** 
 200:D:/Git/VL53L1/lib/core/src\vl53l1_wait.c **** 
ARM GAS  C:\Users\Berbardo\AppData\Local\Temp\ccoHSf6h.s 			page 5


 201:D:/Git/VL53L1/lib/core/src\vl53l1_wait.c **** VL53L1_Error VL53L1_wait_for_range_completion(
 202:D:/Git/VL53L1/lib/core/src\vl53l1_wait.c **** 	VL53L1_DEV     Dev)
 203:D:/Git/VL53L1/lib/core/src\vl53l1_wait.c **** {
 204:D:/Git/VL53L1/lib/core/src\vl53l1_wait.c **** 
 205:D:/Git/VL53L1/lib/core/src\vl53l1_wait.c **** 	/* Wrapper function for waiting for range completion
 206:D:/Git/VL53L1/lib/core/src\vl53l1_wait.c **** 	 */
 207:D:/Git/VL53L1/lib/core/src\vl53l1_wait.c **** 
 208:D:/Git/VL53L1/lib/core/src\vl53l1_wait.c **** 	VL53L1_Error status = VL53L1_ERROR_NONE;
 209:D:/Git/VL53L1/lib/core/src\vl53l1_wait.c **** 	VL53L1_LLDriverData_t *pdev = VL53L1DevStructGetLLDriverHandle(Dev);
 210:D:/Git/VL53L1/lib/core/src\vl53l1_wait.c **** 
 211:D:/Git/VL53L1/lib/core/src\vl53l1_wait.c **** 	uint8_t      data_ready  = 0;
 212:D:/Git/VL53L1/lib/core/src\vl53l1_wait.c **** 
 213:D:/Git/VL53L1/lib/core/src\vl53l1_wait.c **** 	LOG_FUNCTION_START("");
 214:D:/Git/VL53L1/lib/core/src\vl53l1_wait.c **** 
 215:D:/Git/VL53L1/lib/core/src\vl53l1_wait.c **** 	if (pdev->wait_method == VL53L1_WAIT_METHOD_BLOCKING) {
 216:D:/Git/VL53L1/lib/core/src\vl53l1_wait.c **** 
 217:D:/Git/VL53L1/lib/core/src\vl53l1_wait.c **** 		/* blocking version */
 218:D:/Git/VL53L1/lib/core/src\vl53l1_wait.c **** 
 219:D:/Git/VL53L1/lib/core/src\vl53l1_wait.c **** 		status =
 220:D:/Git/VL53L1/lib/core/src\vl53l1_wait.c **** 			VL53L1_poll_for_range_completion(
 221:D:/Git/VL53L1/lib/core/src\vl53l1_wait.c **** 				Dev,
 222:D:/Git/VL53L1/lib/core/src\vl53l1_wait.c **** 				VL53L1_RANGE_COMPLETION_POLLING_TIMEOUT_MS);
 223:D:/Git/VL53L1/lib/core/src\vl53l1_wait.c **** 
 224:D:/Git/VL53L1/lib/core/src\vl53l1_wait.c **** 	} else {
 225:D:/Git/VL53L1/lib/core/src\vl53l1_wait.c **** 
 226:D:/Git/VL53L1/lib/core/src\vl53l1_wait.c **** 		/* implement non blocking version below */
 227:D:/Git/VL53L1/lib/core/src\vl53l1_wait.c **** 
 228:D:/Git/VL53L1/lib/core/src\vl53l1_wait.c **** 		data_ready = 0;
 229:D:/Git/VL53L1/lib/core/src\vl53l1_wait.c **** 		while (data_ready == 0x00 && status == VL53L1_ERROR_NONE) {
 230:D:/Git/VL53L1/lib/core/src\vl53l1_wait.c **** 			status = VL53L1_is_new_data_ready(
 231:D:/Git/VL53L1/lib/core/src\vl53l1_wait.c **** 				Dev,
 232:D:/Git/VL53L1/lib/core/src\vl53l1_wait.c **** 				&data_ready);
 233:D:/Git/VL53L1/lib/core/src\vl53l1_wait.c **** 
 234:D:/Git/VL53L1/lib/core/src\vl53l1_wait.c **** 			if (status == VL53L1_ERROR_NONE) {
 235:D:/Git/VL53L1/lib/core/src\vl53l1_wait.c **** 				status = VL53L1_WaitMs(
 236:D:/Git/VL53L1/lib/core/src\vl53l1_wait.c **** 					Dev,
 237:D:/Git/VL53L1/lib/core/src\vl53l1_wait.c **** 					VL53L1_POLLING_DELAY_MS);
 238:D:/Git/VL53L1/lib/core/src\vl53l1_wait.c **** 			}
 239:D:/Git/VL53L1/lib/core/src\vl53l1_wait.c **** 		}
 240:D:/Git/VL53L1/lib/core/src\vl53l1_wait.c **** 	}
 241:D:/Git/VL53L1/lib/core/src\vl53l1_wait.c **** 
 242:D:/Git/VL53L1/lib/core/src\vl53l1_wait.c **** 	LOG_FUNCTION_END(status);
 243:D:/Git/VL53L1/lib/core/src\vl53l1_wait.c **** 
 244:D:/Git/VL53L1/lib/core/src\vl53l1_wait.c **** 	return status;
 245:D:/Git/VL53L1/lib/core/src\vl53l1_wait.c **** }
 246:D:/Git/VL53L1/lib/core/src\vl53l1_wait.c **** 
 247:D:/Git/VL53L1/lib/core/src\vl53l1_wait.c **** 
 248:D:/Git/VL53L1/lib/core/src\vl53l1_wait.c **** VL53L1_Error VL53L1_wait_for_test_completion(
 249:D:/Git/VL53L1/lib/core/src\vl53l1_wait.c **** 	VL53L1_DEV     Dev)
 250:D:/Git/VL53L1/lib/core/src\vl53l1_wait.c **** {
 251:D:/Git/VL53L1/lib/core/src\vl53l1_wait.c **** 
 252:D:/Git/VL53L1/lib/core/src\vl53l1_wait.c **** 	/* Wrapper function for waiting for test mode completion
 253:D:/Git/VL53L1/lib/core/src\vl53l1_wait.c **** 	 */
 254:D:/Git/VL53L1/lib/core/src\vl53l1_wait.c **** 
 255:D:/Git/VL53L1/lib/core/src\vl53l1_wait.c **** 	VL53L1_Error status = VL53L1_ERROR_NONE;
 256:D:/Git/VL53L1/lib/core/src\vl53l1_wait.c **** 	VL53L1_LLDriverData_t *pdev = VL53L1DevStructGetLLDriverHandle(Dev);
 257:D:/Git/VL53L1/lib/core/src\vl53l1_wait.c **** 
ARM GAS  C:\Users\Berbardo\AppData\Local\Temp\ccoHSf6h.s 			page 6


 258:D:/Git/VL53L1/lib/core/src\vl53l1_wait.c **** 	uint8_t      data_ready  = 0;
 259:D:/Git/VL53L1/lib/core/src\vl53l1_wait.c **** 
 260:D:/Git/VL53L1/lib/core/src\vl53l1_wait.c **** 	LOG_FUNCTION_START("");
 261:D:/Git/VL53L1/lib/core/src\vl53l1_wait.c **** 
 262:D:/Git/VL53L1/lib/core/src\vl53l1_wait.c **** 	if (pdev->wait_method == VL53L1_WAIT_METHOD_BLOCKING) {
 263:D:/Git/VL53L1/lib/core/src\vl53l1_wait.c **** 
 264:D:/Git/VL53L1/lib/core/src\vl53l1_wait.c **** 		/* blocking version */
 265:D:/Git/VL53L1/lib/core/src\vl53l1_wait.c **** 
 266:D:/Git/VL53L1/lib/core/src\vl53l1_wait.c **** 		status =
 267:D:/Git/VL53L1/lib/core/src\vl53l1_wait.c **** 			VL53L1_poll_for_range_completion(
 268:D:/Git/VL53L1/lib/core/src\vl53l1_wait.c **** 				Dev,
 269:D:/Git/VL53L1/lib/core/src\vl53l1_wait.c **** 				VL53L1_TEST_COMPLETION_POLLING_TIMEOUT_MS);
 270:D:/Git/VL53L1/lib/core/src\vl53l1_wait.c **** 
 271:D:/Git/VL53L1/lib/core/src\vl53l1_wait.c **** 	} else {
 272:D:/Git/VL53L1/lib/core/src\vl53l1_wait.c **** 
 273:D:/Git/VL53L1/lib/core/src\vl53l1_wait.c **** 		/* implement non blocking version below */
 274:D:/Git/VL53L1/lib/core/src\vl53l1_wait.c **** 
 275:D:/Git/VL53L1/lib/core/src\vl53l1_wait.c **** 		data_ready = 0;
 276:D:/Git/VL53L1/lib/core/src\vl53l1_wait.c **** 		while (data_ready == 0x00 && status == VL53L1_ERROR_NONE) {
 277:D:/Git/VL53L1/lib/core/src\vl53l1_wait.c **** 			status = VL53L1_is_new_data_ready(
 278:D:/Git/VL53L1/lib/core/src\vl53l1_wait.c **** 				Dev,
 279:D:/Git/VL53L1/lib/core/src\vl53l1_wait.c **** 				&data_ready);
 280:D:/Git/VL53L1/lib/core/src\vl53l1_wait.c **** 
 281:D:/Git/VL53L1/lib/core/src\vl53l1_wait.c **** 			if (status == VL53L1_ERROR_NONE) {
 282:D:/Git/VL53L1/lib/core/src\vl53l1_wait.c **** 				status = VL53L1_WaitMs(
 283:D:/Git/VL53L1/lib/core/src\vl53l1_wait.c **** 					Dev,
 284:D:/Git/VL53L1/lib/core/src\vl53l1_wait.c **** 					VL53L1_POLLING_DELAY_MS);
 285:D:/Git/VL53L1/lib/core/src\vl53l1_wait.c **** 			}
 286:D:/Git/VL53L1/lib/core/src\vl53l1_wait.c **** 		}
 287:D:/Git/VL53L1/lib/core/src\vl53l1_wait.c **** 	}
 288:D:/Git/VL53L1/lib/core/src\vl53l1_wait.c **** 
 289:D:/Git/VL53L1/lib/core/src\vl53l1_wait.c **** 	LOG_FUNCTION_END(status);
 290:D:/Git/VL53L1/lib/core/src\vl53l1_wait.c **** 
 291:D:/Git/VL53L1/lib/core/src\vl53l1_wait.c **** 	return status;
 292:D:/Git/VL53L1/lib/core/src\vl53l1_wait.c **** }
 293:D:/Git/VL53L1/lib/core/src\vl53l1_wait.c **** 
 294:D:/Git/VL53L1/lib/core/src\vl53l1_wait.c **** 
 295:D:/Git/VL53L1/lib/core/src\vl53l1_wait.c **** 
 296:D:/Git/VL53L1/lib/core/src\vl53l1_wait.c **** 
 297:D:/Git/VL53L1/lib/core/src\vl53l1_wait.c **** VL53L1_Error VL53L1_is_boot_complete(
 298:D:/Git/VL53L1/lib/core/src\vl53l1_wait.c **** 	VL53L1_DEV     Dev,
 299:D:/Git/VL53L1/lib/core/src\vl53l1_wait.c **** 	uint8_t       *pready)
 300:D:/Git/VL53L1/lib/core/src\vl53l1_wait.c **** {
  30              		.loc 1 300 1 view -0
  31              		.cfi_startproc
  32              		@ args = 0, pretend = 0, frame = 8
  33              		@ frame_needed = 0, uses_anonymous_args = 0
  34              		.loc 1 300 1 is_stmt 0 view .LVU1
  35 0000 70B5     		push	{r4, r5, r6, lr}
  36              		.cfi_def_cfa_offset 16
  37              		.cfi_offset 4, -16
  38              		.cfi_offset 5, -12
  39              		.cfi_offset 6, -8
  40              		.cfi_offset 14, -4
  41 0002 82B0     		sub	sp, sp, #8
  42              		.cfi_def_cfa_offset 24
  43 0004 0546     		mov	r5, r0
ARM GAS  C:\Users\Berbardo\AppData\Local\Temp\ccoHSf6h.s 			page 7


  44 0006 0E46     		mov	r6, r1
 301:D:/Git/VL53L1/lib/core/src\vl53l1_wait.c **** 	/**
 302:D:/Git/VL53L1/lib/core/src\vl53l1_wait.c **** 	 * Determines if the firmware finished booting by reading
 303:D:/Git/VL53L1/lib/core/src\vl53l1_wait.c **** 	 * bit 0 of firmware__system_status register
 304:D:/Git/VL53L1/lib/core/src\vl53l1_wait.c **** 	 */
 305:D:/Git/VL53L1/lib/core/src\vl53l1_wait.c **** 
 306:D:/Git/VL53L1/lib/core/src\vl53l1_wait.c **** 	VL53L1_Error status = VL53L1_ERROR_NONE;
  45              		.loc 1 306 2 is_stmt 1 view .LVU2
  46              	.LVL1:
 307:D:/Git/VL53L1/lib/core/src\vl53l1_wait.c **** 	uint8_t  firmware__system_status = 0;
  47              		.loc 1 307 2 view .LVU3
  48              		.loc 1 307 11 is_stmt 0 view .LVU4
  49 0008 0023     		movs	r3, #0
  50 000a 8DF80730 		strb	r3, [sp, #7]
 308:D:/Git/VL53L1/lib/core/src\vl53l1_wait.c **** 
 309:D:/Git/VL53L1/lib/core/src\vl53l1_wait.c **** 	LOG_FUNCTION_START("");
  51              		.loc 1 309 24 is_stmt 1 view .LVU5
 310:D:/Git/VL53L1/lib/core/src\vl53l1_wait.c **** 
 311:D:/Git/VL53L1/lib/core/src\vl53l1_wait.c **** 	/* read current range interrupt state */
 312:D:/Git/VL53L1/lib/core/src\vl53l1_wait.c **** 
 313:D:/Git/VL53L1/lib/core/src\vl53l1_wait.c **** 	status =
  52              		.loc 1 313 2 view .LVU6
 314:D:/Git/VL53L1/lib/core/src\vl53l1_wait.c **** 		VL53L1_RdByte(
  53              		.loc 1 314 3 is_stmt 0 view .LVU7
  54 000e 0DF10702 		add	r2, sp, #7
  55 0012 E521     		movs	r1, #229
  56              	.LVL2:
  57              		.loc 1 314 3 view .LVU8
  58 0014 FFF7FEFF 		bl	VL53L1_RdByte
  59              	.LVL3:
  60              		.loc 1 314 3 view .LVU9
  61 0018 0446     		mov	r4, r0
  62              	.LVL4:
 315:D:/Git/VL53L1/lib/core/src\vl53l1_wait.c **** 			Dev,
 316:D:/Git/VL53L1/lib/core/src\vl53l1_wait.c **** 			VL53L1_FIRMWARE__SYSTEM_STATUS,
 317:D:/Git/VL53L1/lib/core/src\vl53l1_wait.c **** 			&firmware__system_status);
 318:D:/Git/VL53L1/lib/core/src\vl53l1_wait.c **** 
 319:D:/Git/VL53L1/lib/core/src\vl53l1_wait.c **** 	/* set *pready = 1 if new range data ready complete
 320:D:/Git/VL53L1/lib/core/src\vl53l1_wait.c **** 	 * zero otherwise
 321:D:/Git/VL53L1/lib/core/src\vl53l1_wait.c **** 	 */
 322:D:/Git/VL53L1/lib/core/src\vl53l1_wait.c **** 
 323:D:/Git/VL53L1/lib/core/src\vl53l1_wait.c **** 	if ((firmware__system_status & 0x01) == 0x01) {
  63              		.loc 1 323 2 is_stmt 1 view .LVU10
  64              		.loc 1 323 31 is_stmt 0 view .LVU11
  65 001a 9DF80730 		ldrb	r3, [sp, #7]	@ zero_extendqisi2
  66              		.loc 1 323 5 view .LVU12
  67 001e 13F0010F 		tst	r3, #1
  68 0022 08D0     		beq	.L2
 324:D:/Git/VL53L1/lib/core/src\vl53l1_wait.c **** 		*pready = 0x01;
  69              		.loc 1 324 3 is_stmt 1 view .LVU13
  70              		.loc 1 324 11 is_stmt 0 view .LVU14
  71 0024 0123     		movs	r3, #1
  72 0026 3370     		strb	r3, [r6]
 325:D:/Git/VL53L1/lib/core/src\vl53l1_wait.c **** 		VL53L1_init_ll_driver_state(
  73              		.loc 1 325 3 is_stmt 1 view .LVU15
  74 0028 0321     		movs	r1, #3
  75 002a 2846     		mov	r0, r5
ARM GAS  C:\Users\Berbardo\AppData\Local\Temp\ccoHSf6h.s 			page 8


  76 002c FFF7FEFF 		bl	VL53L1_init_ll_driver_state
  77              	.LVL5:
  78              	.L3:
 326:D:/Git/VL53L1/lib/core/src\vl53l1_wait.c **** 			Dev,
 327:D:/Git/VL53L1/lib/core/src\vl53l1_wait.c **** 			VL53L1_DEVICESTATE_SW_STANDBY);
 328:D:/Git/VL53L1/lib/core/src\vl53l1_wait.c **** 	} else {
 329:D:/Git/VL53L1/lib/core/src\vl53l1_wait.c **** 		*pready = 0x00;
 330:D:/Git/VL53L1/lib/core/src\vl53l1_wait.c **** 		VL53L1_init_ll_driver_state(
 331:D:/Git/VL53L1/lib/core/src\vl53l1_wait.c **** 			Dev,
 332:D:/Git/VL53L1/lib/core/src\vl53l1_wait.c **** 			VL53L1_DEVICESTATE_FW_COLDBOOT);
 333:D:/Git/VL53L1/lib/core/src\vl53l1_wait.c **** 	}
 334:D:/Git/VL53L1/lib/core/src\vl53l1_wait.c **** 
 335:D:/Git/VL53L1/lib/core/src\vl53l1_wait.c **** 	LOG_FUNCTION_END(status);
  79              		.loc 1 335 26 view .LVU16
 336:D:/Git/VL53L1/lib/core/src\vl53l1_wait.c **** 
 337:D:/Git/VL53L1/lib/core/src\vl53l1_wait.c **** 	return status;
  80              		.loc 1 337 2 view .LVU17
 338:D:/Git/VL53L1/lib/core/src\vl53l1_wait.c **** }
  81              		.loc 1 338 1 is_stmt 0 view .LVU18
  82 0030 2046     		mov	r0, r4
  83 0032 02B0     		add	sp, sp, #8
  84              		.cfi_remember_state
  85              		.cfi_def_cfa_offset 16
  86              		@ sp needed
  87 0034 70BD     		pop	{r4, r5, r6, pc}
  88              	.LVL6:
  89              	.L2:
  90              		.cfi_restore_state
 329:D:/Git/VL53L1/lib/core/src\vl53l1_wait.c **** 		VL53L1_init_ll_driver_state(
  91              		.loc 1 329 3 is_stmt 1 view .LVU19
 329:D:/Git/VL53L1/lib/core/src\vl53l1_wait.c **** 		VL53L1_init_ll_driver_state(
  92              		.loc 1 329 11 is_stmt 0 view .LVU20
  93 0036 0023     		movs	r3, #0
  94 0038 3370     		strb	r3, [r6]
 330:D:/Git/VL53L1/lib/core/src\vl53l1_wait.c **** 			Dev,
  95              		.loc 1 330 3 is_stmt 1 view .LVU21
  96 003a 0221     		movs	r1, #2
  97 003c 2846     		mov	r0, r5
  98 003e FFF7FEFF 		bl	VL53L1_init_ll_driver_state
  99              	.LVL7:
 100 0042 F5E7     		b	.L3
 101              		.cfi_endproc
 102              	.LFE130:
 104              		.section	.text.VL53L1_is_firmware_ready,"ax",%progbits
 105              		.align	1
 106              		.global	VL53L1_is_firmware_ready
 107              		.syntax unified
 108              		.thumb
 109              		.thumb_func
 110              		.fpu fpv4-sp-d16
 112              	VL53L1_is_firmware_ready:
 113              	.LVL8:
 114              	.LFB131:
 339:D:/Git/VL53L1/lib/core/src\vl53l1_wait.c **** 
 340:D:/Git/VL53L1/lib/core/src\vl53l1_wait.c **** 
 341:D:/Git/VL53L1/lib/core/src\vl53l1_wait.c **** VL53L1_Error VL53L1_is_firmware_ready(
 342:D:/Git/VL53L1/lib/core/src\vl53l1_wait.c **** 	VL53L1_DEV     Dev,
ARM GAS  C:\Users\Berbardo\AppData\Local\Temp\ccoHSf6h.s 			page 9


 343:D:/Git/VL53L1/lib/core/src\vl53l1_wait.c **** 	uint8_t       *pready)
 344:D:/Git/VL53L1/lib/core/src\vl53l1_wait.c **** {
 115              		.loc 1 344 1 view -0
 116              		.cfi_startproc
 117              		@ args = 0, pretend = 0, frame = 0
 118              		@ frame_needed = 0, uses_anonymous_args = 0
 119              		.loc 1 344 1 is_stmt 0 view .LVU23
 120 0000 38B5     		push	{r3, r4, r5, lr}
 121              		.cfi_def_cfa_offset 16
 122              		.cfi_offset 3, -16
 123              		.cfi_offset 4, -12
 124              		.cfi_offset 5, -8
 125              		.cfi_offset 14, -4
 126 0002 0446     		mov	r4, r0
 127 0004 0D46     		mov	r5, r1
 345:D:/Git/VL53L1/lib/core/src\vl53l1_wait.c **** 	/**
 346:D:/Git/VL53L1/lib/core/src\vl53l1_wait.c **** 	 * Determines if the firmware is ready to range
 347:D:/Git/VL53L1/lib/core/src\vl53l1_wait.c **** 	 */
 348:D:/Git/VL53L1/lib/core/src\vl53l1_wait.c **** 
 349:D:/Git/VL53L1/lib/core/src\vl53l1_wait.c **** 	VL53L1_Error status = VL53L1_ERROR_NONE;
 128              		.loc 1 349 2 is_stmt 1 view .LVU24
 129              	.LVL9:
 350:D:/Git/VL53L1/lib/core/src\vl53l1_wait.c **** 	VL53L1_LLDriverData_t *pdev = VL53L1DevStructGetLLDriverHandle(Dev);
 130              		.loc 1 350 2 view .LVU25
 351:D:/Git/VL53L1/lib/core/src\vl53l1_wait.c **** 
 352:D:/Git/VL53L1/lib/core/src\vl53l1_wait.c **** 	LOG_FUNCTION_START("");
 131              		.loc 1 352 24 view .LVU26
 353:D:/Git/VL53L1/lib/core/src\vl53l1_wait.c **** 
 354:D:/Git/VL53L1/lib/core/src\vl53l1_wait.c **** 	status = VL53L1_is_firmware_ready_silicon(
 132              		.loc 1 354 2 view .LVU27
 133              		.loc 1 354 11 is_stmt 0 view .LVU28
 134 0006 FFF7FEFF 		bl	VL53L1_is_firmware_ready_silicon
 135              	.LVL10:
 355:D:/Git/VL53L1/lib/core/src\vl53l1_wait.c **** 					Dev,
 356:D:/Git/VL53L1/lib/core/src\vl53l1_wait.c **** 					pready);
 357:D:/Git/VL53L1/lib/core/src\vl53l1_wait.c **** 
 358:D:/Git/VL53L1/lib/core/src\vl53l1_wait.c **** 	pdev->fw_ready = *pready;
 136              		.loc 1 358 2 is_stmt 1 view .LVU29
 137              		.loc 1 358 19 is_stmt 0 view .LVU30
 138 000a 2B78     		ldrb	r3, [r5]	@ zero_extendqisi2
 139              		.loc 1 358 17 view .LVU31
 140 000c 84F82030 		strb	r3, [r4, #32]
 359:D:/Git/VL53L1/lib/core/src\vl53l1_wait.c **** 
 360:D:/Git/VL53L1/lib/core/src\vl53l1_wait.c **** 	LOG_FUNCTION_END(status);
 141              		.loc 1 360 26 is_stmt 1 view .LVU32
 361:D:/Git/VL53L1/lib/core/src\vl53l1_wait.c **** 
 362:D:/Git/VL53L1/lib/core/src\vl53l1_wait.c **** 	return status;
 142              		.loc 1 362 2 view .LVU33
 363:D:/Git/VL53L1/lib/core/src\vl53l1_wait.c **** }
 143              		.loc 1 363 1 is_stmt 0 view .LVU34
 144 0010 38BD     		pop	{r3, r4, r5, pc}
 145              		.loc 1 363 1 view .LVU35
 146              		.cfi_endproc
 147              	.LFE131:
 149              		.section	.text.VL53L1_is_new_data_ready,"ax",%progbits
 150              		.align	1
 151              		.global	VL53L1_is_new_data_ready
ARM GAS  C:\Users\Berbardo\AppData\Local\Temp\ccoHSf6h.s 			page 10


 152              		.syntax unified
 153              		.thumb
 154              		.thumb_func
 155              		.fpu fpv4-sp-d16
 157              	VL53L1_is_new_data_ready:
 158              	.LVL11:
 159              	.LFB132:
 364:D:/Git/VL53L1/lib/core/src\vl53l1_wait.c **** 
 365:D:/Git/VL53L1/lib/core/src\vl53l1_wait.c **** 
 366:D:/Git/VL53L1/lib/core/src\vl53l1_wait.c **** VL53L1_Error VL53L1_is_new_data_ready(
 367:D:/Git/VL53L1/lib/core/src\vl53l1_wait.c **** 	VL53L1_DEV     Dev,
 368:D:/Git/VL53L1/lib/core/src\vl53l1_wait.c **** 	uint8_t       *pready)
 369:D:/Git/VL53L1/lib/core/src\vl53l1_wait.c **** {
 160              		.loc 1 369 1 is_stmt 1 view -0
 161              		.cfi_startproc
 162              		@ args = 0, pretend = 0, frame = 8
 163              		@ frame_needed = 0, uses_anonymous_args = 0
 164              		.loc 1 369 1 is_stmt 0 view .LVU37
 165 0000 30B5     		push	{r4, r5, lr}
 166              		.cfi_def_cfa_offset 12
 167              		.cfi_offset 4, -12
 168              		.cfi_offset 5, -8
 169              		.cfi_offset 14, -4
 170 0002 83B0     		sub	sp, sp, #12
 171              		.cfi_def_cfa_offset 24
 172 0004 0C46     		mov	r4, r1
 370:D:/Git/VL53L1/lib/core/src\vl53l1_wait.c **** 	/**
 371:D:/Git/VL53L1/lib/core/src\vl53l1_wait.c **** 	 * Determines if new range data is ready by reading bit 0 of
 372:D:/Git/VL53L1/lib/core/src\vl53l1_wait.c **** 	 * VL53L1_GPIO__TIO_HV_STATUS to determine the current state
 373:D:/Git/VL53L1/lib/core/src\vl53l1_wait.c **** 	 * of output interrupt pin
 374:D:/Git/VL53L1/lib/core/src\vl53l1_wait.c **** 	 */
 375:D:/Git/VL53L1/lib/core/src\vl53l1_wait.c **** 
 376:D:/Git/VL53L1/lib/core/src\vl53l1_wait.c **** 	VL53L1_Error status = VL53L1_ERROR_NONE;
 173              		.loc 1 376 2 is_stmt 1 view .LVU38
 174              	.LVL12:
 377:D:/Git/VL53L1/lib/core/src\vl53l1_wait.c **** 	VL53L1_LLDriverData_t *pdev = VL53L1DevStructGetLLDriverHandle(Dev);
 175              		.loc 1 377 2 view .LVU39
 378:D:/Git/VL53L1/lib/core/src\vl53l1_wait.c **** 
 379:D:/Git/VL53L1/lib/core/src\vl53l1_wait.c **** 	uint8_t  gpio__mux_active_high_hv = 0;
 176              		.loc 1 379 2 view .LVU40
 380:D:/Git/VL53L1/lib/core/src\vl53l1_wait.c **** 	uint8_t  gpio__tio_hv_status      = 0;
 177              		.loc 1 380 2 view .LVU41
 178              		.loc 1 380 11 is_stmt 0 view .LVU42
 179 0006 0023     		movs	r3, #0
 180 0008 8DF80730 		strb	r3, [sp, #7]
 381:D:/Git/VL53L1/lib/core/src\vl53l1_wait.c **** 	uint8_t  interrupt_ready          = 0;
 181              		.loc 1 381 2 is_stmt 1 view .LVU43
 182              	.LVL13:
 382:D:/Git/VL53L1/lib/core/src\vl53l1_wait.c **** 
 383:D:/Git/VL53L1/lib/core/src\vl53l1_wait.c **** 	LOG_FUNCTION_START("");
 183              		.loc 1 383 24 view .LVU44
 384:D:/Git/VL53L1/lib/core/src\vl53l1_wait.c **** 
 385:D:/Git/VL53L1/lib/core/src\vl53l1_wait.c **** 	gpio__mux_active_high_hv =
 184              		.loc 1 385 2 view .LVU45
 386:D:/Git/VL53L1/lib/core/src\vl53l1_wait.c **** 			pdev->stat_cfg.gpio_hv_mux__ctrl &
 185              		.loc 1 386 18 is_stmt 0 view .LVU46
 186 000c 90F87031 		ldrb	r3, [r0, #368]	@ zero_extendqisi2
ARM GAS  C:\Users\Berbardo\AppData\Local\Temp\ccoHSf6h.s 			page 11


 187              	.LVL14:
 387:D:/Git/VL53L1/lib/core/src\vl53l1_wait.c **** 			VL53L1_DEVICEINTERRUPTLEVEL_ACTIVE_MASK;
 388:D:/Git/VL53L1/lib/core/src\vl53l1_wait.c **** 
 389:D:/Git/VL53L1/lib/core/src\vl53l1_wait.c **** 	if (gpio__mux_active_high_hv == VL53L1_DEVICEINTERRUPTLEVEL_ACTIVE_HIGH)
 188              		.loc 1 389 2 is_stmt 1 view .LVU47
 189              		.loc 1 389 5 is_stmt 0 view .LVU48
 190 0010 13F0100F 		tst	r3, #16
 191 0014 0FD1     		bne	.L11
 390:D:/Git/VL53L1/lib/core/src\vl53l1_wait.c **** 		interrupt_ready = 0x01;
 192              		.loc 1 390 19 view .LVU49
 193 0016 0125     		movs	r5, #1
 194              	.L8:
 195              	.LVL15:
 391:D:/Git/VL53L1/lib/core/src\vl53l1_wait.c **** 	else
 392:D:/Git/VL53L1/lib/core/src\vl53l1_wait.c **** 		interrupt_ready = 0x00;
 393:D:/Git/VL53L1/lib/core/src\vl53l1_wait.c **** 
 394:D:/Git/VL53L1/lib/core/src\vl53l1_wait.c **** 	/* read current range interrupt state */
 395:D:/Git/VL53L1/lib/core/src\vl53l1_wait.c **** 
 396:D:/Git/VL53L1/lib/core/src\vl53l1_wait.c **** 	status = VL53L1_RdByte(
 196              		.loc 1 396 2 is_stmt 1 view .LVU50
 197              		.loc 1 396 11 is_stmt 0 view .LVU51
 198 0018 0DF10702 		add	r2, sp, #7
 199 001c 3121     		movs	r1, #49
 200              	.LVL16:
 201              		.loc 1 396 11 view .LVU52
 202 001e FFF7FEFF 		bl	VL53L1_RdByte
 203              	.LVL17:
 397:D:/Git/VL53L1/lib/core/src\vl53l1_wait.c **** 					Dev,
 398:D:/Git/VL53L1/lib/core/src\vl53l1_wait.c **** 					VL53L1_GPIO__TIO_HV_STATUS,
 399:D:/Git/VL53L1/lib/core/src\vl53l1_wait.c **** 					&gpio__tio_hv_status);
 400:D:/Git/VL53L1/lib/core/src\vl53l1_wait.c **** 
 401:D:/Git/VL53L1/lib/core/src\vl53l1_wait.c **** 	/* set *pready = 1 if new range data ready complete zero otherwise */
 402:D:/Git/VL53L1/lib/core/src\vl53l1_wait.c **** 
 403:D:/Git/VL53L1/lib/core/src\vl53l1_wait.c **** 	if ((gpio__tio_hv_status & 0x01) == interrupt_ready)
 204              		.loc 1 403 2 is_stmt 1 view .LVU53
 205              		.loc 1 403 27 is_stmt 0 view .LVU54
 206 0022 9DF80730 		ldrb	r3, [sp, #7]	@ zero_extendqisi2
 207              		.loc 1 403 5 view .LVU55
 208 0026 03F00103 		and	r3, r3, #1
 209 002a 9D42     		cmp	r5, r3
 210 002c 05D0     		beq	.L13
 404:D:/Git/VL53L1/lib/core/src\vl53l1_wait.c **** 		*pready = 0x01;
 405:D:/Git/VL53L1/lib/core/src\vl53l1_wait.c **** 	else
 406:D:/Git/VL53L1/lib/core/src\vl53l1_wait.c **** 		*pready = 0x00;
 211              		.loc 1 406 3 is_stmt 1 view .LVU56
 212              		.loc 1 406 11 is_stmt 0 view .LVU57
 213 002e 0023     		movs	r3, #0
 214 0030 2370     		strb	r3, [r4]
 215              	.L10:
 407:D:/Git/VL53L1/lib/core/src\vl53l1_wait.c **** 
 408:D:/Git/VL53L1/lib/core/src\vl53l1_wait.c **** 	LOG_FUNCTION_END(status);
 216              		.loc 1 408 26 is_stmt 1 view .LVU58
 409:D:/Git/VL53L1/lib/core/src\vl53l1_wait.c **** 
 410:D:/Git/VL53L1/lib/core/src\vl53l1_wait.c **** 	return status;
 217              		.loc 1 410 2 view .LVU59
 411:D:/Git/VL53L1/lib/core/src\vl53l1_wait.c **** }
 218              		.loc 1 411 1 is_stmt 0 view .LVU60
ARM GAS  C:\Users\Berbardo\AppData\Local\Temp\ccoHSf6h.s 			page 12


 219 0032 03B0     		add	sp, sp, #12
 220              		.cfi_remember_state
 221              		.cfi_def_cfa_offset 12
 222              		@ sp needed
 223 0034 30BD     		pop	{r4, r5, pc}
 224              	.LVL18:
 225              	.L11:
 226              		.cfi_restore_state
 392:D:/Git/VL53L1/lib/core/src\vl53l1_wait.c **** 
 227              		.loc 1 392 19 view .LVU61
 228 0036 0025     		movs	r5, #0
 229 0038 EEE7     		b	.L8
 230              	.LVL19:
 231              	.L13:
 404:D:/Git/VL53L1/lib/core/src\vl53l1_wait.c **** 	else
 232              		.loc 1 404 3 is_stmt 1 view .LVU62
 404:D:/Git/VL53L1/lib/core/src\vl53l1_wait.c **** 	else
 233              		.loc 1 404 11 is_stmt 0 view .LVU63
 234 003a 0123     		movs	r3, #1
 235 003c 2370     		strb	r3, [r4]
 236 003e F8E7     		b	.L10
 237              		.cfi_endproc
 238              	.LFE132:
 240              		.section	.text.VL53L1_poll_for_boot_completion,"ax",%progbits
 241              		.align	1
 242              		.global	VL53L1_poll_for_boot_completion
 243              		.syntax unified
 244              		.thumb
 245              		.thumb_func
 246              		.fpu fpv4-sp-d16
 248              	VL53L1_poll_for_boot_completion:
 249              	.LVL20:
 250              	.LFB133:
 412:D:/Git/VL53L1/lib/core/src\vl53l1_wait.c **** 
 413:D:/Git/VL53L1/lib/core/src\vl53l1_wait.c **** 
 414:D:/Git/VL53L1/lib/core/src\vl53l1_wait.c **** 
 415:D:/Git/VL53L1/lib/core/src\vl53l1_wait.c **** 
 416:D:/Git/VL53L1/lib/core/src\vl53l1_wait.c **** VL53L1_Error VL53L1_poll_for_boot_completion(
 417:D:/Git/VL53L1/lib/core/src\vl53l1_wait.c **** 	VL53L1_DEV    Dev,
 418:D:/Git/VL53L1/lib/core/src\vl53l1_wait.c **** 	uint32_t      timeout_ms)
 419:D:/Git/VL53L1/lib/core/src\vl53l1_wait.c **** {
 251              		.loc 1 419 1 is_stmt 1 view -0
 252              		.cfi_startproc
 253              		@ args = 0, pretend = 0, frame = 0
 254              		@ frame_needed = 0, uses_anonymous_args = 0
 255              		.loc 1 419 1 is_stmt 0 view .LVU65
 256 0000 70B5     		push	{r4, r5, r6, lr}
 257              		.cfi_def_cfa_offset 16
 258              		.cfi_offset 4, -16
 259              		.cfi_offset 5, -12
 260              		.cfi_offset 6, -8
 261              		.cfi_offset 14, -4
 262 0002 82B0     		sub	sp, sp, #8
 263              		.cfi_def_cfa_offset 24
 264 0004 0546     		mov	r5, r0
 265 0006 0E46     		mov	r6, r1
 420:D:/Git/VL53L1/lib/core/src\vl53l1_wait.c **** 	/**
ARM GAS  C:\Users\Berbardo\AppData\Local\Temp\ccoHSf6h.s 			page 13


 421:D:/Git/VL53L1/lib/core/src\vl53l1_wait.c **** 	 * Polls the bit 0 of the FIRMWARE__SYSTEM_STATUS register to see if
 422:D:/Git/VL53L1/lib/core/src\vl53l1_wait.c **** 	 * the firmware is ready.
 423:D:/Git/VL53L1/lib/core/src\vl53l1_wait.c **** 	 */
 424:D:/Git/VL53L1/lib/core/src\vl53l1_wait.c **** 
 425:D:/Git/VL53L1/lib/core/src\vl53l1_wait.c **** 	VL53L1_Error status       = VL53L1_ERROR_NONE;
 266              		.loc 1 425 2 is_stmt 1 view .LVU66
 267              	.LVL21:
 426:D:/Git/VL53L1/lib/core/src\vl53l1_wait.c **** 
 427:D:/Git/VL53L1/lib/core/src\vl53l1_wait.c **** 	LOG_FUNCTION_START("");
 268              		.loc 1 427 24 view .LVU67
 428:D:/Git/VL53L1/lib/core/src\vl53l1_wait.c **** 
 429:D:/Git/VL53L1/lib/core/src\vl53l1_wait.c **** 	/* after reset for the firmware blocks I2C access while
 430:D:/Git/VL53L1/lib/core/src\vl53l1_wait.c **** 	 * it copies the NVM data into the G02 host register banks
 431:D:/Git/VL53L1/lib/core/src\vl53l1_wait.c **** 	 * The host must wait the required time to allow the copy
 432:D:/Git/VL53L1/lib/core/src\vl53l1_wait.c **** 	 * to complete before attempting to read the firmware status
 433:D:/Git/VL53L1/lib/core/src\vl53l1_wait.c **** 	 */
 434:D:/Git/VL53L1/lib/core/src\vl53l1_wait.c **** 
 435:D:/Git/VL53L1/lib/core/src\vl53l1_wait.c **** 	status = VL53L1_WaitUs(
 269              		.loc 1 435 2 view .LVU68
 270              		.loc 1 435 11 is_stmt 0 view .LVU69
 271 0008 4FF49661 		mov	r1, #1200
 272              	.LVL22:
 273              		.loc 1 435 11 view .LVU70
 274 000c FFF7FEFF 		bl	VL53L1_WaitUs
 275              	.LVL23:
 436:D:/Git/VL53L1/lib/core/src\vl53l1_wait.c **** 			Dev,
 437:D:/Git/VL53L1/lib/core/src\vl53l1_wait.c **** 			VL53L1_FIRMWARE_BOOT_TIME_US);
 438:D:/Git/VL53L1/lib/core/src\vl53l1_wait.c **** 
 439:D:/Git/VL53L1/lib/core/src\vl53l1_wait.c **** 	if (status == VL53L1_ERROR_NONE)
 276              		.loc 1 439 2 is_stmt 1 view .LVU71
 277              		.loc 1 439 5 is_stmt 0 view .LVU72
 278 0010 0446     		mov	r4, r0
 279 0012 18B1     		cbz	r0, .L18
 280              	.LVL24:
 281              	.L15:
 440:D:/Git/VL53L1/lib/core/src\vl53l1_wait.c **** 		status =
 441:D:/Git/VL53L1/lib/core/src\vl53l1_wait.c **** 			VL53L1_WaitValueMaskEx(
 442:D:/Git/VL53L1/lib/core/src\vl53l1_wait.c **** 				Dev,
 443:D:/Git/VL53L1/lib/core/src\vl53l1_wait.c **** 				timeout_ms,
 444:D:/Git/VL53L1/lib/core/src\vl53l1_wait.c **** 				VL53L1_FIRMWARE__SYSTEM_STATUS,
 445:D:/Git/VL53L1/lib/core/src\vl53l1_wait.c **** 				0x01,
 446:D:/Git/VL53L1/lib/core/src\vl53l1_wait.c **** 				0x01,
 447:D:/Git/VL53L1/lib/core/src\vl53l1_wait.c **** 				VL53L1_POLLING_DELAY_MS);
 448:D:/Git/VL53L1/lib/core/src\vl53l1_wait.c **** 
 449:D:/Git/VL53L1/lib/core/src\vl53l1_wait.c **** 	if (status == VL53L1_ERROR_NONE)
 282              		.loc 1 449 2 is_stmt 1 view .LVU73
 283              		.loc 1 449 5 is_stmt 0 view .LVU74
 284 0014 64B1     		cbz	r4, .L19
 285              	.L16:
 450:D:/Git/VL53L1/lib/core/src\vl53l1_wait.c **** 		VL53L1_init_ll_driver_state(Dev, VL53L1_DEVICESTATE_SW_STANDBY);
 451:D:/Git/VL53L1/lib/core/src\vl53l1_wait.c **** 
 452:D:/Git/VL53L1/lib/core/src\vl53l1_wait.c **** 	LOG_FUNCTION_END(status);
 286              		.loc 1 452 26 is_stmt 1 view .LVU75
 453:D:/Git/VL53L1/lib/core/src\vl53l1_wait.c **** 
 454:D:/Git/VL53L1/lib/core/src\vl53l1_wait.c **** 	return status;
 287              		.loc 1 454 2 view .LVU76
 455:D:/Git/VL53L1/lib/core/src\vl53l1_wait.c **** }
ARM GAS  C:\Users\Berbardo\AppData\Local\Temp\ccoHSf6h.s 			page 14


 288              		.loc 1 455 1 is_stmt 0 view .LVU77
 289 0016 2046     		mov	r0, r4
 290 0018 02B0     		add	sp, sp, #8
 291              		.cfi_remember_state
 292              		.cfi_def_cfa_offset 16
 293              		@ sp needed
 294 001a 70BD     		pop	{r4, r5, r6, pc}
 295              	.LVL25:
 296              	.L18:
 297              		.cfi_restore_state
 440:D:/Git/VL53L1/lib/core/src\vl53l1_wait.c **** 			VL53L1_WaitValueMaskEx(
 298              		.loc 1 440 3 is_stmt 1 view .LVU78
 441:D:/Git/VL53L1/lib/core/src\vl53l1_wait.c **** 				Dev,
 299              		.loc 1 441 4 is_stmt 0 view .LVU79
 300 001c 0123     		movs	r3, #1
 301 001e 0193     		str	r3, [sp, #4]
 302 0020 0093     		str	r3, [sp]
 303 0022 E522     		movs	r2, #229
 304 0024 3146     		mov	r1, r6
 305 0026 2846     		mov	r0, r5
 306              	.LVL26:
 441:D:/Git/VL53L1/lib/core/src\vl53l1_wait.c **** 				Dev,
 307              		.loc 1 441 4 view .LVU80
 308 0028 FFF7FEFF 		bl	VL53L1_WaitValueMaskEx
 309              	.LVL27:
 310 002c 0446     		mov	r4, r0
 311              	.LVL28:
 441:D:/Git/VL53L1/lib/core/src\vl53l1_wait.c **** 				Dev,
 312              		.loc 1 441 4 view .LVU81
 313 002e F1E7     		b	.L15
 314              	.L19:
 450:D:/Git/VL53L1/lib/core/src\vl53l1_wait.c **** 
 315              		.loc 1 450 3 is_stmt 1 view .LVU82
 316 0030 0321     		movs	r1, #3
 317 0032 2846     		mov	r0, r5
 318 0034 FFF7FEFF 		bl	VL53L1_init_ll_driver_state
 319              	.LVL29:
 320 0038 EDE7     		b	.L16
 321              		.cfi_endproc
 322              	.LFE133:
 324              		.section	.text.VL53L1_wait_for_boot_completion,"ax",%progbits
 325              		.align	1
 326              		.global	VL53L1_wait_for_boot_completion
 327              		.syntax unified
 328              		.thumb
 329              		.thumb_func
 330              		.fpu fpv4-sp-d16
 332              	VL53L1_wait_for_boot_completion:
 333              	.LVL30:
 334              	.LFB126:
  90:D:/Git/VL53L1/lib/core/src\vl53l1_wait.c **** 
 335              		.loc 1 90 1 view -0
 336              		.cfi_startproc
 337              		@ args = 0, pretend = 0, frame = 8
 338              		@ frame_needed = 0, uses_anonymous_args = 0
  90:D:/Git/VL53L1/lib/core/src\vl53l1_wait.c **** 
 339              		.loc 1 90 1 is_stmt 0 view .LVU84
ARM GAS  C:\Users\Berbardo\AppData\Local\Temp\ccoHSf6h.s 			page 15


 340 0000 10B5     		push	{r4, lr}
 341              		.cfi_def_cfa_offset 8
 342              		.cfi_offset 4, -8
 343              		.cfi_offset 14, -4
 344 0002 82B0     		sub	sp, sp, #8
 345              		.cfi_def_cfa_offset 16
 346 0004 0446     		mov	r4, r0
  95:D:/Git/VL53L1/lib/core/src\vl53l1_wait.c **** 	VL53L1_LLDriverData_t *pdev = VL53L1DevStructGetLLDriverHandle(Dev);
 347              		.loc 1 95 2 is_stmt 1 view .LVU85
 348              	.LVL31:
  96:D:/Git/VL53L1/lib/core/src\vl53l1_wait.c **** 
 349              		.loc 1 96 2 view .LVU86
  98:D:/Git/VL53L1/lib/core/src\vl53l1_wait.c **** 
 350              		.loc 1 98 2 view .LVU87
  98:D:/Git/VL53L1/lib/core/src\vl53l1_wait.c **** 
 351              		.loc 1 98 15 is_stmt 0 view .LVU88
 352 0006 0023     		movs	r3, #0
 353 0008 8DF80730 		strb	r3, [sp, #7]
 100:D:/Git/VL53L1/lib/core/src\vl53l1_wait.c **** 
 354              		.loc 1 100 24 is_stmt 1 view .LVU89
 102:D:/Git/VL53L1/lib/core/src\vl53l1_wait.c **** 
 355              		.loc 1 102 2 view .LVU90
 102:D:/Git/VL53L1/lib/core/src\vl53l1_wait.c **** 
 356              		.loc 1 102 10 is_stmt 0 view .LVU91
 357 000c 0378     		ldrb	r3, [r0]	@ zero_extendqisi2
 102:D:/Git/VL53L1/lib/core/src\vl53l1_wait.c **** 
 358              		.loc 1 102 5 view .LVU92
 359 000e 93B1     		cbz	r3, .L27
  95:D:/Git/VL53L1/lib/core/src\vl53l1_wait.c **** 	VL53L1_LLDriverData_t *pdev = VL53L1DevStructGetLLDriverHandle(Dev);
 360              		.loc 1 95 15 view .LVU93
 361 0010 0023     		movs	r3, #0
 362              	.LVL32:
 363              	.L23:
 116:D:/Git/VL53L1/lib/core/src\vl53l1_wait.c **** 			status = VL53L1_is_boot_complete(
 364              		.loc 1 116 19 view .LVU94
 365 0012 9DF80720 		ldrb	r2, [sp, #7]	@ zero_extendqisi2
 116:D:/Git/VL53L1/lib/core/src\vl53l1_wait.c **** 			status = VL53L1_is_boot_complete(
 366              		.loc 1 116 9 view .LVU95
 367 0016 9AB9     		cbnz	r2, .L22
 116:D:/Git/VL53L1/lib/core/src\vl53l1_wait.c **** 			status = VL53L1_is_boot_complete(
 368              		.loc 1 116 27 discriminator 1 view .LVU96
 369 0018 93B9     		cbnz	r3, .L22
 117:D:/Git/VL53L1/lib/core/src\vl53l1_wait.c **** 				Dev,
 370              		.loc 1 117 4 is_stmt 1 view .LVU97
 117:D:/Git/VL53L1/lib/core/src\vl53l1_wait.c **** 				Dev,
 371              		.loc 1 117 13 is_stmt 0 view .LVU98
 372 001a 0DF10701 		add	r1, sp, #7
 373 001e 2046     		mov	r0, r4
 374 0020 FFF7FEFF 		bl	VL53L1_is_boot_complete
 375              	.LVL33:
 121:D:/Git/VL53L1/lib/core/src\vl53l1_wait.c **** 				status = VL53L1_WaitMs(
 376              		.loc 1 121 4 is_stmt 1 view .LVU99
 121:D:/Git/VL53L1/lib/core/src\vl53l1_wait.c **** 				status = VL53L1_WaitMs(
 377              		.loc 1 121 7 is_stmt 0 view .LVU100
 378 0024 0346     		mov	r3, r0
 379 0026 0028     		cmp	r0, #0
 380 0028 F3D1     		bne	.L23
ARM GAS  C:\Users\Berbardo\AppData\Local\Temp\ccoHSf6h.s 			page 16


 122:D:/Git/VL53L1/lib/core/src\vl53l1_wait.c **** 					Dev,
 381              		.loc 1 122 5 is_stmt 1 view .LVU101
 122:D:/Git/VL53L1/lib/core/src\vl53l1_wait.c **** 					Dev,
 382              		.loc 1 122 14 is_stmt 0 view .LVU102
 383 002a 0121     		movs	r1, #1
 384 002c 2046     		mov	r0, r4
 385              	.LVL34:
 122:D:/Git/VL53L1/lib/core/src\vl53l1_wait.c **** 					Dev,
 386              		.loc 1 122 14 view .LVU103
 387 002e FFF7FEFF 		bl	VL53L1_WaitMs
 388              	.LVL35:
 389 0032 0346     		mov	r3, r0
 390              	.LVL36:
 122:D:/Git/VL53L1/lib/core/src\vl53l1_wait.c **** 					Dev,
 391              		.loc 1 122 14 view .LVU104
 392 0034 EDE7     		b	.L23
 393              	.LVL37:
 394              	.L27:
 106:D:/Git/VL53L1/lib/core/src\vl53l1_wait.c **** 			VL53L1_poll_for_boot_completion(
 395              		.loc 1 106 3 is_stmt 1 view .LVU105
 107:D:/Git/VL53L1/lib/core/src\vl53l1_wait.c **** 				Dev,
 396              		.loc 1 107 4 is_stmt 0 view .LVU106
 397 0036 4FF4FA71 		mov	r1, #500
 398 003a FFF7FEFF 		bl	VL53L1_poll_for_boot_completion
 399              	.LVL38:
 107:D:/Git/VL53L1/lib/core/src\vl53l1_wait.c **** 				Dev,
 400              		.loc 1 107 4 view .LVU107
 401 003e 0346     		mov	r3, r0
 402              	.LVL39:
 403              	.L22:
 129:D:/Git/VL53L1/lib/core/src\vl53l1_wait.c **** 
 404              		.loc 1 129 26 is_stmt 1 view .LVU108
 131:D:/Git/VL53L1/lib/core/src\vl53l1_wait.c **** 
 405              		.loc 1 131 2 view .LVU109
 133:D:/Git/VL53L1/lib/core/src\vl53l1_wait.c **** 
 406              		.loc 1 133 1 is_stmt 0 view .LVU110
 407 0040 1846     		mov	r0, r3
 408 0042 02B0     		add	sp, sp, #8
 409              		.cfi_def_cfa_offset 8
 410              		@ sp needed
 411 0044 10BD     		pop	{r4, pc}
 133:D:/Git/VL53L1/lib/core/src\vl53l1_wait.c **** 
 412              		.loc 1 133 1 view .LVU111
 413              		.cfi_endproc
 414              	.LFE126:
 416              		.section	.text.VL53L1_poll_for_firmware_ready,"ax",%progbits
 417              		.align	1
 418              		.global	VL53L1_poll_for_firmware_ready
 419              		.syntax unified
 420              		.thumb
 421              		.thumb_func
 422              		.fpu fpv4-sp-d16
 424              	VL53L1_poll_for_firmware_ready:
 425              	.LVL40:
 426              	.LFB134:
 456:D:/Git/VL53L1/lib/core/src\vl53l1_wait.c **** 
 457:D:/Git/VL53L1/lib/core/src\vl53l1_wait.c **** 
ARM GAS  C:\Users\Berbardo\AppData\Local\Temp\ccoHSf6h.s 			page 17


 458:D:/Git/VL53L1/lib/core/src\vl53l1_wait.c **** VL53L1_Error VL53L1_poll_for_firmware_ready(
 459:D:/Git/VL53L1/lib/core/src\vl53l1_wait.c **** 	VL53L1_DEV    Dev,
 460:D:/Git/VL53L1/lib/core/src\vl53l1_wait.c **** 	uint32_t      timeout_ms)
 461:D:/Git/VL53L1/lib/core/src\vl53l1_wait.c **** {
 427              		.loc 1 461 1 is_stmt 1 view -0
 428              		.cfi_startproc
 429              		@ args = 0, pretend = 0, frame = 16
 430              		@ frame_needed = 0, uses_anonymous_args = 0
 431              		.loc 1 461 1 is_stmt 0 view .LVU113
 432 0000 70B5     		push	{r4, r5, r6, lr}
 433              		.cfi_def_cfa_offset 16
 434              		.cfi_offset 4, -16
 435              		.cfi_offset 5, -12
 436              		.cfi_offset 6, -8
 437              		.cfi_offset 14, -4
 438 0002 84B0     		sub	sp, sp, #16
 439              		.cfi_def_cfa_offset 32
 440 0004 0446     		mov	r4, r0
 441 0006 0E46     		mov	r6, r1
 462:D:/Git/VL53L1/lib/core/src\vl53l1_wait.c **** 	/**
 463:D:/Git/VL53L1/lib/core/src\vl53l1_wait.c **** 	 * Polls the bit 0 of the FIRMWARE__SYSTEM_STATUS register to see if
 464:D:/Git/VL53L1/lib/core/src\vl53l1_wait.c **** 	 * the firmware is ready.
 465:D:/Git/VL53L1/lib/core/src\vl53l1_wait.c **** 	 */
 466:D:/Git/VL53L1/lib/core/src\vl53l1_wait.c **** 
 467:D:/Git/VL53L1/lib/core/src\vl53l1_wait.c **** 	VL53L1_Error status          = VL53L1_ERROR_NONE;
 442              		.loc 1 467 2 is_stmt 1 view .LVU114
 443              	.LVL41:
 468:D:/Git/VL53L1/lib/core/src\vl53l1_wait.c **** 	VL53L1_LLDriverData_t *pdev = VL53L1DevStructGetLLDriverHandle(Dev);
 444              		.loc 1 468 2 view .LVU115
 469:D:/Git/VL53L1/lib/core/src\vl53l1_wait.c **** 
 470:D:/Git/VL53L1/lib/core/src\vl53l1_wait.c **** 	uint32_t     start_time_ms   = 0;
 445              		.loc 1 470 2 view .LVU116
 446              		.loc 1 470 15 is_stmt 0 view .LVU117
 447 0008 0025     		movs	r5, #0
 448 000a 0395     		str	r5, [sp, #12]
 471:D:/Git/VL53L1/lib/core/src\vl53l1_wait.c **** 	uint32_t     current_time_ms = 0;
 449              		.loc 1 471 2 is_stmt 1 view .LVU118
 450              		.loc 1 471 15 is_stmt 0 view .LVU119
 451 000c 0295     		str	r5, [sp, #8]
 472:D:/Git/VL53L1/lib/core/src\vl53l1_wait.c **** 	int32_t      poll_delay_ms   = VL53L1_POLLING_DELAY_MS;
 452              		.loc 1 472 2 is_stmt 1 view .LVU120
 453              	.LVL42:
 473:D:/Git/VL53L1/lib/core/src\vl53l1_wait.c **** 	uint8_t      fw_ready        = 0;
 454              		.loc 1 473 2 view .LVU121
 455              		.loc 1 473 15 is_stmt 0 view .LVU122
 456 000e 8DF80750 		strb	r5, [sp, #7]
 474:D:/Git/VL53L1/lib/core/src\vl53l1_wait.c **** 
 475:D:/Git/VL53L1/lib/core/src\vl53l1_wait.c **** 	/* calculate time limit in absolute time */
 476:D:/Git/VL53L1/lib/core/src\vl53l1_wait.c **** 
 477:D:/Git/VL53L1/lib/core/src\vl53l1_wait.c **** 	VL53L1_GetTickCount(&start_time_ms); /*lint !e534 ignoring return*/
 457              		.loc 1 477 2 is_stmt 1 view .LVU123
 458 0012 03A8     		add	r0, sp, #12
 459              	.LVL43:
 460              		.loc 1 477 2 is_stmt 0 view .LVU124
 461 0014 FFF7FEFF 		bl	VL53L1_GetTickCount
 462              	.LVL44:
 478:D:/Git/VL53L1/lib/core/src\vl53l1_wait.c **** 	pdev->fw_ready_poll_duration_ms = 0;
ARM GAS  C:\Users\Berbardo\AppData\Local\Temp\ccoHSf6h.s 			page 18


 463              		.loc 1 478 2 is_stmt 1 view .LVU125
 464              		.loc 1 478 34 is_stmt 0 view .LVU126
 465 0018 E561     		str	r5, [r4, #28]
 479:D:/Git/VL53L1/lib/core/src\vl53l1_wait.c **** 
 480:D:/Git/VL53L1/lib/core/src\vl53l1_wait.c **** 	/* wait until firmware is ready, timeout reached on error occurred */
 481:D:/Git/VL53L1/lib/core/src\vl53l1_wait.c **** 
 482:D:/Git/VL53L1/lib/core/src\vl53l1_wait.c **** 	while ((status == VL53L1_ERROR_NONE) &&
 466              		.loc 1 482 2 is_stmt 1 view .LVU127
 467              		.loc 1 482 8 is_stmt 0 view .LVU128
 468 001a 0BE0     		b	.L29
 469              	.LVL45:
 470              	.L36:
 483:D:/Git/VL53L1/lib/core/src\vl53l1_wait.c **** 		   (pdev->fw_ready_poll_duration_ms < timeout_ms) &&
 484:D:/Git/VL53L1/lib/core/src\vl53l1_wait.c **** 		   (fw_ready == 0)) {
 485:D:/Git/VL53L1/lib/core/src\vl53l1_wait.c **** 
 486:D:/Git/VL53L1/lib/core/src\vl53l1_wait.c **** 		status = VL53L1_is_firmware_ready(
 487:D:/Git/VL53L1/lib/core/src\vl53l1_wait.c **** 			Dev,
 488:D:/Git/VL53L1/lib/core/src\vl53l1_wait.c **** 			&fw_ready);
 489:D:/Git/VL53L1/lib/core/src\vl53l1_wait.c **** 
 490:D:/Git/VL53L1/lib/core/src\vl53l1_wait.c **** 		if (status == VL53L1_ERROR_NONE &&
 491:D:/Git/VL53L1/lib/core/src\vl53l1_wait.c **** 			fw_ready == 0 &&
 492:D:/Git/VL53L1/lib/core/src\vl53l1_wait.c **** 			poll_delay_ms > 0) {
 493:D:/Git/VL53L1/lib/core/src\vl53l1_wait.c **** 			status = VL53L1_WaitMs(
 471              		.loc 1 493 4 is_stmt 1 view .LVU129
 472              		.loc 1 493 13 is_stmt 0 view .LVU130
 473 001c 0121     		movs	r1, #1
 474 001e 2046     		mov	r0, r4
 475              	.LVL46:
 476              		.loc 1 493 13 view .LVU131
 477 0020 FFF7FEFF 		bl	VL53L1_WaitMs
 478              	.LVL47:
 479 0024 0546     		mov	r5, r0
 480              	.LVL48:
 481              	.L30:
 494:D:/Git/VL53L1/lib/core/src\vl53l1_wait.c **** 				Dev,
 495:D:/Git/VL53L1/lib/core/src\vl53l1_wait.c **** 				poll_delay_ms);
 496:D:/Git/VL53L1/lib/core/src\vl53l1_wait.c **** 		}
 497:D:/Git/VL53L1/lib/core/src\vl53l1_wait.c **** 
 498:D:/Git/VL53L1/lib/core/src\vl53l1_wait.c **** 		/*
 499:D:/Git/VL53L1/lib/core/src\vl53l1_wait.c **** 		 * Update polling time (Compare difference rather than
 500:D:/Git/VL53L1/lib/core/src\vl53l1_wait.c **** 		 * absolute to negate 32bit wrap around issue)
 501:D:/Git/VL53L1/lib/core/src\vl53l1_wait.c **** 		 */
 502:D:/Git/VL53L1/lib/core/src\vl53l1_wait.c **** 		VL53L1_GetTickCount(&current_time_ms);  /*lint !e534 ignoring return*/
 482              		.loc 1 502 3 is_stmt 1 view .LVU132
 483 0026 02A8     		add	r0, sp, #8
 484 0028 FFF7FEFF 		bl	VL53L1_GetTickCount
 485              	.LVL49:
 503:D:/Git/VL53L1/lib/core/src\vl53l1_wait.c **** 		pdev->fw_ready_poll_duration_ms =
 486              		.loc 1 503 3 view .LVU133
 504:D:/Git/VL53L1/lib/core/src\vl53l1_wait.c **** 				current_time_ms - start_time_ms;
 487              		.loc 1 504 21 is_stmt 0 view .LVU134
 488 002c 029B     		ldr	r3, [sp, #8]
 489 002e 039A     		ldr	r2, [sp, #12]
 490 0030 9B1A     		subs	r3, r3, r2
 503:D:/Git/VL53L1/lib/core/src\vl53l1_wait.c **** 		pdev->fw_ready_poll_duration_ms =
 491              		.loc 1 503 35 view .LVU135
 492 0032 E361     		str	r3, [r4, #28]
ARM GAS  C:\Users\Berbardo\AppData\Local\Temp\ccoHSf6h.s 			page 19


 493              	.LVL50:
 494              	.L29:
 482:D:/Git/VL53L1/lib/core/src\vl53l1_wait.c **** 		   (pdev->fw_ready_poll_duration_ms < timeout_ms) &&
 495              		.loc 1 482 8 view .LVU136
 496 0034 95B9     		cbnz	r5, .L31
 483:D:/Git/VL53L1/lib/core/src\vl53l1_wait.c **** 		   (fw_ready == 0)) {
 497              		.loc 1 483 11 discriminator 1 view .LVU137
 498 0036 E369     		ldr	r3, [r4, #28]
 482:D:/Git/VL53L1/lib/core/src\vl53l1_wait.c **** 		   (pdev->fw_ready_poll_duration_ms < timeout_ms) &&
 499              		.loc 1 482 39 discriminator 1 view .LVU138
 500 0038 B342     		cmp	r3, r6
 501 003a 0FD2     		bcs	.L31
 484:D:/Git/VL53L1/lib/core/src\vl53l1_wait.c **** 
 502              		.loc 1 484 16 view .LVU139
 503 003c 9DF80730 		ldrb	r3, [sp, #7]	@ zero_extendqisi2
 483:D:/Git/VL53L1/lib/core/src\vl53l1_wait.c **** 		   (fw_ready == 0)) {
 504              		.loc 1 483 53 view .LVU140
 505 0040 63B9     		cbnz	r3, .L31
 486:D:/Git/VL53L1/lib/core/src\vl53l1_wait.c **** 			Dev,
 506              		.loc 1 486 3 is_stmt 1 view .LVU141
 486:D:/Git/VL53L1/lib/core/src\vl53l1_wait.c **** 			Dev,
 507              		.loc 1 486 12 is_stmt 0 view .LVU142
 508 0042 0DF10701 		add	r1, sp, #7
 509 0046 2046     		mov	r0, r4
 510 0048 FFF7FEFF 		bl	VL53L1_is_firmware_ready
 511              	.LVL51:
 490:D:/Git/VL53L1/lib/core/src\vl53l1_wait.c **** 			fw_ready == 0 &&
 512              		.loc 1 490 3 is_stmt 1 view .LVU143
 490:D:/Git/VL53L1/lib/core/src\vl53l1_wait.c **** 			fw_ready == 0 &&
 513              		.loc 1 490 6 is_stmt 0 view .LVU144
 514 004c 0546     		mov	r5, r0
 515 004e 0028     		cmp	r0, #0
 516 0050 E9D1     		bne	.L30
 491:D:/Git/VL53L1/lib/core/src\vl53l1_wait.c **** 			poll_delay_ms > 0) {
 517              		.loc 1 491 13 discriminator 1 view .LVU145
 518 0052 9DF80730 		ldrb	r3, [sp, #7]	@ zero_extendqisi2
 490:D:/Git/VL53L1/lib/core/src\vl53l1_wait.c **** 			fw_ready == 0 &&
 519              		.loc 1 490 35 discriminator 1 view .LVU146
 520 0056 002B     		cmp	r3, #0
 521 0058 E5D1     		bne	.L30
 522 005a DFE7     		b	.L36
 523              	.LVL52:
 524              	.L31:
 505:D:/Git/VL53L1/lib/core/src\vl53l1_wait.c **** 	}
 506:D:/Git/VL53L1/lib/core/src\vl53l1_wait.c **** 
 507:D:/Git/VL53L1/lib/core/src\vl53l1_wait.c **** 	if (fw_ready == 0 && status == VL53L1_ERROR_NONE)
 525              		.loc 1 507 2 is_stmt 1 view .LVU147
 526              		.loc 1 507 15 is_stmt 0 view .LVU148
 527 005c 9DF80730 		ldrb	r3, [sp, #7]	@ zero_extendqisi2
 528              		.loc 1 507 5 view .LVU149
 529 0060 03B9     		cbnz	r3, .L33
 530              		.loc 1 507 20 discriminator 1 view .LVU150
 531 0062 15B1     		cbz	r5, .L37
 532              	.LVL53:
 533              	.L33:
 508:D:/Git/VL53L1/lib/core/src\vl53l1_wait.c **** 		status = VL53L1_ERROR_TIME_OUT;
 509:D:/Git/VL53L1/lib/core/src\vl53l1_wait.c **** 
ARM GAS  C:\Users\Berbardo\AppData\Local\Temp\ccoHSf6h.s 			page 20


 510:D:/Git/VL53L1/lib/core/src\vl53l1_wait.c **** 	LOG_FUNCTION_END(status);
 534              		.loc 1 510 26 is_stmt 1 view .LVU151
 511:D:/Git/VL53L1/lib/core/src\vl53l1_wait.c **** 
 512:D:/Git/VL53L1/lib/core/src\vl53l1_wait.c **** 	return status;
 535              		.loc 1 512 2 view .LVU152
 513:D:/Git/VL53L1/lib/core/src\vl53l1_wait.c **** }
 536              		.loc 1 513 1 is_stmt 0 view .LVU153
 537 0064 2846     		mov	r0, r5
 538 0066 04B0     		add	sp, sp, #16
 539              		.cfi_remember_state
 540              		.cfi_def_cfa_offset 16
 541              		@ sp needed
 542 0068 70BD     		pop	{r4, r5, r6, pc}
 543              	.LVL54:
 544              	.L37:
 545              		.cfi_restore_state
 508:D:/Git/VL53L1/lib/core/src\vl53l1_wait.c **** 		status = VL53L1_ERROR_TIME_OUT;
 546              		.loc 1 508 10 view .LVU154
 547 006a 6FF00605 		mvn	r5, #6
 548              	.LVL55:
 508:D:/Git/VL53L1/lib/core/src\vl53l1_wait.c **** 		status = VL53L1_ERROR_TIME_OUT;
 549              		.loc 1 508 10 view .LVU155
 550 006e F9E7     		b	.L33
 551              		.cfi_endproc
 552              	.LFE134:
 554              		.section	.text.VL53L1_wait_for_firmware_ready,"ax",%progbits
 555              		.align	1
 556              		.global	VL53L1_wait_for_firmware_ready
 557              		.syntax unified
 558              		.thumb
 559              		.thumb_func
 560              		.fpu fpv4-sp-d16
 562              	VL53L1_wait_for_firmware_ready:
 563              	.LVL56:
 564              	.LFB127:
 138:D:/Git/VL53L1/lib/core/src\vl53l1_wait.c **** 
 565              		.loc 1 138 1 is_stmt 1 view -0
 566              		.cfi_startproc
 567              		@ args = 0, pretend = 0, frame = 8
 568              		@ frame_needed = 0, uses_anonymous_args = 0
 138:D:/Git/VL53L1/lib/core/src\vl53l1_wait.c **** 
 569              		.loc 1 138 1 is_stmt 0 view .LVU157
 570 0000 10B5     		push	{r4, lr}
 571              		.cfi_def_cfa_offset 8
 572              		.cfi_offset 4, -8
 573              		.cfi_offset 14, -4
 574 0002 82B0     		sub	sp, sp, #8
 575              		.cfi_def_cfa_offset 16
 144:D:/Git/VL53L1/lib/core/src\vl53l1_wait.c **** 	VL53L1_LLDriverData_t *pdev = VL53L1DevStructGetLLDriverHandle(Dev);
 576              		.loc 1 144 2 is_stmt 1 view .LVU158
 577              	.LVL57:
 145:D:/Git/VL53L1/lib/core/src\vl53l1_wait.c **** 
 578              		.loc 1 145 2 view .LVU159
 147:D:/Git/VL53L1/lib/core/src\vl53l1_wait.c **** 	uint8_t      mode_start  = 0;
 579              		.loc 1 147 2 view .LVU160
 147:D:/Git/VL53L1/lib/core/src\vl53l1_wait.c **** 	uint8_t      mode_start  = 0;
 580              		.loc 1 147 15 is_stmt 0 view .LVU161
ARM GAS  C:\Users\Berbardo\AppData\Local\Temp\ccoHSf6h.s 			page 21


 581 0004 0023     		movs	r3, #0
 582 0006 8DF80730 		strb	r3, [sp, #7]
 148:D:/Git/VL53L1/lib/core/src\vl53l1_wait.c **** 
 583              		.loc 1 148 2 is_stmt 1 view .LVU162
 584              	.LVL58:
 150:D:/Git/VL53L1/lib/core/src\vl53l1_wait.c **** 
 585              		.loc 1 150 24 view .LVU163
 155:D:/Git/VL53L1/lib/core/src\vl53l1_wait.c **** 		pdev->sys_ctrl.system__mode_start &
 586              		.loc 1 155 2 view .LVU164
 156:D:/Git/VL53L1/lib/core/src\vl53l1_wait.c **** 		VL53L1_DEVICEMEASUREMENTMODE_MODE_MASK;
 587              		.loc 1 156 17 is_stmt 0 view .LVU165
 588 000a 90F8CC31 		ldrb	r3, [r0, #460]	@ zero_extendqisi2
 155:D:/Git/VL53L1/lib/core/src\vl53l1_wait.c **** 		pdev->sys_ctrl.system__mode_start &
 589              		.loc 1 155 13 view .LVU166
 590 000e 03F0F003 		and	r3, r3, #240
 591              	.LVL59:
 164:D:/Git/VL53L1/lib/core/src\vl53l1_wait.c **** 		(mode_start == VL53L1_DEVICEMEASUREMENTMODE_SINGLESHOT)) {
 592              		.loc 1 164 2 is_stmt 1 view .LVU167
 164:D:/Git/VL53L1/lib/core/src\vl53l1_wait.c **** 		(mode_start == VL53L1_DEVICEMEASUREMENTMODE_SINGLESHOT)) {
 593              		.loc 1 164 5 is_stmt 0 view .LVU168
 594 0012 402B     		cmp	r3, #64
 595 0014 05D0     		beq	.L39
 164:D:/Git/VL53L1/lib/core/src\vl53l1_wait.c **** 		(mode_start == VL53L1_DEVICEMEASUREMENTMODE_SINGLESHOT)) {
 596              		.loc 1 164 57 discriminator 1 view .LVU169
 597 0016 102B     		cmp	r3, #16
 598 0018 03D0     		beq	.L39
 144:D:/Git/VL53L1/lib/core/src\vl53l1_wait.c **** 	VL53L1_LLDriverData_t *pdev = VL53L1DevStructGetLLDriverHandle(Dev);
 599              		.loc 1 144 15 view .LVU170
 600 001a 0023     		movs	r3, #0
 601              	.LVL60:
 602              	.L40:
 195:D:/Git/VL53L1/lib/core/src\vl53l1_wait.c **** 
 603              		.loc 1 195 26 is_stmt 1 view .LVU171
 197:D:/Git/VL53L1/lib/core/src\vl53l1_wait.c **** }
 604              		.loc 1 197 2 view .LVU172
 198:D:/Git/VL53L1/lib/core/src\vl53l1_wait.c **** 
 605              		.loc 1 198 1 is_stmt 0 view .LVU173
 606 001c 1846     		mov	r0, r3
 607 001e 02B0     		add	sp, sp, #8
 608              		.cfi_remember_state
 609              		.cfi_def_cfa_offset 8
 610              		@ sp needed
 611 0020 10BD     		pop	{r4, pc}
 612              	.LVL61:
 613              	.L39:
 614              		.cfi_restore_state
 198:D:/Git/VL53L1/lib/core/src\vl53l1_wait.c **** 
 615              		.loc 1 198 1 view .LVU174
 616 0022 0446     		mov	r4, r0
 167:D:/Git/VL53L1/lib/core/src\vl53l1_wait.c **** 
 617              		.loc 1 167 3 is_stmt 1 view .LVU175
 167:D:/Git/VL53L1/lib/core/src\vl53l1_wait.c **** 
 618              		.loc 1 167 11 is_stmt 0 view .LVU176
 619 0024 0378     		ldrb	r3, [r0]	@ zero_extendqisi2
 620              	.LVL62:
 167:D:/Git/VL53L1/lib/core/src\vl53l1_wait.c **** 
 621              		.loc 1 167 6 view .LVU177
ARM GAS  C:\Users\Berbardo\AppData\Local\Temp\ccoHSf6h.s 			page 22


 622 0026 A3B1     		cbz	r3, .L47
 144:D:/Git/VL53L1/lib/core/src\vl53l1_wait.c **** 	VL53L1_LLDriverData_t *pdev = VL53L1DevStructGetLLDriverHandle(Dev);
 623              		.loc 1 144 15 view .LVU178
 624 0028 0023     		movs	r3, #0
 625              	.LVL63:
 626              	.L42:
 181:D:/Git/VL53L1/lib/core/src\vl53l1_wait.c **** 				status = VL53L1_is_firmware_ready(
 627              		.loc 1 181 20 view .LVU179
 628 002a 9DF80720 		ldrb	r2, [sp, #7]	@ zero_extendqisi2
 181:D:/Git/VL53L1/lib/core/src\vl53l1_wait.c **** 				status = VL53L1_is_firmware_ready(
 629              		.loc 1 181 10 view .LVU180
 630 002e 002A     		cmp	r2, #0
 631 0030 F4D1     		bne	.L40
 181:D:/Git/VL53L1/lib/core/src\vl53l1_wait.c **** 				status = VL53L1_is_firmware_ready(
 632              		.loc 1 181 28 discriminator 1 view .LVU181
 633 0032 002B     		cmp	r3, #0
 634 0034 F2D1     		bne	.L40
 182:D:/Git/VL53L1/lib/core/src\vl53l1_wait.c **** 					Dev,
 635              		.loc 1 182 5 is_stmt 1 view .LVU182
 182:D:/Git/VL53L1/lib/core/src\vl53l1_wait.c **** 					Dev,
 636              		.loc 1 182 14 is_stmt 0 view .LVU183
 637 0036 0DF10701 		add	r1, sp, #7
 638 003a 2046     		mov	r0, r4
 639 003c FFF7FEFF 		bl	VL53L1_is_firmware_ready
 640              	.LVL64:
 186:D:/Git/VL53L1/lib/core/src\vl53l1_wait.c **** 					status = VL53L1_WaitMs(
 641              		.loc 1 186 5 is_stmt 1 view .LVU184
 186:D:/Git/VL53L1/lib/core/src\vl53l1_wait.c **** 					status = VL53L1_WaitMs(
 642              		.loc 1 186 8 is_stmt 0 view .LVU185
 643 0040 0346     		mov	r3, r0
 644 0042 0028     		cmp	r0, #0
 645 0044 F1D1     		bne	.L42
 187:D:/Git/VL53L1/lib/core/src\vl53l1_wait.c **** 						Dev,
 646              		.loc 1 187 6 is_stmt 1 view .LVU186
 187:D:/Git/VL53L1/lib/core/src\vl53l1_wait.c **** 						Dev,
 647              		.loc 1 187 15 is_stmt 0 view .LVU187
 648 0046 0121     		movs	r1, #1
 649 0048 2046     		mov	r0, r4
 650              	.LVL65:
 187:D:/Git/VL53L1/lib/core/src\vl53l1_wait.c **** 						Dev,
 651              		.loc 1 187 15 view .LVU188
 652 004a FFF7FEFF 		bl	VL53L1_WaitMs
 653              	.LVL66:
 654 004e 0346     		mov	r3, r0
 655              	.LVL67:
 187:D:/Git/VL53L1/lib/core/src\vl53l1_wait.c **** 						Dev,
 656              		.loc 1 187 15 view .LVU189
 657 0050 EBE7     		b	.L42
 658              	.LVL68:
 659              	.L47:
 171:D:/Git/VL53L1/lib/core/src\vl53l1_wait.c **** 				VL53L1_poll_for_firmware_ready(
 660              		.loc 1 171 4 is_stmt 1 view .LVU190
 172:D:/Git/VL53L1/lib/core/src\vl53l1_wait.c **** 					Dev,
 661              		.loc 1 172 5 is_stmt 0 view .LVU191
 662 0052 4FF4FA61 		mov	r1, #2000
 663 0056 FFF7FEFF 		bl	VL53L1_poll_for_firmware_ready
 664              	.LVL69:
ARM GAS  C:\Users\Berbardo\AppData\Local\Temp\ccoHSf6h.s 			page 23


 172:D:/Git/VL53L1/lib/core/src\vl53l1_wait.c **** 					Dev,
 665              		.loc 1 172 5 view .LVU192
 666 005a 0346     		mov	r3, r0
 667              	.LVL70:
 172:D:/Git/VL53L1/lib/core/src\vl53l1_wait.c **** 					Dev,
 668              		.loc 1 172 5 view .LVU193
 669 005c DEE7     		b	.L40
 670              		.cfi_endproc
 671              	.LFE127:
 673              		.section	.text.VL53L1_poll_for_range_completion,"ax",%progbits
 674              		.align	1
 675              		.global	VL53L1_poll_for_range_completion
 676              		.syntax unified
 677              		.thumb
 678              		.thumb_func
 679              		.fpu fpv4-sp-d16
 681              	VL53L1_poll_for_range_completion:
 682              	.LVL71:
 683              	.LFB135:
 514:D:/Git/VL53L1/lib/core/src\vl53l1_wait.c **** 
 515:D:/Git/VL53L1/lib/core/src\vl53l1_wait.c **** 
 516:D:/Git/VL53L1/lib/core/src\vl53l1_wait.c **** VL53L1_Error VL53L1_poll_for_range_completion(
 517:D:/Git/VL53L1/lib/core/src\vl53l1_wait.c **** 	VL53L1_DEV     Dev,
 518:D:/Git/VL53L1/lib/core/src\vl53l1_wait.c **** 	uint32_t       timeout_ms)
 519:D:/Git/VL53L1/lib/core/src\vl53l1_wait.c **** {
 684              		.loc 1 519 1 is_stmt 1 view -0
 685              		.cfi_startproc
 686              		@ args = 0, pretend = 0, frame = 0
 687              		@ frame_needed = 0, uses_anonymous_args = 0
 688              		.loc 1 519 1 is_stmt 0 view .LVU195
 689 0000 00B5     		push	{lr}
 690              		.cfi_def_cfa_offset 4
 691              		.cfi_offset 14, -4
 692 0002 83B0     		sub	sp, sp, #12
 693              		.cfi_def_cfa_offset 16
 520:D:/Git/VL53L1/lib/core/src\vl53l1_wait.c **** 	/**
 521:D:/Git/VL53L1/lib/core/src\vl53l1_wait.c **** 	 * Polls bit 0 of VL53L1_GPIO__TIO_HV_STATUS to determine
 522:D:/Git/VL53L1/lib/core/src\vl53l1_wait.c **** 	 * the state of output interrupt pin
 523:D:/Git/VL53L1/lib/core/src\vl53l1_wait.c **** 	 *
 524:D:/Git/VL53L1/lib/core/src\vl53l1_wait.c **** 	 * Interrupt may be either active high or active low. Use active_high to
 525:D:/Git/VL53L1/lib/core/src\vl53l1_wait.c **** 	 * select the required level check
 526:D:/Git/VL53L1/lib/core/src\vl53l1_wait.c **** 	 */
 527:D:/Git/VL53L1/lib/core/src\vl53l1_wait.c **** 
 528:D:/Git/VL53L1/lib/core/src\vl53l1_wait.c **** 	VL53L1_Error status = VL53L1_ERROR_NONE;
 694              		.loc 1 528 2 is_stmt 1 view .LVU196
 695              	.LVL72:
 529:D:/Git/VL53L1/lib/core/src\vl53l1_wait.c **** 	VL53L1_LLDriverData_t *pdev = VL53L1DevStructGetLLDriverHandle(Dev);
 696              		.loc 1 529 2 view .LVU197
 530:D:/Git/VL53L1/lib/core/src\vl53l1_wait.c **** 
 531:D:/Git/VL53L1/lib/core/src\vl53l1_wait.c **** 	uint8_t  gpio__mux_active_high_hv = 0;
 697              		.loc 1 531 2 view .LVU198
 532:D:/Git/VL53L1/lib/core/src\vl53l1_wait.c **** 	uint8_t  interrupt_ready          = 0;
 698              		.loc 1 532 2 view .LVU199
 533:D:/Git/VL53L1/lib/core/src\vl53l1_wait.c **** 
 534:D:/Git/VL53L1/lib/core/src\vl53l1_wait.c **** 	LOG_FUNCTION_START("");
 699              		.loc 1 534 24 view .LVU200
 535:D:/Git/VL53L1/lib/core/src\vl53l1_wait.c **** 
ARM GAS  C:\Users\Berbardo\AppData\Local\Temp\ccoHSf6h.s 			page 24


 536:D:/Git/VL53L1/lib/core/src\vl53l1_wait.c **** 	gpio__mux_active_high_hv =
 700              		.loc 1 536 2 view .LVU201
 537:D:/Git/VL53L1/lib/core/src\vl53l1_wait.c **** 			pdev->stat_cfg.gpio_hv_mux__ctrl &
 701              		.loc 1 537 18 is_stmt 0 view .LVU202
 702 0004 90F87031 		ldrb	r3, [r0, #368]	@ zero_extendqisi2
 703              	.LVL73:
 538:D:/Git/VL53L1/lib/core/src\vl53l1_wait.c **** 			VL53L1_DEVICEINTERRUPTLEVEL_ACTIVE_MASK;
 539:D:/Git/VL53L1/lib/core/src\vl53l1_wait.c **** 
 540:D:/Git/VL53L1/lib/core/src\vl53l1_wait.c **** 	if (gpio__mux_active_high_hv == VL53L1_DEVICEINTERRUPTLEVEL_ACTIVE_HIGH)
 704              		.loc 1 540 2 is_stmt 1 view .LVU203
 705              		.loc 1 540 5 is_stmt 0 view .LVU204
 706 0008 13F0100F 		tst	r3, #16
 707 000c 09D1     		bne	.L50
 541:D:/Git/VL53L1/lib/core/src\vl53l1_wait.c **** 		interrupt_ready = 0x01;
 708              		.loc 1 541 19 view .LVU205
 709 000e 0123     		movs	r3, #1
 710              	.LVL74:
 711              	.L49:
 542:D:/Git/VL53L1/lib/core/src\vl53l1_wait.c **** 	else
 543:D:/Git/VL53L1/lib/core/src\vl53l1_wait.c **** 		interrupt_ready = 0x00;
 544:D:/Git/VL53L1/lib/core/src\vl53l1_wait.c **** 
 545:D:/Git/VL53L1/lib/core/src\vl53l1_wait.c **** 	status =
 712              		.loc 1 545 2 is_stmt 1 view .LVU206
 546:D:/Git/VL53L1/lib/core/src\vl53l1_wait.c **** 		VL53L1_WaitValueMaskEx(
 713              		.loc 1 546 3 is_stmt 0 view .LVU207
 714 0010 0122     		movs	r2, #1
 715 0012 0192     		str	r2, [sp, #4]
 716              	.LVL75:
 717              		.loc 1 546 3 view .LVU208
 718 0014 0092     		str	r2, [sp]
 719 0016 3122     		movs	r2, #49
 720 0018 FFF7FEFF 		bl	VL53L1_WaitValueMaskEx
 721              	.LVL76:
 547:D:/Git/VL53L1/lib/core/src\vl53l1_wait.c **** 			Dev,
 548:D:/Git/VL53L1/lib/core/src\vl53l1_wait.c **** 			timeout_ms,
 549:D:/Git/VL53L1/lib/core/src\vl53l1_wait.c **** 			VL53L1_GPIO__TIO_HV_STATUS,
 550:D:/Git/VL53L1/lib/core/src\vl53l1_wait.c **** 			interrupt_ready,
 551:D:/Git/VL53L1/lib/core/src\vl53l1_wait.c **** 			0x01,
 552:D:/Git/VL53L1/lib/core/src\vl53l1_wait.c **** 			VL53L1_POLLING_DELAY_MS);
 553:D:/Git/VL53L1/lib/core/src\vl53l1_wait.c **** 
 554:D:/Git/VL53L1/lib/core/src\vl53l1_wait.c **** 	LOG_FUNCTION_END(status);
 722              		.loc 1 554 26 is_stmt 1 view .LVU209
 555:D:/Git/VL53L1/lib/core/src\vl53l1_wait.c **** 
 556:D:/Git/VL53L1/lib/core/src\vl53l1_wait.c **** 	return status;
 723              		.loc 1 556 2 view .LVU210
 557:D:/Git/VL53L1/lib/core/src\vl53l1_wait.c **** }
 724              		.loc 1 557 1 is_stmt 0 view .LVU211
 725 001c 03B0     		add	sp, sp, #12
 726              		.cfi_remember_state
 727              		.cfi_def_cfa_offset 4
 728              		@ sp needed
 729 001e 5DF804FB 		ldr	pc, [sp], #4
 730              	.LVL77:
 731              	.L50:
 732              		.cfi_restore_state
 543:D:/Git/VL53L1/lib/core/src\vl53l1_wait.c **** 
 733              		.loc 1 543 19 view .LVU212
ARM GAS  C:\Users\Berbardo\AppData\Local\Temp\ccoHSf6h.s 			page 25


 734 0022 0023     		movs	r3, #0
 735              	.LVL78:
 543:D:/Git/VL53L1/lib/core/src\vl53l1_wait.c **** 
 736              		.loc 1 543 19 view .LVU213
 737 0024 F4E7     		b	.L49
 738              		.cfi_endproc
 739              	.LFE135:
 741              		.section	.text.VL53L1_wait_for_range_completion,"ax",%progbits
 742              		.align	1
 743              		.global	VL53L1_wait_for_range_completion
 744              		.syntax unified
 745              		.thumb
 746              		.thumb_func
 747              		.fpu fpv4-sp-d16
 749              	VL53L1_wait_for_range_completion:
 750              	.LVL79:
 751              	.LFB128:
 203:D:/Git/VL53L1/lib/core/src\vl53l1_wait.c **** 
 752              		.loc 1 203 1 is_stmt 1 view -0
 753              		.cfi_startproc
 754              		@ args = 0, pretend = 0, frame = 8
 755              		@ frame_needed = 0, uses_anonymous_args = 0
 203:D:/Git/VL53L1/lib/core/src\vl53l1_wait.c **** 
 756              		.loc 1 203 1 is_stmt 0 view .LVU215
 757 0000 10B5     		push	{r4, lr}
 758              		.cfi_def_cfa_offset 8
 759              		.cfi_offset 4, -8
 760              		.cfi_offset 14, -4
 761 0002 82B0     		sub	sp, sp, #8
 762              		.cfi_def_cfa_offset 16
 763 0004 0446     		mov	r4, r0
 208:D:/Git/VL53L1/lib/core/src\vl53l1_wait.c **** 	VL53L1_LLDriverData_t *pdev = VL53L1DevStructGetLLDriverHandle(Dev);
 764              		.loc 1 208 2 is_stmt 1 view .LVU216
 765              	.LVL80:
 209:D:/Git/VL53L1/lib/core/src\vl53l1_wait.c **** 
 766              		.loc 1 209 2 view .LVU217
 211:D:/Git/VL53L1/lib/core/src\vl53l1_wait.c **** 
 767              		.loc 1 211 2 view .LVU218
 211:D:/Git/VL53L1/lib/core/src\vl53l1_wait.c **** 
 768              		.loc 1 211 15 is_stmt 0 view .LVU219
 769 0006 0023     		movs	r3, #0
 770 0008 8DF80730 		strb	r3, [sp, #7]
 213:D:/Git/VL53L1/lib/core/src\vl53l1_wait.c **** 
 771              		.loc 1 213 24 is_stmt 1 view .LVU220
 215:D:/Git/VL53L1/lib/core/src\vl53l1_wait.c **** 
 772              		.loc 1 215 2 view .LVU221
 215:D:/Git/VL53L1/lib/core/src\vl53l1_wait.c **** 
 773              		.loc 1 215 10 is_stmt 0 view .LVU222
 774 000c 0378     		ldrb	r3, [r0]	@ zero_extendqisi2
 215:D:/Git/VL53L1/lib/core/src\vl53l1_wait.c **** 
 775              		.loc 1 215 5 view .LVU223
 776 000e 93B1     		cbz	r3, .L59
 208:D:/Git/VL53L1/lib/core/src\vl53l1_wait.c **** 	VL53L1_LLDriverData_t *pdev = VL53L1DevStructGetLLDriverHandle(Dev);
 777              		.loc 1 208 15 view .LVU224
 778 0010 0023     		movs	r3, #0
 779              	.LVL81:
 780              	.L55:
ARM GAS  C:\Users\Berbardo\AppData\Local\Temp\ccoHSf6h.s 			page 26


 229:D:/Git/VL53L1/lib/core/src\vl53l1_wait.c **** 			status = VL53L1_is_new_data_ready(
 781              		.loc 1 229 21 view .LVU225
 782 0012 9DF80720 		ldrb	r2, [sp, #7]	@ zero_extendqisi2
 229:D:/Git/VL53L1/lib/core/src\vl53l1_wait.c **** 			status = VL53L1_is_new_data_ready(
 783              		.loc 1 229 9 view .LVU226
 784 0016 9AB9     		cbnz	r2, .L54
 229:D:/Git/VL53L1/lib/core/src\vl53l1_wait.c **** 			status = VL53L1_is_new_data_ready(
 785              		.loc 1 229 29 discriminator 1 view .LVU227
 786 0018 93B9     		cbnz	r3, .L54
 230:D:/Git/VL53L1/lib/core/src\vl53l1_wait.c **** 				Dev,
 787              		.loc 1 230 4 is_stmt 1 view .LVU228
 230:D:/Git/VL53L1/lib/core/src\vl53l1_wait.c **** 				Dev,
 788              		.loc 1 230 13 is_stmt 0 view .LVU229
 789 001a 0DF10701 		add	r1, sp, #7
 790 001e 2046     		mov	r0, r4
 791 0020 FFF7FEFF 		bl	VL53L1_is_new_data_ready
 792              	.LVL82:
 234:D:/Git/VL53L1/lib/core/src\vl53l1_wait.c **** 				status = VL53L1_WaitMs(
 793              		.loc 1 234 4 is_stmt 1 view .LVU230
 234:D:/Git/VL53L1/lib/core/src\vl53l1_wait.c **** 				status = VL53L1_WaitMs(
 794              		.loc 1 234 7 is_stmt 0 view .LVU231
 795 0024 0346     		mov	r3, r0
 796 0026 0028     		cmp	r0, #0
 797 0028 F3D1     		bne	.L55
 235:D:/Git/VL53L1/lib/core/src\vl53l1_wait.c **** 					Dev,
 798              		.loc 1 235 5 is_stmt 1 view .LVU232
 235:D:/Git/VL53L1/lib/core/src\vl53l1_wait.c **** 					Dev,
 799              		.loc 1 235 14 is_stmt 0 view .LVU233
 800 002a 0121     		movs	r1, #1
 801 002c 2046     		mov	r0, r4
 802              	.LVL83:
 235:D:/Git/VL53L1/lib/core/src\vl53l1_wait.c **** 					Dev,
 803              		.loc 1 235 14 view .LVU234
 804 002e FFF7FEFF 		bl	VL53L1_WaitMs
 805              	.LVL84:
 806 0032 0346     		mov	r3, r0
 807              	.LVL85:
 235:D:/Git/VL53L1/lib/core/src\vl53l1_wait.c **** 					Dev,
 808              		.loc 1 235 14 view .LVU235
 809 0034 EDE7     		b	.L55
 810              	.LVL86:
 811              	.L59:
 219:D:/Git/VL53L1/lib/core/src\vl53l1_wait.c **** 			VL53L1_poll_for_range_completion(
 812              		.loc 1 219 3 is_stmt 1 view .LVU236
 220:D:/Git/VL53L1/lib/core/src\vl53l1_wait.c **** 				Dev,
 813              		.loc 1 220 4 is_stmt 0 view .LVU237
 814 0036 4FF4FA61 		mov	r1, #2000
 815 003a FFF7FEFF 		bl	VL53L1_poll_for_range_completion
 816              	.LVL87:
 220:D:/Git/VL53L1/lib/core/src\vl53l1_wait.c **** 				Dev,
 817              		.loc 1 220 4 view .LVU238
 818 003e 0346     		mov	r3, r0
 819              	.LVL88:
 820              	.L54:
 242:D:/Git/VL53L1/lib/core/src\vl53l1_wait.c **** 
 821              		.loc 1 242 26 is_stmt 1 view .LVU239
 244:D:/Git/VL53L1/lib/core/src\vl53l1_wait.c **** }
ARM GAS  C:\Users\Berbardo\AppData\Local\Temp\ccoHSf6h.s 			page 27


 822              		.loc 1 244 2 view .LVU240
 245:D:/Git/VL53L1/lib/core/src\vl53l1_wait.c **** 
 823              		.loc 1 245 1 is_stmt 0 view .LVU241
 824 0040 1846     		mov	r0, r3
 825 0042 02B0     		add	sp, sp, #8
 826              		.cfi_def_cfa_offset 8
 827              		@ sp needed
 828 0044 10BD     		pop	{r4, pc}
 245:D:/Git/VL53L1/lib/core/src\vl53l1_wait.c **** 
 829              		.loc 1 245 1 view .LVU242
 830              		.cfi_endproc
 831              	.LFE128:
 833              		.section	.text.VL53L1_wait_for_test_completion,"ax",%progbits
 834              		.align	1
 835              		.global	VL53L1_wait_for_test_completion
 836              		.syntax unified
 837              		.thumb
 838              		.thumb_func
 839              		.fpu fpv4-sp-d16
 841              	VL53L1_wait_for_test_completion:
 842              	.LVL89:
 843              	.LFB129:
 250:D:/Git/VL53L1/lib/core/src\vl53l1_wait.c **** 
 844              		.loc 1 250 1 is_stmt 1 view -0
 845              		.cfi_startproc
 846              		@ args = 0, pretend = 0, frame = 8
 847              		@ frame_needed = 0, uses_anonymous_args = 0
 250:D:/Git/VL53L1/lib/core/src\vl53l1_wait.c **** 
 848              		.loc 1 250 1 is_stmt 0 view .LVU244
 849 0000 10B5     		push	{r4, lr}
 850              		.cfi_def_cfa_offset 8
 851              		.cfi_offset 4, -8
 852              		.cfi_offset 14, -4
 853 0002 82B0     		sub	sp, sp, #8
 854              		.cfi_def_cfa_offset 16
 855 0004 0446     		mov	r4, r0
 255:D:/Git/VL53L1/lib/core/src\vl53l1_wait.c **** 	VL53L1_LLDriverData_t *pdev = VL53L1DevStructGetLLDriverHandle(Dev);
 856              		.loc 1 255 2 is_stmt 1 view .LVU245
 857              	.LVL90:
 256:D:/Git/VL53L1/lib/core/src\vl53l1_wait.c **** 
 858              		.loc 1 256 2 view .LVU246
 258:D:/Git/VL53L1/lib/core/src\vl53l1_wait.c **** 
 859              		.loc 1 258 2 view .LVU247
 258:D:/Git/VL53L1/lib/core/src\vl53l1_wait.c **** 
 860              		.loc 1 258 15 is_stmt 0 view .LVU248
 861 0006 0023     		movs	r3, #0
 862 0008 8DF80730 		strb	r3, [sp, #7]
 260:D:/Git/VL53L1/lib/core/src\vl53l1_wait.c **** 
 863              		.loc 1 260 24 is_stmt 1 view .LVU249
 262:D:/Git/VL53L1/lib/core/src\vl53l1_wait.c **** 
 864              		.loc 1 262 2 view .LVU250
 262:D:/Git/VL53L1/lib/core/src\vl53l1_wait.c **** 
 865              		.loc 1 262 10 is_stmt 0 view .LVU251
 866 000c 0378     		ldrb	r3, [r0]	@ zero_extendqisi2
 262:D:/Git/VL53L1/lib/core/src\vl53l1_wait.c **** 
 867              		.loc 1 262 5 view .LVU252
 868 000e 93B1     		cbz	r3, .L67
ARM GAS  C:\Users\Berbardo\AppData\Local\Temp\ccoHSf6h.s 			page 28


 255:D:/Git/VL53L1/lib/core/src\vl53l1_wait.c **** 	VL53L1_LLDriverData_t *pdev = VL53L1DevStructGetLLDriverHandle(Dev);
 869              		.loc 1 255 15 view .LVU253
 870 0010 0023     		movs	r3, #0
 871              	.LVL91:
 872              	.L63:
 276:D:/Git/VL53L1/lib/core/src\vl53l1_wait.c **** 			status = VL53L1_is_new_data_ready(
 873              		.loc 1 276 21 view .LVU254
 874 0012 9DF80720 		ldrb	r2, [sp, #7]	@ zero_extendqisi2
 276:D:/Git/VL53L1/lib/core/src\vl53l1_wait.c **** 			status = VL53L1_is_new_data_ready(
 875              		.loc 1 276 9 view .LVU255
 876 0016 9AB9     		cbnz	r2, .L62
 276:D:/Git/VL53L1/lib/core/src\vl53l1_wait.c **** 			status = VL53L1_is_new_data_ready(
 877              		.loc 1 276 29 discriminator 1 view .LVU256
 878 0018 93B9     		cbnz	r3, .L62
 277:D:/Git/VL53L1/lib/core/src\vl53l1_wait.c **** 				Dev,
 879              		.loc 1 277 4 is_stmt 1 view .LVU257
 277:D:/Git/VL53L1/lib/core/src\vl53l1_wait.c **** 				Dev,
 880              		.loc 1 277 13 is_stmt 0 view .LVU258
 881 001a 0DF10701 		add	r1, sp, #7
 882 001e 2046     		mov	r0, r4
 883 0020 FFF7FEFF 		bl	VL53L1_is_new_data_ready
 884              	.LVL92:
 281:D:/Git/VL53L1/lib/core/src\vl53l1_wait.c **** 				status = VL53L1_WaitMs(
 885              		.loc 1 281 4 is_stmt 1 view .LVU259
 281:D:/Git/VL53L1/lib/core/src\vl53l1_wait.c **** 				status = VL53L1_WaitMs(
 886              		.loc 1 281 7 is_stmt 0 view .LVU260
 887 0024 0346     		mov	r3, r0
 888 0026 0028     		cmp	r0, #0
 889 0028 F3D1     		bne	.L63
 282:D:/Git/VL53L1/lib/core/src\vl53l1_wait.c **** 					Dev,
 890              		.loc 1 282 5 is_stmt 1 view .LVU261
 282:D:/Git/VL53L1/lib/core/src\vl53l1_wait.c **** 					Dev,
 891              		.loc 1 282 14 is_stmt 0 view .LVU262
 892 002a 0121     		movs	r1, #1
 893 002c 2046     		mov	r0, r4
 894              	.LVL93:
 282:D:/Git/VL53L1/lib/core/src\vl53l1_wait.c **** 					Dev,
 895              		.loc 1 282 14 view .LVU263
 896 002e FFF7FEFF 		bl	VL53L1_WaitMs
 897              	.LVL94:
 898 0032 0346     		mov	r3, r0
 899              	.LVL95:
 282:D:/Git/VL53L1/lib/core/src\vl53l1_wait.c **** 					Dev,
 900              		.loc 1 282 14 view .LVU264
 901 0034 EDE7     		b	.L63
 902              	.LVL96:
 903              	.L67:
 266:D:/Git/VL53L1/lib/core/src\vl53l1_wait.c **** 			VL53L1_poll_for_range_completion(
 904              		.loc 1 266 3 is_stmt 1 view .LVU265
 267:D:/Git/VL53L1/lib/core/src\vl53l1_wait.c **** 				Dev,
 905              		.loc 1 267 4 is_stmt 0 view .LVU266
 906 0036 4EF66021 		movw	r1, #60000
 907 003a FFF7FEFF 		bl	VL53L1_poll_for_range_completion
 908              	.LVL97:
 267:D:/Git/VL53L1/lib/core/src\vl53l1_wait.c **** 				Dev,
 909              		.loc 1 267 4 view .LVU267
 910 003e 0346     		mov	r3, r0
ARM GAS  C:\Users\Berbardo\AppData\Local\Temp\ccoHSf6h.s 			page 29


 911              	.LVL98:
 912              	.L62:
 289:D:/Git/VL53L1/lib/core/src\vl53l1_wait.c **** 
 913              		.loc 1 289 26 is_stmt 1 view .LVU268
 291:D:/Git/VL53L1/lib/core/src\vl53l1_wait.c **** }
 914              		.loc 1 291 2 view .LVU269
 292:D:/Git/VL53L1/lib/core/src\vl53l1_wait.c **** 
 915              		.loc 1 292 1 is_stmt 0 view .LVU270
 916 0040 1846     		mov	r0, r3
 917 0042 02B0     		add	sp, sp, #8
 918              		.cfi_def_cfa_offset 8
 919              		@ sp needed
 920 0044 10BD     		pop	{r4, pc}
 292:D:/Git/VL53L1/lib/core/src\vl53l1_wait.c **** 
 921              		.loc 1 292 1 view .LVU271
 922              		.cfi_endproc
 923              	.LFE129:
 925              		.text
 926              	.Letext0:
 927              		.file 2 "c:\\program files (x86)\\gnu tools arm embedded\\8 2019-q3-update\\arm-none-eabi\\include
 928              		.file 3 "c:\\program files (x86)\\gnu tools arm embedded\\8 2019-q3-update\\arm-none-eabi\\include
 929              		.file 4 "c:\\program files (x86)\\gnu tools arm embedded\\8 2019-q3-update\\lib\\gcc\\arm-none-eab
 930              		.file 5 "c:\\program files (x86)\\gnu tools arm embedded\\8 2019-q3-update\\arm-none-eabi\\include
 931              		.file 6 "c:\\program files (x86)\\gnu tools arm embedded\\8 2019-q3-update\\arm-none-eabi\\include
 932              		.file 7 "c:\\program files (x86)\\gnu tools arm embedded\\8 2019-q3-update\\arm-none-eabi\\include
 933              		.file 8 "D:/Git/VL53L1/lib/platform/inc/vl53l1_types.h"
 934              		.file 9 "D:/Git/VL53L1/lib/core/inc/vl53l1_ll_device.h"
 935              		.file 10 "D:/Git/VL53L1/lib/core/inc/vl53l1_error_codes.h"
 936              		.file 11 "D:/Git/VL53L1/lib/core/inc/vl53l1_register_structs.h"
 937              		.file 12 "D:/Git/VL53L1/lib/core/inc/vl53l1_ll_def.h"
 938              		.file 13 "cube/Drivers/CMSIS/Include/core_cm4.h"
 939              		.file 14 "cube/Drivers/CMSIS/Device/ST/STM32F3xx/Include/system_stm32f3xx.h"
 940              		.file 15 "cube/Drivers/CMSIS/Device/ST/STM32F3xx/Include/stm32f303xe.h"
 941              		.file 16 "cube/Drivers/STM32F3xx_HAL_Driver/Inc/stm32f3xx_hal_def.h"
 942              		.file 17 "cube/Drivers/STM32F3xx_HAL_Driver/Inc/stm32f3xx_hal_dma.h"
 943              		.file 18 "cube/Drivers/STM32F3xx_HAL_Driver/Inc/stm32f3xx_hal_i2c.h"
 944              		.file 19 "cube/Drivers/STM32F3xx_HAL_Driver/Inc/stm32f3xx_hal.h"
 945              		.file 20 "D:/Git/VL53L1/lib/core/inc/vl53l1_def.h"
 946              		.file 21 "D:/Git/VL53L1/lib/platform/inc/vl53l1_platform_user_data.h"
 947              		.file 22 "D:/Git/VL53L1/lib/platform/inc/vl53l1_platform.h"
 948              		.file 23 "D:/Git/VL53L1/lib/core/inc/vl53l1_core.h"
 949              		.file 24 "D:/Git/VL53L1/lib/core/inc/vl53l1_silicon_core.h"
ARM GAS  C:\Users\Berbardo\AppData\Local\Temp\ccoHSf6h.s 			page 30

