ARM GAS  C:\Users\Berbardo\AppData\Local\Temp\ccBMvrJ9.s 			page 1


   1              		.cpu cortex-m4
   2              		.eabi_attribute 27, 1
   3              		.eabi_attribute 28, 1
   4              		.eabi_attribute 20, 1
   5              		.eabi_attribute 21, 1
   6              		.eabi_attribute 23, 3
   7              		.eabi_attribute 24, 1
   8              		.eabi_attribute 25, 1
   9              		.eabi_attribute 26, 1
  10              		.eabi_attribute 30, 1
  11              		.eabi_attribute 34, 1
  12              		.eabi_attribute 18, 4
  13              		.file	"vl53l1_api_core.c"
  14              		.text
  15              	.Ltext0:
  16              		.cfi_sections	.debug_frame
  17              		.section	.text.VL53L1_software_reset,"ax",%progbits
  18              		.align	1
  19              		.global	VL53L1_software_reset
  20              		.arch armv7e-m
  21              		.syntax unified
  22              		.thumb
  23              		.thumb_func
  24              		.fpu fpv4-sp-d16
  26              	VL53L1_software_reset:
  27              	.LVL0:
  28              	.LFB128:
  29              		.file 1 "D:/Git/VL53L1/lib/core/src/vl53l1_api_core.c"
   1:D:/Git/VL53L1/lib/core/src\vl53l1_api_core.c **** /*
   2:D:/Git/VL53L1/lib/core/src\vl53l1_api_core.c **** * Copyright (c) 2017, STMicroelectronics - All Rights Reserved
   3:D:/Git/VL53L1/lib/core/src\vl53l1_api_core.c **** *
   4:D:/Git/VL53L1/lib/core/src\vl53l1_api_core.c **** * This file is part of VL53L1 Core and is dual licensed,
   5:D:/Git/VL53L1/lib/core/src\vl53l1_api_core.c **** * either 'STMicroelectronics
   6:D:/Git/VL53L1/lib/core/src\vl53l1_api_core.c **** * Proprietary license'
   7:D:/Git/VL53L1/lib/core/src\vl53l1_api_core.c **** * or 'BSD 3-clause "New" or "Revised" License' , at your option.
   8:D:/Git/VL53L1/lib/core/src\vl53l1_api_core.c **** *
   9:D:/Git/VL53L1/lib/core/src\vl53l1_api_core.c **** ********************************************************************************
  10:D:/Git/VL53L1/lib/core/src\vl53l1_api_core.c **** *
  11:D:/Git/VL53L1/lib/core/src\vl53l1_api_core.c **** * 'STMicroelectronics Proprietary license'
  12:D:/Git/VL53L1/lib/core/src\vl53l1_api_core.c **** *
  13:D:/Git/VL53L1/lib/core/src\vl53l1_api_core.c **** ********************************************************************************
  14:D:/Git/VL53L1/lib/core/src\vl53l1_api_core.c **** *
  15:D:/Git/VL53L1/lib/core/src\vl53l1_api_core.c **** * License terms: STMicroelectronics Proprietary in accordance with licensing
  16:D:/Git/VL53L1/lib/core/src\vl53l1_api_core.c **** * terms at www.st.com/sla0081
  17:D:/Git/VL53L1/lib/core/src\vl53l1_api_core.c **** *
  18:D:/Git/VL53L1/lib/core/src\vl53l1_api_core.c **** * STMicroelectronics confidential
  19:D:/Git/VL53L1/lib/core/src\vl53l1_api_core.c **** * Reproduction and Communication of this document is strictly prohibited unless
  20:D:/Git/VL53L1/lib/core/src\vl53l1_api_core.c **** * specifically authorized in writing by STMicroelectronics.
  21:D:/Git/VL53L1/lib/core/src\vl53l1_api_core.c **** *
  22:D:/Git/VL53L1/lib/core/src\vl53l1_api_core.c **** *
  23:D:/Git/VL53L1/lib/core/src\vl53l1_api_core.c **** ********************************************************************************
  24:D:/Git/VL53L1/lib/core/src\vl53l1_api_core.c **** *
  25:D:/Git/VL53L1/lib/core/src\vl53l1_api_core.c **** * Alternatively, VL53L1 Core may be distributed under the terms of
  26:D:/Git/VL53L1/lib/core/src\vl53l1_api_core.c **** * 'BSD 3-clause "New" or "Revised" License', in which case the following
  27:D:/Git/VL53L1/lib/core/src\vl53l1_api_core.c **** * provisions apply instead of the ones mentioned above :
  28:D:/Git/VL53L1/lib/core/src\vl53l1_api_core.c **** *
  29:D:/Git/VL53L1/lib/core/src\vl53l1_api_core.c **** ********************************************************************************
ARM GAS  C:\Users\Berbardo\AppData\Local\Temp\ccBMvrJ9.s 			page 2


  30:D:/Git/VL53L1/lib/core/src\vl53l1_api_core.c **** *
  31:D:/Git/VL53L1/lib/core/src\vl53l1_api_core.c **** * License terms: BSD 3-clause "New" or "Revised" License.
  32:D:/Git/VL53L1/lib/core/src\vl53l1_api_core.c **** *
  33:D:/Git/VL53L1/lib/core/src\vl53l1_api_core.c **** * Redistribution and use in source and binary forms, with or without
  34:D:/Git/VL53L1/lib/core/src\vl53l1_api_core.c **** * modification, are permitted provided that the following conditions are met:
  35:D:/Git/VL53L1/lib/core/src\vl53l1_api_core.c **** *
  36:D:/Git/VL53L1/lib/core/src\vl53l1_api_core.c **** * 1. Redistributions of source code must retain the above copyright notice, this
  37:D:/Git/VL53L1/lib/core/src\vl53l1_api_core.c **** * list of conditions and the following disclaimer.
  38:D:/Git/VL53L1/lib/core/src\vl53l1_api_core.c **** *
  39:D:/Git/VL53L1/lib/core/src\vl53l1_api_core.c **** * 2. Redistributions in binary form must reproduce the above copyright notice,
  40:D:/Git/VL53L1/lib/core/src\vl53l1_api_core.c **** * this list of conditions and the following disclaimer in the documentation
  41:D:/Git/VL53L1/lib/core/src\vl53l1_api_core.c **** * and/or other materials provided with the distribution.
  42:D:/Git/VL53L1/lib/core/src\vl53l1_api_core.c **** *
  43:D:/Git/VL53L1/lib/core/src\vl53l1_api_core.c **** * 3. Neither the name of the copyright holder nor the names of its contributors
  44:D:/Git/VL53L1/lib/core/src\vl53l1_api_core.c **** * may be used to endorse or promote products derived from this software
  45:D:/Git/VL53L1/lib/core/src\vl53l1_api_core.c **** * without specific prior written permission.
  46:D:/Git/VL53L1/lib/core/src\vl53l1_api_core.c **** *
  47:D:/Git/VL53L1/lib/core/src\vl53l1_api_core.c **** * THIS SOFTWARE IS PROVIDED BY THE COPYRIGHT HOLDERS AND CONTRIBUTORS "AS IS"
  48:D:/Git/VL53L1/lib/core/src\vl53l1_api_core.c **** * AND ANY EXPRESS OR IMPLIED WARRANTIES, INCLUDING, BUT NOT LIMITED TO, THE
  49:D:/Git/VL53L1/lib/core/src\vl53l1_api_core.c **** * IMPLIED WARRANTIES OF MERCHANTABILITY AND FITNESS FOR A PARTICULAR PURPOSE ARE
  50:D:/Git/VL53L1/lib/core/src\vl53l1_api_core.c **** * DISCLAIMED. IN NO EVENT SHALL THE COPYRIGHT HOLDER OR CONTRIBUTORS BE LIABLE
  51:D:/Git/VL53L1/lib/core/src\vl53l1_api_core.c **** * FOR ANY DIRECT, INDIRECT, INCIDENTAL, SPECIAL, EXEMPLARY, OR CONSEQUENTIAL
  52:D:/Git/VL53L1/lib/core/src\vl53l1_api_core.c **** * DAMAGES (INCLUDING, BUT NOT LIMITED TO, PROCUREMENT OF SUBSTITUTE GOODS OR
  53:D:/Git/VL53L1/lib/core/src\vl53l1_api_core.c **** * SERVICES; LOSS OF USE, DATA, OR PROFITS; OR BUSINESS INTERRUPTION) HOWEVER
  54:D:/Git/VL53L1/lib/core/src\vl53l1_api_core.c **** * CAUSED AND ON ANY THEORY OF LIABILITY, WHETHER IN CONTRACT, STRICT LIABILITY,
  55:D:/Git/VL53L1/lib/core/src\vl53l1_api_core.c **** * OR TORT (INCLUDING NEGLIGENCE OR OTHERWISE) ARISING IN ANY WAY OUT OF THE USE
  56:D:/Git/VL53L1/lib/core/src\vl53l1_api_core.c **** * OF THIS SOFTWARE, EVEN IF ADVISED OF THE POSSIBILITY OF SUCH DAMAGE.
  57:D:/Git/VL53L1/lib/core/src\vl53l1_api_core.c **** *
  58:D:/Git/VL53L1/lib/core/src\vl53l1_api_core.c **** *
  59:D:/Git/VL53L1/lib/core/src\vl53l1_api_core.c **** ********************************************************************************
  60:D:/Git/VL53L1/lib/core/src\vl53l1_api_core.c **** *
  61:D:/Git/VL53L1/lib/core/src\vl53l1_api_core.c **** */
  62:D:/Git/VL53L1/lib/core/src\vl53l1_api_core.c **** 
  63:D:/Git/VL53L1/lib/core/src\vl53l1_api_core.c **** /**
  64:D:/Git/VL53L1/lib/core/src\vl53l1_api_core.c ****  * @file  vl53l1_api_core.c
  65:D:/Git/VL53L1/lib/core/src\vl53l1_api_core.c ****  *
  66:D:/Git/VL53L1/lib/core/src\vl53l1_api_core.c ****  * @brief EwokPlus25 low level API function definition
  67:D:/Git/VL53L1/lib/core/src\vl53l1_api_core.c ****  */
  68:D:/Git/VL53L1/lib/core/src\vl53l1_api_core.c **** 
  69:D:/Git/VL53L1/lib/core/src\vl53l1_api_core.c **** 
  70:D:/Git/VL53L1/lib/core/src\vl53l1_api_core.c **** #include "vl53l1_ll_def.h"
  71:D:/Git/VL53L1/lib/core/src\vl53l1_api_core.c **** #include "vl53l1_ll_device.h"
  72:D:/Git/VL53L1/lib/core/src\vl53l1_api_core.c **** #include "vl53l1_platform.h"
  73:D:/Git/VL53L1/lib/core/src\vl53l1_api_core.c **** #include "vl53l1_register_map.h"
  74:D:/Git/VL53L1/lib/core/src\vl53l1_api_core.c **** #include "vl53l1_register_settings.h"
  75:D:/Git/VL53L1/lib/core/src\vl53l1_api_core.c **** #include "vl53l1_register_funcs.h"
  76:D:/Git/VL53L1/lib/core/src\vl53l1_api_core.c **** #include "vl53l1_nvm_map.h"
  77:D:/Git/VL53L1/lib/core/src\vl53l1_api_core.c **** #include "vl53l1_core.h"
  78:D:/Git/VL53L1/lib/core/src\vl53l1_api_core.c **** #include "vl53l1_wait.h"
  79:D:/Git/VL53L1/lib/core/src\vl53l1_api_core.c **** #include "vl53l1_api_preset_modes.h"
  80:D:/Git/VL53L1/lib/core/src\vl53l1_api_core.c **** #include "vl53l1_silicon_core.h"
  81:D:/Git/VL53L1/lib/core/src\vl53l1_api_core.c **** #include "vl53l1_api_core.h"
  82:D:/Git/VL53L1/lib/core/src\vl53l1_api_core.c **** #include "vl53l1_tuning_parm_defaults.h"
  83:D:/Git/VL53L1/lib/core/src\vl53l1_api_core.c **** 
  84:D:/Git/VL53L1/lib/core/src\vl53l1_api_core.c **** #ifdef VL53L1_LOG_ENABLE
  85:D:/Git/VL53L1/lib/core/src\vl53l1_api_core.c **** #include "vl53l1_api_debug.h"
  86:D:/Git/VL53L1/lib/core/src\vl53l1_api_core.c **** #endif
ARM GAS  C:\Users\Berbardo\AppData\Local\Temp\ccBMvrJ9.s 			page 3


  87:D:/Git/VL53L1/lib/core/src\vl53l1_api_core.c **** 
  88:D:/Git/VL53L1/lib/core/src\vl53l1_api_core.c **** #define LOG_FUNCTION_START(fmt, ...) \
  89:D:/Git/VL53L1/lib/core/src\vl53l1_api_core.c **** 	_LOG_FUNCTION_START(VL53L1_TRACE_MODULE_CORE, fmt, ##__VA_ARGS__)
  90:D:/Git/VL53L1/lib/core/src\vl53l1_api_core.c **** #define LOG_FUNCTION_END(status, ...) \
  91:D:/Git/VL53L1/lib/core/src\vl53l1_api_core.c **** 	_LOG_FUNCTION_END(VL53L1_TRACE_MODULE_CORE, status, ##__VA_ARGS__)
  92:D:/Git/VL53L1/lib/core/src\vl53l1_api_core.c **** #define LOG_FUNCTION_END_FMT(status, fmt, ...) \
  93:D:/Git/VL53L1/lib/core/src\vl53l1_api_core.c **** 	_LOG_FUNCTION_END_FMT(VL53L1_TRACE_MODULE_CORE, status, \
  94:D:/Git/VL53L1/lib/core/src\vl53l1_api_core.c **** 	fmt, ##__VA_ARGS__)
  95:D:/Git/VL53L1/lib/core/src\vl53l1_api_core.c **** 
  96:D:/Git/VL53L1/lib/core/src\vl53l1_api_core.c **** #define trace_print(level, ...) \
  97:D:/Git/VL53L1/lib/core/src\vl53l1_api_core.c **** 	_LOG_TRACE_PRINT(VL53L1_TRACE_MODULE_CORE, \
  98:D:/Git/VL53L1/lib/core/src\vl53l1_api_core.c **** 	level, VL53L1_TRACE_FUNCTION_NONE, ##__VA_ARGS__)
  99:D:/Git/VL53L1/lib/core/src\vl53l1_api_core.c **** 
 100:D:/Git/VL53L1/lib/core/src\vl53l1_api_core.c **** #define VL53L1_MAX_I2C_XFER_SIZE 256
 101:D:/Git/VL53L1/lib/core/src\vl53l1_api_core.c **** 
 102:D:/Git/VL53L1/lib/core/src\vl53l1_api_core.c **** #ifdef VL53L1_DEBUG
 103:D:/Git/VL53L1/lib/core/src\vl53l1_api_core.c **** VL53L1_Error VL53L1_get_version(
 104:D:/Git/VL53L1/lib/core/src\vl53l1_api_core.c **** 	VL53L1_DEV           Dev,
 105:D:/Git/VL53L1/lib/core/src\vl53l1_api_core.c **** 	VL53L1_ll_version_t *pdata)
 106:D:/Git/VL53L1/lib/core/src\vl53l1_api_core.c **** {
 107:D:/Git/VL53L1/lib/core/src\vl53l1_api_core.c **** 	/*
 108:D:/Git/VL53L1/lib/core/src\vl53l1_api_core.c **** 	 * respond with the #define values from version.h
 109:D:/Git/VL53L1/lib/core/src\vl53l1_api_core.c **** 	 * using memcpy(dst, src, size in bytes)
 110:D:/Git/VL53L1/lib/core/src\vl53l1_api_core.c **** 	 */
 111:D:/Git/VL53L1/lib/core/src\vl53l1_api_core.c **** 
 112:D:/Git/VL53L1/lib/core/src\vl53l1_api_core.c **** 	VL53L1_LLDriverData_t *pdev = VL53L1DevStructGetLLDriverHandle(Dev);
 113:D:/Git/VL53L1/lib/core/src\vl53l1_api_core.c **** 
 114:D:/Git/VL53L1/lib/core/src\vl53l1_api_core.c **** 	VL53L1_init_version(Dev);
 115:D:/Git/VL53L1/lib/core/src\vl53l1_api_core.c **** 
 116:D:/Git/VL53L1/lib/core/src\vl53l1_api_core.c **** 	memcpy(pdata, &(pdev->version), sizeof(VL53L1_ll_version_t));
 117:D:/Git/VL53L1/lib/core/src\vl53l1_api_core.c **** 
 118:D:/Git/VL53L1/lib/core/src\vl53l1_api_core.c **** 	return VL53L1_ERROR_NONE;
 119:D:/Git/VL53L1/lib/core/src\vl53l1_api_core.c **** }
 120:D:/Git/VL53L1/lib/core/src\vl53l1_api_core.c **** 
 121:D:/Git/VL53L1/lib/core/src\vl53l1_api_core.c **** VL53L1_Error VL53L1_get_device_firmware_version(
 122:D:/Git/VL53L1/lib/core/src\vl53l1_api_core.c **** 	VL53L1_DEV        Dev,
 123:D:/Git/VL53L1/lib/core/src\vl53l1_api_core.c **** 	uint16_t         *pfw_version)
 124:D:/Git/VL53L1/lib/core/src\vl53l1_api_core.c **** {
 125:D:/Git/VL53L1/lib/core/src\vl53l1_api_core.c **** 	/*
 126:D:/Git/VL53L1/lib/core/src\vl53l1_api_core.c **** 	 * Read Firmware version from device
 127:D:/Git/VL53L1/lib/core/src\vl53l1_api_core.c **** 	 */
 128:D:/Git/VL53L1/lib/core/src\vl53l1_api_core.c **** 
 129:D:/Git/VL53L1/lib/core/src\vl53l1_api_core.c **** 	VL53L1_Error  status = VL53L1_ERROR_NONE;
 130:D:/Git/VL53L1/lib/core/src\vl53l1_api_core.c **** 
 131:D:/Git/VL53L1/lib/core/src\vl53l1_api_core.c **** 	LOG_FUNCTION_START("");
 132:D:/Git/VL53L1/lib/core/src\vl53l1_api_core.c **** 
 133:D:/Git/VL53L1/lib/core/src\vl53l1_api_core.c **** 	if (status == VL53L1_ERROR_NONE) /*lint !e774 always true*/
 134:D:/Git/VL53L1/lib/core/src\vl53l1_api_core.c **** 		status = VL53L1_disable_firmware(Dev);
 135:D:/Git/VL53L1/lib/core/src\vl53l1_api_core.c **** 
 136:D:/Git/VL53L1/lib/core/src\vl53l1_api_core.c **** 	if (status == VL53L1_ERROR_NONE)
 137:D:/Git/VL53L1/lib/core/src\vl53l1_api_core.c **** 		status = VL53L1_RdWord(
 138:D:/Git/VL53L1/lib/core/src\vl53l1_api_core.c **** 				Dev,
 139:D:/Git/VL53L1/lib/core/src\vl53l1_api_core.c **** 				VL53L1_MCU_GENERAL_PURPOSE__GP_0,
 140:D:/Git/VL53L1/lib/core/src\vl53l1_api_core.c **** 				pfw_version);
 141:D:/Git/VL53L1/lib/core/src\vl53l1_api_core.c **** 
 142:D:/Git/VL53L1/lib/core/src\vl53l1_api_core.c **** 	if (status == VL53L1_ERROR_NONE)
 143:D:/Git/VL53L1/lib/core/src\vl53l1_api_core.c **** 		status = VL53L1_enable_firmware(Dev);
ARM GAS  C:\Users\Berbardo\AppData\Local\Temp\ccBMvrJ9.s 			page 4


 144:D:/Git/VL53L1/lib/core/src\vl53l1_api_core.c **** 
 145:D:/Git/VL53L1/lib/core/src\vl53l1_api_core.c **** 	LOG_FUNCTION_END(status);
 146:D:/Git/VL53L1/lib/core/src\vl53l1_api_core.c **** 
 147:D:/Git/VL53L1/lib/core/src\vl53l1_api_core.c **** 	return status;
 148:D:/Git/VL53L1/lib/core/src\vl53l1_api_core.c **** }
 149:D:/Git/VL53L1/lib/core/src\vl53l1_api_core.c **** #endif
 150:D:/Git/VL53L1/lib/core/src\vl53l1_api_core.c **** 
 151:D:/Git/VL53L1/lib/core/src\vl53l1_api_core.c **** 
 152:D:/Git/VL53L1/lib/core/src\vl53l1_api_core.c **** VL53L1_Error VL53L1_data_init(
 153:D:/Git/VL53L1/lib/core/src\vl53l1_api_core.c **** 	VL53L1_DEV        Dev,
 154:D:/Git/VL53L1/lib/core/src\vl53l1_api_core.c **** 	uint8_t           read_p2p_data)
 155:D:/Git/VL53L1/lib/core/src\vl53l1_api_core.c **** {
 156:D:/Git/VL53L1/lib/core/src\vl53l1_api_core.c **** 	/*
 157:D:/Git/VL53L1/lib/core/src\vl53l1_api_core.c **** 	 * Initialise pdev data structure
 158:D:/Git/VL53L1/lib/core/src\vl53l1_api_core.c **** 	 */
 159:D:/Git/VL53L1/lib/core/src\vl53l1_api_core.c **** 
 160:D:/Git/VL53L1/lib/core/src\vl53l1_api_core.c **** 	VL53L1_Error status       = VL53L1_ERROR_NONE;
 161:D:/Git/VL53L1/lib/core/src\vl53l1_api_core.c **** 	VL53L1_LLDriverData_t    *pdev =
 162:D:/Git/VL53L1/lib/core/src\vl53l1_api_core.c **** 			VL53L1DevStructGetLLDriverHandle(Dev);
 163:D:/Git/VL53L1/lib/core/src\vl53l1_api_core.c **** 
 164:D:/Git/VL53L1/lib/core/src\vl53l1_api_core.c **** 	VL53L1_init_ll_driver_state(
 165:D:/Git/VL53L1/lib/core/src\vl53l1_api_core.c **** 			Dev,
 166:D:/Git/VL53L1/lib/core/src\vl53l1_api_core.c **** 			VL53L1_DEVICESTATE_UNKNOWN);
 167:D:/Git/VL53L1/lib/core/src\vl53l1_api_core.c **** 
 168:D:/Git/VL53L1/lib/core/src\vl53l1_api_core.c **** 	pdev->wait_method             = VL53L1_WAIT_METHOD_BLOCKING;
 169:D:/Git/VL53L1/lib/core/src\vl53l1_api_core.c **** 	pdev->preset_mode             = VL53L1_DEVICEPRESETMODE_STANDARD_RANGING;
 170:D:/Git/VL53L1/lib/core/src\vl53l1_api_core.c **** 	pdev->measurement_mode        = VL53L1_DEVICEMEASUREMENTMODE_STOP;
 171:D:/Git/VL53L1/lib/core/src\vl53l1_api_core.c **** 
 172:D:/Git/VL53L1/lib/core/src\vl53l1_api_core.c **** 	pdev->offset_calibration_mode =
 173:D:/Git/VL53L1/lib/core/src\vl53l1_api_core.c **** 		VL53L1_OFFSETCALIBRATIONMODE__MM1_MM2__STANDARD;
 174:D:/Git/VL53L1/lib/core/src\vl53l1_api_core.c **** 	pdev->offset_correction_mode  =
 175:D:/Git/VL53L1/lib/core/src\vl53l1_api_core.c **** 		VL53L1_OFFSETCORRECTIONMODE__MM1_MM2_OFFSETS;
 176:D:/Git/VL53L1/lib/core/src\vl53l1_api_core.c **** 
 177:D:/Git/VL53L1/lib/core/src\vl53l1_api_core.c **** 	pdev->phasecal_config_timeout_us  =  1000;
 178:D:/Git/VL53L1/lib/core/src\vl53l1_api_core.c **** 	pdev->mm_config_timeout_us        =  2000;
 179:D:/Git/VL53L1/lib/core/src\vl53l1_api_core.c **** 	pdev->range_config_timeout_us     = 13000;
 180:D:/Git/VL53L1/lib/core/src\vl53l1_api_core.c **** 	pdev->inter_measurement_period_ms =   100;
 181:D:/Git/VL53L1/lib/core/src\vl53l1_api_core.c **** 	pdev->dss_config__target_total_rate_mcps = 0x0A00;
 182:D:/Git/VL53L1/lib/core/src\vl53l1_api_core.c **** 	pdev->debug_mode                  =  0x00;
 183:D:/Git/VL53L1/lib/core/src\vl53l1_api_core.c **** 
 184:D:/Git/VL53L1/lib/core/src\vl53l1_api_core.c **** 	/* initialise gain calibration values to tuning parameter values */
 185:D:/Git/VL53L1/lib/core/src\vl53l1_api_core.c **** 
 186:D:/Git/VL53L1/lib/core/src\vl53l1_api_core.c **** 	pdev->gain_cal.standard_ranging_gain_factor =
 187:D:/Git/VL53L1/lib/core/src\vl53l1_api_core.c **** 			VL53L1_TUNINGPARM_LITE_RANGING_GAIN_FACTOR_DEFAULT;
 188:D:/Git/VL53L1/lib/core/src\vl53l1_api_core.c **** 
 189:D:/Git/VL53L1/lib/core/src\vl53l1_api_core.c **** 	/*
 190:D:/Git/VL53L1/lib/core/src\vl53l1_api_core.c **** 	 * Initialise version structure
 191:D:/Git/VL53L1/lib/core/src\vl53l1_api_core.c **** 	 */
 192:D:/Git/VL53L1/lib/core/src\vl53l1_api_core.c **** 	VL53L1_init_version(Dev);
 193:D:/Git/VL53L1/lib/core/src\vl53l1_api_core.c **** 
 194:D:/Git/VL53L1/lib/core/src\vl53l1_api_core.c **** 	/*
 195:D:/Git/VL53L1/lib/core/src\vl53l1_api_core.c **** 	 *  For C-API one time initialization only read device G02 registers
 196:D:/Git/VL53L1/lib/core/src\vl53l1_api_core.c **** 	 *  containing data copied from NVM
 197:D:/Git/VL53L1/lib/core/src\vl53l1_api_core.c **** 	 *
 198:D:/Git/VL53L1/lib/core/src\vl53l1_api_core.c **** 	 *  Contains the key NVM data e.g identification info fast oscillator
 199:D:/Git/VL53L1/lib/core/src\vl53l1_api_core.c **** 	 *  freq, max trim and laser safety info
 200:D:/Git/VL53L1/lib/core/src\vl53l1_api_core.c **** 	 */
ARM GAS  C:\Users\Berbardo\AppData\Local\Temp\ccBMvrJ9.s 			page 5


 201:D:/Git/VL53L1/lib/core/src\vl53l1_api_core.c **** 
 202:D:/Git/VL53L1/lib/core/src\vl53l1_api_core.c **** 	if (read_p2p_data > 0 && status == VL53L1_ERROR_NONE) /*lint !e774 always true*/
 203:D:/Git/VL53L1/lib/core/src\vl53l1_api_core.c **** 			status = VL53L1_read_p2p_data(Dev);
 204:D:/Git/VL53L1/lib/core/src\vl53l1_api_core.c **** 
 205:D:/Git/VL53L1/lib/core/src\vl53l1_api_core.c **** 	/* Initialise Ref SPAD Char configuration structure */
 206:D:/Git/VL53L1/lib/core/src\vl53l1_api_core.c **** #ifndef VL53L1_NOCALIB
 207:D:/Git/VL53L1/lib/core/src\vl53l1_api_core.c **** 	status =
 208:D:/Git/VL53L1/lib/core/src\vl53l1_api_core.c **** 		VL53L1_init_refspadchar_config_struct(
 209:D:/Git/VL53L1/lib/core/src\vl53l1_api_core.c **** 			&(pdev->refspadchar));
 210:D:/Git/VL53L1/lib/core/src\vl53l1_api_core.c **** #endif
 211:D:/Git/VL53L1/lib/core/src\vl53l1_api_core.c **** 
 212:D:/Git/VL53L1/lib/core/src\vl53l1_api_core.c **** 	/* Initialise SPAD Self Check (SSC) configuration structure */
 213:D:/Git/VL53L1/lib/core/src\vl53l1_api_core.c **** #ifndef VL53L1_NOCALIB
 214:D:/Git/VL53L1/lib/core/src\vl53l1_api_core.c **** 	status =
 215:D:/Git/VL53L1/lib/core/src\vl53l1_api_core.c **** 		VL53L1_init_ssc_config_struct(
 216:D:/Git/VL53L1/lib/core/src\vl53l1_api_core.c **** 			&(pdev->ssc_cfg));
 217:D:/Git/VL53L1/lib/core/src\vl53l1_api_core.c **** #endif
 218:D:/Git/VL53L1/lib/core/src\vl53l1_api_core.c **** 
 219:D:/Git/VL53L1/lib/core/src\vl53l1_api_core.c **** 	/* Initialise Private Xtalk configuration structure
 220:D:/Git/VL53L1/lib/core/src\vl53l1_api_core.c **** 	 * - Fill with customer NVM data to begin
 221:D:/Git/VL53L1/lib/core/src\vl53l1_api_core.c **** 	 */
 222:D:/Git/VL53L1/lib/core/src\vl53l1_api_core.c **** 	status =
 223:D:/Git/VL53L1/lib/core/src\vl53l1_api_core.c **** 		VL53L1_init_xtalk_config_struct(
 224:D:/Git/VL53L1/lib/core/src\vl53l1_api_core.c **** 			&(pdev->customer),
 225:D:/Git/VL53L1/lib/core/src\vl53l1_api_core.c **** 			&(pdev->xtalk_cfg));
 226:D:/Git/VL53L1/lib/core/src\vl53l1_api_core.c **** 
 227:D:/Git/VL53L1/lib/core/src\vl53l1_api_core.c **** 	/* Initialise Offset Calibration configuration structure
 228:D:/Git/VL53L1/lib/core/src\vl53l1_api_core.c **** 	 */
 229:D:/Git/VL53L1/lib/core/src\vl53l1_api_core.c **** #ifndef VL53L1_NOCALIB
 230:D:/Git/VL53L1/lib/core/src\vl53l1_api_core.c **** 	status =
 231:D:/Git/VL53L1/lib/core/src\vl53l1_api_core.c **** 		VL53L1_init_offset_cal_config_struct(
 232:D:/Git/VL53L1/lib/core/src\vl53l1_api_core.c **** 		    &(pdev->offsetcal_cfg));
 233:D:/Git/VL53L1/lib/core/src\vl53l1_api_core.c **** #endif
 234:D:/Git/VL53L1/lib/core/src\vl53l1_api_core.c **** 
 235:D:/Git/VL53L1/lib/core/src\vl53l1_api_core.c **** 	/* Initialise Tuning Parameter structure
 236:D:/Git/VL53L1/lib/core/src\vl53l1_api_core.c **** 	 * - Added as part of Patch_AddingTuningParmStorage_11821
 237:D:/Git/VL53L1/lib/core/src\vl53l1_api_core.c **** 	 */
 238:D:/Git/VL53L1/lib/core/src\vl53l1_api_core.c **** 	status =
 239:D:/Git/VL53L1/lib/core/src\vl53l1_api_core.c **** 		VL53L1_init_tuning_parm_storage_struct(
 240:D:/Git/VL53L1/lib/core/src\vl53l1_api_core.c **** 			&(pdev->tuning_parms));
 241:D:/Git/VL53L1/lib/core/src\vl53l1_api_core.c **** 
 242:D:/Git/VL53L1/lib/core/src\vl53l1_api_core.c **** 	status = VL53L1_set_vhv_loopbound(Dev,
 243:D:/Git/VL53L1/lib/core/src\vl53l1_api_core.c **** 		VL53L1_TUNINGPARM_VHV_LOOPBOUND_DEFAULT);
 244:D:/Git/VL53L1/lib/core/src\vl53l1_api_core.c **** 
 245:D:/Git/VL53L1/lib/core/src\vl53l1_api_core.c **** 	/*
 246:D:/Git/VL53L1/lib/core/src\vl53l1_api_core.c **** 	 * Initialise default settings - much happen *after*
 247:D:/Git/VL53L1/lib/core/src\vl53l1_api_core.c **** 	 * reading /setting  of static_nvm_managed
 248:D:/Git/VL53L1/lib/core/src\vl53l1_api_core.c **** 	 */
 249:D:/Git/VL53L1/lib/core/src\vl53l1_api_core.c **** 
 250:D:/Git/VL53L1/lib/core/src\vl53l1_api_core.c **** 	if (status == VL53L1_ERROR_NONE)
 251:D:/Git/VL53L1/lib/core/src\vl53l1_api_core.c **** 		status = VL53L1_set_preset_mode(
 252:D:/Git/VL53L1/lib/core/src\vl53l1_api_core.c **** 						Dev,
 253:D:/Git/VL53L1/lib/core/src\vl53l1_api_core.c **** 						pdev->preset_mode,
 254:D:/Git/VL53L1/lib/core/src\vl53l1_api_core.c **** 						pdev->dss_config__target_total_rate_mcps,  /* 9.7 format 20Mcps */
 255:D:/Git/VL53L1/lib/core/src\vl53l1_api_core.c **** 						pdev->phasecal_config_timeout_us,
 256:D:/Git/VL53L1/lib/core/src\vl53l1_api_core.c **** 						pdev->mm_config_timeout_us,
 257:D:/Git/VL53L1/lib/core/src\vl53l1_api_core.c **** 						pdev->range_config_timeout_us,
ARM GAS  C:\Users\Berbardo\AppData\Local\Temp\ccBMvrJ9.s 			page 6


 258:D:/Git/VL53L1/lib/core/src\vl53l1_api_core.c **** 						pdev->inter_measurement_period_ms);
 259:D:/Git/VL53L1/lib/core/src\vl53l1_api_core.c **** 
 260:D:/Git/VL53L1/lib/core/src\vl53l1_api_core.c **** 	/* Initial Low Power Auto Mode data structures */
 261:D:/Git/VL53L1/lib/core/src\vl53l1_api_core.c **** 	/* Added for Patch_LowPowerAutoMode */
 262:D:/Git/VL53L1/lib/core/src\vl53l1_api_core.c **** 	VL53L1_low_power_auto_data_init(
 263:D:/Git/VL53L1/lib/core/src\vl53l1_api_core.c **** 			Dev
 264:D:/Git/VL53L1/lib/core/src\vl53l1_api_core.c **** 			);
 265:D:/Git/VL53L1/lib/core/src\vl53l1_api_core.c **** 
 266:D:/Git/VL53L1/lib/core/src\vl53l1_api_core.c **** #ifdef VL53L1_LOG_ENABLE
 267:D:/Git/VL53L1/lib/core/src\vl53l1_api_core.c **** 
 268:D:/Git/VL53L1/lib/core/src\vl53l1_api_core.c **** 	/* Prints out the initial calibration data for debug */
 269:D:/Git/VL53L1/lib/core/src\vl53l1_api_core.c **** 
 270:D:/Git/VL53L1/lib/core/src\vl53l1_api_core.c **** 	VL53L1_print_static_nvm_managed(
 271:D:/Git/VL53L1/lib/core/src\vl53l1_api_core.c **** 		&(pdev->stat_nvm),
 272:D:/Git/VL53L1/lib/core/src\vl53l1_api_core.c **** 		"data_init():pdev->lldata.stat_nvm.",
 273:D:/Git/VL53L1/lib/core/src\vl53l1_api_core.c **** 		VL53L1_TRACE_MODULE_DATA_INIT);
 274:D:/Git/VL53L1/lib/core/src\vl53l1_api_core.c **** 
 275:D:/Git/VL53L1/lib/core/src\vl53l1_api_core.c **** 	VL53L1_print_customer_nvm_managed(
 276:D:/Git/VL53L1/lib/core/src\vl53l1_api_core.c **** 		&(pdev->customer),
 277:D:/Git/VL53L1/lib/core/src\vl53l1_api_core.c **** 		"data_init():pdev->lldata.customer.",
 278:D:/Git/VL53L1/lib/core/src\vl53l1_api_core.c **** 		VL53L1_TRACE_MODULE_DATA_INIT);
 279:D:/Git/VL53L1/lib/core/src\vl53l1_api_core.c **** 
 280:D:/Git/VL53L1/lib/core/src\vl53l1_api_core.c **** 	VL53L1_print_nvm_copy_data(
 281:D:/Git/VL53L1/lib/core/src\vl53l1_api_core.c **** 		&(pdev->nvm_copy_data),
 282:D:/Git/VL53L1/lib/core/src\vl53l1_api_core.c **** 		"data_init():pdev->lldata.nvm_copy_data.",
 283:D:/Git/VL53L1/lib/core/src\vl53l1_api_core.c **** 		VL53L1_TRACE_MODULE_DATA_INIT);
 284:D:/Git/VL53L1/lib/core/src\vl53l1_api_core.c **** 
 285:D:/Git/VL53L1/lib/core/src\vl53l1_api_core.c **** 	VL53L1_print_additional_offset_cal_data(
 286:D:/Git/VL53L1/lib/core/src\vl53l1_api_core.c **** 		&(pdev->add_off_cal_data),
 287:D:/Git/VL53L1/lib/core/src\vl53l1_api_core.c **** 		"data_init():pdev->lldata.add_off_cal_data.",
 288:D:/Git/VL53L1/lib/core/src\vl53l1_api_core.c **** 		VL53L1_TRACE_MODULE_DATA_INIT);
 289:D:/Git/VL53L1/lib/core/src\vl53l1_api_core.c **** 
 290:D:/Git/VL53L1/lib/core/src\vl53l1_api_core.c **** 	VL53L1_print_user_zone(
 291:D:/Git/VL53L1/lib/core/src\vl53l1_api_core.c **** 		&(pdev->mm_roi),
 292:D:/Git/VL53L1/lib/core/src\vl53l1_api_core.c **** 		"data_init():pdev->lldata.mm_roi.",
 293:D:/Git/VL53L1/lib/core/src\vl53l1_api_core.c **** 		VL53L1_TRACE_MODULE_DATA_INIT);
 294:D:/Git/VL53L1/lib/core/src\vl53l1_api_core.c **** 
 295:D:/Git/VL53L1/lib/core/src\vl53l1_api_core.c **** 	VL53L1_print_optical_centre(
 296:D:/Git/VL53L1/lib/core/src\vl53l1_api_core.c **** 		&(pdev->optical_centre),
 297:D:/Git/VL53L1/lib/core/src\vl53l1_api_core.c **** 		"data_init():pdev->lldata.optical_centre.",
 298:D:/Git/VL53L1/lib/core/src\vl53l1_api_core.c **** 		VL53L1_TRACE_MODULE_DATA_INIT);
 299:D:/Git/VL53L1/lib/core/src\vl53l1_api_core.c **** 
 300:D:/Git/VL53L1/lib/core/src\vl53l1_api_core.c **** 	VL53L1_print_cal_peak_rate_map(
 301:D:/Git/VL53L1/lib/core/src\vl53l1_api_core.c **** 		&(pdev->cal_peak_rate_map),
 302:D:/Git/VL53L1/lib/core/src\vl53l1_api_core.c **** 		"data_init():pdev->lldata.cal_peak_rate_map.",
 303:D:/Git/VL53L1/lib/core/src\vl53l1_api_core.c **** 		VL53L1_TRACE_MODULE_DATA_INIT);
 304:D:/Git/VL53L1/lib/core/src\vl53l1_api_core.c **** 
 305:D:/Git/VL53L1/lib/core/src\vl53l1_api_core.c **** #endif
 306:D:/Git/VL53L1/lib/core/src\vl53l1_api_core.c **** 
 307:D:/Git/VL53L1/lib/core/src\vl53l1_api_core.c **** 	LOG_FUNCTION_END(status);
 308:D:/Git/VL53L1/lib/core/src\vl53l1_api_core.c **** 
 309:D:/Git/VL53L1/lib/core/src\vl53l1_api_core.c **** 	return status;
 310:D:/Git/VL53L1/lib/core/src\vl53l1_api_core.c **** }
 311:D:/Git/VL53L1/lib/core/src\vl53l1_api_core.c **** 
 312:D:/Git/VL53L1/lib/core/src\vl53l1_api_core.c **** 
 313:D:/Git/VL53L1/lib/core/src\vl53l1_api_core.c **** VL53L1_Error VL53L1_read_p2p_data(
 314:D:/Git/VL53L1/lib/core/src\vl53l1_api_core.c **** 	VL53L1_DEV        Dev)
ARM GAS  C:\Users\Berbardo\AppData\Local\Temp\ccBMvrJ9.s 			page 7


 315:D:/Git/VL53L1/lib/core/src\vl53l1_api_core.c **** {
 316:D:/Git/VL53L1/lib/core/src\vl53l1_api_core.c **** 
 317:D:/Git/VL53L1/lib/core/src\vl53l1_api_core.c **** 	/*
 318:D:/Git/VL53L1/lib/core/src\vl53l1_api_core.c **** 	 *  For C-API one time initialization only reads device
 319:D:/Git/VL53L1/lib/core/src\vl53l1_api_core.c **** 	 *  G02 registers containing data copied from NVM
 320:D:/Git/VL53L1/lib/core/src\vl53l1_api_core.c **** 	 *
 321:D:/Git/VL53L1/lib/core/src\vl53l1_api_core.c **** 	 *  Contains the key NVM data e.g identification info
 322:D:/Git/VL53L1/lib/core/src\vl53l1_api_core.c **** 	 *  fast oscillator freq, max trim and laser safety info
 323:D:/Git/VL53L1/lib/core/src\vl53l1_api_core.c **** 	 */
 324:D:/Git/VL53L1/lib/core/src\vl53l1_api_core.c **** 
 325:D:/Git/VL53L1/lib/core/src\vl53l1_api_core.c **** 	VL53L1_Error status       = VL53L1_ERROR_NONE;
 326:D:/Git/VL53L1/lib/core/src\vl53l1_api_core.c **** 	VL53L1_LLDriverData_t *pdev = VL53L1DevStructGetLLDriverHandle(Dev);
 327:D:/Git/VL53L1/lib/core/src\vl53l1_api_core.c **** 
 328:D:/Git/VL53L1/lib/core/src\vl53l1_api_core.c **** 	LOG_FUNCTION_START("");
 329:D:/Git/VL53L1/lib/core/src\vl53l1_api_core.c **** 
 330:D:/Git/VL53L1/lib/core/src\vl53l1_api_core.c **** 	if (status == VL53L1_ERROR_NONE)
 331:D:/Git/VL53L1/lib/core/src\vl53l1_api_core.c **** 		status = VL53L1_get_static_nvm_managed(
 332:D:/Git/VL53L1/lib/core/src\vl53l1_api_core.c **** 						Dev,
 333:D:/Git/VL53L1/lib/core/src\vl53l1_api_core.c **** 						&(pdev->stat_nvm));
 334:D:/Git/VL53L1/lib/core/src\vl53l1_api_core.c **** 
 335:D:/Git/VL53L1/lib/core/src\vl53l1_api_core.c **** 	if (status == VL53L1_ERROR_NONE)
 336:D:/Git/VL53L1/lib/core/src\vl53l1_api_core.c **** 		status = VL53L1_get_customer_nvm_managed(
 337:D:/Git/VL53L1/lib/core/src\vl53l1_api_core.c **** 						Dev,
 338:D:/Git/VL53L1/lib/core/src\vl53l1_api_core.c **** 						&(pdev->customer));
 339:D:/Git/VL53L1/lib/core/src\vl53l1_api_core.c **** 
 340:D:/Git/VL53L1/lib/core/src\vl53l1_api_core.c **** 	if (status == VL53L1_ERROR_NONE) {
 341:D:/Git/VL53L1/lib/core/src\vl53l1_api_core.c **** 
 342:D:/Git/VL53L1/lib/core/src\vl53l1_api_core.c **** 		status = VL53L1_get_nvm_copy_data(
 343:D:/Git/VL53L1/lib/core/src\vl53l1_api_core.c **** 						Dev,
 344:D:/Git/VL53L1/lib/core/src\vl53l1_api_core.c **** 						&(pdev->nvm_copy_data));
 345:D:/Git/VL53L1/lib/core/src\vl53l1_api_core.c **** 
 346:D:/Git/VL53L1/lib/core/src\vl53l1_api_core.c **** 		/* copy Return Good SPADs to buffer */
 347:D:/Git/VL53L1/lib/core/src\vl53l1_api_core.c **** 		if (status == VL53L1_ERROR_NONE)
 348:D:/Git/VL53L1/lib/core/src\vl53l1_api_core.c **** 			VL53L1_copy_rtn_good_spads_to_buffer(
 349:D:/Git/VL53L1/lib/core/src\vl53l1_api_core.c **** 					&(pdev->nvm_copy_data),
 350:D:/Git/VL53L1/lib/core/src\vl53l1_api_core.c **** 					&(pdev->rtn_good_spads[0]));
 351:D:/Git/VL53L1/lib/core/src\vl53l1_api_core.c **** 	}
 352:D:/Git/VL53L1/lib/core/src\vl53l1_api_core.c **** 
 353:D:/Git/VL53L1/lib/core/src\vl53l1_api_core.c **** 	/*
 354:D:/Git/VL53L1/lib/core/src\vl53l1_api_core.c **** 	 * read slow osc calibration value
 355:D:/Git/VL53L1/lib/core/src\vl53l1_api_core.c **** 	 * counts per ms
 356:D:/Git/VL53L1/lib/core/src\vl53l1_api_core.c **** 	 */
 357:D:/Git/VL53L1/lib/core/src\vl53l1_api_core.c **** 	if (status == VL53L1_ERROR_NONE)
 358:D:/Git/VL53L1/lib/core/src\vl53l1_api_core.c **** 		status =
 359:D:/Git/VL53L1/lib/core/src\vl53l1_api_core.c **** 			VL53L1_RdWord(
 360:D:/Git/VL53L1/lib/core/src\vl53l1_api_core.c **** 				Dev,
 361:D:/Git/VL53L1/lib/core/src\vl53l1_api_core.c **** 				VL53L1_RESULT__OSC_CALIBRATE_VAL,
 362:D:/Git/VL53L1/lib/core/src\vl53l1_api_core.c **** 				&(pdev->dbg_results.result__osc_calibrate_val));
 363:D:/Git/VL53L1/lib/core/src\vl53l1_api_core.c **** 
 364:D:/Git/VL53L1/lib/core/src\vl53l1_api_core.c **** 	/*
 365:D:/Git/VL53L1/lib/core/src\vl53l1_api_core.c **** 	 * Check if there a sensible value for osc_measured__fast_osc__frequency
 366:D:/Git/VL53L1/lib/core/src\vl53l1_api_core.c **** 	 */
 367:D:/Git/VL53L1/lib/core/src\vl53l1_api_core.c **** 
 368:D:/Git/VL53L1/lib/core/src\vl53l1_api_core.c **** 	if (pdev->stat_nvm.osc_measured__fast_osc__frequency < 0x1000) {
 369:D:/Git/VL53L1/lib/core/src\vl53l1_api_core.c **** 		trace_print(
 370:D:/Git/VL53L1/lib/core/src\vl53l1_api_core.c **** 			VL53L1_TRACE_LEVEL_WARNING,
 371:D:/Git/VL53L1/lib/core/src\vl53l1_api_core.c **** 			"\nInvalid %s value (0x%04X) - forcing to 0x%04X\n\n",
ARM GAS  C:\Users\Berbardo\AppData\Local\Temp\ccBMvrJ9.s 			page 8


 372:D:/Git/VL53L1/lib/core/src\vl53l1_api_core.c **** 			"pdev->stat_nvm.osc_measured__fast_osc__frequency",
 373:D:/Git/VL53L1/lib/core/src\vl53l1_api_core.c **** 			pdev->stat_nvm.osc_measured__fast_osc__frequency,
 374:D:/Git/VL53L1/lib/core/src\vl53l1_api_core.c **** 			0xBCCC);
 375:D:/Git/VL53L1/lib/core/src\vl53l1_api_core.c **** 		pdev->stat_nvm.osc_measured__fast_osc__frequency = 0xBCCC;
 376:D:/Git/VL53L1/lib/core/src\vl53l1_api_core.c **** 	}
 377:D:/Git/VL53L1/lib/core/src\vl53l1_api_core.c **** 
 378:D:/Git/VL53L1/lib/core/src\vl53l1_api_core.c **** 	/*
 379:D:/Git/VL53L1/lib/core/src\vl53l1_api_core.c **** 	 * Get MM ROI - contains optical centre as SPAD number
 380:D:/Git/VL53L1/lib/core/src\vl53l1_api_core.c **** 	 */
 381:D:/Git/VL53L1/lib/core/src\vl53l1_api_core.c **** 
 382:D:/Git/VL53L1/lib/core/src\vl53l1_api_core.c **** 	if (status == VL53L1_ERROR_NONE)
 383:D:/Git/VL53L1/lib/core/src\vl53l1_api_core.c **** 		status =
 384:D:/Git/VL53L1/lib/core/src\vl53l1_api_core.c **** 			VL53L1_get_mode_mitigation_roi(
 385:D:/Git/VL53L1/lib/core/src\vl53l1_api_core.c **** 				Dev,
 386:D:/Git/VL53L1/lib/core/src\vl53l1_api_core.c **** 				&(pdev->mm_roi));
 387:D:/Git/VL53L1/lib/core/src\vl53l1_api_core.c **** 
 388:D:/Git/VL53L1/lib/core/src\vl53l1_api_core.c **** 	/* catch parts where the optical centre is
 389:D:/Git/VL53L1/lib/core/src\vl53l1_api_core.c **** 	 * no programmed in to the NVM
 390:D:/Git/VL53L1/lib/core/src\vl53l1_api_core.c **** 	 */
 391:D:/Git/VL53L1/lib/core/src\vl53l1_api_core.c **** 
 392:D:/Git/VL53L1/lib/core/src\vl53l1_api_core.c **** 	if (pdev->optical_centre.x_centre == 0 &&
 393:D:/Git/VL53L1/lib/core/src\vl53l1_api_core.c **** 		pdev->optical_centre.y_centre == 0) {
 394:D:/Git/VL53L1/lib/core/src\vl53l1_api_core.c **** 		pdev->optical_centre.x_centre =
 395:D:/Git/VL53L1/lib/core/src\vl53l1_api_core.c **** 				pdev->mm_roi.x_centre << 4;
 396:D:/Git/VL53L1/lib/core/src\vl53l1_api_core.c **** 		pdev->optical_centre.y_centre =
 397:D:/Git/VL53L1/lib/core/src\vl53l1_api_core.c **** 				pdev->mm_roi.y_centre << 4;
 398:D:/Git/VL53L1/lib/core/src\vl53l1_api_core.c **** 	}
 399:D:/Git/VL53L1/lib/core/src\vl53l1_api_core.c **** 
 400:D:/Git/VL53L1/lib/core/src\vl53l1_api_core.c **** 	LOG_FUNCTION_END(status);
 401:D:/Git/VL53L1/lib/core/src\vl53l1_api_core.c **** 
 402:D:/Git/VL53L1/lib/core/src\vl53l1_api_core.c **** 	return status;
 403:D:/Git/VL53L1/lib/core/src\vl53l1_api_core.c **** }
 404:D:/Git/VL53L1/lib/core/src\vl53l1_api_core.c **** 
 405:D:/Git/VL53L1/lib/core/src\vl53l1_api_core.c **** 
 406:D:/Git/VL53L1/lib/core/src\vl53l1_api_core.c **** VL53L1_Error VL53L1_software_reset(
 407:D:/Git/VL53L1/lib/core/src\vl53l1_api_core.c **** 	VL53L1_DEV    Dev)
 408:D:/Git/VL53L1/lib/core/src\vl53l1_api_core.c **** {
  30              		.loc 1 408 1 view -0
  31              		.cfi_startproc
  32              		@ args = 0, pretend = 0, frame = 0
  33              		@ frame_needed = 0, uses_anonymous_args = 0
  34              		.loc 1 408 1 is_stmt 0 view .LVU1
  35 0000 10B5     		push	{r4, lr}
  36              		.cfi_def_cfa_offset 8
  37              		.cfi_offset 4, -8
  38              		.cfi_offset 14, -4
  39 0002 0446     		mov	r4, r0
 409:D:/Git/VL53L1/lib/core/src\vl53l1_api_core.c **** 	/**
 410:D:/Git/VL53L1/lib/core/src\vl53l1_api_core.c **** 	 * Sets and clears the software reset register VL53L1_SOFT_RESET.
 411:D:/Git/VL53L1/lib/core/src\vl53l1_api_core.c **** 	 * and waits for the firmware to boot
 412:D:/Git/VL53L1/lib/core/src\vl53l1_api_core.c **** 	 */
 413:D:/Git/VL53L1/lib/core/src\vl53l1_api_core.c **** 
 414:D:/Git/VL53L1/lib/core/src\vl53l1_api_core.c **** 	VL53L1_Error status       = VL53L1_ERROR_NONE;
  40              		.loc 1 414 2 is_stmt 1 view .LVU2
  41              	.LVL1:
 415:D:/Git/VL53L1/lib/core/src\vl53l1_api_core.c **** 
 416:D:/Git/VL53L1/lib/core/src\vl53l1_api_core.c **** 	LOG_FUNCTION_START("");
ARM GAS  C:\Users\Berbardo\AppData\Local\Temp\ccBMvrJ9.s 			page 9


  42              		.loc 1 416 24 view .LVU3
 417:D:/Git/VL53L1/lib/core/src\vl53l1_api_core.c **** 
 418:D:/Git/VL53L1/lib/core/src\vl53l1_api_core.c **** 	/* apply reset - note despite the name soft reset is active low! */
 419:D:/Git/VL53L1/lib/core/src\vl53l1_api_core.c **** 	if (status == VL53L1_ERROR_NONE) /*lint !e774 always true*/
  43              		.loc 1 419 2 view .LVU4
 420:D:/Git/VL53L1/lib/core/src\vl53l1_api_core.c **** 		status = VL53L1_WrByte(
  44              		.loc 1 420 3 view .LVU5
  45              		.loc 1 420 12 is_stmt 0 view .LVU6
  46 0004 0022     		movs	r2, #0
  47 0006 1146     		mov	r1, r2
  48 0008 FFF7FEFF 		bl	VL53L1_WrByte
  49              	.LVL2:
 421:D:/Git/VL53L1/lib/core/src\vl53l1_api_core.c **** 						Dev,
 422:D:/Git/VL53L1/lib/core/src\vl53l1_api_core.c **** 						VL53L1_SOFT_RESET,
 423:D:/Git/VL53L1/lib/core/src\vl53l1_api_core.c **** 						0x00);
 424:D:/Git/VL53L1/lib/core/src\vl53l1_api_core.c **** 
 425:D:/Git/VL53L1/lib/core/src\vl53l1_api_core.c **** 	/* wait for a while before releasing the reset */
 426:D:/Git/VL53L1/lib/core/src\vl53l1_api_core.c **** 	if (status == VL53L1_ERROR_NONE)
  50              		.loc 1 426 2 is_stmt 1 view .LVU7
  51              		.loc 1 426 5 is_stmt 0 view .LVU8
  52 000c 0346     		mov	r3, r0
  53 000e 18B1     		cbz	r0, .L6
  54              	.LVL3:
  55              	.L2:
 427:D:/Git/VL53L1/lib/core/src\vl53l1_api_core.c **** 		status =
 428:D:/Git/VL53L1/lib/core/src\vl53l1_api_core.c **** 			VL53L1_WaitUs(
 429:D:/Git/VL53L1/lib/core/src\vl53l1_api_core.c **** 				Dev,
 430:D:/Git/VL53L1/lib/core/src\vl53l1_api_core.c **** 				VL53L1_SOFTWARE_RESET_DURATION_US);
 431:D:/Git/VL53L1/lib/core/src\vl53l1_api_core.c **** 
 432:D:/Git/VL53L1/lib/core/src\vl53l1_api_core.c **** 	/* release reset */
 433:D:/Git/VL53L1/lib/core/src\vl53l1_api_core.c **** 	if (status == VL53L1_ERROR_NONE)
  56              		.loc 1 433 2 is_stmt 1 view .LVU9
  57              		.loc 1 433 5 is_stmt 0 view .LVU10
  58 0010 43B1     		cbz	r3, .L7
  59              	.L3:
 434:D:/Git/VL53L1/lib/core/src\vl53l1_api_core.c **** 		status = VL53L1_WrByte(
 435:D:/Git/VL53L1/lib/core/src\vl53l1_api_core.c **** 						Dev,
 436:D:/Git/VL53L1/lib/core/src\vl53l1_api_core.c **** 						VL53L1_SOFT_RESET,
 437:D:/Git/VL53L1/lib/core/src\vl53l1_api_core.c **** 						0x01);
 438:D:/Git/VL53L1/lib/core/src\vl53l1_api_core.c **** 
 439:D:/Git/VL53L1/lib/core/src\vl53l1_api_core.c **** 	/* wait for firmware boot to complete */
 440:D:/Git/VL53L1/lib/core/src\vl53l1_api_core.c **** 	if (status == VL53L1_ERROR_NONE)
  60              		.loc 1 440 2 is_stmt 1 view .LVU11
  61              		.loc 1 440 5 is_stmt 0 view .LVU12
  62 0012 73B1     		cbz	r3, .L8
  63              	.L4:
 441:D:/Git/VL53L1/lib/core/src\vl53l1_api_core.c **** 		status = VL53L1_wait_for_boot_completion(Dev);
 442:D:/Git/VL53L1/lib/core/src\vl53l1_api_core.c **** 
 443:D:/Git/VL53L1/lib/core/src\vl53l1_api_core.c **** 	LOG_FUNCTION_END(status);
  64              		.loc 1 443 26 is_stmt 1 view .LVU13
 444:D:/Git/VL53L1/lib/core/src\vl53l1_api_core.c **** 
 445:D:/Git/VL53L1/lib/core/src\vl53l1_api_core.c **** 	return status;
  65              		.loc 1 445 2 view .LVU14
 446:D:/Git/VL53L1/lib/core/src\vl53l1_api_core.c **** }
  66              		.loc 1 446 1 is_stmt 0 view .LVU15
  67 0014 1846     		mov	r0, r3
  68 0016 10BD     		pop	{r4, pc}
ARM GAS  C:\Users\Berbardo\AppData\Local\Temp\ccBMvrJ9.s 			page 10


  69              	.LVL4:
  70              	.L6:
 427:D:/Git/VL53L1/lib/core/src\vl53l1_api_core.c **** 			VL53L1_WaitUs(
  71              		.loc 1 427 3 is_stmt 1 view .LVU16
 428:D:/Git/VL53L1/lib/core/src\vl53l1_api_core.c **** 				Dev,
  72              		.loc 1 428 4 is_stmt 0 view .LVU17
  73 0018 6421     		movs	r1, #100
  74 001a 2046     		mov	r0, r4
  75              	.LVL5:
 428:D:/Git/VL53L1/lib/core/src\vl53l1_api_core.c **** 				Dev,
  76              		.loc 1 428 4 view .LVU18
  77 001c FFF7FEFF 		bl	VL53L1_WaitUs
  78              	.LVL6:
  79 0020 0346     		mov	r3, r0
  80              	.LVL7:
 428:D:/Git/VL53L1/lib/core/src\vl53l1_api_core.c **** 				Dev,
  81              		.loc 1 428 4 view .LVU19
  82 0022 F5E7     		b	.L2
  83              	.L7:
 434:D:/Git/VL53L1/lib/core/src\vl53l1_api_core.c **** 						Dev,
  84              		.loc 1 434 3 is_stmt 1 view .LVU20
 434:D:/Git/VL53L1/lib/core/src\vl53l1_api_core.c **** 						Dev,
  85              		.loc 1 434 12 is_stmt 0 view .LVU21
  86 0024 0122     		movs	r2, #1
  87 0026 0021     		movs	r1, #0
  88 0028 2046     		mov	r0, r4
  89 002a FFF7FEFF 		bl	VL53L1_WrByte
  90              	.LVL8:
 434:D:/Git/VL53L1/lib/core/src\vl53l1_api_core.c **** 						Dev,
  91              		.loc 1 434 12 view .LVU22
  92 002e 0346     		mov	r3, r0
  93              	.LVL9:
 434:D:/Git/VL53L1/lib/core/src\vl53l1_api_core.c **** 						Dev,
  94              		.loc 1 434 12 view .LVU23
  95 0030 EFE7     		b	.L3
  96              	.L8:
 441:D:/Git/VL53L1/lib/core/src\vl53l1_api_core.c **** 
  97              		.loc 1 441 3 is_stmt 1 view .LVU24
 441:D:/Git/VL53L1/lib/core/src\vl53l1_api_core.c **** 
  98              		.loc 1 441 12 is_stmt 0 view .LVU25
  99 0032 2046     		mov	r0, r4
 100 0034 FFF7FEFF 		bl	VL53L1_wait_for_boot_completion
 101              	.LVL10:
 441:D:/Git/VL53L1/lib/core/src\vl53l1_api_core.c **** 
 102              		.loc 1 441 12 view .LVU26
 103 0038 0346     		mov	r3, r0
 104              	.LVL11:
 441:D:/Git/VL53L1/lib/core/src\vl53l1_api_core.c **** 
 105              		.loc 1 441 12 view .LVU27
 106 003a EBE7     		b	.L4
 107              		.cfi_endproc
 108              	.LFE128:
 110              		.section	.text.VL53L1_set_part_to_part_data,"ax",%progbits
 111              		.align	1
 112              		.global	VL53L1_set_part_to_part_data
 113              		.syntax unified
 114              		.thumb
ARM GAS  C:\Users\Berbardo\AppData\Local\Temp\ccBMvrJ9.s 			page 11


 115              		.thumb_func
 116              		.fpu fpv4-sp-d16
 118              	VL53L1_set_part_to_part_data:
 119              	.LVL12:
 120              	.LFB129:
 447:D:/Git/VL53L1/lib/core/src\vl53l1_api_core.c **** 
 448:D:/Git/VL53L1/lib/core/src\vl53l1_api_core.c **** 
 449:D:/Git/VL53L1/lib/core/src\vl53l1_api_core.c **** VL53L1_Error VL53L1_set_part_to_part_data(
 450:D:/Git/VL53L1/lib/core/src\vl53l1_api_core.c **** 	VL53L1_DEV                            Dev,
 451:D:/Git/VL53L1/lib/core/src\vl53l1_api_core.c **** 	VL53L1_calibration_data_t            *pcal_data)
 452:D:/Git/VL53L1/lib/core/src\vl53l1_api_core.c **** {
 121              		.loc 1 452 1 is_stmt 1 view -0
 122              		.cfi_startproc
 123              		@ args = 0, pretend = 0, frame = 0
 124              		@ frame_needed = 0, uses_anonymous_args = 0
 125              		.loc 1 452 1 is_stmt 0 view .LVU29
 126 0000 F8B5     		push	{r3, r4, r5, r6, r7, lr}
 127              		.cfi_def_cfa_offset 24
 128              		.cfi_offset 3, -24
 129              		.cfi_offset 4, -20
 130              		.cfi_offset 5, -16
 131              		.cfi_offset 6, -12
 132              		.cfi_offset 7, -8
 133              		.cfi_offset 14, -4
 453:D:/Git/VL53L1/lib/core/src\vl53l1_api_core.c **** 	/**
 454:D:/Git/VL53L1/lib/core/src\vl53l1_api_core.c **** 	 * Uses memcpy to copy input data to pdev->customer
 455:D:/Git/VL53L1/lib/core/src\vl53l1_api_core.c **** 	 */
 456:D:/Git/VL53L1/lib/core/src\vl53l1_api_core.c **** 
 457:D:/Git/VL53L1/lib/core/src\vl53l1_api_core.c **** 	VL53L1_Error  status = VL53L1_ERROR_NONE;
 134              		.loc 1 457 2 is_stmt 1 view .LVU30
 135              	.LVL13:
 458:D:/Git/VL53L1/lib/core/src\vl53l1_api_core.c **** 	VL53L1_LLDriverData_t *pdev = VL53L1DevStructGetLLDriverHandle(Dev);
 136              		.loc 1 458 2 view .LVU31
 459:D:/Git/VL53L1/lib/core/src\vl53l1_api_core.c **** 
 460:D:/Git/VL53L1/lib/core/src\vl53l1_api_core.c **** 	uint32_t tempu32;
 137              		.loc 1 460 2 view .LVU32
 461:D:/Git/VL53L1/lib/core/src\vl53l1_api_core.c **** 
 462:D:/Git/VL53L1/lib/core/src\vl53l1_api_core.c **** 	LOG_FUNCTION_START("");
 138              		.loc 1 462 24 view .LVU33
 463:D:/Git/VL53L1/lib/core/src\vl53l1_api_core.c **** 
 464:D:/Git/VL53L1/lib/core/src\vl53l1_api_core.c **** 	if (pcal_data->struct_version !=
 139              		.loc 1 464 2 view .LVU34
 140              		.loc 1 464 15 is_stmt 0 view .LVU35
 141 0002 0A68     		ldr	r2, [r1]
 142              		.loc 1 464 5 view .LVU36
 143 0004 314B     		ldr	r3, .L17
 144 0006 9A42     		cmp	r2, r3
 145 0008 5CD1     		bne	.L14
 465:D:/Git/VL53L1/lib/core/src\vl53l1_api_core.c **** 		VL53L1_LL_CALIBRATION_DATA_STRUCT_VERSION) {
 466:D:/Git/VL53L1/lib/core/src\vl53l1_api_core.c **** 		status = VL53L1_ERROR_INVALID_PARAMS;
 467:D:/Git/VL53L1/lib/core/src\vl53l1_api_core.c **** 	}
 468:D:/Git/VL53L1/lib/core/src\vl53l1_api_core.c **** 
 469:D:/Git/VL53L1/lib/core/src\vl53l1_api_core.c **** 	if (status == VL53L1_ERROR_NONE) {
 146              		.loc 1 469 2 is_stmt 1 view .LVU37
 470:D:/Git/VL53L1/lib/core/src\vl53l1_api_core.c **** 
 471:D:/Git/VL53L1/lib/core/src\vl53l1_api_core.c **** 		/* memcpy(DEST, SRC, N)  */
 472:D:/Git/VL53L1/lib/core/src\vl53l1_api_core.c **** 		memcpy(
ARM GAS  C:\Users\Berbardo\AppData\Local\Temp\ccBMvrJ9.s 			page 12


 147              		.loc 1 472 3 view .LVU38
 473:D:/Git/VL53L1/lib/core/src\vl53l1_api_core.c **** 			&(pdev->customer),
 474:D:/Git/VL53L1/lib/core/src\vl53l1_api_core.c **** 			&(pcal_data->customer),
 148              		.loc 1 474 4 is_stmt 0 view .LVU39
 149 000a 0A46     		mov	r2, r1
 472:D:/Git/VL53L1/lib/core/src\vl53l1_api_core.c **** 			&(pdev->customer),
 150              		.loc 1 472 3 view .LVU40
 151 000c 52F8045F 		ldr	r5, [r2, #4]!	@ unaligned
 152 0010 5468     		ldr	r4, [r2, #4]	@ unaligned
 153 0012 9768     		ldr	r7, [r2, #8]	@ unaligned
 154 0014 D668     		ldr	r6, [r2, #12]	@ unaligned
 155 0016 C0F84250 		str	r5, [r0, #66]	@ unaligned
 156 001a C0F84640 		str	r4, [r0, #70]	@ unaligned
 157 001e C0F84A70 		str	r7, [r0, #74]	@ unaligned
 158 0022 C0F84E60 		str	r6, [r0, #78]	@ unaligned
 159 0026 1569     		ldr	r5, [r2, #16]	@ unaligned
 160 0028 5469     		ldr	r4, [r2, #20]	@ unaligned
 161 002a C0F85250 		str	r5, [r0, #82]	@ unaligned
 162 002e C0F85640 		str	r4, [r0, #86]	@ unaligned
 475:D:/Git/VL53L1/lib/core/src\vl53l1_api_core.c **** 			sizeof(VL53L1_customer_nvm_managed_t));
 476:D:/Git/VL53L1/lib/core/src\vl53l1_api_core.c **** 
 477:D:/Git/VL53L1/lib/core/src\vl53l1_api_core.c **** 		/* memcpy(DEST, SRC, N)  */
 478:D:/Git/VL53L1/lib/core/src\vl53l1_api_core.c **** 		memcpy(
 163              		.loc 1 478 3 is_stmt 1 view .LVU41
 479:D:/Git/VL53L1/lib/core/src\vl53l1_api_core.c **** 			&(pdev->add_off_cal_data),
 480:D:/Git/VL53L1/lib/core/src\vl53l1_api_core.c **** 			&(pcal_data->add_off_cal_data),
 164              		.loc 1 480 4 is_stmt 0 view .LVU42
 165 0032 0B46     		mov	r3, r1
 478:D:/Git/VL53L1/lib/core/src\vl53l1_api_core.c **** 			&(pdev->add_off_cal_data),
 166              		.loc 1 478 3 view .LVU43
 167 0034 53F81C2F 		ldr	r2, [r3, #28]!	@ unaligned
 168 0038 5B68     		ldr	r3, [r3, #4]	@ unaligned
 169 003a C0F89420 		str	r2, [r0, #148]	@ unaligned
 170 003e C0F89830 		str	r3, [r0, #152]	@ unaligned
 481:D:/Git/VL53L1/lib/core/src\vl53l1_api_core.c **** 			sizeof(VL53L1_additional_offset_cal_data_t));
 482:D:/Git/VL53L1/lib/core/src\vl53l1_api_core.c **** 
 483:D:/Git/VL53L1/lib/core/src\vl53l1_api_core.c **** 		/* memcpy(DEST, SRC, N)  */
 484:D:/Git/VL53L1/lib/core/src\vl53l1_api_core.c **** 		memcpy(
 171              		.loc 1 484 3 is_stmt 1 view .LVU44
 172 0042 CB8C     		ldrh	r3, [r1, #38]	@ unaligned
 173 0044 A0F89C30 		strh	r3, [r0, #156]	@ unaligned
 485:D:/Git/VL53L1/lib/core/src\vl53l1_api_core.c **** 			&(pdev->gain_cal),
 486:D:/Git/VL53L1/lib/core/src\vl53l1_api_core.c **** 			&(pcal_data->gain_cal),
 487:D:/Git/VL53L1/lib/core/src\vl53l1_api_core.c **** 			sizeof(VL53L1_gain_calibration_data_t));
 488:D:/Git/VL53L1/lib/core/src\vl53l1_api_core.c **** 
 489:D:/Git/VL53L1/lib/core/src\vl53l1_api_core.c **** 		/* memcpy(DEST, SRC, N)  */
 490:D:/Git/VL53L1/lib/core/src\vl53l1_api_core.c **** 		memcpy(
 174              		.loc 1 490 3 view .LVU45
 491:D:/Git/VL53L1/lib/core/src\vl53l1_api_core.c **** 			&(pdev->cal_peak_rate_map),
 492:D:/Git/VL53L1/lib/core/src\vl53l1_api_core.c **** 			&(pcal_data->cal_peak_rate_map),
 175              		.loc 1 492 4 is_stmt 0 view .LVU46
 176 0048 01F12803 		add	r3, r1, #40
 490:D:/Git/VL53L1/lib/core/src\vl53l1_api_core.c **** 			&(pdev->cal_peak_rate_map),
 177              		.loc 1 490 3 view .LVU47
 178 004c 00F15A02 		add	r2, r0, #90
 179 0050 5831     		adds	r1, r1, #88
 180              	.LVL14:
ARM GAS  C:\Users\Berbardo\AppData\Local\Temp\ccBMvrJ9.s 			page 13


 181              	.L11:
 490:D:/Git/VL53L1/lib/core/src\vl53l1_api_core.c **** 			&(pdev->cal_peak_rate_map),
 182              		.loc 1 490 3 view .LVU48
 183 0052 1F68     		ldr	r7, [r3]	@ unaligned
 184 0054 5E68     		ldr	r6, [r3, #4]	@ unaligned
 185 0056 9D68     		ldr	r5, [r3, #8]	@ unaligned
 186 0058 DC68     		ldr	r4, [r3, #12]	@ unaligned
 187 005a 1760     		str	r7, [r2]	@ unaligned
 188 005c 5660     		str	r6, [r2, #4]	@ unaligned
 189 005e 9560     		str	r5, [r2, #8]	@ unaligned
 190 0060 D460     		str	r4, [r2, #12]	@ unaligned
 191 0062 1033     		adds	r3, r3, #16
 192 0064 1032     		adds	r2, r2, #16
 193 0066 8B42     		cmp	r3, r1
 194 0068 F3D1     		bne	.L11
 195 006a 1C68     		ldr	r4, [r3]	@ unaligned
 196 006c 5968     		ldr	r1, [r3, #4]	@ unaligned
 197              	.LVL15:
 490:D:/Git/VL53L1/lib/core/src\vl53l1_api_core.c **** 			&(pdev->cal_peak_rate_map),
 198              		.loc 1 490 3 view .LVU49
 199 006e 1460     		str	r4, [r2]	@ unaligned
 200 0070 5160     		str	r1, [r2, #4]	@ unaligned
 201 0072 1B89     		ldrh	r3, [r3, #8]	@ unaligned
 202 0074 1381     		strh	r3, [r2, #8]	@ unaligned
 493:D:/Git/VL53L1/lib/core/src\vl53l1_api_core.c **** 			sizeof(VL53L1_cal_peak_rate_map_t));
 494:D:/Git/VL53L1/lib/core/src\vl53l1_api_core.c **** 
 495:D:/Git/VL53L1/lib/core/src\vl53l1_api_core.c **** 		/*
 496:D:/Git/VL53L1/lib/core/src\vl53l1_api_core.c **** 		 *  Update internal xtalk data structures
 497:D:/Git/VL53L1/lib/core/src\vl53l1_api_core.c **** 		 */
 498:D:/Git/VL53L1/lib/core/src\vl53l1_api_core.c **** 
 499:D:/Git/VL53L1/lib/core/src\vl53l1_api_core.c **** 		pdev->xtalk_cfg.algo__crosstalk_compensation_plane_offset_kcps =
 203              		.loc 1 499 3 is_stmt 1 view .LVU50
 500:D:/Git/VL53L1/lib/core/src\vl53l1_api_core.c **** 			pdev->customer.algo__crosstalk_compensation_plane_offset_kcps;
 204              		.loc 1 500 18 is_stmt 0 view .LVU51
 205 0076 B0F84C30 		ldrh	r3, [r0, #76]
 499:D:/Git/VL53L1/lib/core/src\vl53l1_api_core.c **** 			pdev->customer.algo__crosstalk_compensation_plane_offset_kcps;
 206              		.loc 1 499 66 view .LVU52
 207 007a C0F82C31 		str	r3, [r0, #300]
 501:D:/Git/VL53L1/lib/core/src\vl53l1_api_core.c **** 		pdev->xtalk_cfg.algo__crosstalk_compensation_x_plane_gradient_kcps =
 208              		.loc 1 501 3 is_stmt 1 view .LVU53
 502:D:/Git/VL53L1/lib/core/src\vl53l1_api_core.c **** 			pdev->customer.algo__crosstalk_compensation_x_plane_gradient_kcps;
 209              		.loc 1 502 18 is_stmt 0 view .LVU54
 210 007e B0F94E20 		ldrsh	r2, [r0, #78]
 501:D:/Git/VL53L1/lib/core/src\vl53l1_api_core.c **** 		pdev->xtalk_cfg.algo__crosstalk_compensation_x_plane_gradient_kcps =
 211              		.loc 1 501 70 view .LVU55
 212 0082 A0F83021 		strh	r2, [r0, #304]	@ movhi
 503:D:/Git/VL53L1/lib/core/src\vl53l1_api_core.c **** 		pdev->xtalk_cfg.algo__crosstalk_compensation_y_plane_gradient_kcps =
 213              		.loc 1 503 3 is_stmt 1 view .LVU56
 504:D:/Git/VL53L1/lib/core/src\vl53l1_api_core.c **** 			pdev->customer.algo__crosstalk_compensation_y_plane_gradient_kcps;
 214              		.loc 1 504 18 is_stmt 0 view .LVU57
 215 0086 B0F95020 		ldrsh	r2, [r0, #80]
 503:D:/Git/VL53L1/lib/core/src\vl53l1_api_core.c **** 		pdev->xtalk_cfg.algo__crosstalk_compensation_y_plane_gradient_kcps =
 216              		.loc 1 503 70 view .LVU58
 217 008a A0F83221 		strh	r2, [r0, #306]	@ movhi
 505:D:/Git/VL53L1/lib/core/src\vl53l1_api_core.c **** 
 506:D:/Git/VL53L1/lib/core/src\vl53l1_api_core.c **** 		/* Assess and update customer packet xtalk parameters */
 507:D:/Git/VL53L1/lib/core/src\vl53l1_api_core.c **** 
ARM GAS  C:\Users\Berbardo\AppData\Local\Temp\ccBMvrJ9.s 			page 14


 508:D:/Git/VL53L1/lib/core/src\vl53l1_api_core.c **** 		if (pdev->xtalk_cfg.global_crosstalk_compensation_enable == 0x00) {
 218              		.loc 1 508 3 is_stmt 1 view .LVU59
 219              		.loc 1 508 22 is_stmt 0 view .LVU60
 220 008e 90F83C21 		ldrb	r2, [r0, #316]	@ zero_extendqisi2
 221              		.loc 1 508 6 view .LVU61
 222 0092 42B9     		cbnz	r2, .L12
 509:D:/Git/VL53L1/lib/core/src\vl53l1_api_core.c **** 			pdev->customer.algo__crosstalk_compensation_plane_offset_kcps =
 223              		.loc 1 509 4 is_stmt 1 view .LVU62
 224              		.loc 1 509 66 is_stmt 0 view .LVU63
 225 0094 0023     		movs	r3, #0
 226 0096 A0F84C30 		strh	r3, [r0, #76]	@ movhi
 510:D:/Git/VL53L1/lib/core/src\vl53l1_api_core.c **** 				0x00;
 511:D:/Git/VL53L1/lib/core/src\vl53l1_api_core.c **** 			pdev->customer.algo__crosstalk_compensation_x_plane_gradient_kcps =
 227              		.loc 1 511 4 is_stmt 1 view .LVU64
 228              		.loc 1 511 70 is_stmt 0 view .LVU65
 229 009a A0F84E30 		strh	r3, [r0, #78]	@ movhi
 512:D:/Git/VL53L1/lib/core/src\vl53l1_api_core.c **** 				0x00;
 513:D:/Git/VL53L1/lib/core/src\vl53l1_api_core.c **** 			pdev->customer.algo__crosstalk_compensation_y_plane_gradient_kcps =
 230              		.loc 1 513 4 is_stmt 1 view .LVU66
 231              		.loc 1 513 70 is_stmt 0 view .LVU67
 232 009e A0F85030 		strh	r3, [r0, #80]	@ movhi
 457:D:/Git/VL53L1/lib/core/src\vl53l1_api_core.c **** 	VL53L1_LLDriverData_t *pdev = VL53L1DevStructGetLLDriverHandle(Dev);
 233              		.loc 1 457 16 view .LVU68
 234 00a2 1846     		mov	r0, r3
 235              	.LVL16:
 236              	.L10:
 514:D:/Git/VL53L1/lib/core/src\vl53l1_api_core.c **** 				0x00;
 515:D:/Git/VL53L1/lib/core/src\vl53l1_api_core.c **** 		} else {
 516:D:/Git/VL53L1/lib/core/src\vl53l1_api_core.c **** 			tempu32 = VL53L1_calc_crosstalk_plane_offset_with_margin(
 517:D:/Git/VL53L1/lib/core/src\vl53l1_api_core.c **** 				pdev->xtalk_cfg.algo__crosstalk_compensation_plane_offset_kcps,
 518:D:/Git/VL53L1/lib/core/src\vl53l1_api_core.c **** 				pdev->xtalk_cfg.lite_mode_crosstalk_margin_kcps);
 519:D:/Git/VL53L1/lib/core/src\vl53l1_api_core.c **** 			if (tempu32 > 0xFFFF) {	/* clip to 16 bits */
 520:D:/Git/VL53L1/lib/core/src\vl53l1_api_core.c **** 				tempu32 = 0xFFFF;
 521:D:/Git/VL53L1/lib/core/src\vl53l1_api_core.c **** 			}
 522:D:/Git/VL53L1/lib/core/src\vl53l1_api_core.c **** 			pdev->customer.algo__crosstalk_compensation_plane_offset_kcps =
 523:D:/Git/VL53L1/lib/core/src\vl53l1_api_core.c **** 				(uint16_t)tempu32;
 524:D:/Git/VL53L1/lib/core/src\vl53l1_api_core.c **** 		}
 525:D:/Git/VL53L1/lib/core/src\vl53l1_api_core.c **** 	}
 526:D:/Git/VL53L1/lib/core/src\vl53l1_api_core.c **** 
 527:D:/Git/VL53L1/lib/core/src\vl53l1_api_core.c **** 	LOG_FUNCTION_END(status);
 237              		.loc 1 527 26 is_stmt 1 view .LVU69
 528:D:/Git/VL53L1/lib/core/src\vl53l1_api_core.c **** 
 529:D:/Git/VL53L1/lib/core/src\vl53l1_api_core.c **** 	return status;
 238              		.loc 1 529 2 view .LVU70
 530:D:/Git/VL53L1/lib/core/src\vl53l1_api_core.c **** }
 239              		.loc 1 530 1 is_stmt 0 view .LVU71
 240 00a4 F8BD     		pop	{r3, r4, r5, r6, r7, pc}
 241              	.LVL17:
 242              	.L12:
 243              		.loc 1 530 1 view .LVU72
 244 00a6 0446     		mov	r4, r0
 516:D:/Git/VL53L1/lib/core/src\vl53l1_api_core.c **** 				pdev->xtalk_cfg.algo__crosstalk_compensation_plane_offset_kcps,
 245              		.loc 1 516 4 is_stmt 1 view .LVU73
 516:D:/Git/VL53L1/lib/core/src\vl53l1_api_core.c **** 				pdev->xtalk_cfg.algo__crosstalk_compensation_plane_offset_kcps,
 246              		.loc 1 516 14 is_stmt 0 view .LVU74
 247 00a8 B0F93E11 		ldrsh	r1, [r0, #318]
 248 00ac 1846     		mov	r0, r3
ARM GAS  C:\Users\Berbardo\AppData\Local\Temp\ccBMvrJ9.s 			page 15


 249              	.LVL18:
 516:D:/Git/VL53L1/lib/core/src\vl53l1_api_core.c **** 				pdev->xtalk_cfg.algo__crosstalk_compensation_plane_offset_kcps,
 250              		.loc 1 516 14 view .LVU75
 251 00ae FFF7FEFF 		bl	VL53L1_calc_crosstalk_plane_offset_with_margin
 252              	.LVL19:
 519:D:/Git/VL53L1/lib/core/src\vl53l1_api_core.c **** 				tempu32 = 0xFFFF;
 253              		.loc 1 519 4 is_stmt 1 view .LVU76
 519:D:/Git/VL53L1/lib/core/src\vl53l1_api_core.c **** 				tempu32 = 0xFFFF;
 254              		.loc 1 519 7 is_stmt 0 view .LVU77
 255 00b2 B0F5803F 		cmp	r0, #65536
 256 00b6 01D3     		bcc	.L13
 520:D:/Git/VL53L1/lib/core/src\vl53l1_api_core.c **** 			}
 257              		.loc 1 520 13 view .LVU78
 258 00b8 4FF6FF70 		movw	r0, #65535
 259              	.LVL20:
 260              	.L13:
 522:D:/Git/VL53L1/lib/core/src\vl53l1_api_core.c **** 				(uint16_t)tempu32;
 261              		.loc 1 522 4 is_stmt 1 view .LVU79
 522:D:/Git/VL53L1/lib/core/src\vl53l1_api_core.c **** 				(uint16_t)tempu32;
 262              		.loc 1 522 66 is_stmt 0 view .LVU80
 263 00bc A4F84C00 		strh	r0, [r4, #76]	@ movhi
 457:D:/Git/VL53L1/lib/core/src\vl53l1_api_core.c **** 	VL53L1_LLDriverData_t *pdev = VL53L1DevStructGetLLDriverHandle(Dev);
 264              		.loc 1 457 16 view .LVU81
 265 00c0 0020     		movs	r0, #0
 266              	.LVL21:
 457:D:/Git/VL53L1/lib/core/src\vl53l1_api_core.c **** 	VL53L1_LLDriverData_t *pdev = VL53L1DevStructGetLLDriverHandle(Dev);
 267              		.loc 1 457 16 view .LVU82
 268 00c2 EFE7     		b	.L10
 269              	.LVL22:
 270              	.L14:
 466:D:/Git/VL53L1/lib/core/src\vl53l1_api_core.c **** 	}
 271              		.loc 1 466 10 view .LVU83
 272 00c4 6FF00300 		mvn	r0, #3
 273              	.LVL23:
 466:D:/Git/VL53L1/lib/core/src\vl53l1_api_core.c **** 	}
 274              		.loc 1 466 10 view .LVU84
 275 00c8 ECE7     		b	.L10
 276              	.L18:
 277 00ca 00BF     		.align	2
 278              	.L17:
 279 00cc 0201ABEC 		.word	-324337406
 280              		.cfi_endproc
 281              	.LFE129:
 283              		.section	.text.VL53L1_get_part_to_part_data,"ax",%progbits
 284              		.align	1
 285              		.global	VL53L1_get_part_to_part_data
 286              		.syntax unified
 287              		.thumb
 288              		.thumb_func
 289              		.fpu fpv4-sp-d16
 291              	VL53L1_get_part_to_part_data:
 292              	.LVL24:
 293              	.LFB130:
 531:D:/Git/VL53L1/lib/core/src\vl53l1_api_core.c **** 
 532:D:/Git/VL53L1/lib/core/src\vl53l1_api_core.c **** 
 533:D:/Git/VL53L1/lib/core/src\vl53l1_api_core.c **** VL53L1_Error VL53L1_get_part_to_part_data(
 534:D:/Git/VL53L1/lib/core/src\vl53l1_api_core.c **** 	VL53L1_DEV                      Dev,
ARM GAS  C:\Users\Berbardo\AppData\Local\Temp\ccBMvrJ9.s 			page 16


 535:D:/Git/VL53L1/lib/core/src\vl53l1_api_core.c **** 	VL53L1_calibration_data_t      *pcal_data)
 536:D:/Git/VL53L1/lib/core/src\vl53l1_api_core.c **** {
 294              		.loc 1 536 1 is_stmt 1 view -0
 295              		.cfi_startproc
 296              		@ args = 0, pretend = 0, frame = 0
 297              		@ frame_needed = 0, uses_anonymous_args = 0
 298              		@ link register save eliminated.
 299              		.loc 1 536 1 is_stmt 0 view .LVU86
 300 0000 F0B4     		push	{r4, r5, r6, r7}
 301              		.cfi_def_cfa_offset 16
 302              		.cfi_offset 4, -16
 303              		.cfi_offset 5, -12
 304              		.cfi_offset 6, -8
 305              		.cfi_offset 7, -4
 537:D:/Git/VL53L1/lib/core/src\vl53l1_api_core.c **** 	/**
 538:D:/Git/VL53L1/lib/core/src\vl53l1_api_core.c **** 	 * Uses memcpy to copy pdev->customer to output data
 539:D:/Git/VL53L1/lib/core/src\vl53l1_api_core.c **** 	 */
 540:D:/Git/VL53L1/lib/core/src\vl53l1_api_core.c **** 
 541:D:/Git/VL53L1/lib/core/src\vl53l1_api_core.c **** 	VL53L1_Error  status = VL53L1_ERROR_NONE;
 306              		.loc 1 541 2 is_stmt 1 view .LVU87
 307              	.LVL25:
 542:D:/Git/VL53L1/lib/core/src\vl53l1_api_core.c **** 	VL53L1_LLDriverData_t *pdev = VL53L1DevStructGetLLDriverHandle(Dev);
 308              		.loc 1 542 2 view .LVU88
 543:D:/Git/VL53L1/lib/core/src\vl53l1_api_core.c **** 
 544:D:/Git/VL53L1/lib/core/src\vl53l1_api_core.c **** 	LOG_FUNCTION_START("");
 309              		.loc 1 544 24 view .LVU89
 545:D:/Git/VL53L1/lib/core/src\vl53l1_api_core.c **** 
 546:D:/Git/VL53L1/lib/core/src\vl53l1_api_core.c **** 	pcal_data->struct_version =
 310              		.loc 1 546 2 view .LVU90
 311              		.loc 1 546 28 is_stmt 0 view .LVU91
 312 0002 0B46     		mov	r3, r1
 313 0004 224A     		ldr	r2, .L24
 314 0006 43F8042B 		str	r2, [r3], #4
 547:D:/Git/VL53L1/lib/core/src\vl53l1_api_core.c **** 			VL53L1_LL_CALIBRATION_DATA_STRUCT_VERSION;
 548:D:/Git/VL53L1/lib/core/src\vl53l1_api_core.c **** 
 549:D:/Git/VL53L1/lib/core/src\vl53l1_api_core.c **** 	/* memcpy(DEST, SRC, N)  */
 550:D:/Git/VL53L1/lib/core/src\vl53l1_api_core.c **** 	memcpy(
 315              		.loc 1 550 2 is_stmt 1 view .LVU92
 551:D:/Git/VL53L1/lib/core/src\vl53l1_api_core.c **** 		&(pcal_data->customer),
 552:D:/Git/VL53L1/lib/core/src\vl53l1_api_core.c **** 		&(pdev->customer),
 316              		.loc 1 552 3 is_stmt 0 view .LVU93
 317 000a 0246     		mov	r2, r0
 550:D:/Git/VL53L1/lib/core/src\vl53l1_api_core.c **** 		&(pcal_data->customer),
 318              		.loc 1 550 2 view .LVU94
 319 000c 52F8425F 		ldr	r5, [r2, #66]!	@ unaligned
 320 0010 5468     		ldr	r4, [r2, #4]	@ unaligned
 321 0012 9768     		ldr	r7, [r2, #8]	@ unaligned
 322 0014 D668     		ldr	r6, [r2, #12]	@ unaligned
 323 0016 4D60     		str	r5, [r1, #4]	@ unaligned
 324 0018 5C60     		str	r4, [r3, #4]	@ unaligned
 325 001a 9F60     		str	r7, [r3, #8]	@ unaligned
 326 001c DE60     		str	r6, [r3, #12]	@ unaligned
 327 001e 1569     		ldr	r5, [r2, #16]	@ unaligned
 328 0020 5469     		ldr	r4, [r2, #20]	@ unaligned
 329 0022 1D61     		str	r5, [r3, #16]	@ unaligned
 330 0024 5C61     		str	r4, [r3, #20]	@ unaligned
 553:D:/Git/VL53L1/lib/core/src\vl53l1_api_core.c **** 		sizeof(VL53L1_customer_nvm_managed_t));
ARM GAS  C:\Users\Berbardo\AppData\Local\Temp\ccBMvrJ9.s 			page 17


 554:D:/Git/VL53L1/lib/core/src\vl53l1_api_core.c **** 
 555:D:/Git/VL53L1/lib/core/src\vl53l1_api_core.c **** 	/* Overwrite Struct with xtalk config parameters */
 556:D:/Git/VL53L1/lib/core/src\vl53l1_api_core.c **** 	/* - customer struct versions are not golden copy */
 557:D:/Git/VL53L1/lib/core/src\vl53l1_api_core.c **** 
 558:D:/Git/VL53L1/lib/core/src\vl53l1_api_core.c **** 	if (pdev->xtalk_cfg.algo__crosstalk_compensation_plane_offset_kcps > 0xFFFF) {
 331              		.loc 1 558 2 is_stmt 1 view .LVU95
 332              		.loc 1 558 21 is_stmt 0 view .LVU96
 333 0026 D0F82C31 		ldr	r3, [r0, #300]
 334              		.loc 1 558 5 view .LVU97
 335 002a B3F5803F 		cmp	r3, #65536
 336 002e 2DD3     		bcc	.L20
 559:D:/Git/VL53L1/lib/core/src\vl53l1_api_core.c **** 		pcal_data->customer.algo__crosstalk_compensation_plane_offset_kcps =
 337              		.loc 1 559 3 is_stmt 1 view .LVU98
 338              		.loc 1 559 70 is_stmt 0 view .LVU99
 339 0030 4FF6FF73 		movw	r3, #65535
 340 0034 CB81     		strh	r3, [r1, #14]	@ movhi
 341              	.L21:
 560:D:/Git/VL53L1/lib/core/src\vl53l1_api_core.c **** 			0xFFFF;
 561:D:/Git/VL53L1/lib/core/src\vl53l1_api_core.c **** 	} else {
 562:D:/Git/VL53L1/lib/core/src\vl53l1_api_core.c **** 		pcal_data->customer.algo__crosstalk_compensation_plane_offset_kcps =
 563:D:/Git/VL53L1/lib/core/src\vl53l1_api_core.c **** 			(uint16_t)pdev->xtalk_cfg.algo__crosstalk_compensation_plane_offset_kcps;
 564:D:/Git/VL53L1/lib/core/src\vl53l1_api_core.c **** 	}
 565:D:/Git/VL53L1/lib/core/src\vl53l1_api_core.c **** 	pcal_data->customer.algo__crosstalk_compensation_x_plane_gradient_kcps =
 342              		.loc 1 565 2 is_stmt 1 view .LVU100
 566:D:/Git/VL53L1/lib/core/src\vl53l1_api_core.c **** 		pdev->xtalk_cfg.algo__crosstalk_compensation_x_plane_gradient_kcps;
 343              		.loc 1 566 18 is_stmt 0 view .LVU101
 344 0036 B0F93031 		ldrsh	r3, [r0, #304]
 565:D:/Git/VL53L1/lib/core/src\vl53l1_api_core.c **** 		pdev->xtalk_cfg.algo__crosstalk_compensation_x_plane_gradient_kcps;
 345              		.loc 1 565 73 view .LVU102
 346 003a 0B82     		strh	r3, [r1, #16]	@ movhi
 567:D:/Git/VL53L1/lib/core/src\vl53l1_api_core.c **** 	pcal_data->customer.algo__crosstalk_compensation_y_plane_gradient_kcps =
 347              		.loc 1 567 2 is_stmt 1 view .LVU103
 568:D:/Git/VL53L1/lib/core/src\vl53l1_api_core.c **** 		pdev->xtalk_cfg.algo__crosstalk_compensation_y_plane_gradient_kcps;
 348              		.loc 1 568 18 is_stmt 0 view .LVU104
 349 003c B0F93231 		ldrsh	r3, [r0, #306]
 567:D:/Git/VL53L1/lib/core/src\vl53l1_api_core.c **** 	pcal_data->customer.algo__crosstalk_compensation_y_plane_gradient_kcps =
 350              		.loc 1 567 73 view .LVU105
 351 0040 4B82     		strh	r3, [r1, #18]	@ movhi
 569:D:/Git/VL53L1/lib/core/src\vl53l1_api_core.c **** 
 570:D:/Git/VL53L1/lib/core/src\vl53l1_api_core.c **** 	/* memcpy(DEST, SRC, N)  */
 571:D:/Git/VL53L1/lib/core/src\vl53l1_api_core.c **** 	memcpy(
 352              		.loc 1 571 2 is_stmt 1 view .LVU106
 572:D:/Git/VL53L1/lib/core/src\vl53l1_api_core.c **** 		&(pcal_data->add_off_cal_data),
 573:D:/Git/VL53L1/lib/core/src\vl53l1_api_core.c **** 		&(pdev->add_off_cal_data),
 353              		.loc 1 573 3 is_stmt 0 view .LVU107
 354 0042 0346     		mov	r3, r0
 571:D:/Git/VL53L1/lib/core/src\vl53l1_api_core.c **** 		&(pcal_data->add_off_cal_data),
 355              		.loc 1 571 2 view .LVU108
 356 0044 53F8942F 		ldr	r2, [r3, #148]!	@ unaligned
 357 0048 5B68     		ldr	r3, [r3, #4]	@ unaligned
 358 004a CA61     		str	r2, [r1, #28]	@ unaligned
 359 004c 0B62     		str	r3, [r1, #32]	@ unaligned
 574:D:/Git/VL53L1/lib/core/src\vl53l1_api_core.c **** 		sizeof(VL53L1_additional_offset_cal_data_t));
 575:D:/Git/VL53L1/lib/core/src\vl53l1_api_core.c **** 
 576:D:/Git/VL53L1/lib/core/src\vl53l1_api_core.c **** 	/* memcpy(DEST, SRC, N)  */
 577:D:/Git/VL53L1/lib/core/src\vl53l1_api_core.c **** 	memcpy(
 360              		.loc 1 577 2 is_stmt 1 view .LVU109
ARM GAS  C:\Users\Berbardo\AppData\Local\Temp\ccBMvrJ9.s 			page 18


 361 004e B0F8A230 		ldrh	r3, [r0, #162]	@ unaligned
 362 0052 8B84     		strh	r3, [r1, #36]	@ unaligned
 578:D:/Git/VL53L1/lib/core/src\vl53l1_api_core.c **** 		&(pcal_data->optical_centre),
 579:D:/Git/VL53L1/lib/core/src\vl53l1_api_core.c **** 		&(pdev->optical_centre),
 580:D:/Git/VL53L1/lib/core/src\vl53l1_api_core.c **** 		sizeof(VL53L1_optical_centre_t));
 581:D:/Git/VL53L1/lib/core/src\vl53l1_api_core.c **** 
 582:D:/Git/VL53L1/lib/core/src\vl53l1_api_core.c **** 	/* memcpy(DEST, SRC, N)  */
 583:D:/Git/VL53L1/lib/core/src\vl53l1_api_core.c **** 	memcpy(
 363              		.loc 1 583 2 view .LVU110
 364 0054 B0F89C30 		ldrh	r3, [r0, #156]	@ unaligned
 365 0058 CB84     		strh	r3, [r1, #38]	@ unaligned
 584:D:/Git/VL53L1/lib/core/src\vl53l1_api_core.c **** 		&(pcal_data->gain_cal),
 585:D:/Git/VL53L1/lib/core/src\vl53l1_api_core.c **** 		&(pdev->gain_cal),
 586:D:/Git/VL53L1/lib/core/src\vl53l1_api_core.c **** 		sizeof(VL53L1_gain_calibration_data_t));
 587:D:/Git/VL53L1/lib/core/src\vl53l1_api_core.c **** 
 588:D:/Git/VL53L1/lib/core/src\vl53l1_api_core.c **** 	/* memcpy(DEST, SRC, N)  */
 589:D:/Git/VL53L1/lib/core/src\vl53l1_api_core.c **** 	memcpy(
 366              		.loc 1 589 2 view .LVU111
 590:D:/Git/VL53L1/lib/core/src\vl53l1_api_core.c **** 		&(pcal_data->cal_peak_rate_map),
 591:D:/Git/VL53L1/lib/core/src\vl53l1_api_core.c **** 		&(pdev->cal_peak_rate_map),
 367              		.loc 1 591 3 is_stmt 0 view .LVU112
 368 005a 00F15A03 		add	r3, r0, #90
 589:D:/Git/VL53L1/lib/core/src\vl53l1_api_core.c **** 		&(pcal_data->cal_peak_rate_map),
 369              		.loc 1 589 2 view .LVU113
 370 005e 2831     		adds	r1, r1, #40
 371              	.LVL26:
 589:D:/Git/VL53L1/lib/core/src\vl53l1_api_core.c **** 		&(pcal_data->cal_peak_rate_map),
 372              		.loc 1 589 2 view .LVU114
 373 0060 8A30     		adds	r0, r0, #138
 374              	.LVL27:
 375              	.L22:
 589:D:/Git/VL53L1/lib/core/src\vl53l1_api_core.c **** 		&(pcal_data->cal_peak_rate_map),
 376              		.loc 1 589 2 view .LVU115
 377 0062 1E68     		ldr	r6, [r3]	@ unaligned
 378 0064 5D68     		ldr	r5, [r3, #4]	@ unaligned
 379 0066 9C68     		ldr	r4, [r3, #8]	@ unaligned
 380 0068 DA68     		ldr	r2, [r3, #12]	@ unaligned
 381 006a 0E60     		str	r6, [r1]	@ unaligned
 382 006c 4D60     		str	r5, [r1, #4]	@ unaligned
 383 006e 8C60     		str	r4, [r1, #8]	@ unaligned
 384 0070 CA60     		str	r2, [r1, #12]	@ unaligned
 385 0072 1033     		adds	r3, r3, #16
 386 0074 1031     		adds	r1, r1, #16
 387 0076 8342     		cmp	r3, r0
 388 0078 F3D1     		bne	.L22
 389 007a 1868     		ldr	r0, [r3]	@ unaligned
 390              	.LVL28:
 589:D:/Git/VL53L1/lib/core/src\vl53l1_api_core.c **** 		&(pcal_data->cal_peak_rate_map),
 391              		.loc 1 589 2 view .LVU116
 392 007c 5A68     		ldr	r2, [r3, #4]	@ unaligned
 393 007e 0860     		str	r0, [r1]	@ unaligned
 394 0080 4A60     		str	r2, [r1, #4]	@ unaligned
 395 0082 1B89     		ldrh	r3, [r3, #8]	@ unaligned
 396 0084 0B81     		strh	r3, [r1, #8]	@ unaligned
 592:D:/Git/VL53L1/lib/core/src\vl53l1_api_core.c **** 		sizeof(VL53L1_cal_peak_rate_map_t));
 593:D:/Git/VL53L1/lib/core/src\vl53l1_api_core.c **** 
 594:D:/Git/VL53L1/lib/core/src\vl53l1_api_core.c **** 	LOG_FUNCTION_END(status);
ARM GAS  C:\Users\Berbardo\AppData\Local\Temp\ccBMvrJ9.s 			page 19


 397              		.loc 1 594 26 is_stmt 1 view .LVU117
 595:D:/Git/VL53L1/lib/core/src\vl53l1_api_core.c **** 
 596:D:/Git/VL53L1/lib/core/src\vl53l1_api_core.c **** 	return status;
 398              		.loc 1 596 2 view .LVU118
 597:D:/Git/VL53L1/lib/core/src\vl53l1_api_core.c **** }
 399              		.loc 1 597 1 is_stmt 0 view .LVU119
 400 0086 0020     		movs	r0, #0
 401 0088 F0BC     		pop	{r4, r5, r6, r7}
 402              		.cfi_remember_state
 403              		.cfi_restore 7
 404              		.cfi_restore 6
 405              		.cfi_restore 5
 406              		.cfi_restore 4
 407              		.cfi_def_cfa_offset 0
 408 008a 7047     		bx	lr
 409              	.LVL29:
 410              	.L20:
 411              		.cfi_restore_state
 562:D:/Git/VL53L1/lib/core/src\vl53l1_api_core.c **** 			(uint16_t)pdev->xtalk_cfg.algo__crosstalk_compensation_plane_offset_kcps;
 412              		.loc 1 562 3 is_stmt 1 view .LVU120
 562:D:/Git/VL53L1/lib/core/src\vl53l1_api_core.c **** 			(uint16_t)pdev->xtalk_cfg.algo__crosstalk_compensation_plane_offset_kcps;
 413              		.loc 1 562 70 is_stmt 0 view .LVU121
 414 008c CB81     		strh	r3, [r1, #14]	@ movhi
 415 008e D2E7     		b	.L21
 416              	.L25:
 417              		.align	2
 418              	.L24:
 419 0090 0201ABEC 		.word	-324337406
 420              		.cfi_endproc
 421              	.LFE130:
 423              		.section	.text.VL53L1_set_inter_measurement_period_ms,"ax",%progbits
 424              		.align	1
 425              		.global	VL53L1_set_inter_measurement_period_ms
 426              		.syntax unified
 427              		.thumb
 428              		.thumb_func
 429              		.fpu fpv4-sp-d16
 431              	VL53L1_set_inter_measurement_period_ms:
 432              	.LVL30:
 433              	.LFB131:
 598:D:/Git/VL53L1/lib/core/src\vl53l1_api_core.c **** 
 599:D:/Git/VL53L1/lib/core/src\vl53l1_api_core.c **** 
 600:D:/Git/VL53L1/lib/core/src\vl53l1_api_core.c **** VL53L1_Error VL53L1_set_inter_measurement_period_ms(
 601:D:/Git/VL53L1/lib/core/src\vl53l1_api_core.c **** 	VL53L1_DEV              Dev,
 602:D:/Git/VL53L1/lib/core/src\vl53l1_api_core.c **** 	uint32_t                inter_measurement_period_ms)
 603:D:/Git/VL53L1/lib/core/src\vl53l1_api_core.c **** {
 434              		.loc 1 603 1 is_stmt 1 view -0
 435              		.cfi_startproc
 436              		@ args = 0, pretend = 0, frame = 0
 437              		@ frame_needed = 0, uses_anonymous_args = 0
 438              		@ link register save eliminated.
 604:D:/Git/VL53L1/lib/core/src\vl53l1_api_core.c **** 	/**
 605:D:/Git/VL53L1/lib/core/src\vl53l1_api_core.c **** 	 * Convenience function for setting the inter measurement period
 606:D:/Git/VL53L1/lib/core/src\vl53l1_api_core.c **** 	 */
 607:D:/Git/VL53L1/lib/core/src\vl53l1_api_core.c **** 
 608:D:/Git/VL53L1/lib/core/src\vl53l1_api_core.c **** 	VL53L1_Error  status = VL53L1_ERROR_NONE;
 439              		.loc 1 608 2 view .LVU123
ARM GAS  C:\Users\Berbardo\AppData\Local\Temp\ccBMvrJ9.s 			page 20


 609:D:/Git/VL53L1/lib/core/src\vl53l1_api_core.c **** 	VL53L1_LLDriverData_t *pdev = VL53L1DevStructGetLLDriverHandle(Dev);
 440              		.loc 1 609 2 view .LVU124
 610:D:/Git/VL53L1/lib/core/src\vl53l1_api_core.c **** 
 611:D:/Git/VL53L1/lib/core/src\vl53l1_api_core.c **** 	LOG_FUNCTION_START("");
 441              		.loc 1 611 24 view .LVU125
 612:D:/Git/VL53L1/lib/core/src\vl53l1_api_core.c **** 
 613:D:/Git/VL53L1/lib/core/src\vl53l1_api_core.c **** 	if (pdev->dbg_results.result__osc_calibrate_val == 0)
 442              		.loc 1 613 2 view .LVU126
 443              		.loc 1 613 23 is_stmt 0 view .LVU127
 444 0000 B0F8B432 		ldrh	r3, [r0, #692]
 445              		.loc 1 613 5 view .LVU128
 446 0004 33B1     		cbz	r3, .L28
 614:D:/Git/VL53L1/lib/core/src\vl53l1_api_core.c **** 		status = VL53L1_ERROR_DIVISION_BY_ZERO;
 615:D:/Git/VL53L1/lib/core/src\vl53l1_api_core.c **** 
 616:D:/Git/VL53L1/lib/core/src\vl53l1_api_core.c **** 	if (status == VL53L1_ERROR_NONE) {
 447              		.loc 1 616 2 is_stmt 1 view .LVU129
 617:D:/Git/VL53L1/lib/core/src\vl53l1_api_core.c **** 		pdev->inter_measurement_period_ms = inter_measurement_period_ms;
 448              		.loc 1 617 3 view .LVU130
 449              		.loc 1 617 37 is_stmt 0 view .LVU131
 450 0006 4161     		str	r1, [r0, #20]
 618:D:/Git/VL53L1/lib/core/src\vl53l1_api_core.c **** 		pdev->tim_cfg.system__intermeasurement_period = \
 451              		.loc 1 618 3 is_stmt 1 view .LVU132
 619:D:/Git/VL53L1/lib/core/src\vl53l1_api_core.c **** 			inter_measurement_period_ms *
 452              		.loc 1 619 32 is_stmt 0 view .LVU133
 453 0008 01FB03F1 		mul	r1, r1, r3
 454              	.LVL31:
 618:D:/Git/VL53L1/lib/core/src\vl53l1_api_core.c **** 		pdev->tim_cfg.system__intermeasurement_period = \
 455              		.loc 1 618 49 view .LVU134
 456 000c C0F8AC11 		str	r1, [r0, #428]
 608:D:/Git/VL53L1/lib/core/src\vl53l1_api_core.c **** 	VL53L1_LLDriverData_t *pdev = VL53L1DevStructGetLLDriverHandle(Dev);
 457              		.loc 1 608 16 view .LVU135
 458 0010 0020     		movs	r0, #0
 459              	.LVL32:
 608:D:/Git/VL53L1/lib/core/src\vl53l1_api_core.c **** 	VL53L1_LLDriverData_t *pdev = VL53L1DevStructGetLLDriverHandle(Dev);
 460              		.loc 1 608 16 view .LVU136
 461 0012 7047     		bx	lr
 462              	.LVL33:
 463              	.L28:
 614:D:/Git/VL53L1/lib/core/src\vl53l1_api_core.c **** 
 464              		.loc 1 614 10 view .LVU137
 465 0014 6FF00E00 		mvn	r0, #14
 466              	.LVL34:
 620:D:/Git/VL53L1/lib/core/src\vl53l1_api_core.c **** 			(uint32_t)pdev->dbg_results.result__osc_calibrate_val;
 621:D:/Git/VL53L1/lib/core/src\vl53l1_api_core.c **** 	}
 622:D:/Git/VL53L1/lib/core/src\vl53l1_api_core.c **** 
 623:D:/Git/VL53L1/lib/core/src\vl53l1_api_core.c **** 	LOG_FUNCTION_END(status);
 467              		.loc 1 623 26 is_stmt 1 view .LVU138
 624:D:/Git/VL53L1/lib/core/src\vl53l1_api_core.c **** 
 625:D:/Git/VL53L1/lib/core/src\vl53l1_api_core.c **** 	return status;
 468              		.loc 1 625 2 view .LVU139
 626:D:/Git/VL53L1/lib/core/src\vl53l1_api_core.c **** }
 469              		.loc 1 626 1 is_stmt 0 view .LVU140
 470 0018 7047     		bx	lr
 471              		.cfi_endproc
 472              	.LFE131:
 474              		.section	.text.VL53L1_get_inter_measurement_period_ms,"ax",%progbits
 475              		.align	1
ARM GAS  C:\Users\Berbardo\AppData\Local\Temp\ccBMvrJ9.s 			page 21


 476              		.global	VL53L1_get_inter_measurement_period_ms
 477              		.syntax unified
 478              		.thumb
 479              		.thumb_func
 480              		.fpu fpv4-sp-d16
 482              	VL53L1_get_inter_measurement_period_ms:
 483              	.LVL35:
 484              	.LFB132:
 627:D:/Git/VL53L1/lib/core/src\vl53l1_api_core.c **** 
 628:D:/Git/VL53L1/lib/core/src\vl53l1_api_core.c **** 
 629:D:/Git/VL53L1/lib/core/src\vl53l1_api_core.c **** VL53L1_Error VL53L1_get_inter_measurement_period_ms(
 630:D:/Git/VL53L1/lib/core/src\vl53l1_api_core.c **** 	VL53L1_DEV              Dev,
 631:D:/Git/VL53L1/lib/core/src\vl53l1_api_core.c **** 	uint32_t               *pinter_measurement_period_ms)
 632:D:/Git/VL53L1/lib/core/src\vl53l1_api_core.c **** {
 485              		.loc 1 632 1 is_stmt 1 view -0
 486              		.cfi_startproc
 487              		@ args = 0, pretend = 0, frame = 0
 488              		@ frame_needed = 0, uses_anonymous_args = 0
 489              		@ link register save eliminated.
 633:D:/Git/VL53L1/lib/core/src\vl53l1_api_core.c **** 	/**
 634:D:/Git/VL53L1/lib/core/src\vl53l1_api_core.c **** 	 * Convenience function for getting the inter measurement period
 635:D:/Git/VL53L1/lib/core/src\vl53l1_api_core.c **** 	 */
 636:D:/Git/VL53L1/lib/core/src\vl53l1_api_core.c **** 
 637:D:/Git/VL53L1/lib/core/src\vl53l1_api_core.c **** 	VL53L1_Error  status = VL53L1_ERROR_NONE;
 490              		.loc 1 637 2 view .LVU142
 638:D:/Git/VL53L1/lib/core/src\vl53l1_api_core.c **** 	VL53L1_LLDriverData_t *pdev = VL53L1DevStructGetLLDriverHandle(Dev);
 491              		.loc 1 638 2 view .LVU143
 639:D:/Git/VL53L1/lib/core/src\vl53l1_api_core.c **** 
 640:D:/Git/VL53L1/lib/core/src\vl53l1_api_core.c **** 	LOG_FUNCTION_START("");
 492              		.loc 1 640 24 view .LVU144
 641:D:/Git/VL53L1/lib/core/src\vl53l1_api_core.c **** 
 642:D:/Git/VL53L1/lib/core/src\vl53l1_api_core.c **** 	if (pdev->dbg_results.result__osc_calibrate_val == 0)
 493              		.loc 1 642 2 view .LVU145
 494              		.loc 1 642 23 is_stmt 0 view .LVU146
 495 0000 B0F8B422 		ldrh	r2, [r0, #692]
 496              		.loc 1 642 5 view .LVU147
 497 0004 32B1     		cbz	r2, .L31
 643:D:/Git/VL53L1/lib/core/src\vl53l1_api_core.c **** 		status = VL53L1_ERROR_DIVISION_BY_ZERO;
 644:D:/Git/VL53L1/lib/core/src\vl53l1_api_core.c **** 
 645:D:/Git/VL53L1/lib/core/src\vl53l1_api_core.c **** 	if (status == VL53L1_ERROR_NONE)
 498              		.loc 1 645 2 is_stmt 1 view .LVU148
 646:D:/Git/VL53L1/lib/core/src\vl53l1_api_core.c **** 		*pinter_measurement_period_ms = \
 499              		.loc 1 646 3 view .LVU149
 647:D:/Git/VL53L1/lib/core/src\vl53l1_api_core.c **** 			pdev->tim_cfg.system__intermeasurement_period /
 500              		.loc 1 647 17 is_stmt 0 view .LVU150
 501 0006 D0F8AC31 		ldr	r3, [r0, #428]
 502              		.loc 1 647 50 view .LVU151
 503 000a B3FBF2F3 		udiv	r3, r3, r2
 646:D:/Git/VL53L1/lib/core/src\vl53l1_api_core.c **** 		*pinter_measurement_period_ms = \
 504              		.loc 1 646 33 view .LVU152
 505 000e 0B60     		str	r3, [r1]
 637:D:/Git/VL53L1/lib/core/src\vl53l1_api_core.c **** 	VL53L1_LLDriverData_t *pdev = VL53L1DevStructGetLLDriverHandle(Dev);
 506              		.loc 1 637 16 view .LVU153
 507 0010 0020     		movs	r0, #0
 508              	.LVL36:
 637:D:/Git/VL53L1/lib/core/src\vl53l1_api_core.c **** 	VL53L1_LLDriverData_t *pdev = VL53L1DevStructGetLLDriverHandle(Dev);
 509              		.loc 1 637 16 view .LVU154
ARM GAS  C:\Users\Berbardo\AppData\Local\Temp\ccBMvrJ9.s 			page 22


 510 0012 7047     		bx	lr
 511              	.LVL37:
 512              	.L31:
 643:D:/Git/VL53L1/lib/core/src\vl53l1_api_core.c **** 
 513              		.loc 1 643 10 view .LVU155
 514 0014 6FF00E00 		mvn	r0, #14
 515              	.LVL38:
 648:D:/Git/VL53L1/lib/core/src\vl53l1_api_core.c **** 			(uint32_t)pdev->dbg_results.result__osc_calibrate_val;
 649:D:/Git/VL53L1/lib/core/src\vl53l1_api_core.c **** 
 650:D:/Git/VL53L1/lib/core/src\vl53l1_api_core.c **** 
 651:D:/Git/VL53L1/lib/core/src\vl53l1_api_core.c **** 	LOG_FUNCTION_END(status);
 516              		.loc 1 651 26 is_stmt 1 view .LVU156
 652:D:/Git/VL53L1/lib/core/src\vl53l1_api_core.c **** 
 653:D:/Git/VL53L1/lib/core/src\vl53l1_api_core.c **** 	return status;
 517              		.loc 1 653 2 view .LVU157
 654:D:/Git/VL53L1/lib/core/src\vl53l1_api_core.c **** }
 518              		.loc 1 654 1 is_stmt 0 view .LVU158
 519 0018 7047     		bx	lr
 520              		.cfi_endproc
 521              	.LFE132:
 523              		.section	.text.VL53L1_set_timeouts_us,"ax",%progbits
 524              		.align	1
 525              		.global	VL53L1_set_timeouts_us
 526              		.syntax unified
 527              		.thumb
 528              		.thumb_func
 529              		.fpu fpv4-sp-d16
 531              	VL53L1_set_timeouts_us:
 532              	.LVL39:
 533              	.LFB133:
 655:D:/Git/VL53L1/lib/core/src\vl53l1_api_core.c **** 
 656:D:/Git/VL53L1/lib/core/src\vl53l1_api_core.c **** 
 657:D:/Git/VL53L1/lib/core/src\vl53l1_api_core.c **** VL53L1_Error VL53L1_set_timeouts_us(
 658:D:/Git/VL53L1/lib/core/src\vl53l1_api_core.c **** 	VL53L1_DEV          Dev,
 659:D:/Git/VL53L1/lib/core/src\vl53l1_api_core.c **** 	uint32_t            phasecal_config_timeout_us,
 660:D:/Git/VL53L1/lib/core/src\vl53l1_api_core.c **** 	uint32_t            mm_config_timeout_us,
 661:D:/Git/VL53L1/lib/core/src\vl53l1_api_core.c **** 	uint32_t            range_config_timeout_us)
 662:D:/Git/VL53L1/lib/core/src\vl53l1_api_core.c **** {
 534              		.loc 1 662 1 is_stmt 1 view -0
 535              		.cfi_startproc
 536              		@ args = 0, pretend = 0, frame = 0
 537              		@ frame_needed = 0, uses_anonymous_args = 0
 538              		.loc 1 662 1 is_stmt 0 view .LVU160
 539 0000 30B5     		push	{r4, r5, lr}
 540              		.cfi_def_cfa_offset 12
 541              		.cfi_offset 4, -12
 542              		.cfi_offset 5, -8
 543              		.cfi_offset 14, -4
 544 0002 83B0     		sub	sp, sp, #12
 545              		.cfi_def_cfa_offset 24
 546 0004 0446     		mov	r4, r0
 547 0006 0846     		mov	r0, r1
 548              	.LVL40:
 549              		.loc 1 662 1 view .LVU161
 550 0008 1146     		mov	r1, r2
 551              	.LVL41:
 552              		.loc 1 662 1 view .LVU162
ARM GAS  C:\Users\Berbardo\AppData\Local\Temp\ccBMvrJ9.s 			page 23


 553 000a 1A46     		mov	r2, r3
 554              	.LVL42:
 663:D:/Git/VL53L1/lib/core/src\vl53l1_api_core.c **** 	/**
 664:D:/Git/VL53L1/lib/core/src\vl53l1_api_core.c **** 	 * Convenience function for setting the MM and range
 665:D:/Git/VL53L1/lib/core/src\vl53l1_api_core.c **** 	 * timeouts
 666:D:/Git/VL53L1/lib/core/src\vl53l1_api_core.c **** 	 */
 667:D:/Git/VL53L1/lib/core/src\vl53l1_api_core.c **** 
 668:D:/Git/VL53L1/lib/core/src\vl53l1_api_core.c **** 	VL53L1_Error  status = VL53L1_ERROR_NONE;
 555              		.loc 1 668 2 is_stmt 1 view .LVU163
 669:D:/Git/VL53L1/lib/core/src\vl53l1_api_core.c **** 	VL53L1_LLDriverData_t *pdev =
 556              		.loc 1 669 2 view .LVU164
 670:D:/Git/VL53L1/lib/core/src\vl53l1_api_core.c **** 			VL53L1DevStructGetLLDriverHandle(Dev);
 671:D:/Git/VL53L1/lib/core/src\vl53l1_api_core.c **** 
 672:D:/Git/VL53L1/lib/core/src\vl53l1_api_core.c **** 	LOG_FUNCTION_START("");
 557              		.loc 1 672 24 view .LVU165
 673:D:/Git/VL53L1/lib/core/src\vl53l1_api_core.c **** 
 674:D:/Git/VL53L1/lib/core/src\vl53l1_api_core.c **** 	if (pdev->stat_nvm.osc_measured__fast_osc__frequency == 0)
 558              		.loc 1 674 2 view .LVU166
 559              		.loc 1 674 20 is_stmt 0 view .LVU167
 560 000c B4F85E31 		ldrh	r3, [r4, #350]
 561              	.LVL43:
 562              		.loc 1 674 5 view .LVU168
 563 0010 63B1     		cbz	r3, .L34
 675:D:/Git/VL53L1/lib/core/src\vl53l1_api_core.c **** 		status = VL53L1_ERROR_DIVISION_BY_ZERO;
 676:D:/Git/VL53L1/lib/core/src\vl53l1_api_core.c **** 
 677:D:/Git/VL53L1/lib/core/src\vl53l1_api_core.c **** 	if (status == VL53L1_ERROR_NONE) {
 564              		.loc 1 677 2 is_stmt 1 view .LVU169
 678:D:/Git/VL53L1/lib/core/src\vl53l1_api_core.c **** 
 679:D:/Git/VL53L1/lib/core/src\vl53l1_api_core.c **** 		pdev->phasecal_config_timeout_us = phasecal_config_timeout_us;
 565              		.loc 1 679 3 view .LVU170
 566              		.loc 1 679 36 is_stmt 0 view .LVU171
 567 0012 A060     		str	r0, [r4, #8]
 680:D:/Git/VL53L1/lib/core/src\vl53l1_api_core.c **** 		pdev->mm_config_timeout_us       = mm_config_timeout_us;
 568              		.loc 1 680 3 is_stmt 1 view .LVU172
 569              		.loc 1 680 36 is_stmt 0 view .LVU173
 570 0014 E160     		str	r1, [r4, #12]
 681:D:/Git/VL53L1/lib/core/src\vl53l1_api_core.c **** 		pdev->range_config_timeout_us    = range_config_timeout_us;
 571              		.loc 1 681 3 is_stmt 1 view .LVU174
 572              		.loc 1 681 36 is_stmt 0 view .LVU175
 573 0016 2261     		str	r2, [r4, #16]
 682:D:/Git/VL53L1/lib/core/src\vl53l1_api_core.c **** 
 683:D:/Git/VL53L1/lib/core/src\vl53l1_api_core.c **** 		status =
 574              		.loc 1 683 3 is_stmt 1 view .LVU176
 684:D:/Git/VL53L1/lib/core/src\vl53l1_api_core.c **** 			VL53L1_calc_timeout_register_values(
 575              		.loc 1 684 4 is_stmt 0 view .LVU177
 576 0018 04F5CE75 		add	r5, r4, #412
 577 001c 0195     		str	r5, [sp, #4]
 578 001e 04F5C274 		add	r4, r4, #388
 579              	.LVL44:
 580              		.loc 1 684 4 view .LVU178
 581 0022 0094     		str	r4, [sp]
 582 0024 FFF7FEFF 		bl	VL53L1_calc_timeout_register_values
 583              	.LVL45:
 584              	.L33:
 685:D:/Git/VL53L1/lib/core/src\vl53l1_api_core.c **** 				phasecal_config_timeout_us,
 686:D:/Git/VL53L1/lib/core/src\vl53l1_api_core.c **** 				mm_config_timeout_us,
 687:D:/Git/VL53L1/lib/core/src\vl53l1_api_core.c **** 				range_config_timeout_us,
ARM GAS  C:\Users\Berbardo\AppData\Local\Temp\ccBMvrJ9.s 			page 24


 688:D:/Git/VL53L1/lib/core/src\vl53l1_api_core.c **** 				pdev->stat_nvm.osc_measured__fast_osc__frequency,
 689:D:/Git/VL53L1/lib/core/src\vl53l1_api_core.c **** 				&(pdev->gen_cfg),
 690:D:/Git/VL53L1/lib/core/src\vl53l1_api_core.c **** 				&(pdev->tim_cfg));
 691:D:/Git/VL53L1/lib/core/src\vl53l1_api_core.c **** 	}
 692:D:/Git/VL53L1/lib/core/src\vl53l1_api_core.c **** 
 693:D:/Git/VL53L1/lib/core/src\vl53l1_api_core.c **** 	LOG_FUNCTION_END(status);
 585              		.loc 1 693 26 is_stmt 1 view .LVU179
 694:D:/Git/VL53L1/lib/core/src\vl53l1_api_core.c **** 
 695:D:/Git/VL53L1/lib/core/src\vl53l1_api_core.c **** 	return status;
 586              		.loc 1 695 2 view .LVU180
 696:D:/Git/VL53L1/lib/core/src\vl53l1_api_core.c **** }
 587              		.loc 1 696 1 is_stmt 0 view .LVU181
 588 0028 03B0     		add	sp, sp, #12
 589              		.cfi_remember_state
 590              		.cfi_def_cfa_offset 12
 591              		@ sp needed
 592 002a 30BD     		pop	{r4, r5, pc}
 593              	.LVL46:
 594              	.L34:
 595              		.cfi_restore_state
 675:D:/Git/VL53L1/lib/core/src\vl53l1_api_core.c **** 
 596              		.loc 1 675 10 view .LVU182
 597 002c 6FF00E00 		mvn	r0, #14
 598              	.LVL47:
 675:D:/Git/VL53L1/lib/core/src\vl53l1_api_core.c **** 
 599              		.loc 1 675 10 view .LVU183
 600 0030 FAE7     		b	.L33
 601              		.cfi_endproc
 602              	.LFE133:
 604              		.section	.text.VL53L1_get_timeouts_us,"ax",%progbits
 605              		.align	1
 606              		.global	VL53L1_get_timeouts_us
 607              		.syntax unified
 608              		.thumb
 609              		.thumb_func
 610              		.fpu fpv4-sp-d16
 612              	VL53L1_get_timeouts_us:
 613              	.LVL48:
 614              	.LFB134:
 697:D:/Git/VL53L1/lib/core/src\vl53l1_api_core.c **** 
 698:D:/Git/VL53L1/lib/core/src\vl53l1_api_core.c **** 
 699:D:/Git/VL53L1/lib/core/src\vl53l1_api_core.c **** VL53L1_Error VL53L1_get_timeouts_us(
 700:D:/Git/VL53L1/lib/core/src\vl53l1_api_core.c **** 	VL53L1_DEV           Dev,
 701:D:/Git/VL53L1/lib/core/src\vl53l1_api_core.c **** 	uint32_t            *pphasecal_config_timeout_us,
 702:D:/Git/VL53L1/lib/core/src\vl53l1_api_core.c **** 	uint32_t            *pmm_config_timeout_us,
 703:D:/Git/VL53L1/lib/core/src\vl53l1_api_core.c **** 	uint32_t			*prange_config_timeout_us)
 704:D:/Git/VL53L1/lib/core/src\vl53l1_api_core.c **** {
 615              		.loc 1 704 1 is_stmt 1 view -0
 616              		.cfi_startproc
 617              		@ args = 0, pretend = 0, frame = 0
 618              		@ frame_needed = 0, uses_anonymous_args = 0
 619              		.loc 1 704 1 is_stmt 0 view .LVU185
 620 0000 2DE9F041 		push	{r4, r5, r6, r7, r8, lr}
 621              		.cfi_def_cfa_offset 24
 622              		.cfi_offset 4, -24
 623              		.cfi_offset 5, -20
 624              		.cfi_offset 6, -16
ARM GAS  C:\Users\Berbardo\AppData\Local\Temp\ccBMvrJ9.s 			page 25


 625              		.cfi_offset 7, -12
 626              		.cfi_offset 8, -8
 627              		.cfi_offset 14, -4
 628 0004 0446     		mov	r4, r0
 705:D:/Git/VL53L1/lib/core/src\vl53l1_api_core.c **** 	/**
 706:D:/Git/VL53L1/lib/core/src\vl53l1_api_core.c **** 	 * Convenience function for getting the MM and range
 707:D:/Git/VL53L1/lib/core/src\vl53l1_api_core.c **** 	 * timeouts
 708:D:/Git/VL53L1/lib/core/src\vl53l1_api_core.c **** 	 */
 709:D:/Git/VL53L1/lib/core/src\vl53l1_api_core.c **** 
 710:D:/Git/VL53L1/lib/core/src\vl53l1_api_core.c **** 	VL53L1_Error  status = VL53L1_ERROR_NONE;
 629              		.loc 1 710 2 is_stmt 1 view .LVU186
 630              	.LVL49:
 711:D:/Git/VL53L1/lib/core/src\vl53l1_api_core.c **** 	VL53L1_LLDriverData_t *pdev =
 631              		.loc 1 711 2 view .LVU187
 712:D:/Git/VL53L1/lib/core/src\vl53l1_api_core.c **** 			VL53L1DevStructGetLLDriverHandle(Dev);
 713:D:/Git/VL53L1/lib/core/src\vl53l1_api_core.c **** 
 714:D:/Git/VL53L1/lib/core/src\vl53l1_api_core.c **** 	uint32_t  macro_period_us = 0;
 632              		.loc 1 714 2 view .LVU188
 715:D:/Git/VL53L1/lib/core/src\vl53l1_api_core.c **** 	uint16_t  timeout_encoded = 0;
 633              		.loc 1 715 2 view .LVU189
 716:D:/Git/VL53L1/lib/core/src\vl53l1_api_core.c **** 
 717:D:/Git/VL53L1/lib/core/src\vl53l1_api_core.c **** 	LOG_FUNCTION_START("");
 634              		.loc 1 717 24 view .LVU190
 718:D:/Git/VL53L1/lib/core/src\vl53l1_api_core.c **** 
 719:D:/Git/VL53L1/lib/core/src\vl53l1_api_core.c **** 	if (pdev->stat_nvm.osc_measured__fast_osc__frequency == 0)
 635              		.loc 1 719 2 view .LVU191
 636              		.loc 1 719 20 is_stmt 0 view .LVU192
 637 0006 B0F85E01 		ldrh	r0, [r0, #350]
 638              	.LVL50:
 639              		.loc 1 719 5 view .LVU193
 640 000a 60B3     		cbz	r0, .L38
 641 000c 1D46     		mov	r5, r3
 642 000e 1646     		mov	r6, r2
 643 0010 0F46     		mov	r7, r1
 720:D:/Git/VL53L1/lib/core/src\vl53l1_api_core.c **** 		status = VL53L1_ERROR_DIVISION_BY_ZERO;
 721:D:/Git/VL53L1/lib/core/src\vl53l1_api_core.c **** 
 722:D:/Git/VL53L1/lib/core/src\vl53l1_api_core.c **** 	if (status == VL53L1_ERROR_NONE) {
 644              		.loc 1 722 2 is_stmt 1 view .LVU194
 723:D:/Git/VL53L1/lib/core/src\vl53l1_api_core.c **** 
 724:D:/Git/VL53L1/lib/core/src\vl53l1_api_core.c **** 		/* Update Macro Period for Range A VCSEL Period */
 725:D:/Git/VL53L1/lib/core/src\vl53l1_api_core.c **** 		macro_period_us =
 645              		.loc 1 725 3 view .LVU195
 726:D:/Git/VL53L1/lib/core/src\vl53l1_api_core.c **** 			VL53L1_calc_macro_period_us(
 646              		.loc 1 726 4 is_stmt 0 view .LVU196
 647 0012 94F8A211 		ldrb	r1, [r4, #418]	@ zero_extendqisi2
 648              	.LVL51:
 649              		.loc 1 726 4 view .LVU197
 650 0016 FFF7FEFF 		bl	VL53L1_calc_macro_period_us
 651              	.LVL52:
 652              		.loc 1 726 4 view .LVU198
 653 001a 8046     		mov	r8, r0
 654              	.LVL53:
 727:D:/Git/VL53L1/lib/core/src\vl53l1_api_core.c **** 				pdev->stat_nvm.osc_measured__fast_osc__frequency,
 728:D:/Git/VL53L1/lib/core/src\vl53l1_api_core.c **** 				pdev->tim_cfg.range_config__vcsel_period_a);
 729:D:/Git/VL53L1/lib/core/src\vl53l1_api_core.c **** 
 730:D:/Git/VL53L1/lib/core/src\vl53l1_api_core.c **** 		/*  Get Phase Cal Timing A timeout */
 731:D:/Git/VL53L1/lib/core/src\vl53l1_api_core.c **** 
ARM GAS  C:\Users\Berbardo\AppData\Local\Temp\ccBMvrJ9.s 			page 26


 732:D:/Git/VL53L1/lib/core/src\vl53l1_api_core.c **** 		*pphasecal_config_timeout_us =
 655              		.loc 1 732 3 is_stmt 1 view .LVU199
 733:D:/Git/VL53L1/lib/core/src\vl53l1_api_core.c **** 			VL53L1_calc_timeout_us(
 656              		.loc 1 733 4 is_stmt 0 view .LVU200
 657 001c 0146     		mov	r1, r0
 658 001e 94F88B01 		ldrb	r0, [r4, #395]	@ zero_extendqisi2
 659              	.LVL54:
 660              		.loc 1 733 4 view .LVU201
 661 0022 FFF7FEFF 		bl	VL53L1_calc_timeout_us
 662              	.LVL55:
 732:D:/Git/VL53L1/lib/core/src\vl53l1_api_core.c **** 			VL53L1_calc_timeout_us(
 663              		.loc 1 732 32 view .LVU202
 664 0026 3860     		str	r0, [r7]
 734:D:/Git/VL53L1/lib/core/src\vl53l1_api_core.c **** 				(uint32_t)pdev->gen_cfg.phasecal_config__timeout_macrop,
 735:D:/Git/VL53L1/lib/core/src\vl53l1_api_core.c **** 				macro_period_us);
 736:D:/Git/VL53L1/lib/core/src\vl53l1_api_core.c **** 
 737:D:/Git/VL53L1/lib/core/src\vl53l1_api_core.c **** 		/*  Get MM Timing A timeout */
 738:D:/Git/VL53L1/lib/core/src\vl53l1_api_core.c **** 
 739:D:/Git/VL53L1/lib/core/src\vl53l1_api_core.c **** 		timeout_encoded =
 665              		.loc 1 739 3 is_stmt 1 view .LVU203
 666              		.loc 1 739 19 is_stmt 0 view .LVU204
 667 0028 94F89C31 		ldrb	r3, [r4, #412]	@ zero_extendqisi2
 668              	.LVL56:
 740:D:/Git/VL53L1/lib/core/src\vl53l1_api_core.c **** 			(uint16_t)pdev->tim_cfg.mm_config__timeout_macrop_a_hi;
 741:D:/Git/VL53L1/lib/core/src\vl53l1_api_core.c **** 		timeout_encoded = (timeout_encoded << 8) +
 669              		.loc 1 741 3 is_stmt 1 view .LVU205
 742:D:/Git/VL53L1/lib/core/src\vl53l1_api_core.c **** 			(uint16_t)pdev->tim_cfg.mm_config__timeout_macrop_a_lo;
 670              		.loc 1 742 27 is_stmt 0 view .LVU206
 671 002c 94F89D01 		ldrb	r0, [r4, #413]	@ zero_extendqisi2
 741:D:/Git/VL53L1/lib/core/src\vl53l1_api_core.c **** 			(uint16_t)pdev->tim_cfg.mm_config__timeout_macrop_a_lo;
 672              		.loc 1 741 19 view .LVU207
 673 0030 00EB0320 		add	r0, r0, r3, lsl #8
 674              	.LVL57:
 743:D:/Git/VL53L1/lib/core/src\vl53l1_api_core.c **** 
 744:D:/Git/VL53L1/lib/core/src\vl53l1_api_core.c **** 		*pmm_config_timeout_us =
 675              		.loc 1 744 3 is_stmt 1 view .LVU208
 745:D:/Git/VL53L1/lib/core/src\vl53l1_api_core.c **** 			VL53L1_calc_decoded_timeout_us(
 676              		.loc 1 745 4 is_stmt 0 view .LVU209
 677 0034 4146     		mov	r1, r8
 678 0036 80B2     		uxth	r0, r0
 679              		.loc 1 745 4 view .LVU210
 680 0038 FFF7FEFF 		bl	VL53L1_calc_decoded_timeout_us
 681              	.LVL58:
 744:D:/Git/VL53L1/lib/core/src\vl53l1_api_core.c **** 			VL53L1_calc_decoded_timeout_us(
 682              		.loc 1 744 26 view .LVU211
 683 003c 3060     		str	r0, [r6]
 746:D:/Git/VL53L1/lib/core/src\vl53l1_api_core.c **** 				timeout_encoded,
 747:D:/Git/VL53L1/lib/core/src\vl53l1_api_core.c **** 				macro_period_us);
 748:D:/Git/VL53L1/lib/core/src\vl53l1_api_core.c **** 
 749:D:/Git/VL53L1/lib/core/src\vl53l1_api_core.c **** 		/* Get Range Timing A timeout */
 750:D:/Git/VL53L1/lib/core/src\vl53l1_api_core.c **** 
 751:D:/Git/VL53L1/lib/core/src\vl53l1_api_core.c **** 		timeout_encoded =
 684              		.loc 1 751 3 is_stmt 1 view .LVU212
 685              		.loc 1 751 19 is_stmt 0 view .LVU213
 686 003e 94F8A031 		ldrb	r3, [r4, #416]	@ zero_extendqisi2
 687              	.LVL59:
 752:D:/Git/VL53L1/lib/core/src\vl53l1_api_core.c **** 			(uint16_t)pdev->tim_cfg.range_config__timeout_macrop_a_hi;
ARM GAS  C:\Users\Berbardo\AppData\Local\Temp\ccBMvrJ9.s 			page 27


 753:D:/Git/VL53L1/lib/core/src\vl53l1_api_core.c **** 		timeout_encoded = (timeout_encoded << 8) +
 688              		.loc 1 753 3 is_stmt 1 view .LVU214
 754:D:/Git/VL53L1/lib/core/src\vl53l1_api_core.c **** 			(uint16_t)pdev->tim_cfg.range_config__timeout_macrop_a_lo;
 689              		.loc 1 754 27 is_stmt 0 view .LVU215
 690 0042 94F8A101 		ldrb	r0, [r4, #417]	@ zero_extendqisi2
 753:D:/Git/VL53L1/lib/core/src\vl53l1_api_core.c **** 			(uint16_t)pdev->tim_cfg.range_config__timeout_macrop_a_lo;
 691              		.loc 1 753 19 view .LVU216
 692 0046 00EB0320 		add	r0, r0, r3, lsl #8
 693              	.LVL60:
 755:D:/Git/VL53L1/lib/core/src\vl53l1_api_core.c **** 
 756:D:/Git/VL53L1/lib/core/src\vl53l1_api_core.c **** 		*prange_config_timeout_us =
 694              		.loc 1 756 3 is_stmt 1 view .LVU217
 757:D:/Git/VL53L1/lib/core/src\vl53l1_api_core.c **** 			VL53L1_calc_decoded_timeout_us(
 695              		.loc 1 757 4 is_stmt 0 view .LVU218
 696 004a 4146     		mov	r1, r8
 697 004c 80B2     		uxth	r0, r0
 698              		.loc 1 757 4 view .LVU219
 699 004e FFF7FEFF 		bl	VL53L1_calc_decoded_timeout_us
 700              	.LVL61:
 756:D:/Git/VL53L1/lib/core/src\vl53l1_api_core.c **** 			VL53L1_calc_decoded_timeout_us(
 701              		.loc 1 756 29 view .LVU220
 702 0052 2860     		str	r0, [r5]
 758:D:/Git/VL53L1/lib/core/src\vl53l1_api_core.c **** 				timeout_encoded,
 759:D:/Git/VL53L1/lib/core/src\vl53l1_api_core.c **** 				macro_period_us);
 760:D:/Git/VL53L1/lib/core/src\vl53l1_api_core.c **** 
 761:D:/Git/VL53L1/lib/core/src\vl53l1_api_core.c **** 		pdev->phasecal_config_timeout_us = *pphasecal_config_timeout_us;
 703              		.loc 1 761 3 is_stmt 1 view .LVU221
 704              		.loc 1 761 38 is_stmt 0 view .LVU222
 705 0054 3B68     		ldr	r3, [r7]
 706              		.loc 1 761 36 view .LVU223
 707 0056 A360     		str	r3, [r4, #8]
 762:D:/Git/VL53L1/lib/core/src\vl53l1_api_core.c **** 		pdev->mm_config_timeout_us       = *pmm_config_timeout_us;
 708              		.loc 1 762 3 is_stmt 1 view .LVU224
 709              		.loc 1 762 38 is_stmt 0 view .LVU225
 710 0058 3368     		ldr	r3, [r6]
 711              		.loc 1 762 36 view .LVU226
 712 005a E360     		str	r3, [r4, #12]
 763:D:/Git/VL53L1/lib/core/src\vl53l1_api_core.c **** 		pdev->range_config_timeout_us    = *prange_config_timeout_us;
 713              		.loc 1 763 3 is_stmt 1 view .LVU227
 714              		.loc 1 763 38 is_stmt 0 view .LVU228
 715 005c 2B68     		ldr	r3, [r5]
 716              		.loc 1 763 36 view .LVU229
 717 005e 2361     		str	r3, [r4, #16]
 710:D:/Git/VL53L1/lib/core/src\vl53l1_api_core.c **** 	VL53L1_LLDriverData_t *pdev =
 718              		.loc 1 710 16 view .LVU230
 719 0060 0020     		movs	r0, #0
 720              	.LVL62:
 721              	.L37:
 764:D:/Git/VL53L1/lib/core/src\vl53l1_api_core.c **** 
 765:D:/Git/VL53L1/lib/core/src\vl53l1_api_core.c **** 	}
 766:D:/Git/VL53L1/lib/core/src\vl53l1_api_core.c **** 
 767:D:/Git/VL53L1/lib/core/src\vl53l1_api_core.c **** 	LOG_FUNCTION_END(status);
 722              		.loc 1 767 26 is_stmt 1 view .LVU231
 768:D:/Git/VL53L1/lib/core/src\vl53l1_api_core.c **** 
 769:D:/Git/VL53L1/lib/core/src\vl53l1_api_core.c **** 	return status;
 723              		.loc 1 769 2 view .LVU232
 770:D:/Git/VL53L1/lib/core/src\vl53l1_api_core.c **** }
ARM GAS  C:\Users\Berbardo\AppData\Local\Temp\ccBMvrJ9.s 			page 28


 724              		.loc 1 770 1 is_stmt 0 view .LVU233
 725 0062 BDE8F081 		pop	{r4, r5, r6, r7, r8, pc}
 726              	.LVL63:
 727              	.L38:
 720:D:/Git/VL53L1/lib/core/src\vl53l1_api_core.c **** 
 728              		.loc 1 720 10 view .LVU234
 729 0066 6FF00E00 		mvn	r0, #14
 730 006a FAE7     		b	.L37
 731              		.cfi_endproc
 732              	.LFE134:
 734              		.section	.text.VL53L1_set_calibration_repeat_period,"ax",%progbits
 735              		.align	1
 736              		.global	VL53L1_set_calibration_repeat_period
 737              		.syntax unified
 738              		.thumb
 739              		.thumb_func
 740              		.fpu fpv4-sp-d16
 742              	VL53L1_set_calibration_repeat_period:
 743              	.LVL64:
 744              	.LFB135:
 771:D:/Git/VL53L1/lib/core/src\vl53l1_api_core.c **** 
 772:D:/Git/VL53L1/lib/core/src\vl53l1_api_core.c **** 
 773:D:/Git/VL53L1/lib/core/src\vl53l1_api_core.c **** VL53L1_Error VL53L1_set_calibration_repeat_period(
 774:D:/Git/VL53L1/lib/core/src\vl53l1_api_core.c **** 	VL53L1_DEV          Dev,
 775:D:/Git/VL53L1/lib/core/src\vl53l1_api_core.c **** 	uint16_t            cal_config__repeat_period)
 776:D:/Git/VL53L1/lib/core/src\vl53l1_api_core.c **** {
 745              		.loc 1 776 1 is_stmt 1 view -0
 746              		.cfi_startproc
 747              		@ args = 0, pretend = 0, frame = 0
 748              		@ frame_needed = 0, uses_anonymous_args = 0
 749              		@ link register save eliminated.
 777:D:/Git/VL53L1/lib/core/src\vl53l1_api_core.c **** 	/**
 778:D:/Git/VL53L1/lib/core/src\vl53l1_api_core.c **** 	 * Convenience function for setting calibration repeat period
 779:D:/Git/VL53L1/lib/core/src\vl53l1_api_core.c **** 	 */
 780:D:/Git/VL53L1/lib/core/src\vl53l1_api_core.c **** 
 781:D:/Git/VL53L1/lib/core/src\vl53l1_api_core.c **** 	VL53L1_Error  status = VL53L1_ERROR_NONE;
 750              		.loc 1 781 2 view .LVU236
 782:D:/Git/VL53L1/lib/core/src\vl53l1_api_core.c **** 	VL53L1_LLDriverData_t *pdev =
 751              		.loc 1 782 2 view .LVU237
 783:D:/Git/VL53L1/lib/core/src\vl53l1_api_core.c **** 		VL53L1DevStructGetLLDriverHandle(Dev);
 784:D:/Git/VL53L1/lib/core/src\vl53l1_api_core.c **** 
 785:D:/Git/VL53L1/lib/core/src\vl53l1_api_core.c **** 	pdev->gen_cfg.cal_config__repeat_rate = cal_config__repeat_period;
 752              		.loc 1 785 2 view .LVU238
 753              		.loc 1 785 40 is_stmt 0 view .LVU239
 754 0000 A0F88811 		strh	r1, [r0, #392]	@ movhi
 786:D:/Git/VL53L1/lib/core/src\vl53l1_api_core.c **** 
 787:D:/Git/VL53L1/lib/core/src\vl53l1_api_core.c **** 	return status;
 755              		.loc 1 787 2 is_stmt 1 view .LVU240
 788:D:/Git/VL53L1/lib/core/src\vl53l1_api_core.c **** 
 789:D:/Git/VL53L1/lib/core/src\vl53l1_api_core.c **** }
 756              		.loc 1 789 1 is_stmt 0 view .LVU241
 757 0004 0020     		movs	r0, #0
 758              	.LVL65:
 759              		.loc 1 789 1 view .LVU242
 760 0006 7047     		bx	lr
 761              		.cfi_endproc
 762              	.LFE135:
ARM GAS  C:\Users\Berbardo\AppData\Local\Temp\ccBMvrJ9.s 			page 29


 764              		.section	.text.VL53L1_get_calibration_repeat_period,"ax",%progbits
 765              		.align	1
 766              		.global	VL53L1_get_calibration_repeat_period
 767              		.syntax unified
 768              		.thumb
 769              		.thumb_func
 770              		.fpu fpv4-sp-d16
 772              	VL53L1_get_calibration_repeat_period:
 773              	.LVL66:
 774              	.LFB136:
 790:D:/Git/VL53L1/lib/core/src\vl53l1_api_core.c **** 
 791:D:/Git/VL53L1/lib/core/src\vl53l1_api_core.c **** 
 792:D:/Git/VL53L1/lib/core/src\vl53l1_api_core.c **** VL53L1_Error VL53L1_get_calibration_repeat_period(
 793:D:/Git/VL53L1/lib/core/src\vl53l1_api_core.c **** 	VL53L1_DEV          Dev,
 794:D:/Git/VL53L1/lib/core/src\vl53l1_api_core.c **** 	uint16_t           *pcal_config__repeat_period)
 795:D:/Git/VL53L1/lib/core/src\vl53l1_api_core.c **** {
 775              		.loc 1 795 1 is_stmt 1 view -0
 776              		.cfi_startproc
 777              		@ args = 0, pretend = 0, frame = 0
 778              		@ frame_needed = 0, uses_anonymous_args = 0
 779              		@ link register save eliminated.
 796:D:/Git/VL53L1/lib/core/src\vl53l1_api_core.c **** 	/**
 797:D:/Git/VL53L1/lib/core/src\vl53l1_api_core.c **** 	 * Convenience function for getting calibration repeat period
 798:D:/Git/VL53L1/lib/core/src\vl53l1_api_core.c **** 	 */
 799:D:/Git/VL53L1/lib/core/src\vl53l1_api_core.c **** 
 800:D:/Git/VL53L1/lib/core/src\vl53l1_api_core.c **** 	VL53L1_Error  status = VL53L1_ERROR_NONE;
 780              		.loc 1 800 2 view .LVU244
 801:D:/Git/VL53L1/lib/core/src\vl53l1_api_core.c **** 	VL53L1_LLDriverData_t *pdev =
 781              		.loc 1 801 2 view .LVU245
 802:D:/Git/VL53L1/lib/core/src\vl53l1_api_core.c **** 		VL53L1DevStructGetLLDriverHandle(Dev);
 803:D:/Git/VL53L1/lib/core/src\vl53l1_api_core.c **** 
 804:D:/Git/VL53L1/lib/core/src\vl53l1_api_core.c **** 	*pcal_config__repeat_period = pdev->gen_cfg.cal_config__repeat_rate;
 782              		.loc 1 804 2 view .LVU246
 783              		.loc 1 804 45 is_stmt 0 view .LVU247
 784 0000 B0F88831 		ldrh	r3, [r0, #392]
 785              		.loc 1 804 30 view .LVU248
 786 0004 0B80     		strh	r3, [r1]	@ movhi
 805:D:/Git/VL53L1/lib/core/src\vl53l1_api_core.c **** 
 806:D:/Git/VL53L1/lib/core/src\vl53l1_api_core.c **** 	return status;
 787              		.loc 1 806 2 is_stmt 1 view .LVU249
 807:D:/Git/VL53L1/lib/core/src\vl53l1_api_core.c **** 
 808:D:/Git/VL53L1/lib/core/src\vl53l1_api_core.c **** }
 788              		.loc 1 808 1 is_stmt 0 view .LVU250
 789 0006 0020     		movs	r0, #0
 790              	.LVL67:
 791              		.loc 1 808 1 view .LVU251
 792 0008 7047     		bx	lr
 793              		.cfi_endproc
 794              	.LFE136:
 796              		.section	.text.VL53L1_set_sequence_config_bit,"ax",%progbits
 797              		.align	1
 798              		.global	VL53L1_set_sequence_config_bit
 799              		.syntax unified
 800              		.thumb
 801              		.thumb_func
 802              		.fpu fpv4-sp-d16
 804              	VL53L1_set_sequence_config_bit:
ARM GAS  C:\Users\Berbardo\AppData\Local\Temp\ccBMvrJ9.s 			page 30


 805              	.LVL68:
 806              	.LFB137:
 809:D:/Git/VL53L1/lib/core/src\vl53l1_api_core.c **** 
 810:D:/Git/VL53L1/lib/core/src\vl53l1_api_core.c **** 
 811:D:/Git/VL53L1/lib/core/src\vl53l1_api_core.c **** VL53L1_Error VL53L1_set_sequence_config_bit(
 812:D:/Git/VL53L1/lib/core/src\vl53l1_api_core.c **** 	VL53L1_DEV                    Dev,
 813:D:/Git/VL53L1/lib/core/src\vl53l1_api_core.c **** 	VL53L1_DeviceSequenceConfig   bit_id,
 814:D:/Git/VL53L1/lib/core/src\vl53l1_api_core.c **** 	uint8_t                       value)
 815:D:/Git/VL53L1/lib/core/src\vl53l1_api_core.c **** {
 807              		.loc 1 815 1 is_stmt 1 view -0
 808              		.cfi_startproc
 809              		@ args = 0, pretend = 0, frame = 0
 810              		@ frame_needed = 0, uses_anonymous_args = 0
 811              		@ link register save eliminated.
 816:D:/Git/VL53L1/lib/core/src\vl53l1_api_core.c **** 	/**
 817:D:/Git/VL53L1/lib/core/src\vl53l1_api_core.c **** 	 * Convenience function for setting sequence
 818:D:/Git/VL53L1/lib/core/src\vl53l1_api_core.c **** 	 * config enable bits
 819:D:/Git/VL53L1/lib/core/src\vl53l1_api_core.c **** 	 */
 820:D:/Git/VL53L1/lib/core/src\vl53l1_api_core.c **** 
 821:D:/Git/VL53L1/lib/core/src\vl53l1_api_core.c **** 	VL53L1_Error  status = VL53L1_ERROR_NONE;
 812              		.loc 1 821 2 view .LVU253
 822:D:/Git/VL53L1/lib/core/src\vl53l1_api_core.c **** 	VL53L1_LLDriverData_t *pdev =
 813              		.loc 1 822 2 view .LVU254
 823:D:/Git/VL53L1/lib/core/src\vl53l1_api_core.c **** 		VL53L1DevStructGetLLDriverHandle(Dev);
 824:D:/Git/VL53L1/lib/core/src\vl53l1_api_core.c **** 
 825:D:/Git/VL53L1/lib/core/src\vl53l1_api_core.c **** 	uint8_t  bit_mask        = 0x01;
 814              		.loc 1 825 2 view .LVU255
 826:D:/Git/VL53L1/lib/core/src\vl53l1_api_core.c **** 	uint8_t  clr_mask        = 0xFF  - bit_mask;
 815              		.loc 1 826 2 view .LVU256
 827:D:/Git/VL53L1/lib/core/src\vl53l1_api_core.c **** 	uint8_t  bit_value       = value & bit_mask;
 816              		.loc 1 827 2 view .LVU257
 817              		.loc 1 827 11 is_stmt 0 view .LVU258
 818 0000 02F00102 		and	r2, r2, #1
 819              	.LVL69:
 828:D:/Git/VL53L1/lib/core/src\vl53l1_api_core.c **** 
 829:D:/Git/VL53L1/lib/core/src\vl53l1_api_core.c **** 	if (bit_id <= VL53L1_DEVICESEQUENCECONFIG_RANGE) {
 820              		.loc 1 829 2 is_stmt 1 view .LVU259
 821              		.loc 1 829 5 is_stmt 0 view .LVU260
 822 0004 0729     		cmp	r1, #7
 823 0006 11D8     		bhi	.L45
 830:D:/Git/VL53L1/lib/core/src\vl53l1_api_core.c **** 
 831:D:/Git/VL53L1/lib/core/src\vl53l1_api_core.c **** 		if (bit_id > 0) {
 824              		.loc 1 831 3 is_stmt 1 view .LVU261
 825              		.loc 1 831 6 is_stmt 0 view .LVU262
 826 0008 71B1     		cbz	r1, .L46
 832:D:/Git/VL53L1/lib/core/src\vl53l1_api_core.c **** 			bit_mask  = 0x01 << bit_id;
 827              		.loc 1 832 4 is_stmt 1 view .LVU263
 828              		.loc 1 832 21 is_stmt 0 view .LVU264
 829 000a 0123     		movs	r3, #1
 830 000c 8B40     		lsls	r3, r3, r1
 831              		.loc 1 832 14 view .LVU265
 832 000e DBB2     		uxtb	r3, r3
 833              	.LVL70:
 833:D:/Git/VL53L1/lib/core/src\vl53l1_api_core.c **** 			bit_value = bit_value << bit_id;
 834              		.loc 1 833 4 is_stmt 1 view .LVU266
 835              		.loc 1 833 26 is_stmt 0 view .LVU267
 836 0010 8A40     		lsls	r2, r2, r1
ARM GAS  C:\Users\Berbardo\AppData\Local\Temp\ccBMvrJ9.s 			page 31


 837              	.LVL71:
 838              		.loc 1 833 14 view .LVU268
 839 0012 D2B2     		uxtb	r2, r2
 840              	.LVL72:
 834:D:/Git/VL53L1/lib/core/src\vl53l1_api_core.c **** 			clr_mask  = 0xFF  - bit_mask;
 841              		.loc 1 834 4 is_stmt 1 view .LVU269
 842              		.loc 1 834 14 is_stmt 0 view .LVU270
 843 0014 DB43     		mvns	r3, r3
 844              	.LVL73:
 845              		.loc 1 834 14 view .LVU271
 846 0016 DBB2     		uxtb	r3, r3
 847              	.LVL74:
 848              	.L44:
 835:D:/Git/VL53L1/lib/core/src\vl53l1_api_core.c **** 		}
 836:D:/Git/VL53L1/lib/core/src\vl53l1_api_core.c **** 
 837:D:/Git/VL53L1/lib/core/src\vl53l1_api_core.c **** 		pdev->dyn_cfg.system__sequence_config = \
 849              		.loc 1 837 3 is_stmt 1 view .LVU272
 838:D:/Git/VL53L1/lib/core/src\vl53l1_api_core.c **** 			(pdev->dyn_cfg.system__sequence_config & clr_mask) | \
 850              		.loc 1 838 18 is_stmt 0 view .LVU273
 851 0018 90F8C511 		ldrb	r1, [r0, #453]	@ zero_extendqisi2
 852              	.LVL75:
 837:D:/Git/VL53L1/lib/core/src\vl53l1_api_core.c **** 			(pdev->dyn_cfg.system__sequence_config & clr_mask) | \
 853              		.loc 1 837 41 view .LVU274
 854 001c 0B40     		ands	r3, r3, r1
 855              	.LVL76:
 837:D:/Git/VL53L1/lib/core/src\vl53l1_api_core.c **** 			(pdev->dyn_cfg.system__sequence_config & clr_mask) | \
 856              		.loc 1 837 41 view .LVU275
 857 001e 1A43     		orrs	r2, r2, r3
 858              	.LVL77:
 837:D:/Git/VL53L1/lib/core/src\vl53l1_api_core.c **** 			(pdev->dyn_cfg.system__sequence_config & clr_mask) | \
 859              		.loc 1 837 41 view .LVU276
 860 0020 80F8C521 		strb	r2, [r0, #453]
 821:D:/Git/VL53L1/lib/core/src\vl53l1_api_core.c **** 	VL53L1_LLDriverData_t *pdev =
 861              		.loc 1 821 16 view .LVU277
 862 0024 0020     		movs	r0, #0
 863              	.LVL78:
 821:D:/Git/VL53L1/lib/core/src\vl53l1_api_core.c **** 	VL53L1_LLDriverData_t *pdev =
 864              		.loc 1 821 16 view .LVU278
 865 0026 7047     		bx	lr
 866              	.LVL79:
 867              	.L46:
 826:D:/Git/VL53L1/lib/core/src\vl53l1_api_core.c **** 	uint8_t  bit_value       = value & bit_mask;
 868              		.loc 1 826 11 view .LVU279
 869 0028 FE23     		movs	r3, #254
 870 002a F5E7     		b	.L44
 871              	.L45:
 839:D:/Git/VL53L1/lib/core/src\vl53l1_api_core.c **** 			bit_value;
 840:D:/Git/VL53L1/lib/core/src\vl53l1_api_core.c **** 
 841:D:/Git/VL53L1/lib/core/src\vl53l1_api_core.c **** 	} else {
 842:D:/Git/VL53L1/lib/core/src\vl53l1_api_core.c **** 		status = VL53L1_ERROR_INVALID_PARAMS;
 872              		.loc 1 842 10 view .LVU280
 873 002c 6FF00300 		mvn	r0, #3
 874              	.LVL80:
 843:D:/Git/VL53L1/lib/core/src\vl53l1_api_core.c **** 	}
 844:D:/Git/VL53L1/lib/core/src\vl53l1_api_core.c **** 
 845:D:/Git/VL53L1/lib/core/src\vl53l1_api_core.c **** 	return status;
 875              		.loc 1 845 2 is_stmt 1 view .LVU281
ARM GAS  C:\Users\Berbardo\AppData\Local\Temp\ccBMvrJ9.s 			page 32


 846:D:/Git/VL53L1/lib/core/src\vl53l1_api_core.c **** 
 847:D:/Git/VL53L1/lib/core/src\vl53l1_api_core.c **** }
 876              		.loc 1 847 1 is_stmt 0 view .LVU282
 877 0030 7047     		bx	lr
 878              		.cfi_endproc
 879              	.LFE137:
 881              		.section	.text.VL53L1_get_sequence_config_bit,"ax",%progbits
 882              		.align	1
 883              		.global	VL53L1_get_sequence_config_bit
 884              		.syntax unified
 885              		.thumb
 886              		.thumb_func
 887              		.fpu fpv4-sp-d16
 889              	VL53L1_get_sequence_config_bit:
 890              	.LVL81:
 891              	.LFB138:
 848:D:/Git/VL53L1/lib/core/src\vl53l1_api_core.c **** 
 849:D:/Git/VL53L1/lib/core/src\vl53l1_api_core.c **** 
 850:D:/Git/VL53L1/lib/core/src\vl53l1_api_core.c **** VL53L1_Error VL53L1_get_sequence_config_bit(
 851:D:/Git/VL53L1/lib/core/src\vl53l1_api_core.c **** 	VL53L1_DEV                    Dev,
 852:D:/Git/VL53L1/lib/core/src\vl53l1_api_core.c **** 	VL53L1_DeviceSequenceConfig   bit_id,
 853:D:/Git/VL53L1/lib/core/src\vl53l1_api_core.c **** 	uint8_t                      *pvalue)
 854:D:/Git/VL53L1/lib/core/src\vl53l1_api_core.c **** {
 892              		.loc 1 854 1 is_stmt 1 view -0
 893              		.cfi_startproc
 894              		@ args = 0, pretend = 0, frame = 0
 895              		@ frame_needed = 0, uses_anonymous_args = 0
 896              		@ link register save eliminated.
 855:D:/Git/VL53L1/lib/core/src\vl53l1_api_core.c **** 	/**
 856:D:/Git/VL53L1/lib/core/src\vl53l1_api_core.c **** 	 * Convenience function for getting sequence
 857:D:/Git/VL53L1/lib/core/src\vl53l1_api_core.c **** 	 * config enable bits
 858:D:/Git/VL53L1/lib/core/src\vl53l1_api_core.c **** 	 */
 859:D:/Git/VL53L1/lib/core/src\vl53l1_api_core.c **** 
 860:D:/Git/VL53L1/lib/core/src\vl53l1_api_core.c **** 	VL53L1_Error  status = VL53L1_ERROR_NONE;
 897              		.loc 1 860 2 view .LVU284
 861:D:/Git/VL53L1/lib/core/src\vl53l1_api_core.c **** 	VL53L1_LLDriverData_t *pdev =
 898              		.loc 1 861 2 view .LVU285
 862:D:/Git/VL53L1/lib/core/src\vl53l1_api_core.c **** 		VL53L1DevStructGetLLDriverHandle(Dev);
 863:D:/Git/VL53L1/lib/core/src\vl53l1_api_core.c **** 
 864:D:/Git/VL53L1/lib/core/src\vl53l1_api_core.c **** 	uint8_t  bit_mask        = 0x01;
 899              		.loc 1 864 2 view .LVU286
 865:D:/Git/VL53L1/lib/core/src\vl53l1_api_core.c **** 
 866:D:/Git/VL53L1/lib/core/src\vl53l1_api_core.c **** 	if (bit_id <= VL53L1_DEVICESEQUENCECONFIG_RANGE) {
 900              		.loc 1 866 2 view .LVU287
 901              		.loc 1 866 5 is_stmt 0 view .LVU288
 902 0000 0729     		cmp	r1, #7
 903 0002 11D8     		bhi	.L50
 854:D:/Git/VL53L1/lib/core/src\vl53l1_api_core.c **** 	/**
 904              		.loc 1 854 1 view .LVU289
 905 0004 10B4     		push	{r4}
 906              		.cfi_def_cfa_offset 4
 907              		.cfi_offset 4, -4
 867:D:/Git/VL53L1/lib/core/src\vl53l1_api_core.c **** 
 868:D:/Git/VL53L1/lib/core/src\vl53l1_api_core.c **** 		if (bit_id > 0) {
 908              		.loc 1 868 3 is_stmt 1 view .LVU290
 909              		.loc 1 868 6 is_stmt 0 view .LVU291
 910 0006 69B1     		cbz	r1, .L51
ARM GAS  C:\Users\Berbardo\AppData\Local\Temp\ccBMvrJ9.s 			page 33


 869:D:/Git/VL53L1/lib/core/src\vl53l1_api_core.c **** 			bit_mask  = 0x01 << bit_id;
 911              		.loc 1 869 4 is_stmt 1 view .LVU292
 912              		.loc 1 869 21 is_stmt 0 view .LVU293
 913 0008 0123     		movs	r3, #1
 914 000a 8B40     		lsls	r3, r3, r1
 915              		.loc 1 869 14 view .LVU294
 916 000c DCB2     		uxtb	r4, r3
 917              	.LVL82:
 918              	.L49:
 870:D:/Git/VL53L1/lib/core/src\vl53l1_api_core.c **** 		}
 871:D:/Git/VL53L1/lib/core/src\vl53l1_api_core.c **** 
 872:D:/Git/VL53L1/lib/core/src\vl53l1_api_core.c **** 		*pvalue =
 919              		.loc 1 872 3 is_stmt 1 view .LVU295
 873:D:/Git/VL53L1/lib/core/src\vl53l1_api_core.c **** 			pdev->dyn_cfg.system__sequence_config & bit_mask;
 920              		.loc 1 873 17 is_stmt 0 view .LVU296
 921 000e 90F8C531 		ldrb	r3, [r0, #453]	@ zero_extendqisi2
 872:D:/Git/VL53L1/lib/core/src\vl53l1_api_core.c **** 			pdev->dyn_cfg.system__sequence_config & bit_mask;
 922              		.loc 1 872 11 view .LVU297
 923 0012 2340     		ands	r3, r3, r4
 924 0014 1370     		strb	r3, [r2]
 874:D:/Git/VL53L1/lib/core/src\vl53l1_api_core.c **** 
 875:D:/Git/VL53L1/lib/core/src\vl53l1_api_core.c **** 		if (bit_id > 0) {
 925              		.loc 1 875 3 is_stmt 1 view .LVU298
 926              		.loc 1 875 6 is_stmt 0 view .LVU299
 927 0016 51B1     		cbz	r1, .L52
 876:D:/Git/VL53L1/lib/core/src\vl53l1_api_core.c **** 			*pvalue  = *pvalue >> bit_id;
 928              		.loc 1 876 4 is_stmt 1 view .LVU300
 929              		.loc 1 876 23 is_stmt 0 view .LVU301
 930 0018 0B41     		asrs	r3, r3, r1
 931              		.loc 1 876 13 view .LVU302
 932 001a 1370     		strb	r3, [r2]
 860:D:/Git/VL53L1/lib/core/src\vl53l1_api_core.c **** 	VL53L1_LLDriverData_t *pdev =
 933              		.loc 1 860 16 view .LVU303
 934 001c 0020     		movs	r0, #0
 935              	.LVL83:
 936              	.L48:
 877:D:/Git/VL53L1/lib/core/src\vl53l1_api_core.c **** 		}
 878:D:/Git/VL53L1/lib/core/src\vl53l1_api_core.c **** 
 879:D:/Git/VL53L1/lib/core/src\vl53l1_api_core.c **** 	} else {
 880:D:/Git/VL53L1/lib/core/src\vl53l1_api_core.c **** 		status = VL53L1_ERROR_INVALID_PARAMS;
 881:D:/Git/VL53L1/lib/core/src\vl53l1_api_core.c **** 	}
 882:D:/Git/VL53L1/lib/core/src\vl53l1_api_core.c **** 
 883:D:/Git/VL53L1/lib/core/src\vl53l1_api_core.c **** 	return status;
 937              		.loc 1 883 2 is_stmt 1 view .LVU304
 884:D:/Git/VL53L1/lib/core/src\vl53l1_api_core.c **** }
 938              		.loc 1 884 1 is_stmt 0 view .LVU305
 939 001e 5DF8044B 		ldr	r4, [sp], #4
 940              		.cfi_remember_state
 941              		.cfi_restore 4
 942              		.cfi_def_cfa_offset 0
 943              	.LVL84:
 944              		.loc 1 884 1 view .LVU306
 945 0022 7047     		bx	lr
 946              	.LVL85:
 947              	.L51:
 948              		.cfi_restore_state
 864:D:/Git/VL53L1/lib/core/src\vl53l1_api_core.c **** 
ARM GAS  C:\Users\Berbardo\AppData\Local\Temp\ccBMvrJ9.s 			page 34


 949              		.loc 1 864 11 view .LVU307
 950 0024 0124     		movs	r4, #1
 951 0026 F2E7     		b	.L49
 952              	.L50:
 953              		.cfi_def_cfa_offset 0
 954              		.cfi_restore 4
 880:D:/Git/VL53L1/lib/core/src\vl53l1_api_core.c **** 	}
 955              		.loc 1 880 10 view .LVU308
 956 0028 6FF00300 		mvn	r0, #3
 957              	.LVL86:
 883:D:/Git/VL53L1/lib/core/src\vl53l1_api_core.c **** }
 958              		.loc 1 883 2 is_stmt 1 view .LVU309
 959              		.loc 1 884 1 is_stmt 0 view .LVU310
 960 002c 7047     		bx	lr
 961              	.LVL87:
 962              	.L52:
 963              		.cfi_def_cfa_offset 4
 964              		.cfi_offset 4, -4
 860:D:/Git/VL53L1/lib/core/src\vl53l1_api_core.c **** 	VL53L1_LLDriverData_t *pdev =
 965              		.loc 1 860 16 view .LVU311
 966 002e 0020     		movs	r0, #0
 967              	.LVL88:
 860:D:/Git/VL53L1/lib/core/src\vl53l1_api_core.c **** 	VL53L1_LLDriverData_t *pdev =
 968              		.loc 1 860 16 view .LVU312
 969 0030 F5E7     		b	.L48
 970              		.cfi_endproc
 971              	.LFE138:
 973              		.section	.text.VL53L1_set_interrupt_polarity,"ax",%progbits
 974              		.align	1
 975              		.global	VL53L1_set_interrupt_polarity
 976              		.syntax unified
 977              		.thumb
 978              		.thumb_func
 979              		.fpu fpv4-sp-d16
 981              	VL53L1_set_interrupt_polarity:
 982              	.LVL89:
 983              	.LFB139:
 885:D:/Git/VL53L1/lib/core/src\vl53l1_api_core.c **** 
 886:D:/Git/VL53L1/lib/core/src\vl53l1_api_core.c **** 
 887:D:/Git/VL53L1/lib/core/src\vl53l1_api_core.c **** VL53L1_Error VL53L1_set_interrupt_polarity(
 888:D:/Git/VL53L1/lib/core/src\vl53l1_api_core.c **** 	VL53L1_DEV                      Dev,
 889:D:/Git/VL53L1/lib/core/src\vl53l1_api_core.c **** 	VL53L1_DeviceInterruptPolarity  interrupt_polarity)
 890:D:/Git/VL53L1/lib/core/src\vl53l1_api_core.c **** {
 984              		.loc 1 890 1 is_stmt 1 view -0
 985              		.cfi_startproc
 986              		@ args = 0, pretend = 0, frame = 0
 987              		@ frame_needed = 0, uses_anonymous_args = 0
 988              		@ link register save eliminated.
 891:D:/Git/VL53L1/lib/core/src\vl53l1_api_core.c **** 	/**
 892:D:/Git/VL53L1/lib/core/src\vl53l1_api_core.c **** 	 * Convenience function for setting interrupt polarity
 893:D:/Git/VL53L1/lib/core/src\vl53l1_api_core.c **** 	 */
 894:D:/Git/VL53L1/lib/core/src\vl53l1_api_core.c **** 
 895:D:/Git/VL53L1/lib/core/src\vl53l1_api_core.c **** 	VL53L1_Error  status = VL53L1_ERROR_NONE;
 989              		.loc 1 895 2 view .LVU314
 896:D:/Git/VL53L1/lib/core/src\vl53l1_api_core.c **** 	VL53L1_LLDriverData_t *pdev =
 990              		.loc 1 896 2 view .LVU315
 897:D:/Git/VL53L1/lib/core/src\vl53l1_api_core.c **** 		VL53L1DevStructGetLLDriverHandle(Dev);
ARM GAS  C:\Users\Berbardo\AppData\Local\Temp\ccBMvrJ9.s 			page 35


 898:D:/Git/VL53L1/lib/core/src\vl53l1_api_core.c **** 
 899:D:/Git/VL53L1/lib/core/src\vl53l1_api_core.c **** 	pdev->stat_cfg.gpio_hv_mux__ctrl = \
 991              		.loc 1 899 2 view .LVU316
 900:D:/Git/VL53L1/lib/core/src\vl53l1_api_core.c **** 			(pdev->stat_cfg.gpio_hv_mux__ctrl & \
 992              		.loc 1 900 19 is_stmt 0 view .LVU317
 993 0000 90F97031 		ldrsb	r3, [r0, #368]
 994              		.loc 1 900 38 view .LVU318
 995 0004 23F01003 		bic	r3, r3, #16
 901:D:/Git/VL53L1/lib/core/src\vl53l1_api_core.c **** 			 VL53L1_DEVICEINTERRUPTPOLARITY_CLEAR_MASK) | \
 902:D:/Git/VL53L1/lib/core/src\vl53l1_api_core.c **** 			(interrupt_polarity & \
 996              		.loc 1 902 24 view .LVU319
 997 0008 01F01001 		and	r1, r1, #16
 998              	.LVL90:
 901:D:/Git/VL53L1/lib/core/src\vl53l1_api_core.c **** 			 VL53L1_DEVICEINTERRUPTPOLARITY_CLEAR_MASK) | \
 999              		.loc 1 901 48 view .LVU320
 1000 000c 1943     		orrs	r1, r1, r3
 899:D:/Git/VL53L1/lib/core/src\vl53l1_api_core.c **** 			(pdev->stat_cfg.gpio_hv_mux__ctrl & \
 1001              		.loc 1 899 35 view .LVU321
 1002 000e 80F87011 		strb	r1, [r0, #368]
 903:D:/Git/VL53L1/lib/core/src\vl53l1_api_core.c **** 			 VL53L1_DEVICEINTERRUPTPOLARITY_BIT_MASK);
 904:D:/Git/VL53L1/lib/core/src\vl53l1_api_core.c **** 
 905:D:/Git/VL53L1/lib/core/src\vl53l1_api_core.c **** 	return status;
 1003              		.loc 1 905 2 is_stmt 1 view .LVU322
 906:D:/Git/VL53L1/lib/core/src\vl53l1_api_core.c **** 
 907:D:/Git/VL53L1/lib/core/src\vl53l1_api_core.c **** }
 1004              		.loc 1 907 1 is_stmt 0 view .LVU323
 1005 0012 0020     		movs	r0, #0
 1006              	.LVL91:
 1007              		.loc 1 907 1 view .LVU324
 1008 0014 7047     		bx	lr
 1009              		.cfi_endproc
 1010              	.LFE139:
 1012              		.section	.text.VL53L1_set_refspadchar_config_struct,"ax",%progbits
 1013              		.align	1
 1014              		.global	VL53L1_set_refspadchar_config_struct
 1015              		.syntax unified
 1016              		.thumb
 1017              		.thumb_func
 1018              		.fpu fpv4-sp-d16
 1020              	VL53L1_set_refspadchar_config_struct:
 1021              	.LVL92:
 1022              	.LFB140:
 908:D:/Git/VL53L1/lib/core/src\vl53l1_api_core.c **** 
 909:D:/Git/VL53L1/lib/core/src\vl53l1_api_core.c **** 
 910:D:/Git/VL53L1/lib/core/src\vl53l1_api_core.c **** #ifndef VL53L1_NOCALIB
 911:D:/Git/VL53L1/lib/core/src\vl53l1_api_core.c **** VL53L1_Error VL53L1_set_refspadchar_config_struct(
 912:D:/Git/VL53L1/lib/core/src\vl53l1_api_core.c **** 	VL53L1_DEV                     Dev,
 913:D:/Git/VL53L1/lib/core/src\vl53l1_api_core.c **** 	VL53L1_refspadchar_config_t   *pdata)
 914:D:/Git/VL53L1/lib/core/src\vl53l1_api_core.c **** {
 1023              		.loc 1 914 1 is_stmt 1 view -0
 1024              		.cfi_startproc
 1025              		@ args = 0, pretend = 0, frame = 0
 1026              		@ frame_needed = 0, uses_anonymous_args = 0
 1027              		@ link register save eliminated.
 915:D:/Git/VL53L1/lib/core/src\vl53l1_api_core.c **** 	/*
 916:D:/Git/VL53L1/lib/core/src\vl53l1_api_core.c **** 	 * Allows user config of Ref SPAD Char data structure
 917:D:/Git/VL53L1/lib/core/src\vl53l1_api_core.c **** 	 */
ARM GAS  C:\Users\Berbardo\AppData\Local\Temp\ccBMvrJ9.s 			page 36


 918:D:/Git/VL53L1/lib/core/src\vl53l1_api_core.c **** 
 919:D:/Git/VL53L1/lib/core/src\vl53l1_api_core.c **** 	VL53L1_Error  status = VL53L1_ERROR_NONE;
 1028              		.loc 1 919 2 view .LVU326
 920:D:/Git/VL53L1/lib/core/src\vl53l1_api_core.c **** 	VL53L1_LLDriverData_t *pdev =
 1029              		.loc 1 920 2 view .LVU327
 921:D:/Git/VL53L1/lib/core/src\vl53l1_api_core.c **** 		VL53L1DevStructGetLLDriverHandle(Dev);
 922:D:/Git/VL53L1/lib/core/src\vl53l1_api_core.c **** 
 923:D:/Git/VL53L1/lib/core/src\vl53l1_api_core.c **** 	LOG_FUNCTION_START("");
 1030              		.loc 1 923 24 view .LVU328
 924:D:/Git/VL53L1/lib/core/src\vl53l1_api_core.c **** 
 925:D:/Git/VL53L1/lib/core/src\vl53l1_api_core.c **** 	pdev->refspadchar.device_test_mode = pdata->device_test_mode;
 1031              		.loc 1 925 2 view .LVU329
 1032              		.loc 1 925 44 is_stmt 0 view .LVU330
 1033 0000 0B78     		ldrb	r3, [r1]	@ zero_extendqisi2
 1034              		.loc 1 925 37 view .LVU331
 1035 0002 80F81031 		strb	r3, [r0, #272]
 926:D:/Git/VL53L1/lib/core/src\vl53l1_api_core.c **** 	pdev->refspadchar.vcsel_period     = pdata->vcsel_period;
 1036              		.loc 1 926 2 is_stmt 1 view .LVU332
 1037              		.loc 1 926 44 is_stmt 0 view .LVU333
 1038 0006 4B78     		ldrb	r3, [r1, #1]	@ zero_extendqisi2
 1039              		.loc 1 926 37 view .LVU334
 1040 0008 80F81131 		strb	r3, [r0, #273]
 927:D:/Git/VL53L1/lib/core/src\vl53l1_api_core.c **** 	pdev->refspadchar.timeout_us       = pdata->timeout_us;
 1041              		.loc 1 927 2 is_stmt 1 view .LVU335
 1042              		.loc 1 927 44 is_stmt 0 view .LVU336
 1043 000c 4B68     		ldr	r3, [r1, #4]
 1044              		.loc 1 927 37 view .LVU337
 1045 000e C0F81431 		str	r3, [r0, #276]
 928:D:/Git/VL53L1/lib/core/src\vl53l1_api_core.c **** 	pdev->refspadchar.target_count_rate_mcps    =
 1046              		.loc 1 928 2 is_stmt 1 view .LVU338
 929:D:/Git/VL53L1/lib/core/src\vl53l1_api_core.c **** 			pdata->target_count_rate_mcps;
 1047              		.loc 1 929 9 is_stmt 0 view .LVU339
 1048 0012 0B89     		ldrh	r3, [r1, #8]
 928:D:/Git/VL53L1/lib/core/src\vl53l1_api_core.c **** 	pdev->refspadchar.target_count_rate_mcps    =
 1049              		.loc 1 928 46 view .LVU340
 1050 0014 A0F81831 		strh	r3, [r0, #280]	@ movhi
 930:D:/Git/VL53L1/lib/core/src\vl53l1_api_core.c **** 	pdev->refspadchar.min_count_rate_limit_mcps =
 1051              		.loc 1 930 2 is_stmt 1 view .LVU341
 931:D:/Git/VL53L1/lib/core/src\vl53l1_api_core.c **** 			pdata->min_count_rate_limit_mcps;
 1052              		.loc 1 931 9 is_stmt 0 view .LVU342
 1053 0018 4B89     		ldrh	r3, [r1, #10]
 930:D:/Git/VL53L1/lib/core/src\vl53l1_api_core.c **** 	pdev->refspadchar.min_count_rate_limit_mcps =
 1054              		.loc 1 930 46 view .LVU343
 1055 001a A0F81A31 		strh	r3, [r0, #282]	@ movhi
 932:D:/Git/VL53L1/lib/core/src\vl53l1_api_core.c **** 	pdev->refspadchar.max_count_rate_limit_mcps =
 1056              		.loc 1 932 2 is_stmt 1 view .LVU344
 933:D:/Git/VL53L1/lib/core/src\vl53l1_api_core.c **** 			pdata->max_count_rate_limit_mcps;
 1057              		.loc 1 933 9 is_stmt 0 view .LVU345
 1058 001e 8B89     		ldrh	r3, [r1, #12]
 932:D:/Git/VL53L1/lib/core/src\vl53l1_api_core.c **** 	pdev->refspadchar.max_count_rate_limit_mcps =
 1059              		.loc 1 932 46 view .LVU346
 1060 0020 A0F81C31 		strh	r3, [r0, #284]	@ movhi
 934:D:/Git/VL53L1/lib/core/src\vl53l1_api_core.c **** 
 935:D:/Git/VL53L1/lib/core/src\vl53l1_api_core.c **** 	LOG_FUNCTION_END(status);
 1061              		.loc 1 935 26 is_stmt 1 view .LVU347
 936:D:/Git/VL53L1/lib/core/src\vl53l1_api_core.c **** 
 937:D:/Git/VL53L1/lib/core/src\vl53l1_api_core.c **** 	return status;
ARM GAS  C:\Users\Berbardo\AppData\Local\Temp\ccBMvrJ9.s 			page 37


 1062              		.loc 1 937 2 view .LVU348
 938:D:/Git/VL53L1/lib/core/src\vl53l1_api_core.c **** }
 1063              		.loc 1 938 1 is_stmt 0 view .LVU349
 1064 0024 0020     		movs	r0, #0
 1065              	.LVL93:
 1066              		.loc 1 938 1 view .LVU350
 1067 0026 7047     		bx	lr
 1068              		.cfi_endproc
 1069              	.LFE140:
 1071              		.section	.text.VL53L1_get_refspadchar_config_struct,"ax",%progbits
 1072              		.align	1
 1073              		.global	VL53L1_get_refspadchar_config_struct
 1074              		.syntax unified
 1075              		.thumb
 1076              		.thumb_func
 1077              		.fpu fpv4-sp-d16
 1079              	VL53L1_get_refspadchar_config_struct:
 1080              	.LVL94:
 1081              	.LFB141:
 939:D:/Git/VL53L1/lib/core/src\vl53l1_api_core.c **** #endif
 940:D:/Git/VL53L1/lib/core/src\vl53l1_api_core.c **** 
 941:D:/Git/VL53L1/lib/core/src\vl53l1_api_core.c **** #ifndef VL53L1_NOCALIB
 942:D:/Git/VL53L1/lib/core/src\vl53l1_api_core.c **** VL53L1_Error VL53L1_get_refspadchar_config_struct(
 943:D:/Git/VL53L1/lib/core/src\vl53l1_api_core.c **** 	VL53L1_DEV                     Dev,
 944:D:/Git/VL53L1/lib/core/src\vl53l1_api_core.c **** 	VL53L1_refspadchar_config_t   *pdata)
 945:D:/Git/VL53L1/lib/core/src\vl53l1_api_core.c **** {
 1082              		.loc 1 945 1 is_stmt 1 view -0
 1083              		.cfi_startproc
 1084              		@ args = 0, pretend = 0, frame = 0
 1085              		@ frame_needed = 0, uses_anonymous_args = 0
 1086              		@ link register save eliminated.
 946:D:/Git/VL53L1/lib/core/src\vl53l1_api_core.c **** 	/*
 947:D:/Git/VL53L1/lib/core/src\vl53l1_api_core.c **** 	 * Allows user config of Ref SPAD Char data structure
 948:D:/Git/VL53L1/lib/core/src\vl53l1_api_core.c **** 	 */
 949:D:/Git/VL53L1/lib/core/src\vl53l1_api_core.c **** 
 950:D:/Git/VL53L1/lib/core/src\vl53l1_api_core.c **** 	VL53L1_Error  status = VL53L1_ERROR_NONE;
 1087              		.loc 1 950 2 view .LVU352
 951:D:/Git/VL53L1/lib/core/src\vl53l1_api_core.c **** 	VL53L1_LLDriverData_t *pdev =
 1088              		.loc 1 951 2 view .LVU353
 952:D:/Git/VL53L1/lib/core/src\vl53l1_api_core.c **** 		VL53L1DevStructGetLLDriverHandle(Dev);
 953:D:/Git/VL53L1/lib/core/src\vl53l1_api_core.c **** 
 954:D:/Git/VL53L1/lib/core/src\vl53l1_api_core.c **** 	LOG_FUNCTION_START("");
 1089              		.loc 1 954 24 view .LVU354
 955:D:/Git/VL53L1/lib/core/src\vl53l1_api_core.c **** 
 956:D:/Git/VL53L1/lib/core/src\vl53l1_api_core.c **** 	pdata->device_test_mode       = pdev->refspadchar.device_test_mode;
 1090              		.loc 1 956 2 view .LVU355
 1091              		.loc 1 956 51 is_stmt 0 view .LVU356
 1092 0000 90F81031 		ldrb	r3, [r0, #272]	@ zero_extendqisi2
 1093              		.loc 1 956 32 view .LVU357
 1094 0004 0B70     		strb	r3, [r1]
 957:D:/Git/VL53L1/lib/core/src\vl53l1_api_core.c **** 	pdata->vcsel_period           = pdev->refspadchar.vcsel_period;
 1095              		.loc 1 957 2 is_stmt 1 view .LVU358
 1096              		.loc 1 957 51 is_stmt 0 view .LVU359
 1097 0006 90F81131 		ldrb	r3, [r0, #273]	@ zero_extendqisi2
 1098              		.loc 1 957 32 view .LVU360
 1099 000a 4B70     		strb	r3, [r1, #1]
 958:D:/Git/VL53L1/lib/core/src\vl53l1_api_core.c **** 	pdata->timeout_us             = pdev->refspadchar.timeout_us;
ARM GAS  C:\Users\Berbardo\AppData\Local\Temp\ccBMvrJ9.s 			page 38


 1100              		.loc 1 958 2 is_stmt 1 view .LVU361
 1101              		.loc 1 958 51 is_stmt 0 view .LVU362
 1102 000c D0F81431 		ldr	r3, [r0, #276]
 1103              		.loc 1 958 32 view .LVU363
 1104 0010 4B60     		str	r3, [r1, #4]
 959:D:/Git/VL53L1/lib/core/src\vl53l1_api_core.c **** 	pdata->target_count_rate_mcps = pdev->refspadchar.target_count_rate_mcps;
 1105              		.loc 1 959 2 is_stmt 1 view .LVU364
 1106              		.loc 1 959 51 is_stmt 0 view .LVU365
 1107 0012 B0F81831 		ldrh	r3, [r0, #280]
 1108              		.loc 1 959 32 view .LVU366
 1109 0016 0B81     		strh	r3, [r1, #8]	@ movhi
 960:D:/Git/VL53L1/lib/core/src\vl53l1_api_core.c **** 	pdata->min_count_rate_limit_mcps =
 1110              		.loc 1 960 2 is_stmt 1 view .LVU367
 961:D:/Git/VL53L1/lib/core/src\vl53l1_api_core.c **** 			pdev->refspadchar.min_count_rate_limit_mcps;
 1111              		.loc 1 961 21 is_stmt 0 view .LVU368
 1112 0018 B0F81A31 		ldrh	r3, [r0, #282]
 960:D:/Git/VL53L1/lib/core/src\vl53l1_api_core.c **** 	pdata->min_count_rate_limit_mcps =
 1113              		.loc 1 960 35 view .LVU369
 1114 001c 4B81     		strh	r3, [r1, #10]	@ movhi
 962:D:/Git/VL53L1/lib/core/src\vl53l1_api_core.c **** 	pdata->max_count_rate_limit_mcps =
 1115              		.loc 1 962 2 is_stmt 1 view .LVU370
 963:D:/Git/VL53L1/lib/core/src\vl53l1_api_core.c **** 			pdev->refspadchar.max_count_rate_limit_mcps;
 1116              		.loc 1 963 21 is_stmt 0 view .LVU371
 1117 001e B0F81C31 		ldrh	r3, [r0, #284]
 962:D:/Git/VL53L1/lib/core/src\vl53l1_api_core.c **** 	pdata->max_count_rate_limit_mcps =
 1118              		.loc 1 962 35 view .LVU372
 1119 0022 8B81     		strh	r3, [r1, #12]	@ movhi
 964:D:/Git/VL53L1/lib/core/src\vl53l1_api_core.c **** 
 965:D:/Git/VL53L1/lib/core/src\vl53l1_api_core.c **** 	LOG_FUNCTION_END(status);
 1120              		.loc 1 965 26 is_stmt 1 view .LVU373
 966:D:/Git/VL53L1/lib/core/src\vl53l1_api_core.c **** 
 967:D:/Git/VL53L1/lib/core/src\vl53l1_api_core.c **** 	return status;
 1121              		.loc 1 967 2 view .LVU374
 968:D:/Git/VL53L1/lib/core/src\vl53l1_api_core.c **** }
 1122              		.loc 1 968 1 is_stmt 0 view .LVU375
 1123 0024 0020     		movs	r0, #0
 1124              	.LVL95:
 1125              		.loc 1 968 1 view .LVU376
 1126 0026 7047     		bx	lr
 1127              		.cfi_endproc
 1128              	.LFE141:
 1130              		.section	.text.VL53L1_set_range_ignore_threshold,"ax",%progbits
 1131              		.align	1
 1132              		.global	VL53L1_set_range_ignore_threshold
 1133              		.syntax unified
 1134              		.thumb
 1135              		.thumb_func
 1136              		.fpu fpv4-sp-d16
 1138              	VL53L1_set_range_ignore_threshold:
 1139              	.LVL96:
 1140              	.LFB142:
 969:D:/Git/VL53L1/lib/core/src\vl53l1_api_core.c **** #endif
 970:D:/Git/VL53L1/lib/core/src\vl53l1_api_core.c **** 
 971:D:/Git/VL53L1/lib/core/src\vl53l1_api_core.c **** 
 972:D:/Git/VL53L1/lib/core/src\vl53l1_api_core.c **** VL53L1_Error VL53L1_set_range_ignore_threshold(
 973:D:/Git/VL53L1/lib/core/src\vl53l1_api_core.c **** 	VL53L1_DEV              Dev,
 974:D:/Git/VL53L1/lib/core/src\vl53l1_api_core.c **** 	uint8_t                 range_ignore_thresh_mult,
ARM GAS  C:\Users\Berbardo\AppData\Local\Temp\ccBMvrJ9.s 			page 39


 975:D:/Git/VL53L1/lib/core/src\vl53l1_api_core.c **** 	uint16_t                range_ignore_threshold_mcps)
 976:D:/Git/VL53L1/lib/core/src\vl53l1_api_core.c **** {
 1141              		.loc 1 976 1 is_stmt 1 view -0
 1142              		.cfi_startproc
 1143              		@ args = 0, pretend = 0, frame = 0
 1144              		@ frame_needed = 0, uses_anonymous_args = 0
 1145              		@ link register save eliminated.
 977:D:/Git/VL53L1/lib/core/src\vl53l1_api_core.c **** 	/**
 978:D:/Git/VL53L1/lib/core/src\vl53l1_api_core.c **** 	 * Convenience function for setting Range Ignore Threshold
 979:D:/Git/VL53L1/lib/core/src\vl53l1_api_core.c **** 	 */
 980:D:/Git/VL53L1/lib/core/src\vl53l1_api_core.c **** 
 981:D:/Git/VL53L1/lib/core/src\vl53l1_api_core.c **** 	VL53L1_Error  status = VL53L1_ERROR_NONE;
 1146              		.loc 1 981 2 view .LVU378
 982:D:/Git/VL53L1/lib/core/src\vl53l1_api_core.c **** 	VL53L1_LLDriverData_t *pdev =
 1147              		.loc 1 982 2 view .LVU379
 983:D:/Git/VL53L1/lib/core/src\vl53l1_api_core.c **** 		VL53L1DevStructGetLLDriverHandle(Dev);
 984:D:/Git/VL53L1/lib/core/src\vl53l1_api_core.c **** 
 985:D:/Git/VL53L1/lib/core/src\vl53l1_api_core.c **** 	pdev->xtalk_cfg.crosstalk_range_ignore_threshold_rate_mcps =
 1148              		.loc 1 985 2 view .LVU380
 1149              		.loc 1 985 61 is_stmt 0 view .LVU381
 1150 0000 A0F84221 		strh	r2, [r0, #322]	@ movhi
 986:D:/Git/VL53L1/lib/core/src\vl53l1_api_core.c **** 		range_ignore_threshold_mcps;
 987:D:/Git/VL53L1/lib/core/src\vl53l1_api_core.c **** 
 988:D:/Git/VL53L1/lib/core/src\vl53l1_api_core.c **** 	pdev->xtalk_cfg.crosstalk_range_ignore_threshold_mult =
 1151              		.loc 1 988 2 is_stmt 1 view .LVU382
 1152              		.loc 1 988 56 is_stmt 0 view .LVU383
 1153 0004 80F84011 		strb	r1, [r0, #320]
 989:D:/Git/VL53L1/lib/core/src\vl53l1_api_core.c **** 		range_ignore_thresh_mult;
 990:D:/Git/VL53L1/lib/core/src\vl53l1_api_core.c **** 
 991:D:/Git/VL53L1/lib/core/src\vl53l1_api_core.c **** 	return status;
 1154              		.loc 1 991 2 is_stmt 1 view .LVU384
 992:D:/Git/VL53L1/lib/core/src\vl53l1_api_core.c **** 
 993:D:/Git/VL53L1/lib/core/src\vl53l1_api_core.c **** }
 1155              		.loc 1 993 1 is_stmt 0 view .LVU385
 1156 0008 0020     		movs	r0, #0
 1157              	.LVL97:
 1158              		.loc 1 993 1 view .LVU386
 1159 000a 7047     		bx	lr
 1160              		.cfi_endproc
 1161              	.LFE142:
 1163              		.section	.text.VL53L1_get_range_ignore_threshold,"ax",%progbits
 1164              		.align	1
 1165              		.global	VL53L1_get_range_ignore_threshold
 1166              		.syntax unified
 1167              		.thumb
 1168              		.thumb_func
 1169              		.fpu fpv4-sp-d16
 1171              	VL53L1_get_range_ignore_threshold:
 1172              	.LVL98:
 1173              	.LFB143:
 994:D:/Git/VL53L1/lib/core/src\vl53l1_api_core.c **** 
 995:D:/Git/VL53L1/lib/core/src\vl53l1_api_core.c **** VL53L1_Error VL53L1_get_range_ignore_threshold(
 996:D:/Git/VL53L1/lib/core/src\vl53l1_api_core.c **** 	VL53L1_DEV              Dev,
 997:D:/Git/VL53L1/lib/core/src\vl53l1_api_core.c **** 	uint8_t                *prange_ignore_thresh_mult,
 998:D:/Git/VL53L1/lib/core/src\vl53l1_api_core.c **** 	uint16_t               *prange_ignore_threshold_mcps_internal,
 999:D:/Git/VL53L1/lib/core/src\vl53l1_api_core.c **** 	uint16_t               *prange_ignore_threshold_mcps_current)
1000:D:/Git/VL53L1/lib/core/src\vl53l1_api_core.c **** {
ARM GAS  C:\Users\Berbardo\AppData\Local\Temp\ccBMvrJ9.s 			page 40


 1174              		.loc 1 1000 1 is_stmt 1 view -0
 1175              		.cfi_startproc
 1176              		@ args = 0, pretend = 0, frame = 0
 1177              		@ frame_needed = 0, uses_anonymous_args = 0
 1178              		@ link register save eliminated.
 1179              		.loc 1 1000 1 is_stmt 0 view .LVU388
 1180 0000 10B4     		push	{r4}
 1181              		.cfi_def_cfa_offset 4
 1182              		.cfi_offset 4, -4
1001:D:/Git/VL53L1/lib/core/src\vl53l1_api_core.c **** 	/**
1002:D:/Git/VL53L1/lib/core/src\vl53l1_api_core.c **** 	 * Convenience function for retrieving Range Ignore Threshold
1003:D:/Git/VL53L1/lib/core/src\vl53l1_api_core.c **** 	 * - Returns both the calculated internal value
1004:D:/Git/VL53L1/lib/core/src\vl53l1_api_core.c **** 	 * - and the value currently applied to device reg settings
1005:D:/Git/VL53L1/lib/core/src\vl53l1_api_core.c **** 	 *
1006:D:/Git/VL53L1/lib/core/src\vl53l1_api_core.c **** 	 * Values both in fixed point 3.13 Mcps per spad
1007:D:/Git/VL53L1/lib/core/src\vl53l1_api_core.c **** 	 *
1008:D:/Git/VL53L1/lib/core/src\vl53l1_api_core.c **** 	 */
1009:D:/Git/VL53L1/lib/core/src\vl53l1_api_core.c **** 
1010:D:/Git/VL53L1/lib/core/src\vl53l1_api_core.c **** 	VL53L1_Error  status = VL53L1_ERROR_NONE;
 1183              		.loc 1 1010 2 is_stmt 1 view .LVU389
 1184              	.LVL99:
1011:D:/Git/VL53L1/lib/core/src\vl53l1_api_core.c **** 	VL53L1_LLDriverData_t *pdev =
 1185              		.loc 1 1011 2 view .LVU390
1012:D:/Git/VL53L1/lib/core/src\vl53l1_api_core.c **** 		VL53L1DevStructGetLLDriverHandle(Dev);
1013:D:/Git/VL53L1/lib/core/src\vl53l1_api_core.c **** 
1014:D:/Git/VL53L1/lib/core/src\vl53l1_api_core.c **** 	*prange_ignore_thresh_mult =
 1186              		.loc 1 1014 2 view .LVU391
1015:D:/Git/VL53L1/lib/core/src\vl53l1_api_core.c **** 	    pdev->xtalk_cfg.crosstalk_range_ignore_threshold_mult;
 1187              		.loc 1 1015 21 is_stmt 0 view .LVU392
 1188 0002 90F84041 		ldrb	r4, [r0, #320]	@ zero_extendqisi2
1014:D:/Git/VL53L1/lib/core/src\vl53l1_api_core.c **** 	    pdev->xtalk_cfg.crosstalk_range_ignore_threshold_mult;
 1189              		.loc 1 1014 29 view .LVU393
 1190 0006 0C70     		strb	r4, [r1]
1016:D:/Git/VL53L1/lib/core/src\vl53l1_api_core.c **** 
1017:D:/Git/VL53L1/lib/core/src\vl53l1_api_core.c **** 	*prange_ignore_threshold_mcps_current =
 1191              		.loc 1 1017 2 is_stmt 1 view .LVU394
1018:D:/Git/VL53L1/lib/core/src\vl53l1_api_core.c **** 		pdev->stat_cfg.algo__range_ignore_threshold_mcps;
 1192              		.loc 1 1018 17 is_stmt 0 view .LVU395
 1193 0008 B0F87C11 		ldrh	r1, [r0, #380]
 1194              	.LVL100:
1017:D:/Git/VL53L1/lib/core/src\vl53l1_api_core.c **** 		pdev->stat_cfg.algo__range_ignore_threshold_mcps;
 1195              		.loc 1 1017 40 view .LVU396
 1196 000c 1980     		strh	r1, [r3]	@ movhi
1019:D:/Git/VL53L1/lib/core/src\vl53l1_api_core.c **** 
1020:D:/Git/VL53L1/lib/core/src\vl53l1_api_core.c **** 	*prange_ignore_threshold_mcps_internal =
 1197              		.loc 1 1020 2 is_stmt 1 view .LVU397
1021:D:/Git/VL53L1/lib/core/src\vl53l1_api_core.c **** 		pdev->xtalk_cfg.crosstalk_range_ignore_threshold_rate_mcps;
 1198              		.loc 1 1021 18 is_stmt 0 view .LVU398
 1199 000e B0F84231 		ldrh	r3, [r0, #322]
 1200              	.LVL101:
1020:D:/Git/VL53L1/lib/core/src\vl53l1_api_core.c **** 		pdev->xtalk_cfg.crosstalk_range_ignore_threshold_rate_mcps;
 1201              		.loc 1 1020 41 view .LVU399
 1202 0012 1380     		strh	r3, [r2]	@ movhi
1022:D:/Git/VL53L1/lib/core/src\vl53l1_api_core.c **** 
1023:D:/Git/VL53L1/lib/core/src\vl53l1_api_core.c **** 	return status;
 1203              		.loc 1 1023 2 is_stmt 1 view .LVU400
1024:D:/Git/VL53L1/lib/core/src\vl53l1_api_core.c **** 
ARM GAS  C:\Users\Berbardo\AppData\Local\Temp\ccBMvrJ9.s 			page 41


1025:D:/Git/VL53L1/lib/core/src\vl53l1_api_core.c **** }
 1204              		.loc 1 1025 1 is_stmt 0 view .LVU401
 1205 0014 0020     		movs	r0, #0
 1206              	.LVL102:
 1207              		.loc 1 1025 1 view .LVU402
 1208 0016 5DF8044B 		ldr	r4, [sp], #4
 1209              		.cfi_restore 4
 1210              		.cfi_def_cfa_offset 0
 1211 001a 7047     		bx	lr
 1212              		.cfi_endproc
 1213              	.LFE143:
 1215              		.section	.text.VL53L1_get_interrupt_polarity,"ax",%progbits
 1216              		.align	1
 1217              		.global	VL53L1_get_interrupt_polarity
 1218              		.syntax unified
 1219              		.thumb
 1220              		.thumb_func
 1221              		.fpu fpv4-sp-d16
 1223              	VL53L1_get_interrupt_polarity:
 1224              	.LVL103:
 1225              	.LFB144:
1026:D:/Git/VL53L1/lib/core/src\vl53l1_api_core.c **** 
1027:D:/Git/VL53L1/lib/core/src\vl53l1_api_core.c **** 
1028:D:/Git/VL53L1/lib/core/src\vl53l1_api_core.c **** 
1029:D:/Git/VL53L1/lib/core/src\vl53l1_api_core.c **** VL53L1_Error VL53L1_get_interrupt_polarity(
1030:D:/Git/VL53L1/lib/core/src\vl53l1_api_core.c **** 	VL53L1_DEV                       Dev,
1031:D:/Git/VL53L1/lib/core/src\vl53l1_api_core.c **** 	VL53L1_DeviceInterruptPolarity  *pinterrupt_polarity)
1032:D:/Git/VL53L1/lib/core/src\vl53l1_api_core.c **** {
 1226              		.loc 1 1032 1 is_stmt 1 view -0
 1227              		.cfi_startproc
 1228              		@ args = 0, pretend = 0, frame = 0
 1229              		@ frame_needed = 0, uses_anonymous_args = 0
 1230              		@ link register save eliminated.
1033:D:/Git/VL53L1/lib/core/src\vl53l1_api_core.c **** 	/**
1034:D:/Git/VL53L1/lib/core/src\vl53l1_api_core.c **** 	 * Convenience function for getting interrupt polarity
1035:D:/Git/VL53L1/lib/core/src\vl53l1_api_core.c **** 	 */
1036:D:/Git/VL53L1/lib/core/src\vl53l1_api_core.c **** 
1037:D:/Git/VL53L1/lib/core/src\vl53l1_api_core.c **** 	VL53L1_Error  status = VL53L1_ERROR_NONE;
 1231              		.loc 1 1037 2 view .LVU404
1038:D:/Git/VL53L1/lib/core/src\vl53l1_api_core.c **** 	VL53L1_LLDriverData_t *pdev =
 1232              		.loc 1 1038 2 view .LVU405
1039:D:/Git/VL53L1/lib/core/src\vl53l1_api_core.c **** 		VL53L1DevStructGetLLDriverHandle(Dev);
1040:D:/Git/VL53L1/lib/core/src\vl53l1_api_core.c **** 
1041:D:/Git/VL53L1/lib/core/src\vl53l1_api_core.c **** 	*pinterrupt_polarity = \
 1233              		.loc 1 1041 2 view .LVU406
1042:D:/Git/VL53L1/lib/core/src\vl53l1_api_core.c **** 		pdev->stat_cfg.gpio_hv_mux__ctrl & \
 1234              		.loc 1 1042 17 is_stmt 0 view .LVU407
 1235 0000 90F87031 		ldrb	r3, [r0, #368]	@ zero_extendqisi2
 1236              		.loc 1 1042 36 view .LVU408
 1237 0004 03F01003 		and	r3, r3, #16
1041:D:/Git/VL53L1/lib/core/src\vl53l1_api_core.c **** 		pdev->stat_cfg.gpio_hv_mux__ctrl & \
 1238              		.loc 1 1041 23 view .LVU409
 1239 0008 0B70     		strb	r3, [r1]
1043:D:/Git/VL53L1/lib/core/src\vl53l1_api_core.c **** 		VL53L1_DEVICEINTERRUPTPOLARITY_BIT_MASK ;
1044:D:/Git/VL53L1/lib/core/src\vl53l1_api_core.c **** 
1045:D:/Git/VL53L1/lib/core/src\vl53l1_api_core.c **** 	return status;
 1240              		.loc 1 1045 2 is_stmt 1 view .LVU410
ARM GAS  C:\Users\Berbardo\AppData\Local\Temp\ccBMvrJ9.s 			page 42


1046:D:/Git/VL53L1/lib/core/src\vl53l1_api_core.c **** 
1047:D:/Git/VL53L1/lib/core/src\vl53l1_api_core.c **** }
 1241              		.loc 1 1047 1 is_stmt 0 view .LVU411
 1242 000a 0020     		movs	r0, #0
 1243              	.LVL104:
 1244              		.loc 1 1047 1 view .LVU412
 1245 000c 7047     		bx	lr
 1246              		.cfi_endproc
 1247              	.LFE144:
 1249              		.section	.text.VL53L1_set_user_zone,"ax",%progbits
 1250              		.align	1
 1251              		.global	VL53L1_set_user_zone
 1252              		.syntax unified
 1253              		.thumb
 1254              		.thumb_func
 1255              		.fpu fpv4-sp-d16
 1257              	VL53L1_set_user_zone:
 1258              	.LVL105:
 1259              	.LFB145:
1048:D:/Git/VL53L1/lib/core/src\vl53l1_api_core.c **** 
1049:D:/Git/VL53L1/lib/core/src\vl53l1_api_core.c **** 
1050:D:/Git/VL53L1/lib/core/src\vl53l1_api_core.c **** VL53L1_Error VL53L1_set_user_zone(
1051:D:/Git/VL53L1/lib/core/src\vl53l1_api_core.c **** 	VL53L1_DEV              Dev,
1052:D:/Git/VL53L1/lib/core/src\vl53l1_api_core.c **** 	VL53L1_user_zone_t     *puser_zone)
1053:D:/Git/VL53L1/lib/core/src\vl53l1_api_core.c **** {
 1260              		.loc 1 1053 1 is_stmt 1 view -0
 1261              		.cfi_startproc
 1262              		@ args = 0, pretend = 0, frame = 0
 1263              		@ frame_needed = 0, uses_anonymous_args = 0
 1264              		.loc 1 1053 1 is_stmt 0 view .LVU414
 1265 0000 38B5     		push	{r3, r4, r5, lr}
 1266              		.cfi_def_cfa_offset 16
 1267              		.cfi_offset 3, -16
 1268              		.cfi_offset 4, -12
 1269              		.cfi_offset 5, -8
 1270              		.cfi_offset 14, -4
 1271 0002 0546     		mov	r5, r0
 1272 0004 0C46     		mov	r4, r1
1054:D:/Git/VL53L1/lib/core/src\vl53l1_api_core.c **** 	/**
1055:D:/Git/VL53L1/lib/core/src\vl53l1_api_core.c **** 	 * Convenience function for setting the user ROI
1056:D:/Git/VL53L1/lib/core/src\vl53l1_api_core.c **** 	 */
1057:D:/Git/VL53L1/lib/core/src\vl53l1_api_core.c **** 
1058:D:/Git/VL53L1/lib/core/src\vl53l1_api_core.c **** 	VL53L1_Error  status = VL53L1_ERROR_NONE;
 1273              		.loc 1 1058 2 is_stmt 1 view .LVU415
 1274              	.LVL106:
1059:D:/Git/VL53L1/lib/core/src\vl53l1_api_core.c **** 	VL53L1_LLDriverData_t *pdev = VL53L1DevStructGetLLDriverHandle(Dev);
 1275              		.loc 1 1059 2 view .LVU416
1060:D:/Git/VL53L1/lib/core/src\vl53l1_api_core.c **** 
1061:D:/Git/VL53L1/lib/core/src\vl53l1_api_core.c **** 	LOG_FUNCTION_START("");
 1276              		.loc 1 1061 24 view .LVU417
1062:D:/Git/VL53L1/lib/core/src\vl53l1_api_core.c **** 
1063:D:/Git/VL53L1/lib/core/src\vl53l1_api_core.c **** 	/* convert (row,col) location into a SPAD number */
1064:D:/Git/VL53L1/lib/core/src\vl53l1_api_core.c **** 	VL53L1_encode_row_col(
 1277              		.loc 1 1064 2 view .LVU418
 1278 0006 00F2C312 		addw	r2, r0, #451
 1279 000a 0978     		ldrb	r1, [r1]	@ zero_extendqisi2
 1280              	.LVL107:
ARM GAS  C:\Users\Berbardo\AppData\Local\Temp\ccBMvrJ9.s 			page 43


 1281              		.loc 1 1064 2 is_stmt 0 view .LVU419
 1282 000c 6078     		ldrb	r0, [r4, #1]	@ zero_extendqisi2
 1283              	.LVL108:
 1284              		.loc 1 1064 2 view .LVU420
 1285 000e FFF7FEFF 		bl	VL53L1_encode_row_col
 1286              	.LVL109:
1065:D:/Git/VL53L1/lib/core/src\vl53l1_api_core.c **** 		puser_zone->y_centre,
1066:D:/Git/VL53L1/lib/core/src\vl53l1_api_core.c **** 		puser_zone->x_centre,
1067:D:/Git/VL53L1/lib/core/src\vl53l1_api_core.c **** 		&(pdev->dyn_cfg.roi_config__user_roi_centre_spad));
1068:D:/Git/VL53L1/lib/core/src\vl53l1_api_core.c **** 
1069:D:/Git/VL53L1/lib/core/src\vl53l1_api_core.c **** 	/* merge x and y sizes */
1070:D:/Git/VL53L1/lib/core/src\vl53l1_api_core.c **** 	VL53L1_encode_zone_size(
 1287              		.loc 1 1070 2 is_stmt 1 view .LVU421
 1288 0012 05F5E272 		add	r2, r5, #452
 1289 0016 E178     		ldrb	r1, [r4, #3]	@ zero_extendqisi2
 1290 0018 A078     		ldrb	r0, [r4, #2]	@ zero_extendqisi2
 1291 001a FFF7FEFF 		bl	VL53L1_encode_zone_size
 1292              	.LVL110:
1071:D:/Git/VL53L1/lib/core/src\vl53l1_api_core.c **** 		puser_zone->width,
1072:D:/Git/VL53L1/lib/core/src\vl53l1_api_core.c **** 		puser_zone->height,
1073:D:/Git/VL53L1/lib/core/src\vl53l1_api_core.c **** 		&(pdev->dyn_cfg.roi_config__user_roi_requested_global_xy_size));
1074:D:/Git/VL53L1/lib/core/src\vl53l1_api_core.c **** 
1075:D:/Git/VL53L1/lib/core/src\vl53l1_api_core.c **** 	/* need to add checks to ensure ROI is within array */
1076:D:/Git/VL53L1/lib/core/src\vl53l1_api_core.c **** 
1077:D:/Git/VL53L1/lib/core/src\vl53l1_api_core.c **** 	LOG_FUNCTION_END(status);
 1293              		.loc 1 1077 26 view .LVU422
1078:D:/Git/VL53L1/lib/core/src\vl53l1_api_core.c **** 
1079:D:/Git/VL53L1/lib/core/src\vl53l1_api_core.c **** 	return status;
 1294              		.loc 1 1079 2 view .LVU423
1080:D:/Git/VL53L1/lib/core/src\vl53l1_api_core.c **** }
 1295              		.loc 1 1080 1 is_stmt 0 view .LVU424
 1296 001e 0020     		movs	r0, #0
 1297 0020 38BD     		pop	{r3, r4, r5, pc}
 1298              		.loc 1 1080 1 view .LVU425
 1299              		.cfi_endproc
 1300              	.LFE145:
 1302              		.section	.text.VL53L1_get_user_zone,"ax",%progbits
 1303              		.align	1
 1304              		.global	VL53L1_get_user_zone
 1305              		.syntax unified
 1306              		.thumb
 1307              		.thumb_func
 1308              		.fpu fpv4-sp-d16
 1310              	VL53L1_get_user_zone:
 1311              	.LVL111:
 1312              	.LFB146:
1081:D:/Git/VL53L1/lib/core/src\vl53l1_api_core.c **** 
1082:D:/Git/VL53L1/lib/core/src\vl53l1_api_core.c **** 
1083:D:/Git/VL53L1/lib/core/src\vl53l1_api_core.c **** VL53L1_Error VL53L1_get_user_zone(
1084:D:/Git/VL53L1/lib/core/src\vl53l1_api_core.c **** 	VL53L1_DEV              Dev,
1085:D:/Git/VL53L1/lib/core/src\vl53l1_api_core.c **** 	VL53L1_user_zone_t     *puser_zone)
1086:D:/Git/VL53L1/lib/core/src\vl53l1_api_core.c **** {
 1313              		.loc 1 1086 1 is_stmt 1 view -0
 1314              		.cfi_startproc
 1315              		@ args = 0, pretend = 0, frame = 0
 1316              		@ frame_needed = 0, uses_anonymous_args = 0
 1317              		.loc 1 1086 1 is_stmt 0 view .LVU427
ARM GAS  C:\Users\Berbardo\AppData\Local\Temp\ccBMvrJ9.s 			page 44


 1318 0000 38B5     		push	{r3, r4, r5, lr}
 1319              		.cfi_def_cfa_offset 16
 1320              		.cfi_offset 3, -16
 1321              		.cfi_offset 4, -12
 1322              		.cfi_offset 5, -8
 1323              		.cfi_offset 14, -4
 1324 0002 0546     		mov	r5, r0
 1325 0004 0C46     		mov	r4, r1
1087:D:/Git/VL53L1/lib/core/src\vl53l1_api_core.c **** 	/**
1088:D:/Git/VL53L1/lib/core/src\vl53l1_api_core.c **** 	 * Convenience function for getting the user ROI
1089:D:/Git/VL53L1/lib/core/src\vl53l1_api_core.c **** 	 */
1090:D:/Git/VL53L1/lib/core/src\vl53l1_api_core.c **** 
1091:D:/Git/VL53L1/lib/core/src\vl53l1_api_core.c **** 	VL53L1_Error  status = VL53L1_ERROR_NONE;
 1326              		.loc 1 1091 2 is_stmt 1 view .LVU428
 1327              	.LVL112:
1092:D:/Git/VL53L1/lib/core/src\vl53l1_api_core.c **** 	VL53L1_LLDriverData_t *pdev = VL53L1DevStructGetLLDriverHandle(Dev);
 1328              		.loc 1 1092 2 view .LVU429
1093:D:/Git/VL53L1/lib/core/src\vl53l1_api_core.c **** 
1094:D:/Git/VL53L1/lib/core/src\vl53l1_api_core.c **** 	LOG_FUNCTION_START("");
 1329              		.loc 1 1094 24 view .LVU430
1095:D:/Git/VL53L1/lib/core/src\vl53l1_api_core.c **** 
1096:D:/Git/VL53L1/lib/core/src\vl53l1_api_core.c **** 	/* convert SPAD number into (row,col) location*/
1097:D:/Git/VL53L1/lib/core/src\vl53l1_api_core.c **** 	VL53L1_decode_row_col(
 1330              		.loc 1 1097 2 view .LVU431
 1331 0006 0A46     		mov	r2, r1
 1332 0008 0131     		adds	r1, r1, #1
 1333              	.LVL113:
 1334              		.loc 1 1097 2 is_stmt 0 view .LVU432
 1335 000a 90F8C301 		ldrb	r0, [r0, #451]	@ zero_extendqisi2
 1336              	.LVL114:
 1337              		.loc 1 1097 2 view .LVU433
 1338 000e FFF7FEFF 		bl	VL53L1_decode_row_col
 1339              	.LVL115:
1098:D:/Git/VL53L1/lib/core/src\vl53l1_api_core.c **** 			pdev->dyn_cfg.roi_config__user_roi_centre_spad,
1099:D:/Git/VL53L1/lib/core/src\vl53l1_api_core.c **** 			&(puser_zone->y_centre),
1100:D:/Git/VL53L1/lib/core/src\vl53l1_api_core.c **** 			&(puser_zone->x_centre));
1101:D:/Git/VL53L1/lib/core/src\vl53l1_api_core.c **** 
1102:D:/Git/VL53L1/lib/core/src\vl53l1_api_core.c **** 	/* extract x and y sizes */
1103:D:/Git/VL53L1/lib/core/src\vl53l1_api_core.c **** 	VL53L1_decode_zone_size(
 1340              		.loc 1 1103 2 is_stmt 1 view .LVU434
 1341 0012 E21C     		adds	r2, r4, #3
 1342 0014 A11C     		adds	r1, r4, #2
 1343 0016 95F8C401 		ldrb	r0, [r5, #452]	@ zero_extendqisi2
 1344 001a FFF7FEFF 		bl	VL53L1_decode_zone_size
 1345              	.LVL116:
1104:D:/Git/VL53L1/lib/core/src\vl53l1_api_core.c **** 		pdev->dyn_cfg.roi_config__user_roi_requested_global_xy_size,
1105:D:/Git/VL53L1/lib/core/src\vl53l1_api_core.c **** 		&(puser_zone->width),
1106:D:/Git/VL53L1/lib/core/src\vl53l1_api_core.c **** 		&(puser_zone->height));
1107:D:/Git/VL53L1/lib/core/src\vl53l1_api_core.c **** 
1108:D:/Git/VL53L1/lib/core/src\vl53l1_api_core.c **** 	LOG_FUNCTION_END(status);
 1346              		.loc 1 1108 26 view .LVU435
1109:D:/Git/VL53L1/lib/core/src\vl53l1_api_core.c **** 
1110:D:/Git/VL53L1/lib/core/src\vl53l1_api_core.c **** 	return status;
 1347              		.loc 1 1110 2 view .LVU436
1111:D:/Git/VL53L1/lib/core/src\vl53l1_api_core.c **** }
 1348              		.loc 1 1111 1 is_stmt 0 view .LVU437
 1349 001e 0020     		movs	r0, #0
ARM GAS  C:\Users\Berbardo\AppData\Local\Temp\ccBMvrJ9.s 			page 45


 1350 0020 38BD     		pop	{r3, r4, r5, pc}
 1351              		.loc 1 1111 1 view .LVU438
 1352              		.cfi_endproc
 1353              	.LFE146:
 1355              		.section	.text.VL53L1_get_mode_mitigation_roi,"ax",%progbits
 1356              		.align	1
 1357              		.global	VL53L1_get_mode_mitigation_roi
 1358              		.syntax unified
 1359              		.thumb
 1360              		.thumb_func
 1361              		.fpu fpv4-sp-d16
 1363              	VL53L1_get_mode_mitigation_roi:
 1364              	.LVL117:
 1365              	.LFB147:
1112:D:/Git/VL53L1/lib/core/src\vl53l1_api_core.c **** 
1113:D:/Git/VL53L1/lib/core/src\vl53l1_api_core.c **** 
1114:D:/Git/VL53L1/lib/core/src\vl53l1_api_core.c **** 
1115:D:/Git/VL53L1/lib/core/src\vl53l1_api_core.c **** VL53L1_Error VL53L1_get_mode_mitigation_roi(
1116:D:/Git/VL53L1/lib/core/src\vl53l1_api_core.c **** 	VL53L1_DEV              Dev,
1117:D:/Git/VL53L1/lib/core/src\vl53l1_api_core.c **** 	VL53L1_user_zone_t     *pmm_roi)
1118:D:/Git/VL53L1/lib/core/src\vl53l1_api_core.c **** {
 1366              		.loc 1 1118 1 is_stmt 1 view -0
 1367              		.cfi_startproc
 1368              		@ args = 0, pretend = 0, frame = 8
 1369              		@ frame_needed = 0, uses_anonymous_args = 0
 1370              		.loc 1 1118 1 is_stmt 0 view .LVU440
 1371 0000 70B5     		push	{r4, r5, r6, lr}
 1372              		.cfi_def_cfa_offset 16
 1373              		.cfi_offset 4, -16
 1374              		.cfi_offset 5, -12
 1375              		.cfi_offset 6, -8
 1376              		.cfi_offset 14, -4
 1377 0002 82B0     		sub	sp, sp, #8
 1378              		.cfi_def_cfa_offset 24
 1379 0004 0646     		mov	r6, r0
 1380 0006 0C46     		mov	r4, r1
1119:D:/Git/VL53L1/lib/core/src\vl53l1_api_core.c **** 	/**
1120:D:/Git/VL53L1/lib/core/src\vl53l1_api_core.c **** 	 * Convenience function for getting the mode mitigation ROI
1121:D:/Git/VL53L1/lib/core/src\vl53l1_api_core.c **** 	 */
1122:D:/Git/VL53L1/lib/core/src\vl53l1_api_core.c **** 
1123:D:/Git/VL53L1/lib/core/src\vl53l1_api_core.c **** 	VL53L1_Error  status = VL53L1_ERROR_NONE;
 1381              		.loc 1 1123 2 is_stmt 1 view .LVU441
 1382              	.LVL118:
1124:D:/Git/VL53L1/lib/core/src\vl53l1_api_core.c **** 	VL53L1_LLDriverData_t *pdev = VL53L1DevStructGetLLDriverHandle(Dev);
 1383              		.loc 1 1124 2 view .LVU442
1125:D:/Git/VL53L1/lib/core/src\vl53l1_api_core.c **** 
1126:D:/Git/VL53L1/lib/core/src\vl53l1_api_core.c **** 	uint8_t  x       = 0;
 1384              		.loc 1 1126 2 view .LVU443
 1385              		.loc 1 1126 11 is_stmt 0 view .LVU444
 1386 0008 0025     		movs	r5, #0
 1387 000a 8DF80750 		strb	r5, [sp, #7]
1127:D:/Git/VL53L1/lib/core/src\vl53l1_api_core.c **** 	uint8_t  y       = 0;
 1388              		.loc 1 1127 2 is_stmt 1 view .LVU445
 1389              		.loc 1 1127 11 is_stmt 0 view .LVU446
 1390 000e 8DF80650 		strb	r5, [sp, #6]
1128:D:/Git/VL53L1/lib/core/src\vl53l1_api_core.c **** 	uint8_t  xy_size = 0;
 1391              		.loc 1 1128 2 is_stmt 1 view .LVU447
ARM GAS  C:\Users\Berbardo\AppData\Local\Temp\ccBMvrJ9.s 			page 46


 1392              	.LVL119:
1129:D:/Git/VL53L1/lib/core/src\vl53l1_api_core.c **** 
1130:D:/Git/VL53L1/lib/core/src\vl53l1_api_core.c **** 	LOG_FUNCTION_START("");
 1393              		.loc 1 1130 24 view .LVU448
1131:D:/Git/VL53L1/lib/core/src\vl53l1_api_core.c **** 
1132:D:/Git/VL53L1/lib/core/src\vl53l1_api_core.c **** 	/* convert SPAD number into (row,col) location */
1133:D:/Git/VL53L1/lib/core/src\vl53l1_api_core.c **** 	VL53L1_decode_row_col(
 1394              		.loc 1 1133 2 view .LVU449
 1395 0012 0DF10702 		add	r2, sp, #7
 1396 0016 0DF10601 		add	r1, sp, #6
 1397              	.LVL120:
 1398              		.loc 1 1133 2 is_stmt 0 view .LVU450
 1399 001a 90F82A02 		ldrb	r0, [r0, #554]	@ zero_extendqisi2
 1400              	.LVL121:
 1401              		.loc 1 1133 2 view .LVU451
 1402 001e FFF7FEFF 		bl	VL53L1_decode_row_col
 1403              	.LVL122:
1134:D:/Git/VL53L1/lib/core/src\vl53l1_api_core.c **** 			pdev->nvm_copy_data.roi_config__mode_roi_centre_spad,
1135:D:/Git/VL53L1/lib/core/src\vl53l1_api_core.c **** 			&y,
1136:D:/Git/VL53L1/lib/core/src\vl53l1_api_core.c **** 			&x);
1137:D:/Git/VL53L1/lib/core/src\vl53l1_api_core.c **** 
1138:D:/Git/VL53L1/lib/core/src\vl53l1_api_core.c **** 	pmm_roi->x_centre = x;
 1404              		.loc 1 1138 2 is_stmt 1 view .LVU452
 1405              		.loc 1 1138 20 is_stmt 0 view .LVU453
 1406 0022 9DF80730 		ldrb	r3, [sp, #7]	@ zero_extendqisi2
 1407 0026 2370     		strb	r3, [r4]
1139:D:/Git/VL53L1/lib/core/src\vl53l1_api_core.c **** 	pmm_roi->y_centre = y;
 1408              		.loc 1 1139 2 is_stmt 1 view .LVU454
 1409              		.loc 1 1139 20 is_stmt 0 view .LVU455
 1410 0028 9DF80630 		ldrb	r3, [sp, #6]	@ zero_extendqisi2
 1411 002c 6370     		strb	r3, [r4, #1]
1140:D:/Git/VL53L1/lib/core/src\vl53l1_api_core.c **** 
1141:D:/Git/VL53L1/lib/core/src\vl53l1_api_core.c **** 	/* extract x and y sizes
1142:D:/Git/VL53L1/lib/core/src\vl53l1_api_core.c **** 	 *
1143:D:/Git/VL53L1/lib/core/src\vl53l1_api_core.c **** 	 * Important: the sense of the device width and height is swapped
1144:D:/Git/VL53L1/lib/core/src\vl53l1_api_core.c **** 	 * versus the API sense
1145:D:/Git/VL53L1/lib/core/src\vl53l1_api_core.c **** 	 *
1146:D:/Git/VL53L1/lib/core/src\vl53l1_api_core.c **** 	 * MS Nibble = height
1147:D:/Git/VL53L1/lib/core/src\vl53l1_api_core.c **** 	 * LS Nibble = width
1148:D:/Git/VL53L1/lib/core/src\vl53l1_api_core.c **** 	 */
1149:D:/Git/VL53L1/lib/core/src\vl53l1_api_core.c **** 	xy_size = pdev->nvm_copy_data.roi_config__mode_roi_xy_size;
 1412              		.loc 1 1149 2 is_stmt 1 view .LVU456
 1413              		.loc 1 1149 10 is_stmt 0 view .LVU457
 1414 002e 96F82B32 		ldrb	r3, [r6, #555]	@ zero_extendqisi2
 1415              	.LVL123:
1150:D:/Git/VL53L1/lib/core/src\vl53l1_api_core.c **** 
1151:D:/Git/VL53L1/lib/core/src\vl53l1_api_core.c **** 	pmm_roi->height = xy_size >> 4;
 1416              		.loc 1 1151 2 is_stmt 1 view .LVU458
 1417              		.loc 1 1151 18 is_stmt 0 view .LVU459
 1418 0032 1A09     		lsrs	r2, r3, #4
 1419 0034 E270     		strb	r2, [r4, #3]
1152:D:/Git/VL53L1/lib/core/src\vl53l1_api_core.c **** 	pmm_roi->width  = xy_size & 0x0F;
 1420              		.loc 1 1152 2 is_stmt 1 view .LVU460
 1421              		.loc 1 1152 28 is_stmt 0 view .LVU461
 1422 0036 03F00F03 		and	r3, r3, #15
 1423              	.LVL124:
 1424              		.loc 1 1152 18 view .LVU462
ARM GAS  C:\Users\Berbardo\AppData\Local\Temp\ccBMvrJ9.s 			page 47


 1425 003a A370     		strb	r3, [r4, #2]
1153:D:/Git/VL53L1/lib/core/src\vl53l1_api_core.c **** 
1154:D:/Git/VL53L1/lib/core/src\vl53l1_api_core.c **** 	LOG_FUNCTION_END(status);
 1426              		.loc 1 1154 26 is_stmt 1 view .LVU463
1155:D:/Git/VL53L1/lib/core/src\vl53l1_api_core.c **** 
1156:D:/Git/VL53L1/lib/core/src\vl53l1_api_core.c **** 	return status;
 1427              		.loc 1 1156 2 view .LVU464
1157:D:/Git/VL53L1/lib/core/src\vl53l1_api_core.c **** }
 1428              		.loc 1 1157 1 is_stmt 0 view .LVU465
 1429 003c 2846     		mov	r0, r5
 1430 003e 02B0     		add	sp, sp, #8
 1431              		.cfi_def_cfa_offset 16
 1432              		@ sp needed
 1433 0040 70BD     		pop	{r4, r5, r6, pc}
 1434              		.loc 1 1157 1 view .LVU466
 1435              		.cfi_endproc
 1436              	.LFE147:
 1438              		.section	.text.VL53L1_read_p2p_data,"ax",%progbits
 1439              		.align	1
 1440              		.global	VL53L1_read_p2p_data
 1441              		.syntax unified
 1442              		.thumb
 1443              		.thumb_func
 1444              		.fpu fpv4-sp-d16
 1446              	VL53L1_read_p2p_data:
 1447              	.LVL125:
 1448              	.LFB127:
 315:D:/Git/VL53L1/lib/core/src\vl53l1_api_core.c **** 
 1449              		.loc 1 315 1 is_stmt 1 view -0
 1450              		.cfi_startproc
 1451              		@ args = 0, pretend = 0, frame = 0
 1452              		@ frame_needed = 0, uses_anonymous_args = 0
 315:D:/Git/VL53L1/lib/core/src\vl53l1_api_core.c **** 
 1453              		.loc 1 315 1 is_stmt 0 view .LVU468
 1454 0000 70B5     		push	{r4, r5, r6, lr}
 1455              		.cfi_def_cfa_offset 16
 1456              		.cfi_offset 4, -16
 1457              		.cfi_offset 5, -12
 1458              		.cfi_offset 6, -8
 1459              		.cfi_offset 14, -4
 1460 0002 0446     		mov	r4, r0
 325:D:/Git/VL53L1/lib/core/src\vl53l1_api_core.c **** 	VL53L1_LLDriverData_t *pdev = VL53L1DevStructGetLLDriverHandle(Dev);
 1461              		.loc 1 325 2 is_stmt 1 view .LVU469
 1462              	.LVL126:
 326:D:/Git/VL53L1/lib/core/src\vl53l1_api_core.c **** 
 1463              		.loc 1 326 2 view .LVU470
 328:D:/Git/VL53L1/lib/core/src\vl53l1_api_core.c **** 
 1464              		.loc 1 328 24 view .LVU471
 330:D:/Git/VL53L1/lib/core/src\vl53l1_api_core.c **** 		status = VL53L1_get_static_nvm_managed(
 1465              		.loc 1 330 2 view .LVU472
 331:D:/Git/VL53L1/lib/core/src\vl53l1_api_core.c **** 						Dev,
 1466              		.loc 1 331 3 view .LVU473
 331:D:/Git/VL53L1/lib/core/src\vl53l1_api_core.c **** 						Dev,
 1467              		.loc 1 331 12 is_stmt 0 view .LVU474
 1468 0004 00F5AC71 		add	r1, r0, #344
 1469 0008 FFF7FEFF 		bl	VL53L1_get_static_nvm_managed
 1470              	.LVL127:
ARM GAS  C:\Users\Berbardo\AppData\Local\Temp\ccBMvrJ9.s 			page 48


 335:D:/Git/VL53L1/lib/core/src\vl53l1_api_core.c **** 		status = VL53L1_get_customer_nvm_managed(
 1471              		.loc 1 335 2 is_stmt 1 view .LVU475
 335:D:/Git/VL53L1/lib/core/src\vl53l1_api_core.c **** 		status = VL53L1_get_customer_nvm_managed(
 1472              		.loc 1 335 5 is_stmt 0 view .LVU476
 1473 000c 0546     		mov	r5, r0
 1474 000e D0B1     		cbz	r0, .L78
 1475              	.LVL128:
 1476              	.L71:
 340:D:/Git/VL53L1/lib/core/src\vl53l1_api_core.c **** 
 1477              		.loc 1 340 2 is_stmt 1 view .LVU477
 340:D:/Git/VL53L1/lib/core/src\vl53l1_api_core.c **** 
 1478              		.loc 1 340 5 is_stmt 0 view .LVU478
 1479 0010 05B3     		cbz	r5, .L79
 1480              	.LVL129:
 1481              	.L72:
 357:D:/Git/VL53L1/lib/core/src\vl53l1_api_core.c **** 		status =
 1482              		.loc 1 357 2 is_stmt 1 view .LVU479
 357:D:/Git/VL53L1/lib/core/src\vl53l1_api_core.c **** 		status =
 1483              		.loc 1 357 5 is_stmt 0 view .LVU480
 1484 0012 75B3     		cbz	r5, .L80
 1485              	.L73:
 368:D:/Git/VL53L1/lib/core/src\vl53l1_api_core.c **** 		trace_print(
 1486              		.loc 1 368 2 is_stmt 1 view .LVU481
 368:D:/Git/VL53L1/lib/core/src\vl53l1_api_core.c **** 		trace_print(
 1487              		.loc 1 368 20 is_stmt 0 view .LVU482
 1488 0014 B4F85E31 		ldrh	r3, [r4, #350]
 368:D:/Git/VL53L1/lib/core/src\vl53l1_api_core.c **** 		trace_print(
 1489              		.loc 1 368 5 view .LVU483
 1490 0018 B3F5805F 		cmp	r3, #4096
 1491 001c 03D2     		bcs	.L74
 374:D:/Git/VL53L1/lib/core/src\vl53l1_api_core.c **** 		pdev->stat_nvm.osc_measured__fast_osc__frequency = 0xBCCC;
 1492              		.loc 1 374 11 is_stmt 1 view .LVU484
 375:D:/Git/VL53L1/lib/core/src\vl53l1_api_core.c **** 	}
 1493              		.loc 1 375 3 view .LVU485
 375:D:/Git/VL53L1/lib/core/src\vl53l1_api_core.c **** 	}
 1494              		.loc 1 375 52 is_stmt 0 view .LVU486
 1495 001e 4BF6CC43 		movw	r3, #48332
 1496 0022 A4F85E31 		strh	r3, [r4, #350]	@ movhi
 1497              	.L74:
 382:D:/Git/VL53L1/lib/core/src\vl53l1_api_core.c **** 		status =
 1498              		.loc 1 382 2 is_stmt 1 view .LVU487
 382:D:/Git/VL53L1/lib/core/src\vl53l1_api_core.c **** 		status =
 1499              		.loc 1 382 5 is_stmt 0 view .LVU488
 1500 0026 65B3     		cbz	r5, .L81
 1501              	.L75:
 392:D:/Git/VL53L1/lib/core/src\vl53l1_api_core.c **** 		pdev->optical_centre.y_centre == 0) {
 1502              		.loc 1 392 2 is_stmt 1 view .LVU489
 392:D:/Git/VL53L1/lib/core/src\vl53l1_api_core.c **** 		pdev->optical_centre.y_centre == 0) {
 1503              		.loc 1 392 41 is_stmt 0 view .LVU490
 1504 0028 B4F8A230 		ldrh	r3, [r4, #162]	@ unaligned
 392:D:/Git/VL53L1/lib/core/src\vl53l1_api_core.c **** 		pdev->optical_centre.y_centre == 0) {
 1505              		.loc 1 392 5 view .LVU491
 1506 002c 4BB9     		cbnz	r3, .L76
 394:D:/Git/VL53L1/lib/core/src\vl53l1_api_core.c **** 				pdev->mm_roi.x_centre << 4;
 1507              		.loc 1 394 3 is_stmt 1 view .LVU492
 395:D:/Git/VL53L1/lib/core/src\vl53l1_api_core.c **** 		pdev->optical_centre.y_centre =
 1508              		.loc 1 395 17 is_stmt 0 view .LVU493
ARM GAS  C:\Users\Berbardo\AppData\Local\Temp\ccBMvrJ9.s 			page 49


 1509 002e 94F89E30 		ldrb	r3, [r4, #158]	@ zero_extendqisi2
 395:D:/Git/VL53L1/lib/core/src\vl53l1_api_core.c **** 		pdev->optical_centre.y_centre =
 1510              		.loc 1 395 27 view .LVU494
 1511 0032 1B01     		lsls	r3, r3, #4
 394:D:/Git/VL53L1/lib/core/src\vl53l1_api_core.c **** 				pdev->mm_roi.x_centre << 4;
 1512              		.loc 1 394 33 view .LVU495
 1513 0034 84F8A230 		strb	r3, [r4, #162]
 396:D:/Git/VL53L1/lib/core/src\vl53l1_api_core.c **** 				pdev->mm_roi.y_centre << 4;
 1514              		.loc 1 396 3 is_stmt 1 view .LVU496
 397:D:/Git/VL53L1/lib/core/src\vl53l1_api_core.c **** 	}
 1515              		.loc 1 397 17 is_stmt 0 view .LVU497
 1516 0038 94F89F30 		ldrb	r3, [r4, #159]	@ zero_extendqisi2
 397:D:/Git/VL53L1/lib/core/src\vl53l1_api_core.c **** 	}
 1517              		.loc 1 397 27 view .LVU498
 1518 003c 1B01     		lsls	r3, r3, #4
 396:D:/Git/VL53L1/lib/core/src\vl53l1_api_core.c **** 				pdev->mm_roi.y_centre << 4;
 1519              		.loc 1 396 33 view .LVU499
 1520 003e 84F8A330 		strb	r3, [r4, #163]
 1521              	.L76:
 400:D:/Git/VL53L1/lib/core/src\vl53l1_api_core.c **** 
 1522              		.loc 1 400 26 is_stmt 1 view .LVU500
 402:D:/Git/VL53L1/lib/core/src\vl53l1_api_core.c **** }
 1523              		.loc 1 402 2 view .LVU501
 403:D:/Git/VL53L1/lib/core/src\vl53l1_api_core.c **** 
 1524              		.loc 1 403 1 is_stmt 0 view .LVU502
 1525 0042 2846     		mov	r0, r5
 1526 0044 70BD     		pop	{r4, r5, r6, pc}
 1527              	.LVL130:
 1528              	.L78:
 336:D:/Git/VL53L1/lib/core/src\vl53l1_api_core.c **** 						Dev,
 1529              		.loc 1 336 3 is_stmt 1 view .LVU503
 336:D:/Git/VL53L1/lib/core/src\vl53l1_api_core.c **** 						Dev,
 1530              		.loc 1 336 12 is_stmt 0 view .LVU504
 1531 0046 04F14201 		add	r1, r4, #66
 1532 004a 2046     		mov	r0, r4
 1533              	.LVL131:
 336:D:/Git/VL53L1/lib/core/src\vl53l1_api_core.c **** 						Dev,
 1534              		.loc 1 336 12 view .LVU505
 1535 004c FFF7FEFF 		bl	VL53L1_get_customer_nvm_managed
 1536              	.LVL132:
 1537 0050 0546     		mov	r5, r0
 1538              	.LVL133:
 336:D:/Git/VL53L1/lib/core/src\vl53l1_api_core.c **** 						Dev,
 1539              		.loc 1 336 12 view .LVU506
 1540 0052 DDE7     		b	.L71
 1541              	.L79:
 342:D:/Git/VL53L1/lib/core/src\vl53l1_api_core.c **** 						Dev,
 1542              		.loc 1 342 3 is_stmt 1 view .LVU507
 342:D:/Git/VL53L1/lib/core/src\vl53l1_api_core.c **** 						Dev,
 1543              		.loc 1 342 12 is_stmt 0 view .LVU508
 1544 0054 04F5FD76 		add	r6, r4, #506
 1545 0058 3146     		mov	r1, r6
 1546 005a 2046     		mov	r0, r4
 1547 005c FFF7FEFF 		bl	VL53L1_get_nvm_copy_data
 1548              	.LVL134:
 347:D:/Git/VL53L1/lib/core/src\vl53l1_api_core.c **** 			VL53L1_copy_rtn_good_spads_to_buffer(
 1549              		.loc 1 347 3 is_stmt 1 view .LVU509
ARM GAS  C:\Users\Berbardo\AppData\Local\Temp\ccBMvrJ9.s 			page 50


 347:D:/Git/VL53L1/lib/core/src\vl53l1_api_core.c **** 			VL53L1_copy_rtn_good_spads_to_buffer(
 1550              		.loc 1 347 6 is_stmt 0 view .LVU510
 1551 0060 0546     		mov	r5, r0
 1552 0062 0028     		cmp	r0, #0
 1553 0064 D5D1     		bne	.L72
 348:D:/Git/VL53L1/lib/core/src\vl53l1_api_core.c **** 					&(pdev->nvm_copy_data),
 1554              		.loc 1 348 4 is_stmt 1 view .LVU511
 1555 0066 04F1F001 		add	r1, r4, #240
 1556 006a 3046     		mov	r0, r6
 1557              	.LVL135:
 348:D:/Git/VL53L1/lib/core/src\vl53l1_api_core.c **** 					&(pdev->nvm_copy_data),
 1558              		.loc 1 348 4 is_stmt 0 view .LVU512
 1559 006c FFF7FEFF 		bl	VL53L1_copy_rtn_good_spads_to_buffer
 1560              	.LVL136:
 1561 0070 CFE7     		b	.L72
 1562              	.LVL137:
 1563              	.L80:
 358:D:/Git/VL53L1/lib/core/src\vl53l1_api_core.c **** 			VL53L1_RdWord(
 1564              		.loc 1 358 3 is_stmt 1 view .LVU513
 359:D:/Git/VL53L1/lib/core/src\vl53l1_api_core.c **** 				Dev,
 1565              		.loc 1 359 4 is_stmt 0 view .LVU514
 1566 0072 04F52D72 		add	r2, r4, #692
 1567 0076 DE21     		movs	r1, #222
 1568 0078 2046     		mov	r0, r4
 1569 007a FFF7FEFF 		bl	VL53L1_RdWord
 1570              	.LVL138:
 1571 007e 0546     		mov	r5, r0
 1572              	.LVL139:
 359:D:/Git/VL53L1/lib/core/src\vl53l1_api_core.c **** 				Dev,
 1573              		.loc 1 359 4 view .LVU515
 1574 0080 C8E7     		b	.L73
 1575              	.L81:
 383:D:/Git/VL53L1/lib/core/src\vl53l1_api_core.c **** 			VL53L1_get_mode_mitigation_roi(
 1576              		.loc 1 383 3 is_stmt 1 view .LVU516
 384:D:/Git/VL53L1/lib/core/src\vl53l1_api_core.c **** 				Dev,
 1577              		.loc 1 384 4 is_stmt 0 view .LVU517
 1578 0082 04F19E01 		add	r1, r4, #158
 1579 0086 2046     		mov	r0, r4
 1580 0088 FFF7FEFF 		bl	VL53L1_get_mode_mitigation_roi
 1581              	.LVL140:
 1582 008c 0546     		mov	r5, r0
 1583              	.LVL141:
 384:D:/Git/VL53L1/lib/core/src\vl53l1_api_core.c **** 				Dev,
 1584              		.loc 1 384 4 view .LVU518
 1585 008e CBE7     		b	.L75
 1586              		.cfi_endproc
 1587              	.LFE127:
 1589              		.section	.text.VL53L1_get_preset_mode_timing_cfg,"ax",%progbits
 1590              		.align	1
 1591              		.global	VL53L1_get_preset_mode_timing_cfg
 1592              		.syntax unified
 1593              		.thumb
 1594              		.thumb_func
 1595              		.fpu fpv4-sp-d16
 1597              	VL53L1_get_preset_mode_timing_cfg:
 1598              	.LVL142:
 1599              	.LFB148:
ARM GAS  C:\Users\Berbardo\AppData\Local\Temp\ccBMvrJ9.s 			page 51


1158:D:/Git/VL53L1/lib/core/src\vl53l1_api_core.c **** 
1159:D:/Git/VL53L1/lib/core/src\vl53l1_api_core.c **** VL53L1_Error VL53L1_get_preset_mode_timing_cfg(
1160:D:/Git/VL53L1/lib/core/src\vl53l1_api_core.c **** 	VL53L1_DEV                   Dev,
1161:D:/Git/VL53L1/lib/core/src\vl53l1_api_core.c **** 	VL53L1_DevicePresetModes     device_preset_mode,
1162:D:/Git/VL53L1/lib/core/src\vl53l1_api_core.c **** 	uint16_t                    *pdss_config__target_total_rate_mcps,
1163:D:/Git/VL53L1/lib/core/src\vl53l1_api_core.c **** 	uint32_t                    *pphasecal_config_timeout_us,
1164:D:/Git/VL53L1/lib/core/src\vl53l1_api_core.c **** 	uint32_t                    *pmm_config_timeout_us,
1165:D:/Git/VL53L1/lib/core/src\vl53l1_api_core.c **** 	uint32_t                    *prange_config_timeout_us)
1166:D:/Git/VL53L1/lib/core/src\vl53l1_api_core.c **** {
 1600              		.loc 1 1166 1 is_stmt 1 view -0
 1601              		.cfi_startproc
 1602              		@ args = 8, pretend = 0, frame = 0
 1603              		@ frame_needed = 0, uses_anonymous_args = 0
 1604              		@ link register save eliminated.
1167:D:/Git/VL53L1/lib/core/src\vl53l1_api_core.c **** 	VL53L1_Error  status = VL53L1_ERROR_NONE;
 1605              		.loc 1 1167 2 view .LVU520
1168:D:/Git/VL53L1/lib/core/src\vl53l1_api_core.c **** 	VL53L1_LLDriverData_t *pdev = VL53L1DevStructGetLLDriverHandle(Dev);
 1606              		.loc 1 1168 2 view .LVU521
1169:D:/Git/VL53L1/lib/core/src\vl53l1_api_core.c **** 
1170:D:/Git/VL53L1/lib/core/src\vl53l1_api_core.c **** 	LOG_FUNCTION_START("");
 1607              		.loc 1 1170 24 view .LVU522
1171:D:/Git/VL53L1/lib/core/src\vl53l1_api_core.c **** 
1172:D:/Git/VL53L1/lib/core/src\vl53l1_api_core.c **** 
1173:D:/Git/VL53L1/lib/core/src\vl53l1_api_core.c **** 	switch (device_preset_mode) {
 1608              		.loc 1 1173 2 view .LVU523
 1609 0000 0139     		subs	r1, r1, #1
 1610              	.LVL143:
 1611              		.loc 1 1173 2 is_stmt 0 view .LVU524
 1612 0002 2529     		cmp	r1, #37
 1613 0004 44D8     		bhi	.L88
 1614 0006 DFE801F0 		tbb	[pc, r1]
 1615              	.L85:
 1616 000a 13       		.byte	(.L87-.L85)/2
 1617 000b 13       		.byte	(.L87-.L85)/2
 1618 000c 13       		.byte	(.L87-.L85)/2
 1619 000d 13       		.byte	(.L87-.L85)/2
 1620 000e 13       		.byte	(.L87-.L85)/2
 1621 000f 23       		.byte	(.L86-.L85)/2
 1622 0010 23       		.byte	(.L86-.L85)/2
 1623 0011 23       		.byte	(.L86-.L85)/2
 1624 0012 43       		.byte	(.L88-.L85)/2
 1625 0013 43       		.byte	(.L88-.L85)/2
 1626 0014 43       		.byte	(.L88-.L85)/2
 1627 0015 43       		.byte	(.L88-.L85)/2
 1628 0016 43       		.byte	(.L88-.L85)/2
 1629 0017 43       		.byte	(.L88-.L85)/2
 1630 0018 43       		.byte	(.L88-.L85)/2
 1631 0019 43       		.byte	(.L88-.L85)/2
 1632 001a 13       		.byte	(.L87-.L85)/2
 1633 001b 23       		.byte	(.L86-.L85)/2
 1634 001c 43       		.byte	(.L88-.L85)/2
 1635 001d 43       		.byte	(.L88-.L85)/2
 1636 001e 43       		.byte	(.L88-.L85)/2
 1637 001f 43       		.byte	(.L88-.L85)/2
 1638 0020 43       		.byte	(.L88-.L85)/2
 1639 0021 43       		.byte	(.L88-.L85)/2
 1640 0022 43       		.byte	(.L88-.L85)/2
ARM GAS  C:\Users\Berbardo\AppData\Local\Temp\ccBMvrJ9.s 			page 52


 1641 0023 43       		.byte	(.L88-.L85)/2
 1642 0024 43       		.byte	(.L88-.L85)/2
 1643 0025 43       		.byte	(.L88-.L85)/2
 1644 0026 43       		.byte	(.L88-.L85)/2
 1645 0027 43       		.byte	(.L88-.L85)/2
 1646 0028 43       		.byte	(.L88-.L85)/2
 1647 0029 43       		.byte	(.L88-.L85)/2
 1648 002a 43       		.byte	(.L88-.L85)/2
 1649 002b 43       		.byte	(.L88-.L85)/2
 1650 002c 43       		.byte	(.L88-.L85)/2
 1651 002d 33       		.byte	(.L84-.L85)/2
 1652 002e 33       		.byte	(.L84-.L85)/2
 1653 002f 33       		.byte	(.L84-.L85)/2
 1654              		.p2align 1
 1655              	.L87:
1174:D:/Git/VL53L1/lib/core/src\vl53l1_api_core.c **** 
1175:D:/Git/VL53L1/lib/core/src\vl53l1_api_core.c **** 	case VL53L1_DEVICEPRESETMODE_STANDARD_RANGING:
1176:D:/Git/VL53L1/lib/core/src\vl53l1_api_core.c **** 	case VL53L1_DEVICEPRESETMODE_STANDARD_RANGING_SHORT_RANGE:
1177:D:/Git/VL53L1/lib/core/src\vl53l1_api_core.c **** 	case VL53L1_DEVICEPRESETMODE_STANDARD_RANGING_LONG_RANGE:
1178:D:/Git/VL53L1/lib/core/src\vl53l1_api_core.c **** 	case VL53L1_DEVICEPRESETMODE_STANDARD_RANGING_MM1_CAL:
1179:D:/Git/VL53L1/lib/core/src\vl53l1_api_core.c **** 	case VL53L1_DEVICEPRESETMODE_STANDARD_RANGING_MM2_CAL:
1180:D:/Git/VL53L1/lib/core/src\vl53l1_api_core.c **** 	case VL53L1_DEVICEPRESETMODE_OLT:
1181:D:/Git/VL53L1/lib/core/src\vl53l1_api_core.c **** 		*pdss_config__target_total_rate_mcps =
 1656              		.loc 1 1181 3 is_stmt 1 view .LVU525
1182:D:/Git/VL53L1/lib/core/src\vl53l1_api_core.c **** 				pdev->tuning_parms.tp_dss_target_lite_mcps;
 1657              		.loc 1 1182 23 is_stmt 0 view .LVU526
 1658 0030 B0F8CA10 		ldrh	r1, [r0, #202]
1181:D:/Git/VL53L1/lib/core/src\vl53l1_api_core.c **** 				pdev->tuning_parms.tp_dss_target_lite_mcps;
 1659              		.loc 1 1181 40 view .LVU527
 1660 0034 1180     		strh	r1, [r2]	@ movhi
1183:D:/Git/VL53L1/lib/core/src\vl53l1_api_core.c **** 		*pphasecal_config_timeout_us =
 1661              		.loc 1 1183 3 is_stmt 1 view .LVU528
1184:D:/Git/VL53L1/lib/core/src\vl53l1_api_core.c **** 				pdev->tuning_parms.tp_phasecal_timeout_lite_us;
 1662              		.loc 1 1184 23 is_stmt 0 view .LVU529
 1663 0036 D0F8D020 		ldr	r2, [r0, #208]
 1664              	.LVL144:
1183:D:/Git/VL53L1/lib/core/src\vl53l1_api_core.c **** 		*pphasecal_config_timeout_us =
 1665              		.loc 1 1183 32 view .LVU530
 1666 003a 1A60     		str	r2, [r3]
1185:D:/Git/VL53L1/lib/core/src\vl53l1_api_core.c **** 		*pmm_config_timeout_us =
 1667              		.loc 1 1185 3 is_stmt 1 view .LVU531
1186:D:/Git/VL53L1/lib/core/src\vl53l1_api_core.c **** 				pdev->tuning_parms.tp_mm_timeout_lite_us;
 1668              		.loc 1 1186 23 is_stmt 0 view .LVU532
 1669 003c D0F8D830 		ldr	r3, [r0, #216]
 1670              	.LVL145:
1185:D:/Git/VL53L1/lib/core/src\vl53l1_api_core.c **** 		*pmm_config_timeout_us =
 1671              		.loc 1 1185 26 view .LVU533
 1672 0040 009A     		ldr	r2, [sp]
 1673 0042 1360     		str	r3, [r2]
1187:D:/Git/VL53L1/lib/core/src\vl53l1_api_core.c **** 		*prange_config_timeout_us =
 1674              		.loc 1 1187 3 is_stmt 1 view .LVU534
1188:D:/Git/VL53L1/lib/core/src\vl53l1_api_core.c **** 				pdev->tuning_parms.tp_range_timeout_lite_us;
 1675              		.loc 1 1188 23 is_stmt 0 view .LVU535
 1676 0044 D0F8E430 		ldr	r3, [r0, #228]
1187:D:/Git/VL53L1/lib/core/src\vl53l1_api_core.c **** 		*prange_config_timeout_us =
 1677              		.loc 1 1187 29 view .LVU536
 1678 0048 019A     		ldr	r2, [sp, #4]
ARM GAS  C:\Users\Berbardo\AppData\Local\Temp\ccBMvrJ9.s 			page 53


 1679 004a 1360     		str	r3, [r2]
1189:D:/Git/VL53L1/lib/core/src\vl53l1_api_core.c **** 	break;
 1680              		.loc 1 1189 2 is_stmt 1 view .LVU537
1167:D:/Git/VL53L1/lib/core/src\vl53l1_api_core.c **** 	VL53L1_LLDriverData_t *pdev = VL53L1DevStructGetLLDriverHandle(Dev);
 1681              		.loc 1 1167 16 is_stmt 0 view .LVU538
 1682 004c 0020     		movs	r0, #0
 1683              	.LVL146:
 1684              		.loc 1 1189 2 view .LVU539
 1685 004e 7047     		bx	lr
 1686              	.LVL147:
 1687              	.L86:
1190:D:/Git/VL53L1/lib/core/src\vl53l1_api_core.c **** 
1191:D:/Git/VL53L1/lib/core/src\vl53l1_api_core.c **** 	case VL53L1_DEVICEPRESETMODE_TIMED_RANGING:
1192:D:/Git/VL53L1/lib/core/src\vl53l1_api_core.c **** 	case VL53L1_DEVICEPRESETMODE_TIMED_RANGING_SHORT_RANGE:
1193:D:/Git/VL53L1/lib/core/src\vl53l1_api_core.c **** 	case VL53L1_DEVICEPRESETMODE_TIMED_RANGING_LONG_RANGE:
1194:D:/Git/VL53L1/lib/core/src\vl53l1_api_core.c **** 	case VL53L1_DEVICEPRESETMODE_SINGLESHOT_RANGING:
1195:D:/Git/VL53L1/lib/core/src\vl53l1_api_core.c **** 		*pdss_config__target_total_rate_mcps =
 1688              		.loc 1 1195 3 is_stmt 1 view .LVU540
1196:D:/Git/VL53L1/lib/core/src\vl53l1_api_core.c **** 				pdev->tuning_parms.tp_dss_target_timed_mcps;
 1689              		.loc 1 1196 23 is_stmt 0 view .LVU541
 1690 0050 B0F8CC10 		ldrh	r1, [r0, #204]
1195:D:/Git/VL53L1/lib/core/src\vl53l1_api_core.c **** 				pdev->tuning_parms.tp_dss_target_timed_mcps;
 1691              		.loc 1 1195 40 view .LVU542
 1692 0054 1180     		strh	r1, [r2]	@ movhi
1197:D:/Git/VL53L1/lib/core/src\vl53l1_api_core.c **** 		*pphasecal_config_timeout_us =
 1693              		.loc 1 1197 3 is_stmt 1 view .LVU543
1198:D:/Git/VL53L1/lib/core/src\vl53l1_api_core.c **** 				pdev->tuning_parms.tp_phasecal_timeout_timed_us;
 1694              		.loc 1 1198 23 is_stmt 0 view .LVU544
 1695 0056 D0F8D420 		ldr	r2, [r0, #212]
 1696              	.LVL148:
1197:D:/Git/VL53L1/lib/core/src\vl53l1_api_core.c **** 		*pphasecal_config_timeout_us =
 1697              		.loc 1 1197 32 view .LVU545
 1698 005a 1A60     		str	r2, [r3]
1199:D:/Git/VL53L1/lib/core/src\vl53l1_api_core.c **** 		*pmm_config_timeout_us =
 1699              		.loc 1 1199 3 is_stmt 1 view .LVU546
1200:D:/Git/VL53L1/lib/core/src\vl53l1_api_core.c **** 				pdev->tuning_parms.tp_mm_timeout_timed_us;
 1700              		.loc 1 1200 23 is_stmt 0 view .LVU547
 1701 005c D0F8DC30 		ldr	r3, [r0, #220]
 1702              	.LVL149:
1199:D:/Git/VL53L1/lib/core/src\vl53l1_api_core.c **** 		*pmm_config_timeout_us =
 1703              		.loc 1 1199 26 view .LVU548
 1704 0060 009A     		ldr	r2, [sp]
 1705 0062 1360     		str	r3, [r2]
1201:D:/Git/VL53L1/lib/core/src\vl53l1_api_core.c **** 		*prange_config_timeout_us =
 1706              		.loc 1 1201 3 is_stmt 1 view .LVU549
1202:D:/Git/VL53L1/lib/core/src\vl53l1_api_core.c **** 				pdev->tuning_parms.tp_range_timeout_timed_us;
 1707              		.loc 1 1202 23 is_stmt 0 view .LVU550
 1708 0064 D0F8E830 		ldr	r3, [r0, #232]
1201:D:/Git/VL53L1/lib/core/src\vl53l1_api_core.c **** 		*prange_config_timeout_us =
 1709              		.loc 1 1201 29 view .LVU551
 1710 0068 019A     		ldr	r2, [sp, #4]
 1711 006a 1360     		str	r3, [r2]
1203:D:/Git/VL53L1/lib/core/src\vl53l1_api_core.c **** 	break;
 1712              		.loc 1 1203 2 is_stmt 1 view .LVU552
1167:D:/Git/VL53L1/lib/core/src\vl53l1_api_core.c **** 	VL53L1_LLDriverData_t *pdev = VL53L1DevStructGetLLDriverHandle(Dev);
 1713              		.loc 1 1167 16 is_stmt 0 view .LVU553
 1714 006c 0020     		movs	r0, #0
ARM GAS  C:\Users\Berbardo\AppData\Local\Temp\ccBMvrJ9.s 			page 54


 1715              	.LVL150:
 1716              		.loc 1 1203 2 view .LVU554
 1717 006e 7047     		bx	lr
 1718              	.LVL151:
 1719              	.L84:
1204:D:/Git/VL53L1/lib/core/src\vl53l1_api_core.c **** 
1205:D:/Git/VL53L1/lib/core/src\vl53l1_api_core.c **** 	case VL53L1_DEVICEPRESETMODE_LOWPOWERAUTO_SHORT_RANGE:
1206:D:/Git/VL53L1/lib/core/src\vl53l1_api_core.c **** 	case VL53L1_DEVICEPRESETMODE_LOWPOWERAUTO_MEDIUM_RANGE:
1207:D:/Git/VL53L1/lib/core/src\vl53l1_api_core.c **** 	case VL53L1_DEVICEPRESETMODE_LOWPOWERAUTO_LONG_RANGE:
1208:D:/Git/VL53L1/lib/core/src\vl53l1_api_core.c **** 		*pdss_config__target_total_rate_mcps =
 1720              		.loc 1 1208 3 is_stmt 1 view .LVU555
1209:D:/Git/VL53L1/lib/core/src\vl53l1_api_core.c **** 				pdev->tuning_parms.tp_dss_target_timed_mcps;
 1721              		.loc 1 1209 23 is_stmt 0 view .LVU556
 1722 0070 B0F8CC10 		ldrh	r1, [r0, #204]
1208:D:/Git/VL53L1/lib/core/src\vl53l1_api_core.c **** 				pdev->tuning_parms.tp_dss_target_timed_mcps;
 1723              		.loc 1 1208 40 view .LVU557
 1724 0074 1180     		strh	r1, [r2]	@ movhi
1210:D:/Git/VL53L1/lib/core/src\vl53l1_api_core.c **** 		*pphasecal_config_timeout_us =
 1725              		.loc 1 1210 3 is_stmt 1 view .LVU558
1211:D:/Git/VL53L1/lib/core/src\vl53l1_api_core.c **** 				pdev->tuning_parms.tp_phasecal_timeout_timed_us;
 1726              		.loc 1 1211 23 is_stmt 0 view .LVU559
 1727 0076 D0F8D420 		ldr	r2, [r0, #212]
 1728              	.LVL152:
1210:D:/Git/VL53L1/lib/core/src\vl53l1_api_core.c **** 		*pphasecal_config_timeout_us =
 1729              		.loc 1 1210 32 view .LVU560
 1730 007a 1A60     		str	r2, [r3]
1212:D:/Git/VL53L1/lib/core/src\vl53l1_api_core.c **** 		*pmm_config_timeout_us =
 1731              		.loc 1 1212 3 is_stmt 1 view .LVU561
1213:D:/Git/VL53L1/lib/core/src\vl53l1_api_core.c **** 				pdev->tuning_parms.tp_mm_timeout_lpa_us;
 1732              		.loc 1 1213 23 is_stmt 0 view .LVU562
 1733 007c D0F8E030 		ldr	r3, [r0, #224]
 1734              	.LVL153:
1212:D:/Git/VL53L1/lib/core/src\vl53l1_api_core.c **** 		*pmm_config_timeout_us =
 1735              		.loc 1 1212 26 view .LVU563
 1736 0080 009A     		ldr	r2, [sp]
 1737 0082 1360     		str	r3, [r2]
1214:D:/Git/VL53L1/lib/core/src\vl53l1_api_core.c **** 		*prange_config_timeout_us =
 1738              		.loc 1 1214 3 is_stmt 1 view .LVU564
1215:D:/Git/VL53L1/lib/core/src\vl53l1_api_core.c **** 				pdev->tuning_parms.tp_range_timeout_lpa_us;
 1739              		.loc 1 1215 23 is_stmt 0 view .LVU565
 1740 0084 D0F8EC30 		ldr	r3, [r0, #236]
1214:D:/Git/VL53L1/lib/core/src\vl53l1_api_core.c **** 		*prange_config_timeout_us =
 1741              		.loc 1 1214 29 view .LVU566
 1742 0088 019A     		ldr	r2, [sp, #4]
 1743 008a 1360     		str	r3, [r2]
1216:D:/Git/VL53L1/lib/core/src\vl53l1_api_core.c **** 	break;
 1744              		.loc 1 1216 2 is_stmt 1 view .LVU567
1167:D:/Git/VL53L1/lib/core/src\vl53l1_api_core.c **** 	VL53L1_LLDriverData_t *pdev = VL53L1DevStructGetLLDriverHandle(Dev);
 1745              		.loc 1 1167 16 is_stmt 0 view .LVU568
 1746 008c 0020     		movs	r0, #0
 1747              	.LVL154:
 1748              		.loc 1 1216 2 view .LVU569
 1749 008e 7047     		bx	lr
 1750              	.LVL155:
 1751              	.L88:
1217:D:/Git/VL53L1/lib/core/src\vl53l1_api_core.c **** 
1218:D:/Git/VL53L1/lib/core/src\vl53l1_api_core.c **** 	default:
ARM GAS  C:\Users\Berbardo\AppData\Local\Temp\ccBMvrJ9.s 			page 55


1219:D:/Git/VL53L1/lib/core/src\vl53l1_api_core.c **** 		status = VL53L1_ERROR_INVALID_PARAMS;
 1752              		.loc 1 1219 10 view .LVU570
 1753 0090 6FF00300 		mvn	r0, #3
 1754              	.LVL156:
1220:D:/Git/VL53L1/lib/core/src\vl53l1_api_core.c **** 		break;
1221:D:/Git/VL53L1/lib/core/src\vl53l1_api_core.c **** 
1222:D:/Git/VL53L1/lib/core/src\vl53l1_api_core.c **** 	}
1223:D:/Git/VL53L1/lib/core/src\vl53l1_api_core.c **** 
1224:D:/Git/VL53L1/lib/core/src\vl53l1_api_core.c **** 	LOG_FUNCTION_END(status);
 1755              		.loc 1 1224 26 is_stmt 1 view .LVU571
1225:D:/Git/VL53L1/lib/core/src\vl53l1_api_core.c **** 
1226:D:/Git/VL53L1/lib/core/src\vl53l1_api_core.c **** 	return status;
 1756              		.loc 1 1226 2 view .LVU572
1227:D:/Git/VL53L1/lib/core/src\vl53l1_api_core.c **** }
 1757              		.loc 1 1227 1 is_stmt 0 view .LVU573
 1758 0094 7047     		bx	lr
 1759              		.cfi_endproc
 1760              	.LFE148:
 1762              		.section	.text.VL53L1_set_preset_mode,"ax",%progbits
 1763              		.align	1
 1764              		.global	VL53L1_set_preset_mode
 1765              		.syntax unified
 1766              		.thumb
 1767              		.thumb_func
 1768              		.fpu fpv4-sp-d16
 1770              	VL53L1_set_preset_mode:
 1771              	.LVL157:
 1772              	.LFB149:
1228:D:/Git/VL53L1/lib/core/src\vl53l1_api_core.c **** 
1229:D:/Git/VL53L1/lib/core/src\vl53l1_api_core.c **** 
1230:D:/Git/VL53L1/lib/core/src\vl53l1_api_core.c **** VL53L1_Error VL53L1_set_preset_mode(
1231:D:/Git/VL53L1/lib/core/src\vl53l1_api_core.c **** 	VL53L1_DEV                   Dev,
1232:D:/Git/VL53L1/lib/core/src\vl53l1_api_core.c **** 	VL53L1_DevicePresetModes     device_preset_mode,
1233:D:/Git/VL53L1/lib/core/src\vl53l1_api_core.c **** 	uint16_t                     dss_config__target_total_rate_mcps,
1234:D:/Git/VL53L1/lib/core/src\vl53l1_api_core.c **** 	uint32_t                     phasecal_config_timeout_us,
1235:D:/Git/VL53L1/lib/core/src\vl53l1_api_core.c **** 	uint32_t                     mm_config_timeout_us,
1236:D:/Git/VL53L1/lib/core/src\vl53l1_api_core.c **** 	uint32_t                     range_config_timeout_us,
1237:D:/Git/VL53L1/lib/core/src\vl53l1_api_core.c **** 	uint32_t                     inter_measurement_period_ms)
1238:D:/Git/VL53L1/lib/core/src\vl53l1_api_core.c **** {
 1773              		.loc 1 1238 1 is_stmt 1 view -0
 1774              		.cfi_startproc
 1775              		@ args = 12, pretend = 0, frame = 16
 1776              		@ frame_needed = 0, uses_anonymous_args = 0
 1777              		.loc 1 1238 1 is_stmt 0 view .LVU575
 1778 0000 2DE9F04F 		push	{r4, r5, r6, r7, r8, r9, r10, fp, lr}
 1779              		.cfi_def_cfa_offset 36
 1780              		.cfi_offset 4, -36
 1781              		.cfi_offset 5, -32
 1782              		.cfi_offset 6, -28
 1783              		.cfi_offset 7, -24
 1784              		.cfi_offset 8, -20
 1785              		.cfi_offset 9, -16
 1786              		.cfi_offset 10, -12
 1787              		.cfi_offset 11, -8
 1788              		.cfi_offset 14, -4
 1789 0004 89B0     		sub	sp, sp, #36
 1790              		.cfi_def_cfa_offset 72
ARM GAS  C:\Users\Berbardo\AppData\Local\Temp\ccBMvrJ9.s 			page 56


 1791 0006 0446     		mov	r4, r0
 1792 0008 0D46     		mov	r5, r1
 1793 000a 0692     		str	r2, [sp, #24]
 1794 000c 0793     		str	r3, [sp, #28]
1239:D:/Git/VL53L1/lib/core/src\vl53l1_api_core.c **** 	/**
1240:D:/Git/VL53L1/lib/core/src\vl53l1_api_core.c **** 	 * Initializes static and dynamic data structures for
1241:D:/Git/VL53L1/lib/core/src\vl53l1_api_core.c **** 	 * the provided preset mode
1242:D:/Git/VL53L1/lib/core/src\vl53l1_api_core.c **** 	 */
1243:D:/Git/VL53L1/lib/core/src\vl53l1_api_core.c **** 
1244:D:/Git/VL53L1/lib/core/src\vl53l1_api_core.c **** 	VL53L1_Error  status = VL53L1_ERROR_NONE;
 1795              		.loc 1 1244 2 is_stmt 1 view .LVU576
 1796              	.LVL158:
1245:D:/Git/VL53L1/lib/core/src\vl53l1_api_core.c **** 	VL53L1_LLDriverData_t *pdev =
 1797              		.loc 1 1245 2 view .LVU577
1246:D:/Git/VL53L1/lib/core/src\vl53l1_api_core.c **** 			VL53L1DevStructGetLLDriverHandle(Dev);
1247:D:/Git/VL53L1/lib/core/src\vl53l1_api_core.c **** 
1248:D:/Git/VL53L1/lib/core/src\vl53l1_api_core.c **** 	VL53L1_static_config_t        *pstatic       = &(pdev->stat_cfg);
 1798              		.loc 1 1248 2 view .LVU578
 1799              		.loc 1 1248 33 is_stmt 0 view .LVU579
 1800 000e 00F5B277 		add	r7, r0, #356
 1801              	.LVL159:
1249:D:/Git/VL53L1/lib/core/src\vl53l1_api_core.c **** 	VL53L1_general_config_t       *pgeneral      = &(pdev->gen_cfg);
 1802              		.loc 1 1249 2 is_stmt 1 view .LVU580
 1803              		.loc 1 1249 33 is_stmt 0 view .LVU581
 1804 0012 00F5C278 		add	r8, r0, #388
 1805              	.LVL160:
1250:D:/Git/VL53L1/lib/core/src\vl53l1_api_core.c **** 	VL53L1_timing_config_t        *ptiming       = &(pdev->tim_cfg);
 1806              		.loc 1 1250 2 is_stmt 1 view .LVU582
 1807              		.loc 1 1250 33 is_stmt 0 view .LVU583
 1808 0016 00F5CE76 		add	r6, r0, #412
 1809              	.LVL161:
1251:D:/Git/VL53L1/lib/core/src\vl53l1_api_core.c **** 	VL53L1_dynamic_config_t       *pdynamic      = &(pdev->dyn_cfg);
 1810              		.loc 1 1251 2 is_stmt 1 view .LVU584
 1811              		.loc 1 1251 33 is_stmt 0 view .LVU585
 1812 001a 00F5DA73 		add	r3, r0, #436
 1813              	.LVL162:
 1814              		.loc 1 1251 33 view .LVU586
 1815 001e 0593     		str	r3, [sp, #20]
 1816              	.LVL163:
1252:D:/Git/VL53L1/lib/core/src\vl53l1_api_core.c **** 	VL53L1_system_control_t       *psystem       = &(pdev->sys_ctrl);
 1817              		.loc 1 1252 2 is_stmt 1 view .LVU587
 1818              		.loc 1 1252 33 is_stmt 0 view .LVU588
 1819 0020 00F5E479 		add	r9, r0, #456
 1820              	.LVL164:
1253:D:/Git/VL53L1/lib/core/src\vl53l1_api_core.c **** 	VL53L1_tuning_parm_storage_t  *ptuning_parms = &(pdev->tuning_parms);
 1821              		.loc 1 1253 2 is_stmt 1 view .LVU589
 1822              		.loc 1 1253 33 is_stmt 0 view .LVU590
 1823 0024 00F1A40A 		add	r10, r0, #164
 1824              	.LVL165:
1254:D:/Git/VL53L1/lib/core/src\vl53l1_api_core.c **** 	VL53L1_low_power_auto_data_t  *plpadata      =
 1825              		.loc 1 1254 2 is_stmt 1 view .LVU591
 1826              		.loc 1 1254 33 is_stmt 0 view .LVU592
 1827 0028 00F5397B 		add	fp, r0, #740
 1828              	.LVL166:
1255:D:/Git/VL53L1/lib/core/src\vl53l1_api_core.c **** 					&(pdev->low_power_auto_data);
1256:D:/Git/VL53L1/lib/core/src\vl53l1_api_core.c **** 
1257:D:/Git/VL53L1/lib/core/src\vl53l1_api_core.c **** 	LOG_FUNCTION_START("");
ARM GAS  C:\Users\Berbardo\AppData\Local\Temp\ccBMvrJ9.s 			page 57


 1829              		.loc 1 1257 24 is_stmt 1 view .LVU593
1258:D:/Git/VL53L1/lib/core/src\vl53l1_api_core.c **** 
1259:D:/Git/VL53L1/lib/core/src\vl53l1_api_core.c **** 	/* save input settings */
1260:D:/Git/VL53L1/lib/core/src\vl53l1_api_core.c **** 	pdev->preset_mode                 = device_preset_mode;
 1830              		.loc 1 1260 2 view .LVU594
 1831              		.loc 1 1260 36 is_stmt 0 view .LVU595
 1832 002c 4170     		strb	r1, [r0, #1]
1261:D:/Git/VL53L1/lib/core/src\vl53l1_api_core.c **** 	pdev->mm_config_timeout_us        = mm_config_timeout_us;
 1833              		.loc 1 1261 2 is_stmt 1 view .LVU596
 1834              		.loc 1 1261 36 is_stmt 0 view .LVU597
 1835 002e 129B     		ldr	r3, [sp, #72]
 1836              	.LVL167:
 1837              		.loc 1 1261 36 view .LVU598
 1838 0030 C360     		str	r3, [r0, #12]
1262:D:/Git/VL53L1/lib/core/src\vl53l1_api_core.c **** 	pdev->range_config_timeout_us     = range_config_timeout_us;
 1839              		.loc 1 1262 2 is_stmt 1 view .LVU599
 1840              		.loc 1 1262 36 is_stmt 0 view .LVU600
 1841 0032 139B     		ldr	r3, [sp, #76]
 1842 0034 0361     		str	r3, [r0, #16]
1263:D:/Git/VL53L1/lib/core/src\vl53l1_api_core.c **** 	pdev->inter_measurement_period_ms = inter_measurement_period_ms;
 1843              		.loc 1 1263 2 is_stmt 1 view .LVU601
 1844              		.loc 1 1263 36 is_stmt 0 view .LVU602
 1845 0036 149B     		ldr	r3, [sp, #80]
 1846 0038 4361     		str	r3, [r0, #20]
1264:D:/Git/VL53L1/lib/core/src\vl53l1_api_core.c **** 
1265:D:/Git/VL53L1/lib/core/src\vl53l1_api_core.c **** 	/* Reset LL Driver state variables */
1266:D:/Git/VL53L1/lib/core/src\vl53l1_api_core.c **** 
1267:D:/Git/VL53L1/lib/core/src\vl53l1_api_core.c **** 	VL53L1_init_ll_driver_state(
 1847              		.loc 1 1267 2 is_stmt 1 view .LVU603
 1848 003a 0321     		movs	r1, #3
 1849              	.LVL168:
 1850              		.loc 1 1267 2 is_stmt 0 view .LVU604
 1851 003c FFF7FEFF 		bl	VL53L1_init_ll_driver_state
 1852              	.LVL169:
1268:D:/Git/VL53L1/lib/core/src\vl53l1_api_core.c **** 			Dev,
1269:D:/Git/VL53L1/lib/core/src\vl53l1_api_core.c **** 			VL53L1_DEVICESTATE_SW_STANDBY);
1270:D:/Git/VL53L1/lib/core/src\vl53l1_api_core.c **** 
1271:D:/Git/VL53L1/lib/core/src\vl53l1_api_core.c **** 	/* apply selected preset */
1272:D:/Git/VL53L1/lib/core/src\vl53l1_api_core.c **** 
1273:D:/Git/VL53L1/lib/core/src\vl53l1_api_core.c **** 	switch (device_preset_mode) {
 1853              		.loc 1 1273 2 is_stmt 1 view .LVU605
 1854 0040 013D     		subs	r5, r5, #1
 1855 0042 252D     		cmp	r5, #37
 1856 0044 00F2B780 		bhi	.L108
 1857 0048 DFE805F0 		tbb	[pc, r5]
 1858              	.L92:
 1859 004c 13       		.byte	(.L104-.L92)/2
 1860 004d 2B       		.byte	(.L103-.L92)/2
 1861 004e 36       		.byte	(.L102-.L92)/2
 1862 004f 41       		.byte	(.L101-.L92)/2
 1863 0050 4C       		.byte	(.L100-.L92)/2
 1864 0051 57       		.byte	(.L99-.L92)/2
 1865 0052 62       		.byte	(.L98-.L92)/2
 1866 0053 6D       		.byte	(.L97-.L92)/2
 1867 0054 B5       		.byte	(.L108-.L92)/2
 1868 0055 B5       		.byte	(.L108-.L92)/2
 1869 0056 B5       		.byte	(.L108-.L92)/2
ARM GAS  C:\Users\Berbardo\AppData\Local\Temp\ccBMvrJ9.s 			page 58


 1870 0057 B5       		.byte	(.L108-.L92)/2
 1871 0058 B5       		.byte	(.L108-.L92)/2
 1872 0059 B5       		.byte	(.L108-.L92)/2
 1873 005a B5       		.byte	(.L108-.L92)/2
 1874 005b B5       		.byte	(.L108-.L92)/2
 1875 005c 78       		.byte	(.L96-.L92)/2
 1876 005d 83       		.byte	(.L95-.L92)/2
 1877 005e B5       		.byte	(.L108-.L92)/2
 1878 005f B5       		.byte	(.L108-.L92)/2
 1879 0060 B5       		.byte	(.L108-.L92)/2
 1880 0061 B5       		.byte	(.L108-.L92)/2
 1881 0062 B5       		.byte	(.L108-.L92)/2
 1882 0063 B5       		.byte	(.L108-.L92)/2
 1883 0064 B5       		.byte	(.L108-.L92)/2
 1884 0065 B5       		.byte	(.L108-.L92)/2
 1885 0066 B5       		.byte	(.L108-.L92)/2
 1886 0067 B5       		.byte	(.L108-.L92)/2
 1887 0068 B5       		.byte	(.L108-.L92)/2
 1888 0069 B5       		.byte	(.L108-.L92)/2
 1889 006a B5       		.byte	(.L108-.L92)/2
 1890 006b B5       		.byte	(.L108-.L92)/2
 1891 006c B5       		.byte	(.L108-.L92)/2
 1892 006d B5       		.byte	(.L108-.L92)/2
 1893 006e B5       		.byte	(.L108-.L92)/2
 1894 006f 8E       		.byte	(.L94-.L92)/2
 1895 0070 9B       		.byte	(.L93-.L92)/2
 1896 0071 A8       		.byte	(.L91-.L92)/2
 1897              		.p2align 1
 1898              	.L104:
1274:D:/Git/VL53L1/lib/core/src\vl53l1_api_core.c **** 
1275:D:/Git/VL53L1/lib/core/src\vl53l1_api_core.c **** 	case VL53L1_DEVICEPRESETMODE_STANDARD_RANGING:
1276:D:/Git/VL53L1/lib/core/src\vl53l1_api_core.c **** 		status = VL53L1_preset_mode_standard_ranging(
 1899              		.loc 1 1276 3 view .LVU606
 1900              		.loc 1 1276 12 is_stmt 0 view .LVU607
 1901 0072 CDF804A0 		str	r10, [sp, #4]
 1902 0076 CDF80090 		str	r9, [sp]
 1903 007a 059B     		ldr	r3, [sp, #20]
 1904 007c 3246     		mov	r2, r6
 1905 007e 4146     		mov	r1, r8
 1906 0080 3846     		mov	r0, r7
 1907 0082 FFF7FEFF 		bl	VL53L1_preset_mode_standard_ranging
 1908              	.LVL170:
1277:D:/Git/VL53L1/lib/core/src\vl53l1_api_core.c **** 					pstatic,
1278:D:/Git/VL53L1/lib/core/src\vl53l1_api_core.c **** 					pgeneral,
1279:D:/Git/VL53L1/lib/core/src\vl53l1_api_core.c **** 					ptiming,
1280:D:/Git/VL53L1/lib/core/src\vl53l1_api_core.c **** 					pdynamic,
1281:D:/Git/VL53L1/lib/core/src\vl53l1_api_core.c **** 					psystem,
1282:D:/Git/VL53L1/lib/core/src\vl53l1_api_core.c **** 					ptuning_parms);
1283:D:/Git/VL53L1/lib/core/src\vl53l1_api_core.c **** 		break;
 1909              		.loc 1 1283 3 is_stmt 1 view .LVU608
 1910              	.L105:
1284:D:/Git/VL53L1/lib/core/src\vl53l1_api_core.c **** 
1285:D:/Git/VL53L1/lib/core/src\vl53l1_api_core.c **** 	case VL53L1_DEVICEPRESETMODE_STANDARD_RANGING_SHORT_RANGE:
1286:D:/Git/VL53L1/lib/core/src\vl53l1_api_core.c **** 		status = VL53L1_preset_mode_standard_ranging_short_range(
1287:D:/Git/VL53L1/lib/core/src\vl53l1_api_core.c **** 					pstatic,
1288:D:/Git/VL53L1/lib/core/src\vl53l1_api_core.c **** 					pgeneral,
1289:D:/Git/VL53L1/lib/core/src\vl53l1_api_core.c **** 					ptiming,
ARM GAS  C:\Users\Berbardo\AppData\Local\Temp\ccBMvrJ9.s 			page 59


1290:D:/Git/VL53L1/lib/core/src\vl53l1_api_core.c **** 					pdynamic,
1291:D:/Git/VL53L1/lib/core/src\vl53l1_api_core.c **** 					psystem,
1292:D:/Git/VL53L1/lib/core/src\vl53l1_api_core.c **** 					ptuning_parms);
1293:D:/Git/VL53L1/lib/core/src\vl53l1_api_core.c **** 		break;
1294:D:/Git/VL53L1/lib/core/src\vl53l1_api_core.c **** 
1295:D:/Git/VL53L1/lib/core/src\vl53l1_api_core.c **** 	case VL53L1_DEVICEPRESETMODE_STANDARD_RANGING_LONG_RANGE:
1296:D:/Git/VL53L1/lib/core/src\vl53l1_api_core.c **** 		status = VL53L1_preset_mode_standard_ranging_long_range(
1297:D:/Git/VL53L1/lib/core/src\vl53l1_api_core.c **** 					pstatic,
1298:D:/Git/VL53L1/lib/core/src\vl53l1_api_core.c **** 					pgeneral,
1299:D:/Git/VL53L1/lib/core/src\vl53l1_api_core.c **** 					ptiming,
1300:D:/Git/VL53L1/lib/core/src\vl53l1_api_core.c **** 					pdynamic,
1301:D:/Git/VL53L1/lib/core/src\vl53l1_api_core.c **** 					psystem,
1302:D:/Git/VL53L1/lib/core/src\vl53l1_api_core.c **** 					ptuning_parms);
1303:D:/Git/VL53L1/lib/core/src\vl53l1_api_core.c **** 		break;
1304:D:/Git/VL53L1/lib/core/src\vl53l1_api_core.c **** 
1305:D:/Git/VL53L1/lib/core/src\vl53l1_api_core.c **** #ifndef VL53L1_NOCALIB
1306:D:/Git/VL53L1/lib/core/src\vl53l1_api_core.c **** 	case VL53L1_DEVICEPRESETMODE_STANDARD_RANGING_MM1_CAL:
1307:D:/Git/VL53L1/lib/core/src\vl53l1_api_core.c **** 		status = VL53L1_preset_mode_standard_ranging_mm1_cal(
1308:D:/Git/VL53L1/lib/core/src\vl53l1_api_core.c **** 					pstatic,
1309:D:/Git/VL53L1/lib/core/src\vl53l1_api_core.c **** 					pgeneral,
1310:D:/Git/VL53L1/lib/core/src\vl53l1_api_core.c **** 					ptiming,
1311:D:/Git/VL53L1/lib/core/src\vl53l1_api_core.c **** 					pdynamic,
1312:D:/Git/VL53L1/lib/core/src\vl53l1_api_core.c **** 					psystem,
1313:D:/Git/VL53L1/lib/core/src\vl53l1_api_core.c **** 					ptuning_parms);
1314:D:/Git/VL53L1/lib/core/src\vl53l1_api_core.c **** 		break;
1315:D:/Git/VL53L1/lib/core/src\vl53l1_api_core.c **** 
1316:D:/Git/VL53L1/lib/core/src\vl53l1_api_core.c **** 	case VL53L1_DEVICEPRESETMODE_STANDARD_RANGING_MM2_CAL:
1317:D:/Git/VL53L1/lib/core/src\vl53l1_api_core.c **** 		status = VL53L1_preset_mode_standard_ranging_mm2_cal(
1318:D:/Git/VL53L1/lib/core/src\vl53l1_api_core.c **** 					pstatic,
1319:D:/Git/VL53L1/lib/core/src\vl53l1_api_core.c **** 					pgeneral,
1320:D:/Git/VL53L1/lib/core/src\vl53l1_api_core.c **** 					ptiming,
1321:D:/Git/VL53L1/lib/core/src\vl53l1_api_core.c **** 					pdynamic,
1322:D:/Git/VL53L1/lib/core/src\vl53l1_api_core.c **** 					psystem,
1323:D:/Git/VL53L1/lib/core/src\vl53l1_api_core.c **** 					ptuning_parms);
1324:D:/Git/VL53L1/lib/core/src\vl53l1_api_core.c **** 		break;
1325:D:/Git/VL53L1/lib/core/src\vl53l1_api_core.c **** #endif
1326:D:/Git/VL53L1/lib/core/src\vl53l1_api_core.c **** 
1327:D:/Git/VL53L1/lib/core/src\vl53l1_api_core.c **** 	case VL53L1_DEVICEPRESETMODE_TIMED_RANGING:
1328:D:/Git/VL53L1/lib/core/src\vl53l1_api_core.c **** 		status = VL53L1_preset_mode_timed_ranging(
1329:D:/Git/VL53L1/lib/core/src\vl53l1_api_core.c **** 					pstatic,
1330:D:/Git/VL53L1/lib/core/src\vl53l1_api_core.c **** 					pgeneral,
1331:D:/Git/VL53L1/lib/core/src\vl53l1_api_core.c **** 					ptiming,
1332:D:/Git/VL53L1/lib/core/src\vl53l1_api_core.c **** 					pdynamic,
1333:D:/Git/VL53L1/lib/core/src\vl53l1_api_core.c **** 					psystem,
1334:D:/Git/VL53L1/lib/core/src\vl53l1_api_core.c **** 					ptuning_parms);
1335:D:/Git/VL53L1/lib/core/src\vl53l1_api_core.c **** 		break;
1336:D:/Git/VL53L1/lib/core/src\vl53l1_api_core.c **** 
1337:D:/Git/VL53L1/lib/core/src\vl53l1_api_core.c **** 	case VL53L1_DEVICEPRESETMODE_TIMED_RANGING_SHORT_RANGE:
1338:D:/Git/VL53L1/lib/core/src\vl53l1_api_core.c **** 		status = VL53L1_preset_mode_timed_ranging_short_range(
1339:D:/Git/VL53L1/lib/core/src\vl53l1_api_core.c **** 					pstatic,
1340:D:/Git/VL53L1/lib/core/src\vl53l1_api_core.c **** 					pgeneral,
1341:D:/Git/VL53L1/lib/core/src\vl53l1_api_core.c **** 					ptiming,
1342:D:/Git/VL53L1/lib/core/src\vl53l1_api_core.c **** 					pdynamic,
1343:D:/Git/VL53L1/lib/core/src\vl53l1_api_core.c **** 					psystem,
1344:D:/Git/VL53L1/lib/core/src\vl53l1_api_core.c **** 					ptuning_parms);
1345:D:/Git/VL53L1/lib/core/src\vl53l1_api_core.c **** 		break;
1346:D:/Git/VL53L1/lib/core/src\vl53l1_api_core.c **** 
ARM GAS  C:\Users\Berbardo\AppData\Local\Temp\ccBMvrJ9.s 			page 60


1347:D:/Git/VL53L1/lib/core/src\vl53l1_api_core.c **** 	case VL53L1_DEVICEPRESETMODE_TIMED_RANGING_LONG_RANGE:
1348:D:/Git/VL53L1/lib/core/src\vl53l1_api_core.c **** 		status = VL53L1_preset_mode_timed_ranging_long_range(
1349:D:/Git/VL53L1/lib/core/src\vl53l1_api_core.c **** 					pstatic,
1350:D:/Git/VL53L1/lib/core/src\vl53l1_api_core.c **** 					pgeneral,
1351:D:/Git/VL53L1/lib/core/src\vl53l1_api_core.c **** 					ptiming,
1352:D:/Git/VL53L1/lib/core/src\vl53l1_api_core.c **** 					pdynamic,
1353:D:/Git/VL53L1/lib/core/src\vl53l1_api_core.c **** 					psystem,
1354:D:/Git/VL53L1/lib/core/src\vl53l1_api_core.c **** 					ptuning_parms);
1355:D:/Git/VL53L1/lib/core/src\vl53l1_api_core.c **** 		break;
1356:D:/Git/VL53L1/lib/core/src\vl53l1_api_core.c **** 
1357:D:/Git/VL53L1/lib/core/src\vl53l1_api_core.c **** 	case VL53L1_DEVICEPRESETMODE_OLT:
1358:D:/Git/VL53L1/lib/core/src\vl53l1_api_core.c **** 		status = VL53L1_preset_mode_olt(
1359:D:/Git/VL53L1/lib/core/src\vl53l1_api_core.c **** 					pstatic,
1360:D:/Git/VL53L1/lib/core/src\vl53l1_api_core.c **** 					pgeneral,
1361:D:/Git/VL53L1/lib/core/src\vl53l1_api_core.c **** 					ptiming,
1362:D:/Git/VL53L1/lib/core/src\vl53l1_api_core.c **** 					pdynamic,
1363:D:/Git/VL53L1/lib/core/src\vl53l1_api_core.c **** 					psystem,
1364:D:/Git/VL53L1/lib/core/src\vl53l1_api_core.c **** 					ptuning_parms);
1365:D:/Git/VL53L1/lib/core/src\vl53l1_api_core.c **** 		break;
1366:D:/Git/VL53L1/lib/core/src\vl53l1_api_core.c **** 
1367:D:/Git/VL53L1/lib/core/src\vl53l1_api_core.c **** 	case VL53L1_DEVICEPRESETMODE_SINGLESHOT_RANGING:
1368:D:/Git/VL53L1/lib/core/src\vl53l1_api_core.c **** 		status = VL53L1_preset_mode_singleshot_ranging(
1369:D:/Git/VL53L1/lib/core/src\vl53l1_api_core.c **** 					pstatic,
1370:D:/Git/VL53L1/lib/core/src\vl53l1_api_core.c **** 					pgeneral,
1371:D:/Git/VL53L1/lib/core/src\vl53l1_api_core.c **** 					ptiming,
1372:D:/Git/VL53L1/lib/core/src\vl53l1_api_core.c **** 					pdynamic,
1373:D:/Git/VL53L1/lib/core/src\vl53l1_api_core.c **** 					psystem,
1374:D:/Git/VL53L1/lib/core/src\vl53l1_api_core.c **** 					ptuning_parms);
1375:D:/Git/VL53L1/lib/core/src\vl53l1_api_core.c **** 		break;
1376:D:/Git/VL53L1/lib/core/src\vl53l1_api_core.c **** 
1377:D:/Git/VL53L1/lib/core/src\vl53l1_api_core.c **** 	case VL53L1_DEVICEPRESETMODE_LOWPOWERAUTO_SHORT_RANGE:
1378:D:/Git/VL53L1/lib/core/src\vl53l1_api_core.c **** 		status = VL53L1_preset_mode_low_power_auto_short_ranging(
1379:D:/Git/VL53L1/lib/core/src\vl53l1_api_core.c **** 					pstatic,
1380:D:/Git/VL53L1/lib/core/src\vl53l1_api_core.c **** 					pgeneral,
1381:D:/Git/VL53L1/lib/core/src\vl53l1_api_core.c **** 					ptiming,
1382:D:/Git/VL53L1/lib/core/src\vl53l1_api_core.c **** 					pdynamic,
1383:D:/Git/VL53L1/lib/core/src\vl53l1_api_core.c **** 					psystem,
1384:D:/Git/VL53L1/lib/core/src\vl53l1_api_core.c **** 					ptuning_parms,
1385:D:/Git/VL53L1/lib/core/src\vl53l1_api_core.c **** 					plpadata);
1386:D:/Git/VL53L1/lib/core/src\vl53l1_api_core.c **** 		break;
1387:D:/Git/VL53L1/lib/core/src\vl53l1_api_core.c **** 
1388:D:/Git/VL53L1/lib/core/src\vl53l1_api_core.c **** 	case VL53L1_DEVICEPRESETMODE_LOWPOWERAUTO_MEDIUM_RANGE:
1389:D:/Git/VL53L1/lib/core/src\vl53l1_api_core.c **** 		status = VL53L1_preset_mode_low_power_auto_ranging(
1390:D:/Git/VL53L1/lib/core/src\vl53l1_api_core.c **** 					pstatic,
1391:D:/Git/VL53L1/lib/core/src\vl53l1_api_core.c **** 					pgeneral,
1392:D:/Git/VL53L1/lib/core/src\vl53l1_api_core.c **** 					ptiming,
1393:D:/Git/VL53L1/lib/core/src\vl53l1_api_core.c **** 					pdynamic,
1394:D:/Git/VL53L1/lib/core/src\vl53l1_api_core.c **** 					psystem,
1395:D:/Git/VL53L1/lib/core/src\vl53l1_api_core.c **** 					ptuning_parms,
1396:D:/Git/VL53L1/lib/core/src\vl53l1_api_core.c **** 					plpadata);
1397:D:/Git/VL53L1/lib/core/src\vl53l1_api_core.c **** 		break;
1398:D:/Git/VL53L1/lib/core/src\vl53l1_api_core.c **** 
1399:D:/Git/VL53L1/lib/core/src\vl53l1_api_core.c **** 	case VL53L1_DEVICEPRESETMODE_LOWPOWERAUTO_LONG_RANGE:
1400:D:/Git/VL53L1/lib/core/src\vl53l1_api_core.c **** 		status = VL53L1_preset_mode_low_power_auto_long_ranging(
1401:D:/Git/VL53L1/lib/core/src\vl53l1_api_core.c **** 					pstatic,
1402:D:/Git/VL53L1/lib/core/src\vl53l1_api_core.c **** 					pgeneral,
1403:D:/Git/VL53L1/lib/core/src\vl53l1_api_core.c **** 					ptiming,
ARM GAS  C:\Users\Berbardo\AppData\Local\Temp\ccBMvrJ9.s 			page 61


1404:D:/Git/VL53L1/lib/core/src\vl53l1_api_core.c **** 					pdynamic,
1405:D:/Git/VL53L1/lib/core/src\vl53l1_api_core.c **** 					psystem,
1406:D:/Git/VL53L1/lib/core/src\vl53l1_api_core.c **** 					ptuning_parms,
1407:D:/Git/VL53L1/lib/core/src\vl53l1_api_core.c **** 					plpadata);
1408:D:/Git/VL53L1/lib/core/src\vl53l1_api_core.c **** 		break;
1409:D:/Git/VL53L1/lib/core/src\vl53l1_api_core.c **** 
1410:D:/Git/VL53L1/lib/core/src\vl53l1_api_core.c **** 	default:
1411:D:/Git/VL53L1/lib/core/src\vl53l1_api_core.c **** 		status = VL53L1_ERROR_INVALID_PARAMS;
1412:D:/Git/VL53L1/lib/core/src\vl53l1_api_core.c **** 		break;
1413:D:/Git/VL53L1/lib/core/src\vl53l1_api_core.c **** 
1414:D:/Git/VL53L1/lib/core/src\vl53l1_api_core.c **** 	}
1415:D:/Git/VL53L1/lib/core/src\vl53l1_api_core.c **** 
1416:D:/Git/VL53L1/lib/core/src\vl53l1_api_core.c **** 	/* update DSS target */
1417:D:/Git/VL53L1/lib/core/src\vl53l1_api_core.c **** 
1418:D:/Git/VL53L1/lib/core/src\vl53l1_api_core.c **** 	if (status == VL53L1_ERROR_NONE) {
 1911              		.loc 1 1418 2 view .LVU609
 1912              		.loc 1 1418 5 is_stmt 0 view .LVU610
 1913 0086 18B9     		cbnz	r0, .L90
1419:D:/Git/VL53L1/lib/core/src\vl53l1_api_core.c **** 
1420:D:/Git/VL53L1/lib/core/src\vl53l1_api_core.c **** 		pstatic->dss_config__target_total_rate_mcps =
 1914              		.loc 1 1420 3 is_stmt 1 view .LVU611
 1915              		.loc 1 1420 47 is_stmt 0 view .LVU612
 1916 0088 069B     		ldr	r3, [sp, #24]
 1917 008a A4F86431 		strh	r3, [r4, #356]	@ movhi
1421:D:/Git/VL53L1/lib/core/src\vl53l1_api_core.c **** 				dss_config__target_total_rate_mcps;
1422:D:/Git/VL53L1/lib/core/src\vl53l1_api_core.c **** 		pdev->dss_config__target_total_rate_mcps    =
 1918              		.loc 1 1422 3 is_stmt 1 view .LVU613
 1919              		.loc 1 1422 47 is_stmt 0 view .LVU614
 1920 008e 2383     		strh	r3, [r4, #24]	@ movhi
 1921              	.LVL171:
 1922              	.L90:
1423:D:/Git/VL53L1/lib/core/src\vl53l1_api_core.c **** 				dss_config__target_total_rate_mcps;
1424:D:/Git/VL53L1/lib/core/src\vl53l1_api_core.c **** 
1425:D:/Git/VL53L1/lib/core/src\vl53l1_api_core.c **** 	}
1426:D:/Git/VL53L1/lib/core/src\vl53l1_api_core.c **** 
1427:D:/Git/VL53L1/lib/core/src\vl53l1_api_core.c **** 	/*
1428:D:/Git/VL53L1/lib/core/src\vl53l1_api_core.c **** 	 * Update the register timeout values based on input
1429:D:/Git/VL53L1/lib/core/src\vl53l1_api_core.c **** 	 * real time values and preset mode VCSEL periods
1430:D:/Git/VL53L1/lib/core/src\vl53l1_api_core.c **** 	 */
1431:D:/Git/VL53L1/lib/core/src\vl53l1_api_core.c **** 
1432:D:/Git/VL53L1/lib/core/src\vl53l1_api_core.c **** 	if (status == VL53L1_ERROR_NONE)
 1923              		.loc 1 1432 2 is_stmt 1 view .LVU615
 1924              		.loc 1 1432 5 is_stmt 0 view .LVU616
 1925 0090 0028     		cmp	r0, #0
 1926 0092 00F09380 		beq	.L110
 1927              	.L106:
 1928              	.LVL172:
1433:D:/Git/VL53L1/lib/core/src\vl53l1_api_core.c **** 		status =
1434:D:/Git/VL53L1/lib/core/src\vl53l1_api_core.c **** 			VL53L1_set_timeouts_us(
1435:D:/Git/VL53L1/lib/core/src\vl53l1_api_core.c **** 				Dev,
1436:D:/Git/VL53L1/lib/core/src\vl53l1_api_core.c **** 				phasecal_config_timeout_us,
1437:D:/Git/VL53L1/lib/core/src\vl53l1_api_core.c **** 				mm_config_timeout_us,
1438:D:/Git/VL53L1/lib/core/src\vl53l1_api_core.c **** 				range_config_timeout_us);
1439:D:/Git/VL53L1/lib/core/src\vl53l1_api_core.c **** 
1440:D:/Git/VL53L1/lib/core/src\vl53l1_api_core.c **** 	if (status == VL53L1_ERROR_NONE)
 1929              		.loc 1 1440 2 is_stmt 1 view .LVU617
 1930              		.loc 1 1440 5 is_stmt 0 view .LVU618
ARM GAS  C:\Users\Berbardo\AppData\Local\Temp\ccBMvrJ9.s 			page 62


 1931 0096 0028     		cmp	r0, #0
 1932 0098 00F09780 		beq	.L111
 1933              	.L107:
1441:D:/Git/VL53L1/lib/core/src\vl53l1_api_core.c **** 		status =
1442:D:/Git/VL53L1/lib/core/src\vl53l1_api_core.c **** 			VL53L1_set_inter_measurement_period_ms(
1443:D:/Git/VL53L1/lib/core/src\vl53l1_api_core.c **** 				Dev,
1444:D:/Git/VL53L1/lib/core/src\vl53l1_api_core.c **** 				inter_measurement_period_ms);
1445:D:/Git/VL53L1/lib/core/src\vl53l1_api_core.c **** 
1446:D:/Git/VL53L1/lib/core/src\vl53l1_api_core.c **** 	LOG_FUNCTION_END(status);
 1934              		.loc 1 1446 26 is_stmt 1 view .LVU619
1447:D:/Git/VL53L1/lib/core/src\vl53l1_api_core.c **** 
1448:D:/Git/VL53L1/lib/core/src\vl53l1_api_core.c **** 	return status;
 1935              		.loc 1 1448 2 view .LVU620
1449:D:/Git/VL53L1/lib/core/src\vl53l1_api_core.c **** }
 1936              		.loc 1 1449 1 is_stmt 0 view .LVU621
 1937 009c 09B0     		add	sp, sp, #36
 1938              		.cfi_remember_state
 1939              		.cfi_def_cfa_offset 36
 1940              		@ sp needed
 1941 009e BDE8F08F 		pop	{r4, r5, r6, r7, r8, r9, r10, fp, pc}
 1942              	.LVL173:
 1943              	.L103:
 1944              		.cfi_restore_state
1286:D:/Git/VL53L1/lib/core/src\vl53l1_api_core.c **** 					pstatic,
 1945              		.loc 1 1286 3 is_stmt 1 view .LVU622
1286:D:/Git/VL53L1/lib/core/src\vl53l1_api_core.c **** 					pstatic,
 1946              		.loc 1 1286 12 is_stmt 0 view .LVU623
 1947 00a2 CDF804A0 		str	r10, [sp, #4]
 1948 00a6 CDF80090 		str	r9, [sp]
 1949 00aa 059B     		ldr	r3, [sp, #20]
 1950 00ac 3246     		mov	r2, r6
 1951 00ae 4146     		mov	r1, r8
 1952 00b0 3846     		mov	r0, r7
 1953 00b2 FFF7FEFF 		bl	VL53L1_preset_mode_standard_ranging_short_range
 1954              	.LVL174:
1293:D:/Git/VL53L1/lib/core/src\vl53l1_api_core.c **** 
 1955              		.loc 1 1293 3 is_stmt 1 view .LVU624
 1956 00b6 E6E7     		b	.L105
 1957              	.LVL175:
 1958              	.L102:
1296:D:/Git/VL53L1/lib/core/src\vl53l1_api_core.c **** 					pstatic,
 1959              		.loc 1 1296 3 view .LVU625
1296:D:/Git/VL53L1/lib/core/src\vl53l1_api_core.c **** 					pstatic,
 1960              		.loc 1 1296 12 is_stmt 0 view .LVU626
 1961 00b8 CDF804A0 		str	r10, [sp, #4]
 1962 00bc CDF80090 		str	r9, [sp]
 1963 00c0 059B     		ldr	r3, [sp, #20]
 1964 00c2 3246     		mov	r2, r6
 1965 00c4 4146     		mov	r1, r8
 1966 00c6 3846     		mov	r0, r7
 1967 00c8 FFF7FEFF 		bl	VL53L1_preset_mode_standard_ranging_long_range
 1968              	.LVL176:
1303:D:/Git/VL53L1/lib/core/src\vl53l1_api_core.c **** 
 1969              		.loc 1 1303 3 is_stmt 1 view .LVU627
 1970 00cc DBE7     		b	.L105
 1971              	.LVL177:
 1972              	.L101:
ARM GAS  C:\Users\Berbardo\AppData\Local\Temp\ccBMvrJ9.s 			page 63


1307:D:/Git/VL53L1/lib/core/src\vl53l1_api_core.c **** 					pstatic,
 1973              		.loc 1 1307 3 view .LVU628
1307:D:/Git/VL53L1/lib/core/src\vl53l1_api_core.c **** 					pstatic,
 1974              		.loc 1 1307 12 is_stmt 0 view .LVU629
 1975 00ce CDF804A0 		str	r10, [sp, #4]
 1976 00d2 CDF80090 		str	r9, [sp]
 1977 00d6 059B     		ldr	r3, [sp, #20]
 1978 00d8 3246     		mov	r2, r6
 1979 00da 4146     		mov	r1, r8
 1980 00dc 3846     		mov	r0, r7
 1981 00de FFF7FEFF 		bl	VL53L1_preset_mode_standard_ranging_mm1_cal
 1982              	.LVL178:
1314:D:/Git/VL53L1/lib/core/src\vl53l1_api_core.c **** 
 1983              		.loc 1 1314 3 is_stmt 1 view .LVU630
 1984 00e2 D0E7     		b	.L105
 1985              	.LVL179:
 1986              	.L100:
1317:D:/Git/VL53L1/lib/core/src\vl53l1_api_core.c **** 					pstatic,
 1987              		.loc 1 1317 3 view .LVU631
1317:D:/Git/VL53L1/lib/core/src\vl53l1_api_core.c **** 					pstatic,
 1988              		.loc 1 1317 12 is_stmt 0 view .LVU632
 1989 00e4 CDF804A0 		str	r10, [sp, #4]
 1990 00e8 CDF80090 		str	r9, [sp]
 1991 00ec 059B     		ldr	r3, [sp, #20]
 1992 00ee 3246     		mov	r2, r6
 1993 00f0 4146     		mov	r1, r8
 1994 00f2 3846     		mov	r0, r7
 1995 00f4 FFF7FEFF 		bl	VL53L1_preset_mode_standard_ranging_mm2_cal
 1996              	.LVL180:
1324:D:/Git/VL53L1/lib/core/src\vl53l1_api_core.c **** #endif
 1997              		.loc 1 1324 3 is_stmt 1 view .LVU633
 1998 00f8 C5E7     		b	.L105
 1999              	.LVL181:
 2000              	.L99:
1328:D:/Git/VL53L1/lib/core/src\vl53l1_api_core.c **** 					pstatic,
 2001              		.loc 1 1328 3 view .LVU634
1328:D:/Git/VL53L1/lib/core/src\vl53l1_api_core.c **** 					pstatic,
 2002              		.loc 1 1328 12 is_stmt 0 view .LVU635
 2003 00fa CDF804A0 		str	r10, [sp, #4]
 2004 00fe CDF80090 		str	r9, [sp]
 2005 0102 059B     		ldr	r3, [sp, #20]
 2006 0104 3246     		mov	r2, r6
 2007 0106 4146     		mov	r1, r8
 2008 0108 3846     		mov	r0, r7
 2009 010a FFF7FEFF 		bl	VL53L1_preset_mode_timed_ranging
 2010              	.LVL182:
1335:D:/Git/VL53L1/lib/core/src\vl53l1_api_core.c **** 
 2011              		.loc 1 1335 3 is_stmt 1 view .LVU636
 2012 010e BAE7     		b	.L105
 2013              	.LVL183:
 2014              	.L98:
1338:D:/Git/VL53L1/lib/core/src\vl53l1_api_core.c **** 					pstatic,
 2015              		.loc 1 1338 3 view .LVU637
1338:D:/Git/VL53L1/lib/core/src\vl53l1_api_core.c **** 					pstatic,
 2016              		.loc 1 1338 12 is_stmt 0 view .LVU638
 2017 0110 CDF804A0 		str	r10, [sp, #4]
 2018 0114 CDF80090 		str	r9, [sp]
ARM GAS  C:\Users\Berbardo\AppData\Local\Temp\ccBMvrJ9.s 			page 64


 2019 0118 059B     		ldr	r3, [sp, #20]
 2020 011a 3246     		mov	r2, r6
 2021 011c 4146     		mov	r1, r8
 2022 011e 3846     		mov	r0, r7
 2023 0120 FFF7FEFF 		bl	VL53L1_preset_mode_timed_ranging_short_range
 2024              	.LVL184:
1345:D:/Git/VL53L1/lib/core/src\vl53l1_api_core.c **** 
 2025              		.loc 1 1345 3 is_stmt 1 view .LVU639
 2026 0124 AFE7     		b	.L105
 2027              	.LVL185:
 2028              	.L97:
1348:D:/Git/VL53L1/lib/core/src\vl53l1_api_core.c **** 					pstatic,
 2029              		.loc 1 1348 3 view .LVU640
1348:D:/Git/VL53L1/lib/core/src\vl53l1_api_core.c **** 					pstatic,
 2030              		.loc 1 1348 12 is_stmt 0 view .LVU641
 2031 0126 CDF804A0 		str	r10, [sp, #4]
 2032 012a CDF80090 		str	r9, [sp]
 2033 012e 059B     		ldr	r3, [sp, #20]
 2034 0130 3246     		mov	r2, r6
 2035 0132 4146     		mov	r1, r8
 2036 0134 3846     		mov	r0, r7
 2037 0136 FFF7FEFF 		bl	VL53L1_preset_mode_timed_ranging_long_range
 2038              	.LVL186:
1355:D:/Git/VL53L1/lib/core/src\vl53l1_api_core.c **** 
 2039              		.loc 1 1355 3 is_stmt 1 view .LVU642
 2040 013a A4E7     		b	.L105
 2041              	.LVL187:
 2042              	.L96:
1358:D:/Git/VL53L1/lib/core/src\vl53l1_api_core.c **** 					pstatic,
 2043              		.loc 1 1358 3 view .LVU643
1358:D:/Git/VL53L1/lib/core/src\vl53l1_api_core.c **** 					pstatic,
 2044              		.loc 1 1358 12 is_stmt 0 view .LVU644
 2045 013c CDF804A0 		str	r10, [sp, #4]
 2046 0140 CDF80090 		str	r9, [sp]
 2047 0144 059B     		ldr	r3, [sp, #20]
 2048 0146 3246     		mov	r2, r6
 2049 0148 4146     		mov	r1, r8
 2050 014a 3846     		mov	r0, r7
 2051 014c FFF7FEFF 		bl	VL53L1_preset_mode_olt
 2052              	.LVL188:
1365:D:/Git/VL53L1/lib/core/src\vl53l1_api_core.c **** 
 2053              		.loc 1 1365 3 is_stmt 1 view .LVU645
 2054 0150 99E7     		b	.L105
 2055              	.LVL189:
 2056              	.L95:
1368:D:/Git/VL53L1/lib/core/src\vl53l1_api_core.c **** 					pstatic,
 2057              		.loc 1 1368 3 view .LVU646
1368:D:/Git/VL53L1/lib/core/src\vl53l1_api_core.c **** 					pstatic,
 2058              		.loc 1 1368 12 is_stmt 0 view .LVU647
 2059 0152 CDF804A0 		str	r10, [sp, #4]
 2060 0156 CDF80090 		str	r9, [sp]
 2061 015a 059B     		ldr	r3, [sp, #20]
 2062 015c 3246     		mov	r2, r6
 2063 015e 4146     		mov	r1, r8
 2064 0160 3846     		mov	r0, r7
 2065 0162 FFF7FEFF 		bl	VL53L1_preset_mode_singleshot_ranging
 2066              	.LVL190:
ARM GAS  C:\Users\Berbardo\AppData\Local\Temp\ccBMvrJ9.s 			page 65


1375:D:/Git/VL53L1/lib/core/src\vl53l1_api_core.c **** 
 2067              		.loc 1 1375 3 is_stmt 1 view .LVU648
 2068 0166 8EE7     		b	.L105
 2069              	.LVL191:
 2070              	.L94:
1378:D:/Git/VL53L1/lib/core/src\vl53l1_api_core.c **** 					pstatic,
 2071              		.loc 1 1378 3 view .LVU649
1378:D:/Git/VL53L1/lib/core/src\vl53l1_api_core.c **** 					pstatic,
 2072              		.loc 1 1378 12 is_stmt 0 view .LVU650
 2073 0168 CDF808B0 		str	fp, [sp, #8]
 2074 016c CDF804A0 		str	r10, [sp, #4]
 2075 0170 CDF80090 		str	r9, [sp]
 2076 0174 059B     		ldr	r3, [sp, #20]
 2077 0176 3246     		mov	r2, r6
 2078 0178 4146     		mov	r1, r8
 2079 017a 3846     		mov	r0, r7
 2080 017c FFF7FEFF 		bl	VL53L1_preset_mode_low_power_auto_short_ranging
 2081              	.LVL192:
1386:D:/Git/VL53L1/lib/core/src\vl53l1_api_core.c **** 
 2082              		.loc 1 1386 3 is_stmt 1 view .LVU651
 2083 0180 81E7     		b	.L105
 2084              	.LVL193:
 2085              	.L93:
1389:D:/Git/VL53L1/lib/core/src\vl53l1_api_core.c **** 					pstatic,
 2086              		.loc 1 1389 3 view .LVU652
1389:D:/Git/VL53L1/lib/core/src\vl53l1_api_core.c **** 					pstatic,
 2087              		.loc 1 1389 12 is_stmt 0 view .LVU653
 2088 0182 CDF808B0 		str	fp, [sp, #8]
 2089 0186 CDF804A0 		str	r10, [sp, #4]
 2090 018a CDF80090 		str	r9, [sp]
 2091 018e 059B     		ldr	r3, [sp, #20]
 2092 0190 3246     		mov	r2, r6
 2093 0192 4146     		mov	r1, r8
 2094 0194 3846     		mov	r0, r7
 2095 0196 FFF7FEFF 		bl	VL53L1_preset_mode_low_power_auto_ranging
 2096              	.LVL194:
1397:D:/Git/VL53L1/lib/core/src\vl53l1_api_core.c **** 
 2097              		.loc 1 1397 3 is_stmt 1 view .LVU654
 2098 019a 74E7     		b	.L105
 2099              	.LVL195:
 2100              	.L91:
1400:D:/Git/VL53L1/lib/core/src\vl53l1_api_core.c **** 					pstatic,
 2101              		.loc 1 1400 3 view .LVU655
1400:D:/Git/VL53L1/lib/core/src\vl53l1_api_core.c **** 					pstatic,
 2102              		.loc 1 1400 12 is_stmt 0 view .LVU656
 2103 019c CDF808B0 		str	fp, [sp, #8]
 2104 01a0 CDF804A0 		str	r10, [sp, #4]
 2105 01a4 CDF80090 		str	r9, [sp]
 2106 01a8 059B     		ldr	r3, [sp, #20]
 2107 01aa 3246     		mov	r2, r6
 2108 01ac 4146     		mov	r1, r8
 2109 01ae 3846     		mov	r0, r7
 2110 01b0 FFF7FEFF 		bl	VL53L1_preset_mode_low_power_auto_long_ranging
 2111              	.LVL196:
1408:D:/Git/VL53L1/lib/core/src\vl53l1_api_core.c **** 
 2112              		.loc 1 1408 3 is_stmt 1 view .LVU657
 2113 01b4 67E7     		b	.L105
ARM GAS  C:\Users\Berbardo\AppData\Local\Temp\ccBMvrJ9.s 			page 66


 2114              	.LVL197:
 2115              	.L108:
1411:D:/Git/VL53L1/lib/core/src\vl53l1_api_core.c **** 		break;
 2116              		.loc 1 1411 10 is_stmt 0 view .LVU658
 2117 01b6 6FF00300 		mvn	r0, #3
 2118 01ba 69E7     		b	.L90
 2119              	.LVL198:
 2120              	.L110:
1433:D:/Git/VL53L1/lib/core/src\vl53l1_api_core.c **** 			VL53L1_set_timeouts_us(
 2121              		.loc 1 1433 3 is_stmt 1 view .LVU659
1434:D:/Git/VL53L1/lib/core/src\vl53l1_api_core.c **** 				Dev,
 2122              		.loc 1 1434 4 is_stmt 0 view .LVU660
 2123 01bc 139B     		ldr	r3, [sp, #76]
 2124 01be 129A     		ldr	r2, [sp, #72]
 2125 01c0 0799     		ldr	r1, [sp, #28]
 2126 01c2 2046     		mov	r0, r4
 2127 01c4 FFF7FEFF 		bl	VL53L1_set_timeouts_us
 2128              	.LVL199:
1434:D:/Git/VL53L1/lib/core/src\vl53l1_api_core.c **** 				Dev,
 2129              		.loc 1 1434 4 view .LVU661
 2130 01c8 65E7     		b	.L106
 2131              	.L111:
1441:D:/Git/VL53L1/lib/core/src\vl53l1_api_core.c **** 			VL53L1_set_inter_measurement_period_ms(
 2132              		.loc 1 1441 3 is_stmt 1 view .LVU662
1442:D:/Git/VL53L1/lib/core/src\vl53l1_api_core.c **** 				Dev,
 2133              		.loc 1 1442 4 is_stmt 0 view .LVU663
 2134 01ca 1499     		ldr	r1, [sp, #80]
 2135 01cc 2046     		mov	r0, r4
 2136              	.LVL200:
1442:D:/Git/VL53L1/lib/core/src\vl53l1_api_core.c **** 				Dev,
 2137              		.loc 1 1442 4 view .LVU664
 2138 01ce FFF7FEFF 		bl	VL53L1_set_inter_measurement_period_ms
 2139              	.LVL201:
1442:D:/Git/VL53L1/lib/core/src\vl53l1_api_core.c **** 				Dev,
 2140              		.loc 1 1442 4 view .LVU665
 2141 01d2 63E7     		b	.L107
 2142              		.cfi_endproc
 2143              	.LFE149:
 2145              		.section	.text.VL53L1_enable_xtalk_compensation,"ax",%progbits
 2146              		.align	1
 2147              		.global	VL53L1_enable_xtalk_compensation
 2148              		.syntax unified
 2149              		.thumb
 2150              		.thumb_func
 2151              		.fpu fpv4-sp-d16
 2153              	VL53L1_enable_xtalk_compensation:
 2154              	.LVL202:
 2155              	.LFB150:
1450:D:/Git/VL53L1/lib/core/src\vl53l1_api_core.c **** 
1451:D:/Git/VL53L1/lib/core/src\vl53l1_api_core.c **** 
1452:D:/Git/VL53L1/lib/core/src\vl53l1_api_core.c **** VL53L1_Error  VL53L1_enable_xtalk_compensation(
1453:D:/Git/VL53L1/lib/core/src\vl53l1_api_core.c **** 	VL53L1_DEV                 Dev)
1454:D:/Git/VL53L1/lib/core/src\vl53l1_api_core.c **** {
 2156              		.loc 1 1454 1 is_stmt 1 view -0
 2157              		.cfi_startproc
 2158              		@ args = 0, pretend = 0, frame = 0
 2159              		@ frame_needed = 0, uses_anonymous_args = 0
ARM GAS  C:\Users\Berbardo\AppData\Local\Temp\ccBMvrJ9.s 			page 67


 2160              		.loc 1 1454 1 is_stmt 0 view .LVU667
 2161 0000 10B5     		push	{r4, lr}
 2162              		.cfi_def_cfa_offset 8
 2163              		.cfi_offset 4, -8
 2164              		.cfi_offset 14, -4
 2165 0002 0446     		mov	r4, r0
1455:D:/Git/VL53L1/lib/core/src\vl53l1_api_core.c **** 	/**
1456:D:/Git/VL53L1/lib/core/src\vl53l1_api_core.c **** 	 * Currently a very simple function to copy
1457:D:/Git/VL53L1/lib/core/src\vl53l1_api_core.c **** 	 * private xtalk parms into customer section and apply to device
1458:D:/Git/VL53L1/lib/core/src\vl53l1_api_core.c **** 	 *
1459:D:/Git/VL53L1/lib/core/src\vl53l1_api_core.c **** 	 */
1460:D:/Git/VL53L1/lib/core/src\vl53l1_api_core.c **** 
1461:D:/Git/VL53L1/lib/core/src\vl53l1_api_core.c **** 	VL53L1_Error status = VL53L1_ERROR_NONE;
 2166              		.loc 1 1461 2 is_stmt 1 view .LVU668
 2167              	.LVL203:
1462:D:/Git/VL53L1/lib/core/src\vl53l1_api_core.c **** 	uint32_t tempu32;
 2168              		.loc 1 1462 2 view .LVU669
1463:D:/Git/VL53L1/lib/core/src\vl53l1_api_core.c **** 
1464:D:/Git/VL53L1/lib/core/src\vl53l1_api_core.c **** 	VL53L1_LLDriverData_t *pdev = VL53L1DevStructGetLLDriverHandle(Dev);
 2169              		.loc 1 1464 2 view .LVU670
1465:D:/Git/VL53L1/lib/core/src\vl53l1_api_core.c **** 
1466:D:/Git/VL53L1/lib/core/src\vl53l1_api_core.c **** 	LOG_FUNCTION_START("");
 2170              		.loc 1 1466 24 view .LVU671
1467:D:/Git/VL53L1/lib/core/src\vl53l1_api_core.c **** 
1468:D:/Git/VL53L1/lib/core/src\vl53l1_api_core.c **** 	/* Fill Public customer NVM data with Xtalk parms */
1469:D:/Git/VL53L1/lib/core/src\vl53l1_api_core.c **** 	tempu32 = VL53L1_calc_crosstalk_plane_offset_with_margin(
 2171              		.loc 1 1469 2 view .LVU672
 2172              		.loc 1 1469 12 is_stmt 0 view .LVU673
 2173 0004 B0F93E11 		ldrsh	r1, [r0, #318]
 2174 0008 D0F82C01 		ldr	r0, [r0, #300]
 2175              	.LVL204:
 2176              		.loc 1 1469 12 view .LVU674
 2177 000c FFF7FEFF 		bl	VL53L1_calc_crosstalk_plane_offset_with_margin
 2178              	.LVL205:
1470:D:/Git/VL53L1/lib/core/src\vl53l1_api_core.c **** 		pdev->xtalk_cfg.algo__crosstalk_compensation_plane_offset_kcps,
1471:D:/Git/VL53L1/lib/core/src\vl53l1_api_core.c **** 		pdev->xtalk_cfg.lite_mode_crosstalk_margin_kcps);
1472:D:/Git/VL53L1/lib/core/src\vl53l1_api_core.c **** 	if (tempu32 > 0xFFFF) {
 2179              		.loc 1 1472 2 is_stmt 1 view .LVU675
 2180              		.loc 1 1472 5 is_stmt 0 view .LVU676
 2181 0010 B0F5803F 		cmp	r0, #65536
 2182 0014 01D3     		bcc	.L113
1473:D:/Git/VL53L1/lib/core/src\vl53l1_api_core.c **** 		tempu32 = 0xFFFF;
 2183              		.loc 1 1473 11 view .LVU677
 2184 0016 4FF6FF70 		movw	r0, #65535
 2185              	.LVL206:
 2186              	.L113:
1474:D:/Git/VL53L1/lib/core/src\vl53l1_api_core.c **** 	}
1475:D:/Git/VL53L1/lib/core/src\vl53l1_api_core.c **** 	pdev->customer.algo__crosstalk_compensation_plane_offset_kcps =
 2187              		.loc 1 1475 2 is_stmt 1 view .LVU678
 2188              		.loc 1 1475 64 is_stmt 0 view .LVU679
 2189 001a A4F84C00 		strh	r0, [r4, #76]	@ movhi
1476:D:/Git/VL53L1/lib/core/src\vl53l1_api_core.c **** 		(uint16_t)tempu32;
1477:D:/Git/VL53L1/lib/core/src\vl53l1_api_core.c **** 
1478:D:/Git/VL53L1/lib/core/src\vl53l1_api_core.c **** 	pdev->customer.algo__crosstalk_compensation_x_plane_gradient_kcps =
 2190              		.loc 1 1478 2 is_stmt 1 view .LVU680
1479:D:/Git/VL53L1/lib/core/src\vl53l1_api_core.c **** 		pdev->xtalk_cfg.algo__crosstalk_compensation_x_plane_gradient_kcps;
 2191              		.loc 1 1479 18 is_stmt 0 view .LVU681
ARM GAS  C:\Users\Berbardo\AppData\Local\Temp\ccBMvrJ9.s 			page 68


 2192 001e B4F93011 		ldrsh	r1, [r4, #304]
1478:D:/Git/VL53L1/lib/core/src\vl53l1_api_core.c **** 		pdev->xtalk_cfg.algo__crosstalk_compensation_x_plane_gradient_kcps;
 2193              		.loc 1 1478 68 view .LVU682
 2194 0022 A4F84E10 		strh	r1, [r4, #78]	@ movhi
1480:D:/Git/VL53L1/lib/core/src\vl53l1_api_core.c **** 
1481:D:/Git/VL53L1/lib/core/src\vl53l1_api_core.c **** 	pdev->customer.algo__crosstalk_compensation_y_plane_gradient_kcps =
 2195              		.loc 1 1481 2 is_stmt 1 view .LVU683
1482:D:/Git/VL53L1/lib/core/src\vl53l1_api_core.c **** 		pdev->xtalk_cfg.algo__crosstalk_compensation_y_plane_gradient_kcps;
 2196              		.loc 1 1482 18 is_stmt 0 view .LVU684
 2197 0026 B4F93221 		ldrsh	r2, [r4, #306]
1481:D:/Git/VL53L1/lib/core/src\vl53l1_api_core.c **** 		pdev->xtalk_cfg.algo__crosstalk_compensation_y_plane_gradient_kcps;
 2198              		.loc 1 1481 68 view .LVU685
 2199 002a A4F85020 		strh	r2, [r4, #80]	@ movhi
1483:D:/Git/VL53L1/lib/core/src\vl53l1_api_core.c **** 
1484:D:/Git/VL53L1/lib/core/src\vl53l1_api_core.c **** 	/* Enable Xtalk compensation */
1485:D:/Git/VL53L1/lib/core/src\vl53l1_api_core.c **** 	pdev->xtalk_cfg.global_crosstalk_compensation_enable = 0x01;
 2200              		.loc 1 1485 2 is_stmt 1 view .LVU686
 2201              		.loc 1 1485 55 is_stmt 0 view .LVU687
 2202 002e 0123     		movs	r3, #1
 2203 0030 84F83C31 		strb	r3, [r4, #316]
1486:D:/Git/VL53L1/lib/core/src\vl53l1_api_core.c **** 
1487:D:/Git/VL53L1/lib/core/src\vl53l1_api_core.c **** 	/* Update Range Ignore Threshold Xtalk Parameter */
1488:D:/Git/VL53L1/lib/core/src\vl53l1_api_core.c **** 
1489:D:/Git/VL53L1/lib/core/src\vl53l1_api_core.c **** 	if (status == VL53L1_ERROR_NONE) {
 2204              		.loc 1 1489 2 is_stmt 1 view .LVU688
1490:D:/Git/VL53L1/lib/core/src\vl53l1_api_core.c **** 		pdev->xtalk_cfg.crosstalk_range_ignore_threshold_rate_mcps =
 2205              		.loc 1 1490 3 view .LVU689
1491:D:/Git/VL53L1/lib/core/src\vl53l1_api_core.c **** 			VL53L1_calc_range_ignore_threshold(
 2206              		.loc 1 1491 4 is_stmt 0 view .LVU690
 2207 0034 94F84031 		ldrb	r3, [r4, #320]	@ zero_extendqisi2
 2208 0038 D4F82C01 		ldr	r0, [r4, #300]
 2209              	.LVL207:
 2210              		.loc 1 1491 4 view .LVU691
 2211 003c FFF7FEFF 		bl	VL53L1_calc_range_ignore_threshold
 2212              	.LVL208:
1490:D:/Git/VL53L1/lib/core/src\vl53l1_api_core.c **** 		pdev->xtalk_cfg.crosstalk_range_ignore_threshold_rate_mcps =
 2213              		.loc 1 1490 62 view .LVU692
 2214 0040 A4F84201 		strh	r0, [r4, #322]	@ movhi
1492:D:/Git/VL53L1/lib/core/src\vl53l1_api_core.c **** 				pdev->xtalk_cfg.algo__crosstalk_compensation_plane_offset_kcps,
1493:D:/Git/VL53L1/lib/core/src\vl53l1_api_core.c **** 				pdev->xtalk_cfg.algo__crosstalk_compensation_x_plane_gradient_kcps,
1494:D:/Git/VL53L1/lib/core/src\vl53l1_api_core.c **** 				pdev->xtalk_cfg.algo__crosstalk_compensation_y_plane_gradient_kcps,
1495:D:/Git/VL53L1/lib/core/src\vl53l1_api_core.c **** 				pdev->xtalk_cfg.crosstalk_range_ignore_threshold_mult);
1496:D:/Git/VL53L1/lib/core/src\vl53l1_api_core.c **** 	}
1497:D:/Git/VL53L1/lib/core/src\vl53l1_api_core.c **** 
1498:D:/Git/VL53L1/lib/core/src\vl53l1_api_core.c **** 	/* Apply to device */
1499:D:/Git/VL53L1/lib/core/src\vl53l1_api_core.c **** 
1500:D:/Git/VL53L1/lib/core/src\vl53l1_api_core.c **** 	if (status == VL53L1_ERROR_NONE) /*lint !e774 always true*/
 2215              		.loc 1 1500 2 is_stmt 1 view .LVU693
1501:D:/Git/VL53L1/lib/core/src\vl53l1_api_core.c **** 		status =
 2216              		.loc 1 1501 3 view .LVU694
1502:D:/Git/VL53L1/lib/core/src\vl53l1_api_core.c **** 			VL53L1_set_customer_nvm_managed(
 2217              		.loc 1 1502 4 is_stmt 0 view .LVU695
 2218 0044 04F14201 		add	r1, r4, #66
 2219 0048 2046     		mov	r0, r4
 2220 004a FFF7FEFF 		bl	VL53L1_set_customer_nvm_managed
 2221              	.LVL209:
1503:D:/Git/VL53L1/lib/core/src\vl53l1_api_core.c **** 				Dev,
ARM GAS  C:\Users\Berbardo\AppData\Local\Temp\ccBMvrJ9.s 			page 69


1504:D:/Git/VL53L1/lib/core/src\vl53l1_api_core.c **** 				&(pdev->customer));
1505:D:/Git/VL53L1/lib/core/src\vl53l1_api_core.c **** 
1506:D:/Git/VL53L1/lib/core/src\vl53l1_api_core.c **** 	LOG_FUNCTION_END(status);
 2222              		.loc 1 1506 26 is_stmt 1 view .LVU696
1507:D:/Git/VL53L1/lib/core/src\vl53l1_api_core.c **** 
1508:D:/Git/VL53L1/lib/core/src\vl53l1_api_core.c **** 	return status;
 2223              		.loc 1 1508 2 view .LVU697
1509:D:/Git/VL53L1/lib/core/src\vl53l1_api_core.c **** 
1510:D:/Git/VL53L1/lib/core/src\vl53l1_api_core.c **** }
 2224              		.loc 1 1510 1 is_stmt 0 view .LVU698
 2225 004e 10BD     		pop	{r4, pc}
 2226              		.loc 1 1510 1 view .LVU699
 2227              		.cfi_endproc
 2228              	.LFE150:
 2230              		.section	.text.VL53L1_get_xtalk_compensation_enable,"ax",%progbits
 2231              		.align	1
 2232              		.global	VL53L1_get_xtalk_compensation_enable
 2233              		.syntax unified
 2234              		.thumb
 2235              		.thumb_func
 2236              		.fpu fpv4-sp-d16
 2238              	VL53L1_get_xtalk_compensation_enable:
 2239              	.LVL210:
 2240              	.LFB151:
1511:D:/Git/VL53L1/lib/core/src\vl53l1_api_core.c **** 
1512:D:/Git/VL53L1/lib/core/src\vl53l1_api_core.c **** void VL53L1_get_xtalk_compensation_enable(
1513:D:/Git/VL53L1/lib/core/src\vl53l1_api_core.c **** 	VL53L1_DEV    Dev,
1514:D:/Git/VL53L1/lib/core/src\vl53l1_api_core.c **** 	uint8_t       *pcrosstalk_compensation_enable)
1515:D:/Git/VL53L1/lib/core/src\vl53l1_api_core.c **** {
 2241              		.loc 1 1515 1 is_stmt 1 view -0
 2242              		.cfi_startproc
 2243              		@ args = 0, pretend = 0, frame = 0
 2244              		@ frame_needed = 0, uses_anonymous_args = 0
 2245              		@ link register save eliminated.
1516:D:/Git/VL53L1/lib/core/src\vl53l1_api_core.c **** 	/**
1517:D:/Git/VL53L1/lib/core/src\vl53l1_api_core.c **** 	 * Currently a very simple function to return
1518:D:/Git/VL53L1/lib/core/src\vl53l1_api_core.c **** 	 *
1519:D:/Git/VL53L1/lib/core/src\vl53l1_api_core.c **** 	 * - this flags whether xtalk compensation is enabled for all modes
1520:D:/Git/VL53L1/lib/core/src\vl53l1_api_core.c **** 	 * or not.
1521:D:/Git/VL53L1/lib/core/src\vl53l1_api_core.c **** 	 *
1522:D:/Git/VL53L1/lib/core/src\vl53l1_api_core.c **** 	 * #1 - Enabled
1523:D:/Git/VL53L1/lib/core/src\vl53l1_api_core.c **** 	 * #0 - Disabled
1524:D:/Git/VL53L1/lib/core/src\vl53l1_api_core.c **** 	 *
1525:D:/Git/VL53L1/lib/core/src\vl53l1_api_core.c **** 	 */
1526:D:/Git/VL53L1/lib/core/src\vl53l1_api_core.c **** 
1527:D:/Git/VL53L1/lib/core/src\vl53l1_api_core.c **** 	VL53L1_LLDriverData_t *pdev = VL53L1DevStructGetLLDriverHandle(Dev);
 2246              		.loc 1 1527 2 view .LVU701
1528:D:/Git/VL53L1/lib/core/src\vl53l1_api_core.c **** 
1529:D:/Git/VL53L1/lib/core/src\vl53l1_api_core.c **** 	LOG_FUNCTION_START("");
 2247              		.loc 1 1529 24 view .LVU702
1530:D:/Git/VL53L1/lib/core/src\vl53l1_api_core.c **** 
1531:D:/Git/VL53L1/lib/core/src\vl53l1_api_core.c **** 	/* Extract Xtalk Compensation Enable Status*/
1532:D:/Git/VL53L1/lib/core/src\vl53l1_api_core.c **** 
1533:D:/Git/VL53L1/lib/core/src\vl53l1_api_core.c **** 	*pcrosstalk_compensation_enable =
 2248              		.loc 1 1533 2 view .LVU703
1534:D:/Git/VL53L1/lib/core/src\vl53l1_api_core.c **** 		pdev->xtalk_cfg.global_crosstalk_compensation_enable;
 2249              		.loc 1 1534 18 is_stmt 0 view .LVU704
ARM GAS  C:\Users\Berbardo\AppData\Local\Temp\ccBMvrJ9.s 			page 70


 2250 0000 90F83C31 		ldrb	r3, [r0, #316]	@ zero_extendqisi2
1533:D:/Git/VL53L1/lib/core/src\vl53l1_api_core.c **** 		pdev->xtalk_cfg.global_crosstalk_compensation_enable;
 2251              		.loc 1 1533 34 view .LVU705
 2252 0004 0B70     		strb	r3, [r1]
1535:D:/Git/VL53L1/lib/core/src\vl53l1_api_core.c **** 
1536:D:/Git/VL53L1/lib/core/src\vl53l1_api_core.c **** }
 2253              		.loc 1 1536 1 view .LVU706
 2254 0006 7047     		bx	lr
 2255              		.cfi_endproc
 2256              	.LFE151:
 2258              		.section	.text.VL53L1_get_lite_xtalk_margin_kcps,"ax",%progbits
 2259              		.align	1
 2260              		.global	VL53L1_get_lite_xtalk_margin_kcps
 2261              		.syntax unified
 2262              		.thumb
 2263              		.thumb_func
 2264              		.fpu fpv4-sp-d16
 2266              	VL53L1_get_lite_xtalk_margin_kcps:
 2267              	.LVL211:
 2268              	.LFB152:
1537:D:/Git/VL53L1/lib/core/src\vl53l1_api_core.c **** 
1538:D:/Git/VL53L1/lib/core/src\vl53l1_api_core.c **** 
1539:D:/Git/VL53L1/lib/core/src\vl53l1_api_core.c **** VL53L1_Error VL53L1_get_lite_xtalk_margin_kcps(
1540:D:/Git/VL53L1/lib/core/src\vl53l1_api_core.c **** 	VL53L1_DEV                          Dev,
1541:D:/Git/VL53L1/lib/core/src\vl53l1_api_core.c **** 	int16_t                           *pxtalk_margin)
1542:D:/Git/VL53L1/lib/core/src\vl53l1_api_core.c **** {
 2269              		.loc 1 1542 1 is_stmt 1 view -0
 2270              		.cfi_startproc
 2271              		@ args = 0, pretend = 0, frame = 0
 2272              		@ frame_needed = 0, uses_anonymous_args = 0
 2273              		@ link register save eliminated.
1543:D:/Git/VL53L1/lib/core/src\vl53l1_api_core.c **** 
1544:D:/Git/VL53L1/lib/core/src\vl53l1_api_core.c **** 	/*
1545:D:/Git/VL53L1/lib/core/src\vl53l1_api_core.c **** 	 * Gets the Xtalk Margin Factor  in Kcps (fixed point 9.7)
1546:D:/Git/VL53L1/lib/core/src\vl53l1_api_core.c **** 	 */
1547:D:/Git/VL53L1/lib/core/src\vl53l1_api_core.c **** 
1548:D:/Git/VL53L1/lib/core/src\vl53l1_api_core.c **** 	VL53L1_Error  status = VL53L1_ERROR_NONE;
 2274              		.loc 1 1548 2 view .LVU708
1549:D:/Git/VL53L1/lib/core/src\vl53l1_api_core.c **** 
1550:D:/Git/VL53L1/lib/core/src\vl53l1_api_core.c **** 	VL53L1_LLDriverData_t *pdev = VL53L1DevStructGetLLDriverHandle(Dev);
 2275              		.loc 1 1550 2 view .LVU709
1551:D:/Git/VL53L1/lib/core/src\vl53l1_api_core.c **** 
1552:D:/Git/VL53L1/lib/core/src\vl53l1_api_core.c **** 	LOG_FUNCTION_START("");
 2276              		.loc 1 1552 24 view .LVU710
1553:D:/Git/VL53L1/lib/core/src\vl53l1_api_core.c **** 
1554:D:/Git/VL53L1/lib/core/src\vl53l1_api_core.c **** 	*pxtalk_margin = pdev->xtalk_cfg.lite_mode_crosstalk_margin_kcps;
 2277              		.loc 1 1554 2 view .LVU711
 2278              		.loc 1 1554 34 is_stmt 0 view .LVU712
 2279 0000 B0F93E31 		ldrsh	r3, [r0, #318]
 2280              		.loc 1 1554 17 view .LVU713
 2281 0004 0B80     		strh	r3, [r1]	@ movhi
1555:D:/Git/VL53L1/lib/core/src\vl53l1_api_core.c **** 
1556:D:/Git/VL53L1/lib/core/src\vl53l1_api_core.c **** 	LOG_FUNCTION_END(status);
 2282              		.loc 1 1556 26 is_stmt 1 view .LVU714
1557:D:/Git/VL53L1/lib/core/src\vl53l1_api_core.c **** 
1558:D:/Git/VL53L1/lib/core/src\vl53l1_api_core.c **** 	return status;
 2283              		.loc 1 1558 2 view .LVU715
ARM GAS  C:\Users\Berbardo\AppData\Local\Temp\ccBMvrJ9.s 			page 71


1559:D:/Git/VL53L1/lib/core/src\vl53l1_api_core.c **** 
1560:D:/Git/VL53L1/lib/core/src\vl53l1_api_core.c **** }
 2284              		.loc 1 1560 1 is_stmt 0 view .LVU716
 2285 0006 0020     		movs	r0, #0
 2286              	.LVL212:
 2287              		.loc 1 1560 1 view .LVU717
 2288 0008 7047     		bx	lr
 2289              		.cfi_endproc
 2290              	.LFE152:
 2292              		.section	.text.VL53L1_set_lite_xtalk_margin_kcps,"ax",%progbits
 2293              		.align	1
 2294              		.global	VL53L1_set_lite_xtalk_margin_kcps
 2295              		.syntax unified
 2296              		.thumb
 2297              		.thumb_func
 2298              		.fpu fpv4-sp-d16
 2300              	VL53L1_set_lite_xtalk_margin_kcps:
 2301              	.LVL213:
 2302              	.LFB153:
1561:D:/Git/VL53L1/lib/core/src\vl53l1_api_core.c **** 
1562:D:/Git/VL53L1/lib/core/src\vl53l1_api_core.c **** VL53L1_Error VL53L1_set_lite_xtalk_margin_kcps(
1563:D:/Git/VL53L1/lib/core/src\vl53l1_api_core.c **** 	VL53L1_DEV                     Dev,
1564:D:/Git/VL53L1/lib/core/src\vl53l1_api_core.c **** 	int16_t                        xtalk_margin)
1565:D:/Git/VL53L1/lib/core/src\vl53l1_api_core.c **** {
 2303              		.loc 1 1565 1 is_stmt 1 view -0
 2304              		.cfi_startproc
 2305              		@ args = 0, pretend = 0, frame = 0
 2306              		@ frame_needed = 0, uses_anonymous_args = 0
 2307              		@ link register save eliminated.
1566:D:/Git/VL53L1/lib/core/src\vl53l1_api_core.c **** 
1567:D:/Git/VL53L1/lib/core/src\vl53l1_api_core.c **** 	/*
1568:D:/Git/VL53L1/lib/core/src\vl53l1_api_core.c **** 	 * Sets the offset calibration mode
1569:D:/Git/VL53L1/lib/core/src\vl53l1_api_core.c **** 	 */
1570:D:/Git/VL53L1/lib/core/src\vl53l1_api_core.c **** 
1571:D:/Git/VL53L1/lib/core/src\vl53l1_api_core.c **** 	VL53L1_Error  status = VL53L1_ERROR_NONE;
 2308              		.loc 1 1571 2 view .LVU719
1572:D:/Git/VL53L1/lib/core/src\vl53l1_api_core.c **** 
1573:D:/Git/VL53L1/lib/core/src\vl53l1_api_core.c **** 	VL53L1_LLDriverData_t *pdev = VL53L1DevStructGetLLDriverHandle(Dev);
 2309              		.loc 1 1573 2 view .LVU720
1574:D:/Git/VL53L1/lib/core/src\vl53l1_api_core.c **** 
1575:D:/Git/VL53L1/lib/core/src\vl53l1_api_core.c **** 	LOG_FUNCTION_START("");
 2310              		.loc 1 1575 24 view .LVU721
1576:D:/Git/VL53L1/lib/core/src\vl53l1_api_core.c **** 
1577:D:/Git/VL53L1/lib/core/src\vl53l1_api_core.c **** 	pdev->xtalk_cfg.lite_mode_crosstalk_margin_kcps = xtalk_margin;
 2311              		.loc 1 1577 2 view .LVU722
 2312              		.loc 1 1577 50 is_stmt 0 view .LVU723
 2313 0000 A0F83E11 		strh	r1, [r0, #318]	@ movhi
1578:D:/Git/VL53L1/lib/core/src\vl53l1_api_core.c **** 
1579:D:/Git/VL53L1/lib/core/src\vl53l1_api_core.c **** 	LOG_FUNCTION_END(status);
 2314              		.loc 1 1579 26 is_stmt 1 view .LVU724
1580:D:/Git/VL53L1/lib/core/src\vl53l1_api_core.c **** 
1581:D:/Git/VL53L1/lib/core/src\vl53l1_api_core.c **** 	return status;
 2315              		.loc 1 1581 2 view .LVU725
1582:D:/Git/VL53L1/lib/core/src\vl53l1_api_core.c **** }
 2316              		.loc 1 1582 1 is_stmt 0 view .LVU726
 2317 0004 0020     		movs	r0, #0
 2318              	.LVL214:
ARM GAS  C:\Users\Berbardo\AppData\Local\Temp\ccBMvrJ9.s 			page 72


 2319              		.loc 1 1582 1 view .LVU727
 2320 0006 7047     		bx	lr
 2321              		.cfi_endproc
 2322              	.LFE153:
 2324              		.section	.text.VL53L1_restore_xtalk_nvm_default,"ax",%progbits
 2325              		.align	1
 2326              		.global	VL53L1_restore_xtalk_nvm_default
 2327              		.syntax unified
 2328              		.thumb
 2329              		.thumb_func
 2330              		.fpu fpv4-sp-d16
 2332              	VL53L1_restore_xtalk_nvm_default:
 2333              	.LVL215:
 2334              	.LFB154:
1583:D:/Git/VL53L1/lib/core/src\vl53l1_api_core.c **** 
1584:D:/Git/VL53L1/lib/core/src\vl53l1_api_core.c **** 
1585:D:/Git/VL53L1/lib/core/src\vl53l1_api_core.c **** VL53L1_Error VL53L1_restore_xtalk_nvm_default(
1586:D:/Git/VL53L1/lib/core/src\vl53l1_api_core.c **** 	VL53L1_DEV                     Dev)
1587:D:/Git/VL53L1/lib/core/src\vl53l1_api_core.c **** {
 2335              		.loc 1 1587 1 is_stmt 1 view -0
 2336              		.cfi_startproc
 2337              		@ args = 0, pretend = 0, frame = 0
 2338              		@ frame_needed = 0, uses_anonymous_args = 0
 2339              		@ link register save eliminated.
1588:D:/Git/VL53L1/lib/core/src\vl53l1_api_core.c **** 
1589:D:/Git/VL53L1/lib/core/src\vl53l1_api_core.c **** 	/*
1590:D:/Git/VL53L1/lib/core/src\vl53l1_api_core.c **** 	 * Returns xtalk rate values to defaults as extracted from device NVM
1591:D:/Git/VL53L1/lib/core/src\vl53l1_api_core.c **** 	 */
1592:D:/Git/VL53L1/lib/core/src\vl53l1_api_core.c **** 
1593:D:/Git/VL53L1/lib/core/src\vl53l1_api_core.c **** 	VL53L1_Error  status = VL53L1_ERROR_NONE;
 2340              		.loc 1 1593 2 view .LVU729
1594:D:/Git/VL53L1/lib/core/src\vl53l1_api_core.c **** 
1595:D:/Git/VL53L1/lib/core/src\vl53l1_api_core.c **** 	VL53L1_LLDriverData_t *pdev = VL53L1DevStructGetLLDriverHandle(Dev);
 2341              		.loc 1 1595 2 view .LVU730
1596:D:/Git/VL53L1/lib/core/src\vl53l1_api_core.c **** 
1597:D:/Git/VL53L1/lib/core/src\vl53l1_api_core.c **** 	LOG_FUNCTION_START("");
 2342              		.loc 1 1597 24 view .LVU731
1598:D:/Git/VL53L1/lib/core/src\vl53l1_api_core.c **** 
1599:D:/Git/VL53L1/lib/core/src\vl53l1_api_core.c **** 	pdev->xtalk_cfg.algo__crosstalk_compensation_plane_offset_kcps =
 2343              		.loc 1 1599 2 view .LVU732
1600:D:/Git/VL53L1/lib/core/src\vl53l1_api_core.c **** 		pdev->xtalk_cfg.nvm_default__crosstalk_compensation_plane_offset_kcps;
 2344              		.loc 1 1600 18 is_stmt 0 view .LVU733
 2345 0000 D0F83431 		ldr	r3, [r0, #308]
1599:D:/Git/VL53L1/lib/core/src\vl53l1_api_core.c **** 		pdev->xtalk_cfg.nvm_default__crosstalk_compensation_plane_offset_kcps;
 2346              		.loc 1 1599 65 view .LVU734
 2347 0004 C0F82C31 		str	r3, [r0, #300]
1601:D:/Git/VL53L1/lib/core/src\vl53l1_api_core.c **** 	pdev->xtalk_cfg.algo__crosstalk_compensation_x_plane_gradient_kcps =
 2348              		.loc 1 1601 2 is_stmt 1 view .LVU735
1602:D:/Git/VL53L1/lib/core/src\vl53l1_api_core.c **** 		pdev->xtalk_cfg.nvm_default__crosstalk_compensation_x_plane_gradient_kcps;
 2349              		.loc 1 1602 18 is_stmt 0 view .LVU736
 2350 0008 B0F93831 		ldrsh	r3, [r0, #312]
1601:D:/Git/VL53L1/lib/core/src\vl53l1_api_core.c **** 	pdev->xtalk_cfg.algo__crosstalk_compensation_x_plane_gradient_kcps =
 2351              		.loc 1 1601 69 view .LVU737
 2352 000c A0F83031 		strh	r3, [r0, #304]	@ movhi
1603:D:/Git/VL53L1/lib/core/src\vl53l1_api_core.c **** 	pdev->xtalk_cfg.algo__crosstalk_compensation_y_plane_gradient_kcps =
 2353              		.loc 1 1603 2 is_stmt 1 view .LVU738
1604:D:/Git/VL53L1/lib/core/src\vl53l1_api_core.c **** 		pdev->xtalk_cfg.nvm_default__crosstalk_compensation_y_plane_gradient_kcps;
ARM GAS  C:\Users\Berbardo\AppData\Local\Temp\ccBMvrJ9.s 			page 73


 2354              		.loc 1 1604 18 is_stmt 0 view .LVU739
 2355 0010 B0F93A31 		ldrsh	r3, [r0, #314]
1603:D:/Git/VL53L1/lib/core/src\vl53l1_api_core.c **** 	pdev->xtalk_cfg.algo__crosstalk_compensation_y_plane_gradient_kcps =
 2356              		.loc 1 1603 69 view .LVU740
 2357 0014 A0F83231 		strh	r3, [r0, #306]	@ movhi
1605:D:/Git/VL53L1/lib/core/src\vl53l1_api_core.c **** 
1606:D:/Git/VL53L1/lib/core/src\vl53l1_api_core.c **** 	LOG_FUNCTION_END(status);
 2358              		.loc 1 1606 26 is_stmt 1 view .LVU741
1607:D:/Git/VL53L1/lib/core/src\vl53l1_api_core.c **** 
1608:D:/Git/VL53L1/lib/core/src\vl53l1_api_core.c **** 	return status;
 2359              		.loc 1 1608 2 view .LVU742
1609:D:/Git/VL53L1/lib/core/src\vl53l1_api_core.c **** }
 2360              		.loc 1 1609 1 is_stmt 0 view .LVU743
 2361 0018 0020     		movs	r0, #0
 2362              	.LVL216:
 2363              		.loc 1 1609 1 view .LVU744
 2364 001a 7047     		bx	lr
 2365              		.cfi_endproc
 2366              	.LFE154:
 2368              		.section	.text.VL53L1_disable_xtalk_compensation,"ax",%progbits
 2369              		.align	1
 2370              		.global	VL53L1_disable_xtalk_compensation
 2371              		.syntax unified
 2372              		.thumb
 2373              		.thumb_func
 2374              		.fpu fpv4-sp-d16
 2376              	VL53L1_disable_xtalk_compensation:
 2377              	.LVL217:
 2378              	.LFB155:
1610:D:/Git/VL53L1/lib/core/src\vl53l1_api_core.c **** 
1611:D:/Git/VL53L1/lib/core/src\vl53l1_api_core.c **** VL53L1_Error  VL53L1_disable_xtalk_compensation(
1612:D:/Git/VL53L1/lib/core/src\vl53l1_api_core.c **** 	VL53L1_DEV                 Dev)
1613:D:/Git/VL53L1/lib/core/src\vl53l1_api_core.c **** {
 2379              		.loc 1 1613 1 is_stmt 1 view -0
 2380              		.cfi_startproc
 2381              		@ args = 0, pretend = 0, frame = 0
 2382              		@ frame_needed = 0, uses_anonymous_args = 0
 2383              		.loc 1 1613 1 is_stmt 0 view .LVU746
 2384 0000 08B5     		push	{r3, lr}
 2385              		.cfi_def_cfa_offset 8
 2386              		.cfi_offset 3, -8
 2387              		.cfi_offset 14, -4
 2388 0002 0146     		mov	r1, r0
1614:D:/Git/VL53L1/lib/core/src\vl53l1_api_core.c **** 	/**
1615:D:/Git/VL53L1/lib/core/src\vl53l1_api_core.c **** 	 * Currently a very simple function to clear
1616:D:/Git/VL53L1/lib/core/src\vl53l1_api_core.c **** 	 * customer xtalk parms and apply to device
1617:D:/Git/VL53L1/lib/core/src\vl53l1_api_core.c **** 	 *
1618:D:/Git/VL53L1/lib/core/src\vl53l1_api_core.c **** 	 */
1619:D:/Git/VL53L1/lib/core/src\vl53l1_api_core.c **** 
1620:D:/Git/VL53L1/lib/core/src\vl53l1_api_core.c **** 	VL53L1_Error status = VL53L1_ERROR_NONE;
 2389              		.loc 1 1620 2 is_stmt 1 view .LVU747
 2390              	.LVL218:
1621:D:/Git/VL53L1/lib/core/src\vl53l1_api_core.c **** 
1622:D:/Git/VL53L1/lib/core/src\vl53l1_api_core.c **** 	VL53L1_LLDriverData_t *pdev = VL53L1DevStructGetLLDriverHandle(Dev);
 2391              		.loc 1 1622 2 view .LVU748
1623:D:/Git/VL53L1/lib/core/src\vl53l1_api_core.c **** 
1624:D:/Git/VL53L1/lib/core/src\vl53l1_api_core.c **** 	LOG_FUNCTION_START("");
ARM GAS  C:\Users\Berbardo\AppData\Local\Temp\ccBMvrJ9.s 			page 74


 2392              		.loc 1 1624 24 view .LVU749
1625:D:/Git/VL53L1/lib/core/src\vl53l1_api_core.c **** 
1626:D:/Git/VL53L1/lib/core/src\vl53l1_api_core.c **** 	/* Fill Public customer NVM data with Xtalk parms */
1627:D:/Git/VL53L1/lib/core/src\vl53l1_api_core.c **** 	pdev->customer.algo__crosstalk_compensation_plane_offset_kcps =
 2393              		.loc 1 1627 2 view .LVU750
 2394              		.loc 1 1627 64 is_stmt 0 view .LVU751
 2395 0004 0023     		movs	r3, #0
 2396 0006 A0F84C30 		strh	r3, [r0, #76]	@ movhi
1628:D:/Git/VL53L1/lib/core/src\vl53l1_api_core.c **** 		0x00;
1629:D:/Git/VL53L1/lib/core/src\vl53l1_api_core.c **** 
1630:D:/Git/VL53L1/lib/core/src\vl53l1_api_core.c **** 	pdev->customer.algo__crosstalk_compensation_x_plane_gradient_kcps =
 2397              		.loc 1 1630 2 is_stmt 1 view .LVU752
 2398              		.loc 1 1630 68 is_stmt 0 view .LVU753
 2399 000a A0F84E30 		strh	r3, [r0, #78]	@ movhi
1631:D:/Git/VL53L1/lib/core/src\vl53l1_api_core.c **** 		0x00;
1632:D:/Git/VL53L1/lib/core/src\vl53l1_api_core.c **** 
1633:D:/Git/VL53L1/lib/core/src\vl53l1_api_core.c **** 	pdev->customer.algo__crosstalk_compensation_y_plane_gradient_kcps =
 2400              		.loc 1 1633 2 is_stmt 1 view .LVU754
 2401              		.loc 1 1633 68 is_stmt 0 view .LVU755
 2402 000e A0F85030 		strh	r3, [r0, #80]	@ movhi
1634:D:/Git/VL53L1/lib/core/src\vl53l1_api_core.c **** 		0x00;
1635:D:/Git/VL53L1/lib/core/src\vl53l1_api_core.c **** 
1636:D:/Git/VL53L1/lib/core/src\vl53l1_api_core.c **** 
1637:D:/Git/VL53L1/lib/core/src\vl53l1_api_core.c **** 	/* Disable Global Xtalk comnpensation */
1638:D:/Git/VL53L1/lib/core/src\vl53l1_api_core.c **** 	pdev->xtalk_cfg.global_crosstalk_compensation_enable = 0x00;
 2403              		.loc 1 1638 2 is_stmt 1 view .LVU756
 2404              		.loc 1 1638 55 is_stmt 0 view .LVU757
 2405 0012 80F83C31 		strb	r3, [r0, #316]
1639:D:/Git/VL53L1/lib/core/src\vl53l1_api_core.c **** 
1640:D:/Git/VL53L1/lib/core/src\vl53l1_api_core.c **** 	/* Update Range Ignore Threshold Xtalk Parameter */
1641:D:/Git/VL53L1/lib/core/src\vl53l1_api_core.c **** 
1642:D:/Git/VL53L1/lib/core/src\vl53l1_api_core.c **** 	if (status == VL53L1_ERROR_NONE) {
 2406              		.loc 1 1642 2 is_stmt 1 view .LVU758
1643:D:/Git/VL53L1/lib/core/src\vl53l1_api_core.c **** 		pdev->xtalk_cfg.crosstalk_range_ignore_threshold_rate_mcps =
 2407              		.loc 1 1643 3 view .LVU759
 2408              		.loc 1 1643 62 is_stmt 0 view .LVU760
 2409 0016 A0F84231 		strh	r3, [r0, #322]	@ movhi
1644:D:/Git/VL53L1/lib/core/src\vl53l1_api_core.c **** 			0x0000;
1645:D:/Git/VL53L1/lib/core/src\vl53l1_api_core.c **** 	}
1646:D:/Git/VL53L1/lib/core/src\vl53l1_api_core.c **** 
1647:D:/Git/VL53L1/lib/core/src\vl53l1_api_core.c **** 	/* Apply to device */
1648:D:/Git/VL53L1/lib/core/src\vl53l1_api_core.c **** 
1649:D:/Git/VL53L1/lib/core/src\vl53l1_api_core.c **** 	if (status == VL53L1_ERROR_NONE) { /*lint !e774 always true*/
 2410              		.loc 1 1649 2 is_stmt 1 view .LVU761
1650:D:/Git/VL53L1/lib/core/src\vl53l1_api_core.c **** 		status =
 2411              		.loc 1 1650 3 view .LVU762
1651:D:/Git/VL53L1/lib/core/src\vl53l1_api_core.c **** 			VL53L1_set_customer_nvm_managed(
 2412              		.loc 1 1651 4 is_stmt 0 view .LVU763
 2413 001a 4231     		adds	r1, r1, #66
 2414 001c FFF7FEFF 		bl	VL53L1_set_customer_nvm_managed
 2415              	.LVL219:
1652:D:/Git/VL53L1/lib/core/src\vl53l1_api_core.c **** 				Dev,
1653:D:/Git/VL53L1/lib/core/src\vl53l1_api_core.c **** 				&(pdev->customer));
1654:D:/Git/VL53L1/lib/core/src\vl53l1_api_core.c **** 	}
1655:D:/Git/VL53L1/lib/core/src\vl53l1_api_core.c **** 	LOG_FUNCTION_END(status);
 2416              		.loc 1 1655 26 is_stmt 1 view .LVU764
1656:D:/Git/VL53L1/lib/core/src\vl53l1_api_core.c **** 
ARM GAS  C:\Users\Berbardo\AppData\Local\Temp\ccBMvrJ9.s 			page 75


1657:D:/Git/VL53L1/lib/core/src\vl53l1_api_core.c **** 	return status;
 2417              		.loc 1 1657 2 view .LVU765
1658:D:/Git/VL53L1/lib/core/src\vl53l1_api_core.c **** 
1659:D:/Git/VL53L1/lib/core/src\vl53l1_api_core.c **** }
 2418              		.loc 1 1659 1 is_stmt 0 view .LVU766
 2419 0020 08BD     		pop	{r3, pc}
 2420              		.cfi_endproc
 2421              	.LFE155:
 2423              		.section	.text.VL53L1_get_lite_sigma_threshold,"ax",%progbits
 2424              		.align	1
 2425              		.global	VL53L1_get_lite_sigma_threshold
 2426              		.syntax unified
 2427              		.thumb
 2428              		.thumb_func
 2429              		.fpu fpv4-sp-d16
 2431              	VL53L1_get_lite_sigma_threshold:
 2432              	.LVL220:
 2433              	.LFB156:
1660:D:/Git/VL53L1/lib/core/src\vl53l1_api_core.c **** 
1661:D:/Git/VL53L1/lib/core/src\vl53l1_api_core.c **** VL53L1_Error VL53L1_get_lite_sigma_threshold(
1662:D:/Git/VL53L1/lib/core/src\vl53l1_api_core.c **** 	VL53L1_DEV                          Dev,
1663:D:/Git/VL53L1/lib/core/src\vl53l1_api_core.c **** 	uint16_t                           *plite_sigma)
1664:D:/Git/VL53L1/lib/core/src\vl53l1_api_core.c **** {
 2434              		.loc 1 1664 1 is_stmt 1 view -0
 2435              		.cfi_startproc
 2436              		@ args = 0, pretend = 0, frame = 0
 2437              		@ frame_needed = 0, uses_anonymous_args = 0
 2438              		@ link register save eliminated.
1665:D:/Git/VL53L1/lib/core/src\vl53l1_api_core.c **** 
1666:D:/Git/VL53L1/lib/core/src\vl53l1_api_core.c **** 	/*
1667:D:/Git/VL53L1/lib/core/src\vl53l1_api_core.c **** 	 * Gets the Sigma Threshold value for Lite Mode
1668:D:/Git/VL53L1/lib/core/src\vl53l1_api_core.c **** 	 *
1669:D:/Git/VL53L1/lib/core/src\vl53l1_api_core.c **** 	 * (fixed point 14.2)
1670:D:/Git/VL53L1/lib/core/src\vl53l1_api_core.c **** 	 */
1671:D:/Git/VL53L1/lib/core/src\vl53l1_api_core.c **** 
1672:D:/Git/VL53L1/lib/core/src\vl53l1_api_core.c **** 	VL53L1_Error  status = VL53L1_ERROR_NONE;
 2439              		.loc 1 1672 2 view .LVU768
1673:D:/Git/VL53L1/lib/core/src\vl53l1_api_core.c **** 
1674:D:/Git/VL53L1/lib/core/src\vl53l1_api_core.c **** 	VL53L1_LLDriverData_t *pdev = VL53L1DevStructGetLLDriverHandle(Dev);
 2440              		.loc 1 1674 2 view .LVU769
1675:D:/Git/VL53L1/lib/core/src\vl53l1_api_core.c **** 
1676:D:/Git/VL53L1/lib/core/src\vl53l1_api_core.c **** 	LOG_FUNCTION_START("");
 2441              		.loc 1 1676 24 view .LVU770
1677:D:/Git/VL53L1/lib/core/src\vl53l1_api_core.c **** 
1678:D:/Git/VL53L1/lib/core/src\vl53l1_api_core.c **** 	*plite_sigma =
 2442              		.loc 1 1678 2 view .LVU771
1679:D:/Git/VL53L1/lib/core/src\vl53l1_api_core.c **** 			pdev->tim_cfg.range_config__sigma_thresh;
 2443              		.loc 1 1679 17 is_stmt 0 view .LVU772
 2444 0000 B0F8A631 		ldrh	r3, [r0, #422]
1678:D:/Git/VL53L1/lib/core/src\vl53l1_api_core.c **** 			pdev->tim_cfg.range_config__sigma_thresh;
 2445              		.loc 1 1678 15 view .LVU773
 2446 0004 0B80     		strh	r3, [r1]	@ movhi
1680:D:/Git/VL53L1/lib/core/src\vl53l1_api_core.c **** 
1681:D:/Git/VL53L1/lib/core/src\vl53l1_api_core.c **** 	LOG_FUNCTION_END(status);
 2447              		.loc 1 1681 26 is_stmt 1 view .LVU774
1682:D:/Git/VL53L1/lib/core/src\vl53l1_api_core.c **** 
1683:D:/Git/VL53L1/lib/core/src\vl53l1_api_core.c **** 	return status;
ARM GAS  C:\Users\Berbardo\AppData\Local\Temp\ccBMvrJ9.s 			page 76


 2448              		.loc 1 1683 2 view .LVU775
1684:D:/Git/VL53L1/lib/core/src\vl53l1_api_core.c **** 
1685:D:/Git/VL53L1/lib/core/src\vl53l1_api_core.c **** }
 2449              		.loc 1 1685 1 is_stmt 0 view .LVU776
 2450 0006 0020     		movs	r0, #0
 2451              	.LVL221:
 2452              		.loc 1 1685 1 view .LVU777
 2453 0008 7047     		bx	lr
 2454              		.cfi_endproc
 2455              	.LFE156:
 2457              		.section	.text.VL53L1_set_lite_sigma_threshold,"ax",%progbits
 2458              		.align	1
 2459              		.global	VL53L1_set_lite_sigma_threshold
 2460              		.syntax unified
 2461              		.thumb
 2462              		.thumb_func
 2463              		.fpu fpv4-sp-d16
 2465              	VL53L1_set_lite_sigma_threshold:
 2466              	.LVL222:
 2467              	.LFB157:
1686:D:/Git/VL53L1/lib/core/src\vl53l1_api_core.c **** 
1687:D:/Git/VL53L1/lib/core/src\vl53l1_api_core.c **** VL53L1_Error VL53L1_set_lite_sigma_threshold(
1688:D:/Git/VL53L1/lib/core/src\vl53l1_api_core.c **** 	VL53L1_DEV                          Dev,
1689:D:/Git/VL53L1/lib/core/src\vl53l1_api_core.c **** 	uint16_t                           lite_sigma)
1690:D:/Git/VL53L1/lib/core/src\vl53l1_api_core.c **** {
 2468              		.loc 1 1690 1 is_stmt 1 view -0
 2469              		.cfi_startproc
 2470              		@ args = 0, pretend = 0, frame = 0
 2471              		@ frame_needed = 0, uses_anonymous_args = 0
 2472              		@ link register save eliminated.
1691:D:/Git/VL53L1/lib/core/src\vl53l1_api_core.c **** 
1692:D:/Git/VL53L1/lib/core/src\vl53l1_api_core.c **** 	/*
1693:D:/Git/VL53L1/lib/core/src\vl53l1_api_core.c **** 	 * Sets the Sigma threshold value for Lite mode
1694:D:/Git/VL53L1/lib/core/src\vl53l1_api_core.c **** 	 *
1695:D:/Git/VL53L1/lib/core/src\vl53l1_api_core.c **** 	 * (fixed point 14.2)
1696:D:/Git/VL53L1/lib/core/src\vl53l1_api_core.c **** 	 */
1697:D:/Git/VL53L1/lib/core/src\vl53l1_api_core.c **** 
1698:D:/Git/VL53L1/lib/core/src\vl53l1_api_core.c **** 	VL53L1_Error  status = VL53L1_ERROR_NONE;
 2473              		.loc 1 1698 2 view .LVU779
1699:D:/Git/VL53L1/lib/core/src\vl53l1_api_core.c **** 
1700:D:/Git/VL53L1/lib/core/src\vl53l1_api_core.c **** 	VL53L1_LLDriverData_t *pdev = VL53L1DevStructGetLLDriverHandle(Dev);
 2474              		.loc 1 1700 2 view .LVU780
1701:D:/Git/VL53L1/lib/core/src\vl53l1_api_core.c **** 
1702:D:/Git/VL53L1/lib/core/src\vl53l1_api_core.c **** 	LOG_FUNCTION_START("");
 2475              		.loc 1 1702 24 view .LVU781
1703:D:/Git/VL53L1/lib/core/src\vl53l1_api_core.c **** 
1704:D:/Git/VL53L1/lib/core/src\vl53l1_api_core.c **** 	pdev->tim_cfg.range_config__sigma_thresh = lite_sigma;
 2476              		.loc 1 1704 2 view .LVU782
 2477              		.loc 1 1704 43 is_stmt 0 view .LVU783
 2478 0000 A0F8A611 		strh	r1, [r0, #422]	@ movhi
1705:D:/Git/VL53L1/lib/core/src\vl53l1_api_core.c **** 
1706:D:/Git/VL53L1/lib/core/src\vl53l1_api_core.c **** 	LOG_FUNCTION_END(status);
 2479              		.loc 1 1706 26 is_stmt 1 view .LVU784
1707:D:/Git/VL53L1/lib/core/src\vl53l1_api_core.c **** 
1708:D:/Git/VL53L1/lib/core/src\vl53l1_api_core.c **** 	return status;
 2480              		.loc 1 1708 2 view .LVU785
1709:D:/Git/VL53L1/lib/core/src\vl53l1_api_core.c **** 
ARM GAS  C:\Users\Berbardo\AppData\Local\Temp\ccBMvrJ9.s 			page 77


1710:D:/Git/VL53L1/lib/core/src\vl53l1_api_core.c **** }
 2481              		.loc 1 1710 1 is_stmt 0 view .LVU786
 2482 0004 0020     		movs	r0, #0
 2483              	.LVL223:
 2484              		.loc 1 1710 1 view .LVU787
 2485 0006 7047     		bx	lr
 2486              		.cfi_endproc
 2487              	.LFE157:
 2489              		.section	.text.VL53L1_get_lite_min_count_rate,"ax",%progbits
 2490              		.align	1
 2491              		.global	VL53L1_get_lite_min_count_rate
 2492              		.syntax unified
 2493              		.thumb
 2494              		.thumb_func
 2495              		.fpu fpv4-sp-d16
 2497              	VL53L1_get_lite_min_count_rate:
 2498              	.LVL224:
 2499              	.LFB158:
1711:D:/Git/VL53L1/lib/core/src\vl53l1_api_core.c **** 
1712:D:/Git/VL53L1/lib/core/src\vl53l1_api_core.c **** VL53L1_Error VL53L1_get_lite_min_count_rate(
1713:D:/Git/VL53L1/lib/core/src\vl53l1_api_core.c **** 	VL53L1_DEV                          Dev,
1714:D:/Git/VL53L1/lib/core/src\vl53l1_api_core.c **** 	uint16_t                           *plite_mincountrate)
1715:D:/Git/VL53L1/lib/core/src\vl53l1_api_core.c **** {
 2500              		.loc 1 1715 1 is_stmt 1 view -0
 2501              		.cfi_startproc
 2502              		@ args = 0, pretend = 0, frame = 0
 2503              		@ frame_needed = 0, uses_anonymous_args = 0
 2504              		@ link register save eliminated.
1716:D:/Git/VL53L1/lib/core/src\vl53l1_api_core.c **** 
1717:D:/Git/VL53L1/lib/core/src\vl53l1_api_core.c **** 	/*
1718:D:/Git/VL53L1/lib/core/src\vl53l1_api_core.c **** 	 * Gets the Min Count Rate value for Lite Mode
1719:D:/Git/VL53L1/lib/core/src\vl53l1_api_core.c **** 	 *
1720:D:/Git/VL53L1/lib/core/src\vl53l1_api_core.c **** 	 * (fixed point 9.7 Mcps)
1721:D:/Git/VL53L1/lib/core/src\vl53l1_api_core.c **** 	 */
1722:D:/Git/VL53L1/lib/core/src\vl53l1_api_core.c **** 
1723:D:/Git/VL53L1/lib/core/src\vl53l1_api_core.c **** 	VL53L1_Error  status = VL53L1_ERROR_NONE;
 2505              		.loc 1 1723 2 view .LVU789
1724:D:/Git/VL53L1/lib/core/src\vl53l1_api_core.c **** 
1725:D:/Git/VL53L1/lib/core/src\vl53l1_api_core.c **** 	VL53L1_LLDriverData_t *pdev = VL53L1DevStructGetLLDriverHandle(Dev);
 2506              		.loc 1 1725 2 view .LVU790
1726:D:/Git/VL53L1/lib/core/src\vl53l1_api_core.c **** 
1727:D:/Git/VL53L1/lib/core/src\vl53l1_api_core.c **** 	LOG_FUNCTION_START("");
 2507              		.loc 1 1727 24 view .LVU791
1728:D:/Git/VL53L1/lib/core/src\vl53l1_api_core.c **** 
1729:D:/Git/VL53L1/lib/core/src\vl53l1_api_core.c **** 	*plite_mincountrate =
 2508              		.loc 1 1729 2 view .LVU792
1730:D:/Git/VL53L1/lib/core/src\vl53l1_api_core.c **** 			pdev->tim_cfg.range_config__min_count_rate_rtn_limit_mcps;
 2509              		.loc 1 1730 17 is_stmt 0 view .LVU793
 2510 0000 B0F8A831 		ldrh	r3, [r0, #424]
1729:D:/Git/VL53L1/lib/core/src\vl53l1_api_core.c **** 			pdev->tim_cfg.range_config__min_count_rate_rtn_limit_mcps;
 2511              		.loc 1 1729 22 view .LVU794
 2512 0004 0B80     		strh	r3, [r1]	@ movhi
1731:D:/Git/VL53L1/lib/core/src\vl53l1_api_core.c **** 
1732:D:/Git/VL53L1/lib/core/src\vl53l1_api_core.c **** 	LOG_FUNCTION_END(status);
 2513              		.loc 1 1732 26 is_stmt 1 view .LVU795
1733:D:/Git/VL53L1/lib/core/src\vl53l1_api_core.c **** 
1734:D:/Git/VL53L1/lib/core/src\vl53l1_api_core.c **** 	return status;
ARM GAS  C:\Users\Berbardo\AppData\Local\Temp\ccBMvrJ9.s 			page 78


 2514              		.loc 1 1734 2 view .LVU796
1735:D:/Git/VL53L1/lib/core/src\vl53l1_api_core.c **** 
1736:D:/Git/VL53L1/lib/core/src\vl53l1_api_core.c **** }
 2515              		.loc 1 1736 1 is_stmt 0 view .LVU797
 2516 0006 0020     		movs	r0, #0
 2517              	.LVL225:
 2518              		.loc 1 1736 1 view .LVU798
 2519 0008 7047     		bx	lr
 2520              		.cfi_endproc
 2521              	.LFE158:
 2523              		.section	.text.VL53L1_set_lite_min_count_rate,"ax",%progbits
 2524              		.align	1
 2525              		.global	VL53L1_set_lite_min_count_rate
 2526              		.syntax unified
 2527              		.thumb
 2528              		.thumb_func
 2529              		.fpu fpv4-sp-d16
 2531              	VL53L1_set_lite_min_count_rate:
 2532              	.LVL226:
 2533              	.LFB159:
1737:D:/Git/VL53L1/lib/core/src\vl53l1_api_core.c **** 
1738:D:/Git/VL53L1/lib/core/src\vl53l1_api_core.c **** VL53L1_Error VL53L1_set_lite_min_count_rate(
1739:D:/Git/VL53L1/lib/core/src\vl53l1_api_core.c **** 	VL53L1_DEV                          Dev,
1740:D:/Git/VL53L1/lib/core/src\vl53l1_api_core.c **** 	uint16_t                            lite_mincountrate)
1741:D:/Git/VL53L1/lib/core/src\vl53l1_api_core.c **** {
 2534              		.loc 1 1741 1 is_stmt 1 view -0
 2535              		.cfi_startproc
 2536              		@ args = 0, pretend = 0, frame = 0
 2537              		@ frame_needed = 0, uses_anonymous_args = 0
 2538              		@ link register save eliminated.
1742:D:/Git/VL53L1/lib/core/src\vl53l1_api_core.c **** 
1743:D:/Git/VL53L1/lib/core/src\vl53l1_api_core.c **** 	/*
1744:D:/Git/VL53L1/lib/core/src\vl53l1_api_core.c **** 	 * Sets the Min COunt Rate value for Lite mode
1745:D:/Git/VL53L1/lib/core/src\vl53l1_api_core.c **** 	 *
1746:D:/Git/VL53L1/lib/core/src\vl53l1_api_core.c **** 	 * (fixed point 19.7Mcps)
1747:D:/Git/VL53L1/lib/core/src\vl53l1_api_core.c **** 	 */
1748:D:/Git/VL53L1/lib/core/src\vl53l1_api_core.c **** 
1749:D:/Git/VL53L1/lib/core/src\vl53l1_api_core.c **** 	VL53L1_Error  status = VL53L1_ERROR_NONE;
 2539              		.loc 1 1749 2 view .LVU800
1750:D:/Git/VL53L1/lib/core/src\vl53l1_api_core.c **** 
1751:D:/Git/VL53L1/lib/core/src\vl53l1_api_core.c **** 	VL53L1_LLDriverData_t *pdev = VL53L1DevStructGetLLDriverHandle(Dev);
 2540              		.loc 1 1751 2 view .LVU801
1752:D:/Git/VL53L1/lib/core/src\vl53l1_api_core.c **** 
1753:D:/Git/VL53L1/lib/core/src\vl53l1_api_core.c **** 	LOG_FUNCTION_START("");
 2541              		.loc 1 1753 24 view .LVU802
1754:D:/Git/VL53L1/lib/core/src\vl53l1_api_core.c **** 
1755:D:/Git/VL53L1/lib/core/src\vl53l1_api_core.c **** 	pdev->tim_cfg.range_config__min_count_rate_rtn_limit_mcps =
 2542              		.loc 1 1755 2 view .LVU803
 2543              		.loc 1 1755 60 is_stmt 0 view .LVU804
 2544 0000 A0F8A811 		strh	r1, [r0, #424]	@ movhi
1756:D:/Git/VL53L1/lib/core/src\vl53l1_api_core.c **** 		lite_mincountrate;
1757:D:/Git/VL53L1/lib/core/src\vl53l1_api_core.c **** 
1758:D:/Git/VL53L1/lib/core/src\vl53l1_api_core.c **** 	LOG_FUNCTION_END(status);
 2545              		.loc 1 1758 26 is_stmt 1 view .LVU805
1759:D:/Git/VL53L1/lib/core/src\vl53l1_api_core.c **** 
1760:D:/Git/VL53L1/lib/core/src\vl53l1_api_core.c **** 	return status;
 2546              		.loc 1 1760 2 view .LVU806
ARM GAS  C:\Users\Berbardo\AppData\Local\Temp\ccBMvrJ9.s 			page 79


1761:D:/Git/VL53L1/lib/core/src\vl53l1_api_core.c **** 
1762:D:/Git/VL53L1/lib/core/src\vl53l1_api_core.c **** }
 2547              		.loc 1 1762 1 is_stmt 0 view .LVU807
 2548 0004 0020     		movs	r0, #0
 2549              	.LVL227:
 2550              		.loc 1 1762 1 view .LVU808
 2551 0006 7047     		bx	lr
 2552              		.cfi_endproc
 2553              	.LFE159:
 2555              		.section	.text.VL53L1_get_vhv_loopbound,"ax",%progbits
 2556              		.align	1
 2557              		.global	VL53L1_get_vhv_loopbound
 2558              		.syntax unified
 2559              		.thumb
 2560              		.thumb_func
 2561              		.fpu fpv4-sp-d16
 2563              	VL53L1_get_vhv_loopbound:
 2564              	.LVL228:
 2565              	.LFB160:
1763:D:/Git/VL53L1/lib/core/src\vl53l1_api_core.c **** 
1764:D:/Git/VL53L1/lib/core/src\vl53l1_api_core.c **** VL53L1_Error VL53L1_get_vhv_loopbound(
1765:D:/Git/VL53L1/lib/core/src\vl53l1_api_core.c **** 	VL53L1_DEV                   Dev,
1766:D:/Git/VL53L1/lib/core/src\vl53l1_api_core.c **** 	uint8_t                     *pvhv_loopbound)
1767:D:/Git/VL53L1/lib/core/src\vl53l1_api_core.c **** {
 2566              		.loc 1 1767 1 is_stmt 1 view -0
 2567              		.cfi_startproc
 2568              		@ args = 0, pretend = 0, frame = 0
 2569              		@ frame_needed = 0, uses_anonymous_args = 0
 2570              		@ link register save eliminated.
1768:D:/Git/VL53L1/lib/core/src\vl53l1_api_core.c **** 
1769:D:/Git/VL53L1/lib/core/src\vl53l1_api_core.c **** 	/*
1770:D:/Git/VL53L1/lib/core/src\vl53l1_api_core.c **** 	 * Gets the VHV Loop bound parm
1771:D:/Git/VL53L1/lib/core/src\vl53l1_api_core.c **** 	 * - extracts only bits 7:2 from internal stat nvm parm
1772:D:/Git/VL53L1/lib/core/src\vl53l1_api_core.c **** 	 */
1773:D:/Git/VL53L1/lib/core/src\vl53l1_api_core.c **** 
1774:D:/Git/VL53L1/lib/core/src\vl53l1_api_core.c **** 	VL53L1_Error  status = VL53L1_ERROR_NONE;
 2571              		.loc 1 1774 2 view .LVU810
1775:D:/Git/VL53L1/lib/core/src\vl53l1_api_core.c **** 
1776:D:/Git/VL53L1/lib/core/src\vl53l1_api_core.c **** 	VL53L1_LLDriverData_t *pdev = VL53L1DevStructGetLLDriverHandle(Dev);
 2572              		.loc 1 1776 2 view .LVU811
1777:D:/Git/VL53L1/lib/core/src\vl53l1_api_core.c **** 
1778:D:/Git/VL53L1/lib/core/src\vl53l1_api_core.c **** 	LOG_FUNCTION_START("");
 2573              		.loc 1 1778 24 view .LVU812
1779:D:/Git/VL53L1/lib/core/src\vl53l1_api_core.c **** 
1780:D:/Git/VL53L1/lib/core/src\vl53l1_api_core.c **** 	*pvhv_loopbound = pdev->stat_nvm.vhv_config__timeout_macrop_loop_bound / 4 ;
 2574              		.loc 1 1780 2 view .LVU813
 2575              		.loc 1 1780 34 is_stmt 0 view .LVU814
 2576 0000 90F86031 		ldrb	r3, [r0, #352]	@ zero_extendqisi2
 2577              		.loc 1 1780 18 view .LVU815
 2578 0004 9B08     		lsrs	r3, r3, #2
 2579 0006 0B70     		strb	r3, [r1]
1781:D:/Git/VL53L1/lib/core/src\vl53l1_api_core.c **** 
1782:D:/Git/VL53L1/lib/core/src\vl53l1_api_core.c **** 	LOG_FUNCTION_END(status);
 2580              		.loc 1 1782 26 is_stmt 1 view .LVU816
1783:D:/Git/VL53L1/lib/core/src\vl53l1_api_core.c **** 
1784:D:/Git/VL53L1/lib/core/src\vl53l1_api_core.c **** 	return status;
 2581              		.loc 1 1784 2 view .LVU817
ARM GAS  C:\Users\Berbardo\AppData\Local\Temp\ccBMvrJ9.s 			page 80


1785:D:/Git/VL53L1/lib/core/src\vl53l1_api_core.c **** 
1786:D:/Git/VL53L1/lib/core/src\vl53l1_api_core.c **** }
 2582              		.loc 1 1786 1 is_stmt 0 view .LVU818
 2583 0008 0020     		movs	r0, #0
 2584              	.LVL229:
 2585              		.loc 1 1786 1 view .LVU819
 2586 000a 7047     		bx	lr
 2587              		.cfi_endproc
 2588              	.LFE160:
 2590              		.section	.text.VL53L1_set_vhv_loopbound,"ax",%progbits
 2591              		.align	1
 2592              		.global	VL53L1_set_vhv_loopbound
 2593              		.syntax unified
 2594              		.thumb
 2595              		.thumb_func
 2596              		.fpu fpv4-sp-d16
 2598              	VL53L1_set_vhv_loopbound:
 2599              	.LVL230:
 2600              	.LFB161:
1787:D:/Git/VL53L1/lib/core/src\vl53l1_api_core.c **** 
1788:D:/Git/VL53L1/lib/core/src\vl53l1_api_core.c **** 
1789:D:/Git/VL53L1/lib/core/src\vl53l1_api_core.c **** 
1790:D:/Git/VL53L1/lib/core/src\vl53l1_api_core.c **** VL53L1_Error VL53L1_set_vhv_loopbound(
1791:D:/Git/VL53L1/lib/core/src\vl53l1_api_core.c **** 	VL53L1_DEV                   Dev,
1792:D:/Git/VL53L1/lib/core/src\vl53l1_api_core.c **** 	uint8_t                      vhv_loopbound)
1793:D:/Git/VL53L1/lib/core/src\vl53l1_api_core.c **** {
 2601              		.loc 1 1793 1 is_stmt 1 view -0
 2602              		.cfi_startproc
 2603              		@ args = 0, pretend = 0, frame = 0
 2604              		@ frame_needed = 0, uses_anonymous_args = 0
 2605              		@ link register save eliminated.
1794:D:/Git/VL53L1/lib/core/src\vl53l1_api_core.c **** 
1795:D:/Git/VL53L1/lib/core/src\vl53l1_api_core.c **** 	/*
1796:D:/Git/VL53L1/lib/core/src\vl53l1_api_core.c **** 	 * Sets the VHV Loop bound parm
1797:D:/Git/VL53L1/lib/core/src\vl53l1_api_core.c **** 	 * - sets only bits 7:2
1798:D:/Git/VL53L1/lib/core/src\vl53l1_api_core.c **** 	 * - bits 1:0 remain unchanged
1799:D:/Git/VL53L1/lib/core/src\vl53l1_api_core.c **** 	 * - ensure that any change here is followed by a
1800:D:/Git/VL53L1/lib/core/src\vl53l1_api_core.c **** 	 * init_and_start_range with full i2c packet
1801:D:/Git/VL53L1/lib/core/src\vl53l1_api_core.c **** 	 * configuration.
1802:D:/Git/VL53L1/lib/core/src\vl53l1_api_core.c **** 	 */
1803:D:/Git/VL53L1/lib/core/src\vl53l1_api_core.c **** 
1804:D:/Git/VL53L1/lib/core/src\vl53l1_api_core.c **** 	VL53L1_Error  status = VL53L1_ERROR_NONE;
 2606              		.loc 1 1804 2 view .LVU821
1805:D:/Git/VL53L1/lib/core/src\vl53l1_api_core.c **** 
1806:D:/Git/VL53L1/lib/core/src\vl53l1_api_core.c **** 	VL53L1_LLDriverData_t *pdev = VL53L1DevStructGetLLDriverHandle(Dev);
 2607              		.loc 1 1806 2 view .LVU822
1807:D:/Git/VL53L1/lib/core/src\vl53l1_api_core.c **** 
1808:D:/Git/VL53L1/lib/core/src\vl53l1_api_core.c **** 	LOG_FUNCTION_START("");
 2608              		.loc 1 1808 24 view .LVU823
1809:D:/Git/VL53L1/lib/core/src\vl53l1_api_core.c **** 
1810:D:/Git/VL53L1/lib/core/src\vl53l1_api_core.c **** 	pdev->stat_nvm.vhv_config__timeout_macrop_loop_bound =
 2609              		.loc 1 1810 2 view .LVU824
1811:D:/Git/VL53L1/lib/core/src\vl53l1_api_core.c **** 			(pdev->stat_nvm.vhv_config__timeout_macrop_loop_bound & 0x03) +
 2610              		.loc 1 1811 19 is_stmt 0 view .LVU825
 2611 0000 90F86031 		ldrb	r3, [r0, #352]	@ zero_extendqisi2
 2612              		.loc 1 1811 58 view .LVU826
 2613 0004 03F00303 		and	r3, r3, #3
ARM GAS  C:\Users\Berbardo\AppData\Local\Temp\ccBMvrJ9.s 			page 81


 2614              		.loc 1 1811 66 view .LVU827
 2615 0008 03EB8101 		add	r1, r3, r1, lsl #2
 2616              	.LVL231:
1810:D:/Git/VL53L1/lib/core/src\vl53l1_api_core.c **** 			(pdev->stat_nvm.vhv_config__timeout_macrop_loop_bound & 0x03) +
 2617              		.loc 1 1810 55 view .LVU828
 2618 000c 80F86011 		strb	r1, [r0, #352]
1812:D:/Git/VL53L1/lib/core/src\vl53l1_api_core.c **** 			(vhv_loopbound * 4);
1813:D:/Git/VL53L1/lib/core/src\vl53l1_api_core.c **** 
1814:D:/Git/VL53L1/lib/core/src\vl53l1_api_core.c **** 	LOG_FUNCTION_END(status);
 2619              		.loc 1 1814 26 is_stmt 1 view .LVU829
1815:D:/Git/VL53L1/lib/core/src\vl53l1_api_core.c **** 
1816:D:/Git/VL53L1/lib/core/src\vl53l1_api_core.c **** 	return status;
 2620              		.loc 1 1816 2 view .LVU830
1817:D:/Git/VL53L1/lib/core/src\vl53l1_api_core.c **** 
1818:D:/Git/VL53L1/lib/core/src\vl53l1_api_core.c **** }
 2621              		.loc 1 1818 1 is_stmt 0 view .LVU831
 2622 0010 0020     		movs	r0, #0
 2623              	.LVL232:
 2624              		.loc 1 1818 1 view .LVU832
 2625 0012 7047     		bx	lr
 2626              		.cfi_endproc
 2627              	.LFE161:
 2629              		.section	.text.VL53L1_data_init,"ax",%progbits
 2630              		.align	1
 2631              		.global	VL53L1_data_init
 2632              		.syntax unified
 2633              		.thumb
 2634              		.thumb_func
 2635              		.fpu fpv4-sp-d16
 2637              	VL53L1_data_init:
 2638              	.LVL233:
 2639              	.LFB126:
 155:D:/Git/VL53L1/lib/core/src\vl53l1_api_core.c **** 	/*
 2640              		.loc 1 155 1 is_stmt 1 view -0
 2641              		.cfi_startproc
 2642              		@ args = 0, pretend = 0, frame = 0
 2643              		@ frame_needed = 0, uses_anonymous_args = 0
 155:D:/Git/VL53L1/lib/core/src\vl53l1_api_core.c **** 	/*
 2644              		.loc 1 155 1 is_stmt 0 view .LVU834
 2645 0000 30B5     		push	{r4, r5, lr}
 2646              		.cfi_def_cfa_offset 12
 2647              		.cfi_offset 4, -12
 2648              		.cfi_offset 5, -8
 2649              		.cfi_offset 14, -4
 2650 0002 85B0     		sub	sp, sp, #20
 2651              		.cfi_def_cfa_offset 32
 2652 0004 0446     		mov	r4, r0
 2653 0006 0D46     		mov	r5, r1
 160:D:/Git/VL53L1/lib/core/src\vl53l1_api_core.c **** 	VL53L1_LLDriverData_t    *pdev =
 2654              		.loc 1 160 2 is_stmt 1 view .LVU835
 2655              	.LVL234:
 161:D:/Git/VL53L1/lib/core/src\vl53l1_api_core.c **** 			VL53L1DevStructGetLLDriverHandle(Dev);
 2656              		.loc 1 161 2 view .LVU836
 164:D:/Git/VL53L1/lib/core/src\vl53l1_api_core.c **** 			Dev,
 2657              		.loc 1 164 2 view .LVU837
 2658 0008 6221     		movs	r1, #98
 2659              	.LVL235:
ARM GAS  C:\Users\Berbardo\AppData\Local\Temp\ccBMvrJ9.s 			page 82


 164:D:/Git/VL53L1/lib/core/src\vl53l1_api_core.c **** 			Dev,
 2660              		.loc 1 164 2 is_stmt 0 view .LVU838
 2661 000a FFF7FEFF 		bl	VL53L1_init_ll_driver_state
 2662              	.LVL236:
 168:D:/Git/VL53L1/lib/core/src\vl53l1_api_core.c **** 	pdev->preset_mode             = VL53L1_DEVICEPRESETMODE_STANDARD_RANGING;
 2663              		.loc 1 168 2 is_stmt 1 view .LVU839
 168:D:/Git/VL53L1/lib/core/src\vl53l1_api_core.c **** 	pdev->preset_mode             = VL53L1_DEVICEPRESETMODE_STANDARD_RANGING;
 2664              		.loc 1 168 32 is_stmt 0 view .LVU840
 2665 000e 0023     		movs	r3, #0
 2666 0010 2370     		strb	r3, [r4]
 169:D:/Git/VL53L1/lib/core/src\vl53l1_api_core.c **** 	pdev->measurement_mode        = VL53L1_DEVICEMEASUREMENTMODE_STOP;
 2667              		.loc 1 169 2 is_stmt 1 view .LVU841
 169:D:/Git/VL53L1/lib/core/src\vl53l1_api_core.c **** 	pdev->measurement_mode        = VL53L1_DEVICEMEASUREMENTMODE_STOP;
 2668              		.loc 1 169 32 is_stmt 0 view .LVU842
 2669 0012 0122     		movs	r2, #1
 2670 0014 6270     		strb	r2, [r4, #1]
 170:D:/Git/VL53L1/lib/core/src\vl53l1_api_core.c **** 
 2671              		.loc 1 170 2 is_stmt 1 view .LVU843
 170:D:/Git/VL53L1/lib/core/src\vl53l1_api_core.c **** 
 2672              		.loc 1 170 32 is_stmt 0 view .LVU844
 2673 0016 A370     		strb	r3, [r4, #2]
 172:D:/Git/VL53L1/lib/core/src\vl53l1_api_core.c **** 		VL53L1_OFFSETCALIBRATIONMODE__MM1_MM2__STANDARD;
 2674              		.loc 1 172 2 is_stmt 1 view .LVU845
 172:D:/Git/VL53L1/lib/core/src\vl53l1_api_core.c **** 		VL53L1_OFFSETCALIBRATIONMODE__MM1_MM2__STANDARD;
 2675              		.loc 1 172 32 is_stmt 0 view .LVU846
 2676 0018 E270     		strb	r2, [r4, #3]
 174:D:/Git/VL53L1/lib/core/src\vl53l1_api_core.c **** 		VL53L1_OFFSETCORRECTIONMODE__MM1_MM2_OFFSETS;
 2677              		.loc 1 174 2 is_stmt 1 view .LVU847
 174:D:/Git/VL53L1/lib/core/src\vl53l1_api_core.c **** 		VL53L1_OFFSETCORRECTIONMODE__MM1_MM2_OFFSETS;
 2678              		.loc 1 174 32 is_stmt 0 view .LVU848
 2679 001a 2271     		strb	r2, [r4, #4]
 177:D:/Git/VL53L1/lib/core/src\vl53l1_api_core.c **** 	pdev->mm_config_timeout_us        =  2000;
 2680              		.loc 1 177 2 is_stmt 1 view .LVU849
 177:D:/Git/VL53L1/lib/core/src\vl53l1_api_core.c **** 	pdev->mm_config_timeout_us        =  2000;
 2681              		.loc 1 177 36 is_stmt 0 view .LVU850
 2682 001c 4FF47A72 		mov	r2, #1000
 2683 0020 A260     		str	r2, [r4, #8]
 178:D:/Git/VL53L1/lib/core/src\vl53l1_api_core.c **** 	pdev->range_config_timeout_us     = 13000;
 2684              		.loc 1 178 2 is_stmt 1 view .LVU851
 178:D:/Git/VL53L1/lib/core/src\vl53l1_api_core.c **** 	pdev->range_config_timeout_us     = 13000;
 2685              		.loc 1 178 36 is_stmt 0 view .LVU852
 2686 0022 4FF4FA62 		mov	r2, #2000
 2687 0026 E260     		str	r2, [r4, #12]
 179:D:/Git/VL53L1/lib/core/src\vl53l1_api_core.c **** 	pdev->inter_measurement_period_ms =   100;
 2688              		.loc 1 179 2 is_stmt 1 view .LVU853
 179:D:/Git/VL53L1/lib/core/src\vl53l1_api_core.c **** 	pdev->inter_measurement_period_ms =   100;
 2689              		.loc 1 179 36 is_stmt 0 view .LVU854
 2690 0028 43F2C822 		movw	r2, #13000
 2691 002c 2261     		str	r2, [r4, #16]
 180:D:/Git/VL53L1/lib/core/src\vl53l1_api_core.c **** 	pdev->dss_config__target_total_rate_mcps = 0x0A00;
 2692              		.loc 1 180 2 is_stmt 1 view .LVU855
 180:D:/Git/VL53L1/lib/core/src\vl53l1_api_core.c **** 	pdev->dss_config__target_total_rate_mcps = 0x0A00;
 2693              		.loc 1 180 36 is_stmt 0 view .LVU856
 2694 002e 6422     		movs	r2, #100
 2695 0030 6261     		str	r2, [r4, #20]
 181:D:/Git/VL53L1/lib/core/src\vl53l1_api_core.c **** 	pdev->debug_mode                  =  0x00;
 2696              		.loc 1 181 2 is_stmt 1 view .LVU857
ARM GAS  C:\Users\Berbardo\AppData\Local\Temp\ccBMvrJ9.s 			page 83


 181:D:/Git/VL53L1/lib/core/src\vl53l1_api_core.c **** 	pdev->debug_mode                  =  0x00;
 2697              		.loc 1 181 43 is_stmt 0 view .LVU858
 2698 0032 4FF42062 		mov	r2, #2560
 2699 0036 2283     		strh	r2, [r4, #24]	@ movhi
 182:D:/Git/VL53L1/lib/core/src\vl53l1_api_core.c **** 
 2700              		.loc 1 182 2 is_stmt 1 view .LVU859
 182:D:/Git/VL53L1/lib/core/src\vl53l1_api_core.c **** 
 2701              		.loc 1 182 36 is_stmt 0 view .LVU860
 2702 0038 84F82130 		strb	r3, [r4, #33]
 186:D:/Git/VL53L1/lib/core/src\vl53l1_api_core.c **** 			VL53L1_TUNINGPARM_LITE_RANGING_GAIN_FACTOR_DEFAULT;
 2703              		.loc 1 186 2 is_stmt 1 view .LVU861
 186:D:/Git/VL53L1/lib/core/src\vl53l1_api_core.c **** 			VL53L1_TUNINGPARM_LITE_RANGING_GAIN_FACTOR_DEFAULT;
 2704              		.loc 1 186 46 is_stmt 0 view .LVU862
 2705 003c 40F2DB73 		movw	r3, #2011
 2706 0040 A4F89C30 		strh	r3, [r4, #156]	@ movhi
 192:D:/Git/VL53L1/lib/core/src\vl53l1_api_core.c **** 
 2707              		.loc 1 192 2 is_stmt 1 view .LVU863
 2708 0044 2046     		mov	r0, r4
 2709 0046 FFF7FEFF 		bl	VL53L1_init_version
 2710              	.LVL237:
 202:D:/Git/VL53L1/lib/core/src\vl53l1_api_core.c **** 			status = VL53L1_read_p2p_data(Dev);
 2711              		.loc 1 202 2 view .LVU864
 202:D:/Git/VL53L1/lib/core/src\vl53l1_api_core.c **** 			status = VL53L1_read_p2p_data(Dev);
 2712              		.loc 1 202 5 is_stmt 0 view .LVU865
 2713 004a 0DBB     		cbnz	r5, .L132
 2714              	.LVL238:
 2715              	.L129:
 207:D:/Git/VL53L1/lib/core/src\vl53l1_api_core.c **** 		VL53L1_init_refspadchar_config_struct(
 2716              		.loc 1 207 2 is_stmt 1 view .LVU866
 208:D:/Git/VL53L1/lib/core/src\vl53l1_api_core.c **** 			&(pdev->refspadchar));
 2717              		.loc 1 208 3 is_stmt 0 view .LVU867
 2718 004c 04F58870 		add	r0, r4, #272
 2719 0050 FFF7FEFF 		bl	VL53L1_init_refspadchar_config_struct
 2720              	.LVL239:
 214:D:/Git/VL53L1/lib/core/src\vl53l1_api_core.c **** 		VL53L1_init_ssc_config_struct(
 2721              		.loc 1 214 2 is_stmt 1 view .LVU868
 215:D:/Git/VL53L1/lib/core/src\vl53l1_api_core.c **** 			&(pdev->ssc_cfg));
 2722              		.loc 1 215 3 is_stmt 0 view .LVU869
 2723 0054 04F59070 		add	r0, r4, #288
 2724 0058 FFF7FEFF 		bl	VL53L1_init_ssc_config_struct
 2725              	.LVL240:
 222:D:/Git/VL53L1/lib/core/src\vl53l1_api_core.c **** 		VL53L1_init_xtalk_config_struct(
 2726              		.loc 1 222 2 is_stmt 1 view .LVU870
 223:D:/Git/VL53L1/lib/core/src\vl53l1_api_core.c **** 			&(pdev->customer),
 2727              		.loc 1 223 3 is_stmt 0 view .LVU871
 2728 005c 04F59671 		add	r1, r4, #300
 2729 0060 04F14200 		add	r0, r4, #66
 2730 0064 FFF7FEFF 		bl	VL53L1_init_xtalk_config_struct
 2731              	.LVL241:
 230:D:/Git/VL53L1/lib/core/src\vl53l1_api_core.c **** 		VL53L1_init_offset_cal_config_struct(
 2732              		.loc 1 230 2 is_stmt 1 view .LVU872
 231:D:/Git/VL53L1/lib/core/src\vl53l1_api_core.c **** 		    &(pdev->offsetcal_cfg));
 2733              		.loc 1 231 3 is_stmt 0 view .LVU873
 2734 0068 04F5A270 		add	r0, r4, #324
 2735 006c FFF7FEFF 		bl	VL53L1_init_offset_cal_config_struct
 2736              	.LVL242:
 238:D:/Git/VL53L1/lib/core/src\vl53l1_api_core.c **** 		VL53L1_init_tuning_parm_storage_struct(
ARM GAS  C:\Users\Berbardo\AppData\Local\Temp\ccBMvrJ9.s 			page 84


 2737              		.loc 1 238 2 is_stmt 1 view .LVU874
 239:D:/Git/VL53L1/lib/core/src\vl53l1_api_core.c **** 			&(pdev->tuning_parms));
 2738              		.loc 1 239 3 is_stmt 0 view .LVU875
 2739 0070 04F1A400 		add	r0, r4, #164
 2740 0074 FFF7FEFF 		bl	VL53L1_init_tuning_parm_storage_struct
 2741              	.LVL243:
 242:D:/Git/VL53L1/lib/core/src\vl53l1_api_core.c **** 		VL53L1_TUNINGPARM_VHV_LOOPBOUND_DEFAULT);
 2742              		.loc 1 242 2 is_stmt 1 view .LVU876
 242:D:/Git/VL53L1/lib/core/src\vl53l1_api_core.c **** 		VL53L1_TUNINGPARM_VHV_LOOPBOUND_DEFAULT);
 2743              		.loc 1 242 11 is_stmt 0 view .LVU877
 2744 0078 2021     		movs	r1, #32
 2745 007a 2046     		mov	r0, r4
 2746 007c FFF7FEFF 		bl	VL53L1_set_vhv_loopbound
 2747              	.LVL244:
 250:D:/Git/VL53L1/lib/core/src\vl53l1_api_core.c **** 		status = VL53L1_set_preset_mode(
 2748              		.loc 1 250 2 is_stmt 1 view .LVU878
 250:D:/Git/VL53L1/lib/core/src\vl53l1_api_core.c **** 		status = VL53L1_set_preset_mode(
 2749              		.loc 1 250 5 is_stmt 0 view .LVU879
 2750 0080 0546     		mov	r5, r0
 2751 0082 48B1     		cbz	r0, .L133
 2752              	.LVL245:
 2753              	.L130:
 262:D:/Git/VL53L1/lib/core/src\vl53l1_api_core.c **** 			Dev
 2754              		.loc 1 262 2 is_stmt 1 view .LVU880
 2755 0084 2046     		mov	r0, r4
 2756 0086 FFF7FEFF 		bl	VL53L1_low_power_auto_data_init
 2757              	.LVL246:
 307:D:/Git/VL53L1/lib/core/src\vl53l1_api_core.c **** 
 2758              		.loc 1 307 26 view .LVU881
 309:D:/Git/VL53L1/lib/core/src\vl53l1_api_core.c **** }
 2759              		.loc 1 309 2 view .LVU882
 310:D:/Git/VL53L1/lib/core/src\vl53l1_api_core.c **** 
 2760              		.loc 1 310 1 is_stmt 0 view .LVU883
 2761 008a 2846     		mov	r0, r5
 2762 008c 05B0     		add	sp, sp, #20
 2763              		.cfi_remember_state
 2764              		.cfi_def_cfa_offset 12
 2765              		@ sp needed
 2766 008e 30BD     		pop	{r4, r5, pc}
 2767              	.LVL247:
 2768              	.L132:
 2769              		.cfi_restore_state
 203:D:/Git/VL53L1/lib/core/src\vl53l1_api_core.c **** 
 2770              		.loc 1 203 4 is_stmt 1 view .LVU884
 203:D:/Git/VL53L1/lib/core/src\vl53l1_api_core.c **** 
 2771              		.loc 1 203 13 is_stmt 0 view .LVU885
 2772 0090 2046     		mov	r0, r4
 2773 0092 FFF7FEFF 		bl	VL53L1_read_p2p_data
 2774              	.LVL248:
 203:D:/Git/VL53L1/lib/core/src\vl53l1_api_core.c **** 
 2775              		.loc 1 203 13 view .LVU886
 2776 0096 D9E7     		b	.L129
 2777              	.LVL249:
 2778              	.L133:
 251:D:/Git/VL53L1/lib/core/src\vl53l1_api_core.c **** 						Dev,
 2779              		.loc 1 251 3 is_stmt 1 view .LVU887
 251:D:/Git/VL53L1/lib/core/src\vl53l1_api_core.c **** 						Dev,
ARM GAS  C:\Users\Berbardo\AppData\Local\Temp\ccBMvrJ9.s 			page 85


 2780              		.loc 1 251 12 is_stmt 0 view .LVU888
 2781 0098 6369     		ldr	r3, [r4, #20]
 2782 009a 0293     		str	r3, [sp, #8]
 2783 009c 2369     		ldr	r3, [r4, #16]
 2784 009e 0193     		str	r3, [sp, #4]
 2785 00a0 E368     		ldr	r3, [r4, #12]
 2786 00a2 0093     		str	r3, [sp]
 2787 00a4 A368     		ldr	r3, [r4, #8]
 2788 00a6 228B     		ldrh	r2, [r4, #24]
 2789 00a8 6178     		ldrb	r1, [r4, #1]	@ zero_extendqisi2
 2790 00aa 2046     		mov	r0, r4
 2791              	.LVL250:
 251:D:/Git/VL53L1/lib/core/src\vl53l1_api_core.c **** 						Dev,
 2792              		.loc 1 251 12 view .LVU889
 2793 00ac FFF7FEFF 		bl	VL53L1_set_preset_mode
 2794              	.LVL251:
 2795 00b0 0546     		mov	r5, r0
 2796              	.LVL252:
 251:D:/Git/VL53L1/lib/core/src\vl53l1_api_core.c **** 						Dev,
 2797              		.loc 1 251 12 view .LVU890
 2798 00b2 E7E7     		b	.L130
 2799              		.cfi_endproc
 2800              	.LFE126:
 2802              		.section	.text.VL53L1_get_vhv_config,"ax",%progbits
 2803              		.align	1
 2804              		.global	VL53L1_get_vhv_config
 2805              		.syntax unified
 2806              		.thumb
 2807              		.thumb_func
 2808              		.fpu fpv4-sp-d16
 2810              	VL53L1_get_vhv_config:
 2811              	.LVL253:
 2812              	.LFB162:
1819:D:/Git/VL53L1/lib/core/src\vl53l1_api_core.c **** 
1820:D:/Git/VL53L1/lib/core/src\vl53l1_api_core.c **** 
1821:D:/Git/VL53L1/lib/core/src\vl53l1_api_core.c **** 
1822:D:/Git/VL53L1/lib/core/src\vl53l1_api_core.c **** VL53L1_Error VL53L1_get_vhv_config(
1823:D:/Git/VL53L1/lib/core/src\vl53l1_api_core.c **** 	VL53L1_DEV                   Dev,
1824:D:/Git/VL53L1/lib/core/src\vl53l1_api_core.c **** 	uint8_t                     *pvhv_init_en,
1825:D:/Git/VL53L1/lib/core/src\vl53l1_api_core.c **** 	uint8_t                     *pvhv_init_value)
1826:D:/Git/VL53L1/lib/core/src\vl53l1_api_core.c **** {
 2813              		.loc 1 1826 1 is_stmt 1 view -0
 2814              		.cfi_startproc
 2815              		@ args = 0, pretend = 0, frame = 0
 2816              		@ frame_needed = 0, uses_anonymous_args = 0
 2817              		@ link register save eliminated.
1827:D:/Git/VL53L1/lib/core/src\vl53l1_api_core.c **** 
1828:D:/Git/VL53L1/lib/core/src\vl53l1_api_core.c **** 	/*
1829:D:/Git/VL53L1/lib/core/src\vl53l1_api_core.c **** 	 * Gets the VHV config init data
1830:D:/Git/VL53L1/lib/core/src\vl53l1_api_core.c **** 	 */
1831:D:/Git/VL53L1/lib/core/src\vl53l1_api_core.c **** 
1832:D:/Git/VL53L1/lib/core/src\vl53l1_api_core.c **** 	/*!<
1833:D:/Git/VL53L1/lib/core/src\vl53l1_api_core.c **** 		info: \n
1834:D:/Git/VL53L1/lib/core/src\vl53l1_api_core.c **** 			- msb =  7
1835:D:/Git/VL53L1/lib/core/src\vl53l1_api_core.c **** 			- lsb =  0
1836:D:/Git/VL53L1/lib/core/src\vl53l1_api_core.c **** 			- i2c_size =  1
1837:D:/Git/VL53L1/lib/core/src\vl53l1_api_core.c **** 
ARM GAS  C:\Users\Berbardo\AppData\Local\Temp\ccBMvrJ9.s 			page 86


1838:D:/Git/VL53L1/lib/core/src\vl53l1_api_core.c **** 		fields: \n
1839:D:/Git/VL53L1/lib/core/src\vl53l1_api_core.c **** 			-   [7] = vhv0_init_enable
1840:D:/Git/VL53L1/lib/core/src\vl53l1_api_core.c **** 			- [5:0] = vhv0_init_value
1841:D:/Git/VL53L1/lib/core/src\vl53l1_api_core.c **** 	*/
1842:D:/Git/VL53L1/lib/core/src\vl53l1_api_core.c **** 
1843:D:/Git/VL53L1/lib/core/src\vl53l1_api_core.c **** 	VL53L1_Error  status = VL53L1_ERROR_NONE;
 2818              		.loc 1 1843 2 view .LVU892
1844:D:/Git/VL53L1/lib/core/src\vl53l1_api_core.c **** 
1845:D:/Git/VL53L1/lib/core/src\vl53l1_api_core.c **** 	VL53L1_LLDriverData_t *pdev = VL53L1DevStructGetLLDriverHandle(Dev);
 2819              		.loc 1 1845 2 view .LVU893
1846:D:/Git/VL53L1/lib/core/src\vl53l1_api_core.c **** 
1847:D:/Git/VL53L1/lib/core/src\vl53l1_api_core.c **** 	LOG_FUNCTION_START("");
 2820              		.loc 1 1847 24 view .LVU894
1848:D:/Git/VL53L1/lib/core/src\vl53l1_api_core.c **** 
1849:D:/Git/VL53L1/lib/core/src\vl53l1_api_core.c **** 	*pvhv_init_en    = (pdev->stat_nvm.vhv_config__init & 0x80) >> 7;
 2821              		.loc 1 1849 2 view .LVU895
 2822              		.loc 1 1849 36 is_stmt 0 view .LVU896
 2823 0000 90F86331 		ldrb	r3, [r0, #355]	@ zero_extendqisi2
 2824              		.loc 1 1849 62 view .LVU897
 2825 0004 DB09     		lsrs	r3, r3, #7
 2826              		.loc 1 1849 19 view .LVU898
 2827 0006 0B70     		strb	r3, [r1]
1850:D:/Git/VL53L1/lib/core/src\vl53l1_api_core.c **** 	*pvhv_init_value =
 2828              		.loc 1 1850 2 is_stmt 1 view .LVU899
1851:D:/Git/VL53L1/lib/core/src\vl53l1_api_core.c **** 			(pdev->stat_nvm.vhv_config__init & 0x7F);
 2829              		.loc 1 1851 19 is_stmt 0 view .LVU900
 2830 0008 90F86331 		ldrb	r3, [r0, #355]	@ zero_extendqisi2
 2831              		.loc 1 1851 37 view .LVU901
 2832 000c 03F07F03 		and	r3, r3, #127
1850:D:/Git/VL53L1/lib/core/src\vl53l1_api_core.c **** 	*pvhv_init_value =
 2833              		.loc 1 1850 19 view .LVU902
 2834 0010 1370     		strb	r3, [r2]
1852:D:/Git/VL53L1/lib/core/src\vl53l1_api_core.c **** 
1853:D:/Git/VL53L1/lib/core/src\vl53l1_api_core.c **** 	LOG_FUNCTION_END(status);
 2835              		.loc 1 1853 26 is_stmt 1 view .LVU903
1854:D:/Git/VL53L1/lib/core/src\vl53l1_api_core.c **** 
1855:D:/Git/VL53L1/lib/core/src\vl53l1_api_core.c **** 	return status;
 2836              		.loc 1 1855 2 view .LVU904
1856:D:/Git/VL53L1/lib/core/src\vl53l1_api_core.c **** 
1857:D:/Git/VL53L1/lib/core/src\vl53l1_api_core.c **** }
 2837              		.loc 1 1857 1 is_stmt 0 view .LVU905
 2838 0012 0020     		movs	r0, #0
 2839              	.LVL254:
 2840              		.loc 1 1857 1 view .LVU906
 2841 0014 7047     		bx	lr
 2842              		.cfi_endproc
 2843              	.LFE162:
 2845              		.section	.text.VL53L1_set_vhv_config,"ax",%progbits
 2846              		.align	1
 2847              		.global	VL53L1_set_vhv_config
 2848              		.syntax unified
 2849              		.thumb
 2850              		.thumb_func
 2851              		.fpu fpv4-sp-d16
 2853              	VL53L1_set_vhv_config:
 2854              	.LVL255:
 2855              	.LFB163:
ARM GAS  C:\Users\Berbardo\AppData\Local\Temp\ccBMvrJ9.s 			page 87


1858:D:/Git/VL53L1/lib/core/src\vl53l1_api_core.c **** 
1859:D:/Git/VL53L1/lib/core/src\vl53l1_api_core.c **** 
1860:D:/Git/VL53L1/lib/core/src\vl53l1_api_core.c **** 
1861:D:/Git/VL53L1/lib/core/src\vl53l1_api_core.c **** VL53L1_Error VL53L1_set_vhv_config(
1862:D:/Git/VL53L1/lib/core/src\vl53l1_api_core.c **** 	VL53L1_DEV                   Dev,
1863:D:/Git/VL53L1/lib/core/src\vl53l1_api_core.c **** 	uint8_t                      vhv_init_en,
1864:D:/Git/VL53L1/lib/core/src\vl53l1_api_core.c **** 	uint8_t                      vhv_init_value)
1865:D:/Git/VL53L1/lib/core/src\vl53l1_api_core.c **** {
 2856              		.loc 1 1865 1 is_stmt 1 view -0
 2857              		.cfi_startproc
 2858              		@ args = 0, pretend = 0, frame = 0
 2859              		@ frame_needed = 0, uses_anonymous_args = 0
 2860              		@ link register save eliminated.
1866:D:/Git/VL53L1/lib/core/src\vl53l1_api_core.c **** 
1867:D:/Git/VL53L1/lib/core/src\vl53l1_api_core.c **** 	/*
1868:D:/Git/VL53L1/lib/core/src\vl53l1_api_core.c **** 	 * Sets the VHV Config init
1869:D:/Git/VL53L1/lib/core/src\vl53l1_api_core.c **** 	 */
1870:D:/Git/VL53L1/lib/core/src\vl53l1_api_core.c **** 
1871:D:/Git/VL53L1/lib/core/src\vl53l1_api_core.c **** 	VL53L1_Error  status = VL53L1_ERROR_NONE;
 2861              		.loc 1 1871 2 view .LVU908
1872:D:/Git/VL53L1/lib/core/src\vl53l1_api_core.c **** 
1873:D:/Git/VL53L1/lib/core/src\vl53l1_api_core.c **** 	VL53L1_LLDriverData_t *pdev = VL53L1DevStructGetLLDriverHandle(Dev);
 2862              		.loc 1 1873 2 view .LVU909
1874:D:/Git/VL53L1/lib/core/src\vl53l1_api_core.c **** 
1875:D:/Git/VL53L1/lib/core/src\vl53l1_api_core.c **** 	LOG_FUNCTION_START("");
 2863              		.loc 1 1875 24 view .LVU910
1876:D:/Git/VL53L1/lib/core/src\vl53l1_api_core.c **** 
1877:D:/Git/VL53L1/lib/core/src\vl53l1_api_core.c **** 	pdev->stat_nvm.vhv_config__init =
 2864              		.loc 1 1877 2 view .LVU911
1878:D:/Git/VL53L1/lib/core/src\vl53l1_api_core.c **** 		((vhv_init_en   & 0x01) << 7) +
1879:D:/Git/VL53L1/lib/core/src\vl53l1_api_core.c **** 		(vhv_init_value & 0x7F);
 2865              		.loc 1 1879 19 is_stmt 0 view .LVU912
 2866 0000 02F07F02 		and	r2, r2, #127
 2867              	.LVL256:
1878:D:/Git/VL53L1/lib/core/src\vl53l1_api_core.c **** 		((vhv_init_en   & 0x01) << 7) +
 2868              		.loc 1 1878 33 view .LVU913
 2869 0004 02EBC112 		add	r2, r2, r1, lsl #7
1877:D:/Git/VL53L1/lib/core/src\vl53l1_api_core.c **** 		((vhv_init_en   & 0x01) << 7) +
 2870              		.loc 1 1877 34 view .LVU914
 2871 0008 80F86321 		strb	r2, [r0, #355]
1880:D:/Git/VL53L1/lib/core/src\vl53l1_api_core.c **** 
1881:D:/Git/VL53L1/lib/core/src\vl53l1_api_core.c **** 	LOG_FUNCTION_END(status);
 2872              		.loc 1 1881 26 is_stmt 1 view .LVU915
1882:D:/Git/VL53L1/lib/core/src\vl53l1_api_core.c **** 
1883:D:/Git/VL53L1/lib/core/src\vl53l1_api_core.c **** 	return status;
 2873              		.loc 1 1883 2 view .LVU916
1884:D:/Git/VL53L1/lib/core/src\vl53l1_api_core.c **** 
1885:D:/Git/VL53L1/lib/core/src\vl53l1_api_core.c **** }
 2874              		.loc 1 1885 1 is_stmt 0 view .LVU917
 2875 000c 0020     		movs	r0, #0
 2876              	.LVL257:
 2877              		.loc 1 1885 1 view .LVU918
 2878 000e 7047     		bx	lr
 2879              		.cfi_endproc
 2880              	.LFE163:
 2882              		.section	.text.VL53L1_init_and_start_range,"ax",%progbits
 2883              		.align	1
ARM GAS  C:\Users\Berbardo\AppData\Local\Temp\ccBMvrJ9.s 			page 88


 2884              		.global	VL53L1_init_and_start_range
 2885              		.syntax unified
 2886              		.thumb
 2887              		.thumb_func
 2888              		.fpu fpv4-sp-d16
 2890              	VL53L1_init_and_start_range:
 2891              	.LVL258:
 2892              	.LFB164:
1886:D:/Git/VL53L1/lib/core/src\vl53l1_api_core.c **** 
1887:D:/Git/VL53L1/lib/core/src\vl53l1_api_core.c **** 
1888:D:/Git/VL53L1/lib/core/src\vl53l1_api_core.c **** 
1889:D:/Git/VL53L1/lib/core/src\vl53l1_api_core.c **** VL53L1_Error VL53L1_init_and_start_range(
1890:D:/Git/VL53L1/lib/core/src\vl53l1_api_core.c **** 	VL53L1_DEV                     Dev,
1891:D:/Git/VL53L1/lib/core/src\vl53l1_api_core.c **** 	uint8_t                        measurement_mode,
1892:D:/Git/VL53L1/lib/core/src\vl53l1_api_core.c **** 	VL53L1_DeviceConfigLevel       device_config_level)
1893:D:/Git/VL53L1/lib/core/src\vl53l1_api_core.c **** {
 2893              		.loc 1 1893 1 is_stmt 1 view -0
 2894              		.cfi_startproc
 2895              		@ args = 0, pretend = 0, frame = 264
 2896              		@ frame_needed = 0, uses_anonymous_args = 0
 2897              		.loc 1 1893 1 is_stmt 0 view .LVU920
 2898 0000 2DE9F04F 		push	{r4, r5, r6, r7, r8, r9, r10, fp, lr}
 2899              		.cfi_def_cfa_offset 36
 2900              		.cfi_offset 4, -36
 2901              		.cfi_offset 5, -32
 2902              		.cfi_offset 6, -28
 2903              		.cfi_offset 7, -24
 2904              		.cfi_offset 8, -20
 2905              		.cfi_offset 9, -16
 2906              		.cfi_offset 10, -12
 2907              		.cfi_offset 11, -8
 2908              		.cfi_offset 14, -4
 2909 0004 C3B0     		sub	sp, sp, #268
 2910              		.cfi_def_cfa_offset 304
 2911 0006 0446     		mov	r4, r0
 2912 0008 1646     		mov	r6, r2
1894:D:/Git/VL53L1/lib/core/src\vl53l1_api_core.c **** 	/*
1895:D:/Git/VL53L1/lib/core/src\vl53l1_api_core.c **** 	 * Builds and sends a single I2C multiple byte transaction to
1896:D:/Git/VL53L1/lib/core/src\vl53l1_api_core.c **** 	 * initialize the device and start a range measurement.
1897:D:/Git/VL53L1/lib/core/src\vl53l1_api_core.c **** 	 *
1898:D:/Git/VL53L1/lib/core/src\vl53l1_api_core.c **** 	 * The level of initialization is controlled by the
1899:D:/Git/VL53L1/lib/core/src\vl53l1_api_core.c **** 	 * device_config_level input parameter
1900:D:/Git/VL53L1/lib/core/src\vl53l1_api_core.c **** 	 *
1901:D:/Git/VL53L1/lib/core/src\vl53l1_api_core.c **** 	 * system_control is always sent as the last byte of this
1902:D:/Git/VL53L1/lib/core/src\vl53l1_api_core.c **** 	 * register group (mode_start) either triggers the range
1903:D:/Git/VL53L1/lib/core/src\vl53l1_api_core.c **** 	 * or enables the next range
1904:D:/Git/VL53L1/lib/core/src\vl53l1_api_core.c **** 	 */
1905:D:/Git/VL53L1/lib/core/src\vl53l1_api_core.c **** 
1906:D:/Git/VL53L1/lib/core/src\vl53l1_api_core.c **** 	VL53L1_Error status = VL53L1_ERROR_NONE;
 2913              		.loc 1 1906 2 is_stmt 1 view .LVU921
 2914              	.LVL259:
1907:D:/Git/VL53L1/lib/core/src\vl53l1_api_core.c **** 	VL53L1_LLDriverData_t *pdev = VL53L1DevStructGetLLDriverHandle(Dev);
 2915              		.loc 1 1907 2 view .LVU922
1908:D:/Git/VL53L1/lib/core/src\vl53l1_api_core.c **** 
1909:D:/Git/VL53L1/lib/core/src\vl53l1_api_core.c **** 	uint8_t buffer[VL53L1_MAX_I2C_XFER_SIZE];
 2916              		.loc 1 1909 2 view .LVU923
1910:D:/Git/VL53L1/lib/core/src\vl53l1_api_core.c **** 
ARM GAS  C:\Users\Berbardo\AppData\Local\Temp\ccBMvrJ9.s 			page 89


1911:D:/Git/VL53L1/lib/core/src\vl53l1_api_core.c **** 	VL53L1_static_nvm_managed_t   *pstatic_nvm   = &(pdev->stat_nvm);
 2917              		.loc 1 1911 2 view .LVU924
 2918              		.loc 1 1911 33 is_stmt 0 view .LVU925
 2919 000a 00F5AC70 		add	r0, r0, #344
 2920              	.LVL260:
1912:D:/Git/VL53L1/lib/core/src\vl53l1_api_core.c **** 	VL53L1_customer_nvm_managed_t *pcustomer_nvm = &(pdev->customer);
 2921              		.loc 1 1912 2 is_stmt 1 view .LVU926
 2922              		.loc 1 1912 33 is_stmt 0 view .LVU927
 2923 000e 04F1420B 		add	fp, r4, #66
 2924              	.LVL261:
1913:D:/Git/VL53L1/lib/core/src\vl53l1_api_core.c **** 	VL53L1_static_config_t        *pstatic       = &(pdev->stat_cfg);
 2925              		.loc 1 1913 2 is_stmt 1 view .LVU928
 2926              		.loc 1 1913 33 is_stmt 0 view .LVU929
 2927 0012 04F5B273 		add	r3, r4, #356
 2928 0016 0093     		str	r3, [sp]
 2929              	.LVL262:
1914:D:/Git/VL53L1/lib/core/src\vl53l1_api_core.c **** 	VL53L1_general_config_t       *pgeneral      = &(pdev->gen_cfg);
 2930              		.loc 1 1914 2 is_stmt 1 view .LVU930
 2931              		.loc 1 1914 33 is_stmt 0 view .LVU931
 2932 0018 04F5C273 		add	r3, r4, #388
 2933              	.LVL263:
 2934              		.loc 1 1914 33 view .LVU932
 2935 001c 0193     		str	r3, [sp, #4]
 2936              	.LVL264:
1915:D:/Git/VL53L1/lib/core/src\vl53l1_api_core.c **** 	VL53L1_timing_config_t        *ptiming       = &(pdev->tim_cfg);
 2937              		.loc 1 1915 2 is_stmt 1 view .LVU933
 2938              		.loc 1 1915 33 is_stmt 0 view .LVU934
 2939 001e 04F5CE7A 		add	r10, r4, #412
 2940              	.LVL265:
1916:D:/Git/VL53L1/lib/core/src\vl53l1_api_core.c **** 	VL53L1_dynamic_config_t       *pdynamic      = &(pdev->dyn_cfg);
 2941              		.loc 1 1916 2 is_stmt 1 view .LVU935
 2942              		.loc 1 1916 33 is_stmt 0 view .LVU936
 2943 0022 04F5DA79 		add	r9, r4, #436
 2944              	.LVL266:
1917:D:/Git/VL53L1/lib/core/src\vl53l1_api_core.c **** 	VL53L1_system_control_t       *psystem       = &(pdev->sys_ctrl);
 2945              		.loc 1 1917 2 is_stmt 1 view .LVU937
 2946              		.loc 1 1917 33 is_stmt 0 view .LVU938
 2947 0026 04F5E478 		add	r8, r4, #456
 2948              	.LVL267:
1918:D:/Git/VL53L1/lib/core/src\vl53l1_api_core.c **** 
1919:D:/Git/VL53L1/lib/core/src\vl53l1_api_core.c **** 	VL53L1_ll_driver_state_t  *pstate   = &(pdev->ll_state);
 2949              		.loc 1 1919 2 is_stmt 1 view .LVU939
1920:D:/Git/VL53L1/lib/core/src\vl53l1_api_core.c **** 
1921:D:/Git/VL53L1/lib/core/src\vl53l1_api_core.c **** 	uint8_t  *pbuffer                   = &buffer[0];
 2950              		.loc 1 1921 2 view .LVU940
1922:D:/Git/VL53L1/lib/core/src\vl53l1_api_core.c **** 	uint16_t i                          = 0;
 2951              		.loc 1 1922 2 view .LVU941
1923:D:/Git/VL53L1/lib/core/src\vl53l1_api_core.c **** 	uint16_t i2c_index                  = 0;
 2952              		.loc 1 1923 2 view .LVU942
1924:D:/Git/VL53L1/lib/core/src\vl53l1_api_core.c **** 	uint16_t i2c_buffer_offset_bytes    = 0;
 2953              		.loc 1 1924 2 view .LVU943
1925:D:/Git/VL53L1/lib/core/src\vl53l1_api_core.c **** 	uint16_t i2c_buffer_size_bytes      = 0;
 2954              		.loc 1 1925 2 view .LVU944
1926:D:/Git/VL53L1/lib/core/src\vl53l1_api_core.c **** 
1927:D:/Git/VL53L1/lib/core/src\vl53l1_api_core.c **** 	LOG_FUNCTION_START("");
 2955              		.loc 1 1927 24 view .LVU945
1928:D:/Git/VL53L1/lib/core/src\vl53l1_api_core.c **** 
ARM GAS  C:\Users\Berbardo\AppData\Local\Temp\ccBMvrJ9.s 			page 90


1929:D:/Git/VL53L1/lib/core/src\vl53l1_api_core.c **** 	/* save measurement mode */
1930:D:/Git/VL53L1/lib/core/src\vl53l1_api_core.c **** 	pdev->measurement_mode = measurement_mode;
 2956              		.loc 1 1930 2 view .LVU946
 2957              		.loc 1 1930 25 is_stmt 0 view .LVU947
 2958 002a A170     		strb	r1, [r4, #2]
1931:D:/Git/VL53L1/lib/core/src\vl53l1_api_core.c **** 
1932:D:/Git/VL53L1/lib/core/src\vl53l1_api_core.c **** 	/* Merge measurement mode with mode_start */
1933:D:/Git/VL53L1/lib/core/src\vl53l1_api_core.c **** 
1934:D:/Git/VL53L1/lib/core/src\vl53l1_api_core.c **** 	psystem->system__mode_start =
 2959              		.loc 1 1934 2 is_stmt 1 view .LVU948
1935:D:/Git/VL53L1/lib/core/src\vl53l1_api_core.c **** 		(psystem->system__mode_start &
 2960              		.loc 1 1935 11 is_stmt 0 view .LVU949
 2961 002c 94F9CC31 		ldrsb	r3, [r4, #460]
 2962              	.LVL268:
 2963              		.loc 1 1935 32 view .LVU950
 2964 0030 03F00F03 		and	r3, r3, #15
1936:D:/Git/VL53L1/lib/core/src\vl53l1_api_core.c **** 		VL53L1_DEVICEMEASUREMENTMODE_STOP_MASK) |
 2965              		.loc 1 1936 43 view .LVU951
 2966 0034 0B43     		orrs	r3, r3, r1
1934:D:/Git/VL53L1/lib/core/src\vl53l1_api_core.c **** 		(psystem->system__mode_start &
 2967              		.loc 1 1934 30 view .LVU952
 2968 0036 84F8CC31 		strb	r3, [r4, #460]
1937:D:/Git/VL53L1/lib/core/src\vl53l1_api_core.c **** 		measurement_mode;
1938:D:/Git/VL53L1/lib/core/src\vl53l1_api_core.c **** 
1939:D:/Git/VL53L1/lib/core/src\vl53l1_api_core.c **** 	/* copy in rit from xtalk config */
1940:D:/Git/VL53L1/lib/core/src\vl53l1_api_core.c **** 
1941:D:/Git/VL53L1/lib/core/src\vl53l1_api_core.c **** 	pdev->stat_cfg.algo__range_ignore_threshold_mcps =
 2969              		.loc 1 1941 2 is_stmt 1 view .LVU953
1942:D:/Git/VL53L1/lib/core/src\vl53l1_api_core.c **** 		pdev->xtalk_cfg.crosstalk_range_ignore_threshold_rate_mcps;
 2970              		.loc 1 1942 18 is_stmt 0 view .LVU954
 2971 003a B4F84231 		ldrh	r3, [r4, #322]
1941:D:/Git/VL53L1/lib/core/src\vl53l1_api_core.c **** 		pdev->xtalk_cfg.crosstalk_range_ignore_threshold_rate_mcps;
 2972              		.loc 1 1941 51 view .LVU955
 2973 003e A4F87C31 		strh	r3, [r4, #380]	@ movhi
1943:D:/Git/VL53L1/lib/core/src\vl53l1_api_core.c **** 
1944:D:/Git/VL53L1/lib/core/src\vl53l1_api_core.c **** 	/* Start Patch_LowPowerAutoMode */
1945:D:/Git/VL53L1/lib/core/src\vl53l1_api_core.c **** 
1946:D:/Git/VL53L1/lib/core/src\vl53l1_api_core.c **** 	/* doing this ensures stop_range followed by a get_device_results does
1947:D:/Git/VL53L1/lib/core/src\vl53l1_api_core.c **** 	 * not mess up the counters */
1948:D:/Git/VL53L1/lib/core/src\vl53l1_api_core.c **** 
1949:D:/Git/VL53L1/lib/core/src\vl53l1_api_core.c **** 	if (pdev->low_power_auto_data.low_power_auto_range_count == 0xFF) {
 2974              		.loc 1 1949 2 is_stmt 1 view .LVU956
 2975              		.loc 1 1949 31 is_stmt 0 view .LVU957
 2976 0042 94F8E632 		ldrb	r3, [r4, #742]	@ zero_extendqisi2
 2977              		.loc 1 1949 5 view .LVU958
 2978 0046 FF2B     		cmp	r3, #255
 2979 0048 19D0     		beq	.L167
 2980              	.L137:
1950:D:/Git/VL53L1/lib/core/src\vl53l1_api_core.c **** 		pdev->low_power_auto_data.low_power_auto_range_count = 0x0;
1951:D:/Git/VL53L1/lib/core/src\vl53l1_api_core.c **** 	}
1952:D:/Git/VL53L1/lib/core/src\vl53l1_api_core.c **** 
1953:D:/Git/VL53L1/lib/core/src\vl53l1_api_core.c **** 	/* For Presence. Override threshold config */
1954:D:/Git/VL53L1/lib/core/src\vl53l1_api_core.c **** 	if ((pdev->low_power_auto_data.is_low_power_auto_mode == 1) &&
 2981              		.loc 1 1954 2 is_stmt 1 view .LVU959
 2982              		.loc 1 1954 62 is_stmt 0 view .LVU960
 2983 004a D4F8E432 		ldr	r3, [r4, #740]
 2984 004e 23F07F43 		bic	r3, r3, #-16777216
ARM GAS  C:\Users\Berbardo\AppData\Local\Temp\ccBMvrJ9.s 			page 91


 2985 0052 23F0FF03 		bic	r3, r3, #255
 2986              		.loc 1 1954 5 view .LVU961
 2987 0056 B3F5807F 		cmp	r3, #256
 2988 005a 14D0     		beq	.L168
 2989              	.L138:
 2990              	.LVL269:
1955:D:/Git/VL53L1/lib/core/src\vl53l1_api_core.c **** 		(pdev->low_power_auto_data.low_power_auto_range_count == 0)) {
1956:D:/Git/VL53L1/lib/core/src\vl53l1_api_core.c **** 		/* save interrupt config */
1957:D:/Git/VL53L1/lib/core/src\vl53l1_api_core.c **** 		pdev->low_power_auto_data.saved_interrupt_config =
1958:D:/Git/VL53L1/lib/core/src\vl53l1_api_core.c **** 			pdev->gen_cfg.system__interrupt_config_gpio;
1959:D:/Git/VL53L1/lib/core/src\vl53l1_api_core.c **** 		/* set intr_new_measure_ready */
1960:D:/Git/VL53L1/lib/core/src\vl53l1_api_core.c **** 		pdev->gen_cfg.system__interrupt_config_gpio = 1 << 5;
1961:D:/Git/VL53L1/lib/core/src\vl53l1_api_core.c **** 		/* check MM1/MM2 disabled? */
1962:D:/Git/VL53L1/lib/core/src\vl53l1_api_core.c **** 		if ((pdev->dyn_cfg.system__sequence_config & (
1963:D:/Git/VL53L1/lib/core/src\vl53l1_api_core.c **** 			VL53L1_SEQUENCE_MM1_EN | VL53L1_SEQUENCE_MM2_EN)) ==
1964:D:/Git/VL53L1/lib/core/src\vl53l1_api_core.c **** 				0x0) {
1965:D:/Git/VL53L1/lib/core/src\vl53l1_api_core.c **** 			pdev->customer.algo__part_to_part_range_offset_mm =
1966:D:/Git/VL53L1/lib/core/src\vl53l1_api_core.c **** 				pdev->customer.mm_config__outer_offset_mm * 4;
1967:D:/Git/VL53L1/lib/core/src\vl53l1_api_core.c **** 		} else {
1968:D:/Git/VL53L1/lib/core/src\vl53l1_api_core.c **** 			pdev->customer.algo__part_to_part_range_offset_mm = 0x0;
1969:D:/Git/VL53L1/lib/core/src\vl53l1_api_core.c **** 		}
1970:D:/Git/VL53L1/lib/core/src\vl53l1_api_core.c **** 
1971:D:/Git/VL53L1/lib/core/src\vl53l1_api_core.c **** 		/* make sure config gets written out */
1972:D:/Git/VL53L1/lib/core/src\vl53l1_api_core.c **** 		if (device_config_level <
1973:D:/Git/VL53L1/lib/core/src\vl53l1_api_core.c **** 				VL53L1_DEVICECONFIGLEVEL_CUSTOMER_ONWARDS) {
1974:D:/Git/VL53L1/lib/core/src\vl53l1_api_core.c **** 			device_config_level =
1975:D:/Git/VL53L1/lib/core/src\vl53l1_api_core.c **** 				VL53L1_DEVICECONFIGLEVEL_CUSTOMER_ONWARDS;
1976:D:/Git/VL53L1/lib/core/src\vl53l1_api_core.c **** 		}
1977:D:/Git/VL53L1/lib/core/src\vl53l1_api_core.c **** 	}
1978:D:/Git/VL53L1/lib/core/src\vl53l1_api_core.c **** 
1979:D:/Git/VL53L1/lib/core/src\vl53l1_api_core.c **** 	if ((pdev->low_power_auto_data.is_low_power_auto_mode == 1) &&
 2991              		.loc 1 1979 2 is_stmt 1 view .LVU962
 2992              		.loc 1 1979 62 is_stmt 0 view .LVU963
 2993 005c D4F8E432 		ldr	r3, [r4, #740]
 2994 0060 23F07F43 		bic	r3, r3, #-16777216
 2995 0064 23F0FF03 		bic	r3, r3, #255
 2996              		.loc 1 1979 5 view .LVU964
 2997 0068 654A     		ldr	r2, .L180
 2998 006a 9342     		cmp	r3, r2
 2999 006c 24D0     		beq	.L169
1980:D:/Git/VL53L1/lib/core/src\vl53l1_api_core.c **** 		(pdev->low_power_auto_data.low_power_auto_range_count == 1)) {
1981:D:/Git/VL53L1/lib/core/src\vl53l1_api_core.c **** 		/* restore interrupt config */
1982:D:/Git/VL53L1/lib/core/src\vl53l1_api_core.c **** 		pdev->gen_cfg.system__interrupt_config_gpio =
1983:D:/Git/VL53L1/lib/core/src\vl53l1_api_core.c **** 			pdev->low_power_auto_data.saved_interrupt_config;
1984:D:/Git/VL53L1/lib/core/src\vl53l1_api_core.c **** 
1985:D:/Git/VL53L1/lib/core/src\vl53l1_api_core.c **** 		/* make sure config gets written out including VHV config */
1986:D:/Git/VL53L1/lib/core/src\vl53l1_api_core.c **** 		device_config_level = VL53L1_DEVICECONFIGLEVEL_FULL;
1987:D:/Git/VL53L1/lib/core/src\vl53l1_api_core.c **** 	}
1988:D:/Git/VL53L1/lib/core/src\vl53l1_api_core.c **** 
1989:D:/Git/VL53L1/lib/core/src\vl53l1_api_core.c **** 	/* End Patch_LowPowerAutoMode */
1990:D:/Git/VL53L1/lib/core/src\vl53l1_api_core.c **** 
1991:D:/Git/VL53L1/lib/core/src\vl53l1_api_core.c **** 	/*
1992:D:/Git/VL53L1/lib/core/src\vl53l1_api_core.c **** 	 * Determine Initial I2C index
1993:D:/Git/VL53L1/lib/core/src\vl53l1_api_core.c **** 	 */
1994:D:/Git/VL53L1/lib/core/src\vl53l1_api_core.c **** 
1995:D:/Git/VL53L1/lib/core/src\vl53l1_api_core.c **** 	switch (device_config_level) {
 3000              		.loc 1 1995 2 is_stmt 1 view .LVU965
ARM GAS  C:\Users\Berbardo\AppData\Local\Temp\ccBMvrJ9.s 			page 92


 3001 006e 731E     		subs	r3, r6, #1
 3002 0070 052B     		cmp	r3, #5
 3003 0072 3ED8     		bhi	.L143
 3004 0074 DFE803F0 		tbb	[pc, r3]
 3005              	.L145:
 3006 0078 3B       		.byte	(.L149-.L145)/2
 3007 0079 39       		.byte	(.L148-.L145)/2
 3008 007a 37       		.byte	(.L147-.L145)/2
 3009 007b 35       		.byte	(.L146-.L145)/2
 3010 007c 3F       		.byte	(.L164-.L145)/2
 3011 007d 33       		.byte	(.L144-.L145)/2
 3012              	.LVL270:
 3013              		.p2align 1
 3014              	.L167:
1950:D:/Git/VL53L1/lib/core/src\vl53l1_api_core.c **** 	}
 3015              		.loc 1 1950 3 view .LVU966
1950:D:/Git/VL53L1/lib/core/src\vl53l1_api_core.c **** 	}
 3016              		.loc 1 1950 56 is_stmt 0 view .LVU967
 3017 007e 0023     		movs	r3, #0
 3018 0080 84F8E632 		strb	r3, [r4, #742]
 3019 0084 E1E7     		b	.L137
 3020              	.L168:
1957:D:/Git/VL53L1/lib/core/src\vl53l1_api_core.c **** 			pdev->gen_cfg.system__interrupt_config_gpio;
 3021              		.loc 1 1957 3 is_stmt 1 view .LVU968
1958:D:/Git/VL53L1/lib/core/src\vl53l1_api_core.c **** 		/* set intr_new_measure_ready */
 3022              		.loc 1 1958 17 is_stmt 0 view .LVU969
 3023 0086 94F88631 		ldrb	r3, [r4, #390]	@ zero_extendqisi2
1957:D:/Git/VL53L1/lib/core/src\vl53l1_api_core.c **** 			pdev->gen_cfg.system__interrupt_config_gpio;
 3024              		.loc 1 1957 52 view .LVU970
 3025 008a 84F8E732 		strb	r3, [r4, #743]
1960:D:/Git/VL53L1/lib/core/src\vl53l1_api_core.c **** 		/* check MM1/MM2 disabled? */
 3026              		.loc 1 1960 3 is_stmt 1 view .LVU971
1960:D:/Git/VL53L1/lib/core/src\vl53l1_api_core.c **** 		/* check MM1/MM2 disabled? */
 3027              		.loc 1 1960 47 is_stmt 0 view .LVU972
 3028 008e 2023     		movs	r3, #32
 3029 0090 84F88631 		strb	r3, [r4, #390]
1962:D:/Git/VL53L1/lib/core/src\vl53l1_api_core.c **** 			VL53L1_SEQUENCE_MM1_EN | VL53L1_SEQUENCE_MM2_EN)) ==
 3030              		.loc 1 1962 3 is_stmt 1 view .LVU973
1962:D:/Git/VL53L1/lib/core/src\vl53l1_api_core.c **** 			VL53L1_SEQUENCE_MM1_EN | VL53L1_SEQUENCE_MM2_EN)) ==
 3031              		.loc 1 1962 21 is_stmt 0 view .LVU974
 3032 0094 94F8C531 		ldrb	r3, [r4, #453]	@ zero_extendqisi2
1962:D:/Git/VL53L1/lib/core/src\vl53l1_api_core.c **** 			VL53L1_SEQUENCE_MM1_EN | VL53L1_SEQUENCE_MM2_EN)) ==
 3033              		.loc 1 1962 6 view .LVU975
 3034 0098 13F0600F 		tst	r3, #96
 3035 009c 08D1     		bne	.L139
1965:D:/Git/VL53L1/lib/core/src\vl53l1_api_core.c **** 				pdev->customer.mm_config__outer_offset_mm * 4;
 3036              		.loc 1 1965 4 is_stmt 1 view .LVU976
1966:D:/Git/VL53L1/lib/core/src\vl53l1_api_core.c **** 		} else {
 3037              		.loc 1 1966 19 is_stmt 0 view .LVU977
 3038 009e B4F85830 		ldrh	r3, [r4, #88]
1966:D:/Git/VL53L1/lib/core/src\vl53l1_api_core.c **** 		} else {
 3039              		.loc 1 1966 47 view .LVU978
 3040 00a2 9B00     		lsls	r3, r3, #2
1965:D:/Git/VL53L1/lib/core/src\vl53l1_api_core.c **** 				pdev->customer.mm_config__outer_offset_mm * 4;
 3041              		.loc 1 1965 54 view .LVU979
 3042 00a4 A4F85430 		strh	r3, [r4, #84]	@ movhi
 3043              	.L140:
ARM GAS  C:\Users\Berbardo\AppData\Local\Temp\ccBMvrJ9.s 			page 93


1972:D:/Git/VL53L1/lib/core/src\vl53l1_api_core.c **** 				VL53L1_DEVICECONFIGLEVEL_CUSTOMER_ONWARDS) {
 3044              		.loc 1 1972 3 is_stmt 1 view .LVU980
1972:D:/Git/VL53L1/lib/core/src\vl53l1_api_core.c **** 				VL53L1_DEVICECONFIGLEVEL_CUSTOMER_ONWARDS) {
 3045              		.loc 1 1972 6 is_stmt 0 view .LVU981
 3046 00a8 042E     		cmp	r6, #4
 3047 00aa D7D8     		bhi	.L138
1974:D:/Git/VL53L1/lib/core/src\vl53l1_api_core.c **** 				VL53L1_DEVICECONFIGLEVEL_CUSTOMER_ONWARDS;
 3048              		.loc 1 1974 24 view .LVU982
 3049 00ac 0526     		movs	r6, #5
 3050 00ae D5E7     		b	.L138
 3051              	.L139:
1968:D:/Git/VL53L1/lib/core/src\vl53l1_api_core.c **** 		}
 3052              		.loc 1 1968 4 is_stmt 1 view .LVU983
1968:D:/Git/VL53L1/lib/core/src\vl53l1_api_core.c **** 		}
 3053              		.loc 1 1968 54 is_stmt 0 view .LVU984
 3054 00b0 0023     		movs	r3, #0
 3055 00b2 A4F85430 		strh	r3, [r4, #84]	@ movhi
 3056 00b6 F7E7     		b	.L140
 3057              	.LVL271:
 3058              	.L169:
1982:D:/Git/VL53L1/lib/core/src\vl53l1_api_core.c **** 			pdev->low_power_auto_data.saved_interrupt_config;
 3059              		.loc 1 1982 3 is_stmt 1 view .LVU985
1983:D:/Git/VL53L1/lib/core/src\vl53l1_api_core.c **** 
 3060              		.loc 1 1983 29 is_stmt 0 view .LVU986
 3061 00b8 94F8E732 		ldrb	r3, [r4, #743]	@ zero_extendqisi2
1982:D:/Git/VL53L1/lib/core/src\vl53l1_api_core.c **** 			pdev->low_power_auto_data.saved_interrupt_config;
 3062              		.loc 1 1982 47 view .LVU987
 3063 00bc 84F88631 		strb	r3, [r4, #390]
1986:D:/Git/VL53L1/lib/core/src\vl53l1_api_core.c **** 	}
 3064              		.loc 1 1986 3 is_stmt 1 view .LVU988
 3065              	.LVL272:
 3066              		.loc 1 1995 2 view .LVU989
1986:D:/Git/VL53L1/lib/core/src\vl53l1_api_core.c **** 	}
 3067              		.loc 1 1986 23 is_stmt 0 view .LVU990
 3068 00c0 0626     		movs	r6, #6
1996:D:/Git/VL53L1/lib/core/src\vl53l1_api_core.c **** 	case VL53L1_DEVICECONFIGLEVEL_FULL:
1997:D:/Git/VL53L1/lib/core/src\vl53l1_api_core.c **** 		i2c_index = VL53L1_STATIC_NVM_MANAGED_I2C_INDEX;
 3069              		.loc 1 1997 13 view .LVU991
 3070 00c2 0127     		movs	r7, #1
 3071              	.LVL273:
 3072              	.L142:
1998:D:/Git/VL53L1/lib/core/src\vl53l1_api_core.c **** 		break;
1999:D:/Git/VL53L1/lib/core/src\vl53l1_api_core.c **** 	case VL53L1_DEVICECONFIGLEVEL_CUSTOMER_ONWARDS:
2000:D:/Git/VL53L1/lib/core/src\vl53l1_api_core.c **** 		i2c_index = VL53L1_CUSTOMER_NVM_MANAGED_I2C_INDEX;
2001:D:/Git/VL53L1/lib/core/src\vl53l1_api_core.c **** 		break;
2002:D:/Git/VL53L1/lib/core/src\vl53l1_api_core.c **** 	case VL53L1_DEVICECONFIGLEVEL_STATIC_ONWARDS:
2003:D:/Git/VL53L1/lib/core/src\vl53l1_api_core.c **** 		i2c_index = VL53L1_STATIC_CONFIG_I2C_INDEX;
2004:D:/Git/VL53L1/lib/core/src\vl53l1_api_core.c **** 		break;
2005:D:/Git/VL53L1/lib/core/src\vl53l1_api_core.c **** 	case VL53L1_DEVICECONFIGLEVEL_GENERAL_ONWARDS:
2006:D:/Git/VL53L1/lib/core/src\vl53l1_api_core.c **** 		i2c_index = VL53L1_GENERAL_CONFIG_I2C_INDEX;
2007:D:/Git/VL53L1/lib/core/src\vl53l1_api_core.c **** 		break;
2008:D:/Git/VL53L1/lib/core/src\vl53l1_api_core.c **** 	case VL53L1_DEVICECONFIGLEVEL_TIMING_ONWARDS:
2009:D:/Git/VL53L1/lib/core/src\vl53l1_api_core.c **** 		i2c_index = VL53L1_TIMING_CONFIG_I2C_INDEX;
2010:D:/Git/VL53L1/lib/core/src\vl53l1_api_core.c **** 		break;
2011:D:/Git/VL53L1/lib/core/src\vl53l1_api_core.c **** 	case VL53L1_DEVICECONFIGLEVEL_DYNAMIC_ONWARDS:
2012:D:/Git/VL53L1/lib/core/src\vl53l1_api_core.c **** 		i2c_index = VL53L1_DYNAMIC_CONFIG_I2C_INDEX;
2013:D:/Git/VL53L1/lib/core/src\vl53l1_api_core.c **** 		break;
ARM GAS  C:\Users\Berbardo\AppData\Local\Temp\ccBMvrJ9.s 			page 94


2014:D:/Git/VL53L1/lib/core/src\vl53l1_api_core.c **** 	default:
2015:D:/Git/VL53L1/lib/core/src\vl53l1_api_core.c **** 		i2c_index = VL53L1_SYSTEM_CONTROL_I2C_INDEX;
2016:D:/Git/VL53L1/lib/core/src\vl53l1_api_core.c **** 		break;
2017:D:/Git/VL53L1/lib/core/src\vl53l1_api_core.c **** 	}
2018:D:/Git/VL53L1/lib/core/src\vl53l1_api_core.c **** 
2019:D:/Git/VL53L1/lib/core/src\vl53l1_api_core.c **** 	/* I2C Buffer size */
2020:D:/Git/VL53L1/lib/core/src\vl53l1_api_core.c **** 
2021:D:/Git/VL53L1/lib/core/src\vl53l1_api_core.c **** 	i2c_buffer_size_bytes = \
 3073              		.loc 1 2021 2 is_stmt 1 view .LVU992
 3074              		.loc 1 2021 24 is_stmt 0 view .LVU993
 3075 00c4 C7F18805 		rsb	r5, r7, #136
 3076 00c8 ADB2     		uxth	r5, r5
 3077              	.LVL274:
2022:D:/Git/VL53L1/lib/core/src\vl53l1_api_core.c **** 			(VL53L1_SYSTEM_CONTROL_I2C_INDEX +
2023:D:/Git/VL53L1/lib/core/src\vl53l1_api_core.c **** 			 VL53L1_SYSTEM_CONTROL_I2C_SIZE_BYTES) -
2024:D:/Git/VL53L1/lib/core/src\vl53l1_api_core.c **** 			 i2c_index;
2025:D:/Git/VL53L1/lib/core/src\vl53l1_api_core.c **** 
2026:D:/Git/VL53L1/lib/core/src\vl53l1_api_core.c **** 	/* Initialize buffer */
2027:D:/Git/VL53L1/lib/core/src\vl53l1_api_core.c **** 
2028:D:/Git/VL53L1/lib/core/src\vl53l1_api_core.c **** 	pbuffer = &buffer[0];
 3078              		.loc 1 2028 2 is_stmt 1 view .LVU994
2029:D:/Git/VL53L1/lib/core/src\vl53l1_api_core.c **** 	for (i = 0 ; i < i2c_buffer_size_bytes ; i++) {
 3079              		.loc 1 2029 2 view .LVU995
 3080              		.loc 1 2029 9 is_stmt 0 view .LVU996
 3081 00ca 0022     		movs	r2, #0
2028:D:/Git/VL53L1/lib/core/src\vl53l1_api_core.c **** 	for (i = 0 ; i < i2c_buffer_size_bytes ; i++) {
 3082              		.loc 1 2028 10 view .LVU997
 3083 00cc 02AB     		add	r3, sp, #8
 3084              	.LVL275:
 3085              	.L150:
 3086              		.loc 1 2029 2 discriminator 1 view .LVU998
 3087 00ce AA42     		cmp	r2, r5
 3088 00d0 13D2     		bcs	.L170
2030:D:/Git/VL53L1/lib/core/src\vl53l1_api_core.c **** 		*pbuffer++ = 0;
 3089              		.loc 1 2030 3 is_stmt 1 discriminator 3 view .LVU999
 3090              	.LVL276:
 3091              		.loc 1 2030 14 is_stmt 0 discriminator 3 view .LVU1000
 3092 00d2 0021     		movs	r1, #0
 3093 00d4 03F8011B 		strb	r1, [r3], #1
 3094              	.LVL277:
2029:D:/Git/VL53L1/lib/core/src\vl53l1_api_core.c **** 	for (i = 0 ; i < i2c_buffer_size_bytes ; i++) {
 3095              		.loc 1 2029 44 discriminator 3 view .LVU1001
 3096 00d8 0132     		adds	r2, r2, #1
 3097              	.LVL278:
2029:D:/Git/VL53L1/lib/core/src\vl53l1_api_core.c **** 	for (i = 0 ; i < i2c_buffer_size_bytes ; i++) {
 3098              		.loc 1 2029 44 discriminator 3 view .LVU1002
 3099 00da 92B2     		uxth	r2, r2
 3100              	.LVL279:
2029:D:/Git/VL53L1/lib/core/src\vl53l1_api_core.c **** 	for (i = 0 ; i < i2c_buffer_size_bytes ; i++) {
 3101              		.loc 1 2029 44 discriminator 3 view .LVU1003
 3102 00dc F7E7     		b	.L150
 3103              	.LVL280:
 3104              	.L144:
1997:D:/Git/VL53L1/lib/core/src\vl53l1_api_core.c **** 		break;
 3105              		.loc 1 1997 13 view .LVU1004
 3106 00de 0127     		movs	r7, #1
 3107 00e0 F0E7     		b	.L142
ARM GAS  C:\Users\Berbardo\AppData\Local\Temp\ccBMvrJ9.s 			page 95


 3108              	.L146:
2003:D:/Git/VL53L1/lib/core/src\vl53l1_api_core.c **** 		break;
 3109              		.loc 1 2003 3 is_stmt 1 view .LVU1005
 3110              	.LVL281:
2004:D:/Git/VL53L1/lib/core/src\vl53l1_api_core.c **** 	case VL53L1_DEVICECONFIGLEVEL_GENERAL_ONWARDS:
 3111              		.loc 1 2004 3 view .LVU1006
2003:D:/Git/VL53L1/lib/core/src\vl53l1_api_core.c **** 		break;
 3112              		.loc 1 2003 13 is_stmt 0 view .LVU1007
 3113 00e2 2427     		movs	r7, #36
2004:D:/Git/VL53L1/lib/core/src\vl53l1_api_core.c **** 	case VL53L1_DEVICECONFIGLEVEL_GENERAL_ONWARDS:
 3114              		.loc 1 2004 3 view .LVU1008
 3115 00e4 EEE7     		b	.L142
 3116              	.LVL282:
 3117              	.L147:
2006:D:/Git/VL53L1/lib/core/src\vl53l1_api_core.c **** 		break;
 3118              		.loc 1 2006 3 is_stmt 1 view .LVU1009
2007:D:/Git/VL53L1/lib/core/src\vl53l1_api_core.c **** 	case VL53L1_DEVICECONFIGLEVEL_TIMING_ONWARDS:
 3119              		.loc 1 2007 3 view .LVU1010
2006:D:/Git/VL53L1/lib/core/src\vl53l1_api_core.c **** 		break;
 3120              		.loc 1 2006 13 is_stmt 0 view .LVU1011
 3121 00e6 4427     		movs	r7, #68
2007:D:/Git/VL53L1/lib/core/src\vl53l1_api_core.c **** 	case VL53L1_DEVICECONFIGLEVEL_TIMING_ONWARDS:
 3122              		.loc 1 2007 3 view .LVU1012
 3123 00e8 ECE7     		b	.L142
 3124              	.LVL283:
 3125              	.L148:
2009:D:/Git/VL53L1/lib/core/src\vl53l1_api_core.c **** 		break;
 3126              		.loc 1 2009 3 is_stmt 1 view .LVU1013
2010:D:/Git/VL53L1/lib/core/src\vl53l1_api_core.c **** 	case VL53L1_DEVICECONFIGLEVEL_DYNAMIC_ONWARDS:
 3127              		.loc 1 2010 3 view .LVU1014
2009:D:/Git/VL53L1/lib/core/src\vl53l1_api_core.c **** 		break;
 3128              		.loc 1 2009 13 is_stmt 0 view .LVU1015
 3129 00ea 5A27     		movs	r7, #90
2010:D:/Git/VL53L1/lib/core/src\vl53l1_api_core.c **** 	case VL53L1_DEVICECONFIGLEVEL_DYNAMIC_ONWARDS:
 3130              		.loc 1 2010 3 view .LVU1016
 3131 00ec EAE7     		b	.L142
 3132              	.LVL284:
 3133              	.L149:
2012:D:/Git/VL53L1/lib/core/src\vl53l1_api_core.c **** 		break;
 3134              		.loc 1 2012 3 is_stmt 1 view .LVU1017
2013:D:/Git/VL53L1/lib/core/src\vl53l1_api_core.c **** 	default:
 3135              		.loc 1 2013 3 view .LVU1018
2012:D:/Git/VL53L1/lib/core/src\vl53l1_api_core.c **** 		break;
 3136              		.loc 1 2012 13 is_stmt 0 view .LVU1019
 3137 00ee 7127     		movs	r7, #113
2013:D:/Git/VL53L1/lib/core/src\vl53l1_api_core.c **** 	default:
 3138              		.loc 1 2013 3 view .LVU1020
 3139 00f0 E8E7     		b	.L142
 3140              	.LVL285:
 3141              	.L143:
2015:D:/Git/VL53L1/lib/core/src\vl53l1_api_core.c **** 		break;
 3142              		.loc 1 2015 3 is_stmt 1 view .LVU1021
2016:D:/Git/VL53L1/lib/core/src\vl53l1_api_core.c **** 	}
 3143              		.loc 1 2016 3 view .LVU1022
2015:D:/Git/VL53L1/lib/core/src\vl53l1_api_core.c **** 		break;
 3144              		.loc 1 2015 13 is_stmt 0 view .LVU1023
 3145 00f2 8327     		movs	r7, #131
ARM GAS  C:\Users\Berbardo\AppData\Local\Temp\ccBMvrJ9.s 			page 96


2016:D:/Git/VL53L1/lib/core/src\vl53l1_api_core.c **** 	}
 3146              		.loc 1 2016 3 view .LVU1024
 3147 00f4 E6E7     		b	.L142
 3148              	.LVL286:
 3149              	.L164:
2000:D:/Git/VL53L1/lib/core/src\vl53l1_api_core.c **** 		break;
 3150              		.loc 1 2000 13 view .LVU1025
 3151 00f6 0D27     		movs	r7, #13
 3152 00f8 E4E7     		b	.L142
 3153              	.LVL287:
 3154              	.L170:
2031:D:/Git/VL53L1/lib/core/src\vl53l1_api_core.c **** 	}
2032:D:/Git/VL53L1/lib/core/src\vl53l1_api_core.c **** 
2033:D:/Git/VL53L1/lib/core/src\vl53l1_api_core.c **** 	/* Build I2C buffer */
2034:D:/Git/VL53L1/lib/core/src\vl53l1_api_core.c **** 
2035:D:/Git/VL53L1/lib/core/src\vl53l1_api_core.c **** 	if (device_config_level >= VL53L1_DEVICECONFIGLEVEL_FULL &&
 3155              		.loc 1 2035 2 is_stmt 1 view .LVU1026
 3156              		.loc 1 2035 5 is_stmt 0 view .LVU1027
 3157 00fa 052E     		cmp	r6, #5
 3158 00fc 35D8     		bhi	.L171
1906:D:/Git/VL53L1/lib/core/src\vl53l1_api_core.c **** 	VL53L1_LLDriverData_t *pdev = VL53L1DevStructGetLLDriverHandle(Dev);
 3159              		.loc 1 1906 15 view .LVU1028
 3160 00fe 0020     		movs	r0, #0
 3161              	.LVL288:
 3162              	.L152:
2036:D:/Git/VL53L1/lib/core/src\vl53l1_api_core.c **** 		status == VL53L1_ERROR_NONE) {
2037:D:/Git/VL53L1/lib/core/src\vl53l1_api_core.c **** 
2038:D:/Git/VL53L1/lib/core/src\vl53l1_api_core.c **** 		i2c_buffer_offset_bytes = \
2039:D:/Git/VL53L1/lib/core/src\vl53l1_api_core.c **** 			VL53L1_STATIC_NVM_MANAGED_I2C_INDEX - i2c_index;
2040:D:/Git/VL53L1/lib/core/src\vl53l1_api_core.c **** 
2041:D:/Git/VL53L1/lib/core/src\vl53l1_api_core.c **** 		status =
2042:D:/Git/VL53L1/lib/core/src\vl53l1_api_core.c **** 			VL53L1_i2c_encode_static_nvm_managed(
2043:D:/Git/VL53L1/lib/core/src\vl53l1_api_core.c **** 				pstatic_nvm,
2044:D:/Git/VL53L1/lib/core/src\vl53l1_api_core.c **** 				VL53L1_STATIC_NVM_MANAGED_I2C_SIZE_BYTES,
2045:D:/Git/VL53L1/lib/core/src\vl53l1_api_core.c **** 				&buffer[i2c_buffer_offset_bytes]);
2046:D:/Git/VL53L1/lib/core/src\vl53l1_api_core.c **** 	}
2047:D:/Git/VL53L1/lib/core/src\vl53l1_api_core.c **** 
2048:D:/Git/VL53L1/lib/core/src\vl53l1_api_core.c **** 	if (device_config_level >= VL53L1_DEVICECONFIGLEVEL_CUSTOMER_ONWARDS &&
 3163              		.loc 1 2048 2 is_stmt 1 view .LVU1029
 3164              		.loc 1 2048 5 is_stmt 0 view .LVU1030
 3165 0100 042E     		cmp	r6, #4
 3166 0102 01D9     		bls	.L153
 3167              		.loc 1 2048 71 discriminator 1 view .LVU1031
 3168 0104 0028     		cmp	r0, #0
 3169 0106 39D0     		beq	.L172
 3170              	.L153:
2049:D:/Git/VL53L1/lib/core/src\vl53l1_api_core.c **** 		status == VL53L1_ERROR_NONE) {
2050:D:/Git/VL53L1/lib/core/src\vl53l1_api_core.c **** 
2051:D:/Git/VL53L1/lib/core/src\vl53l1_api_core.c **** 		i2c_buffer_offset_bytes = \
2052:D:/Git/VL53L1/lib/core/src\vl53l1_api_core.c **** 			VL53L1_CUSTOMER_NVM_MANAGED_I2C_INDEX - i2c_index;
2053:D:/Git/VL53L1/lib/core/src\vl53l1_api_core.c **** 
2054:D:/Git/VL53L1/lib/core/src\vl53l1_api_core.c **** 		status =
2055:D:/Git/VL53L1/lib/core/src\vl53l1_api_core.c **** 			VL53L1_i2c_encode_customer_nvm_managed(
2056:D:/Git/VL53L1/lib/core/src\vl53l1_api_core.c **** 				pcustomer_nvm,
2057:D:/Git/VL53L1/lib/core/src\vl53l1_api_core.c **** 				VL53L1_CUSTOMER_NVM_MANAGED_I2C_SIZE_BYTES,
2058:D:/Git/VL53L1/lib/core/src\vl53l1_api_core.c **** 				&buffer[i2c_buffer_offset_bytes]);
2059:D:/Git/VL53L1/lib/core/src\vl53l1_api_core.c **** 	}
ARM GAS  C:\Users\Berbardo\AppData\Local\Temp\ccBMvrJ9.s 			page 97


2060:D:/Git/VL53L1/lib/core/src\vl53l1_api_core.c **** 
2061:D:/Git/VL53L1/lib/core/src\vl53l1_api_core.c **** 	if (device_config_level >= VL53L1_DEVICECONFIGLEVEL_STATIC_ONWARDS &&
 3171              		.loc 1 2061 2 is_stmt 1 view .LVU1032
 3172              		.loc 1 2061 5 is_stmt 0 view .LVU1033
 3173 0108 032E     		cmp	r6, #3
 3174 010a 01D9     		bls	.L154
 3175              		.loc 1 2061 69 discriminator 1 view .LVU1034
 3176 010c 0028     		cmp	r0, #0
 3177 010e 3FD0     		beq	.L173
 3178              	.L154:
2062:D:/Git/VL53L1/lib/core/src\vl53l1_api_core.c **** 		status == VL53L1_ERROR_NONE) {
2063:D:/Git/VL53L1/lib/core/src\vl53l1_api_core.c **** 
2064:D:/Git/VL53L1/lib/core/src\vl53l1_api_core.c **** 		i2c_buffer_offset_bytes = \
2065:D:/Git/VL53L1/lib/core/src\vl53l1_api_core.c **** 			VL53L1_STATIC_CONFIG_I2C_INDEX - i2c_index;
2066:D:/Git/VL53L1/lib/core/src\vl53l1_api_core.c **** 
2067:D:/Git/VL53L1/lib/core/src\vl53l1_api_core.c **** 		status =
2068:D:/Git/VL53L1/lib/core/src\vl53l1_api_core.c **** 			VL53L1_i2c_encode_static_config(
2069:D:/Git/VL53L1/lib/core/src\vl53l1_api_core.c **** 				pstatic,
2070:D:/Git/VL53L1/lib/core/src\vl53l1_api_core.c **** 				VL53L1_STATIC_CONFIG_I2C_SIZE_BYTES,
2071:D:/Git/VL53L1/lib/core/src\vl53l1_api_core.c **** 				&buffer[i2c_buffer_offset_bytes]);
2072:D:/Git/VL53L1/lib/core/src\vl53l1_api_core.c **** 	}
2073:D:/Git/VL53L1/lib/core/src\vl53l1_api_core.c **** 
2074:D:/Git/VL53L1/lib/core/src\vl53l1_api_core.c **** 	if (device_config_level >= VL53L1_DEVICECONFIGLEVEL_GENERAL_ONWARDS &&
 3179              		.loc 1 2074 2 is_stmt 1 view .LVU1035
 3180              		.loc 1 2074 5 is_stmt 0 view .LVU1036
 3181 0110 022E     		cmp	r6, #2
 3182 0112 01D9     		bls	.L155
 3183              		.loc 1 2074 70 discriminator 1 view .LVU1037
 3184 0114 0028     		cmp	r0, #0
 3185 0116 45D0     		beq	.L174
 3186              	.L155:
2075:D:/Git/VL53L1/lib/core/src\vl53l1_api_core.c **** 		status == VL53L1_ERROR_NONE) {
2076:D:/Git/VL53L1/lib/core/src\vl53l1_api_core.c **** 
2077:D:/Git/VL53L1/lib/core/src\vl53l1_api_core.c **** 		i2c_buffer_offset_bytes =
2078:D:/Git/VL53L1/lib/core/src\vl53l1_api_core.c **** 				VL53L1_GENERAL_CONFIG_I2C_INDEX - i2c_index;
2079:D:/Git/VL53L1/lib/core/src\vl53l1_api_core.c **** 
2080:D:/Git/VL53L1/lib/core/src\vl53l1_api_core.c **** 		status =
2081:D:/Git/VL53L1/lib/core/src\vl53l1_api_core.c **** 			VL53L1_i2c_encode_general_config(
2082:D:/Git/VL53L1/lib/core/src\vl53l1_api_core.c **** 				pgeneral,
2083:D:/Git/VL53L1/lib/core/src\vl53l1_api_core.c **** 				VL53L1_GENERAL_CONFIG_I2C_SIZE_BYTES,
2084:D:/Git/VL53L1/lib/core/src\vl53l1_api_core.c **** 				&buffer[i2c_buffer_offset_bytes]);
2085:D:/Git/VL53L1/lib/core/src\vl53l1_api_core.c **** 	}
2086:D:/Git/VL53L1/lib/core/src\vl53l1_api_core.c **** 
2087:D:/Git/VL53L1/lib/core/src\vl53l1_api_core.c **** 	if (device_config_level >= VL53L1_DEVICECONFIGLEVEL_TIMING_ONWARDS &&
 3187              		.loc 1 2087 2 is_stmt 1 view .LVU1038
 3188              		.loc 1 2087 5 is_stmt 0 view .LVU1039
 3189 0118 012E     		cmp	r6, #1
 3190 011a 01D9     		bls	.L156
 3191              		.loc 1 2087 69 discriminator 1 view .LVU1040
 3192 011c 0028     		cmp	r0, #0
 3193 011e 4BD0     		beq	.L175
 3194              	.L156:
2088:D:/Git/VL53L1/lib/core/src\vl53l1_api_core.c **** 		status == VL53L1_ERROR_NONE) {
2089:D:/Git/VL53L1/lib/core/src\vl53l1_api_core.c **** 
2090:D:/Git/VL53L1/lib/core/src\vl53l1_api_core.c **** 		i2c_buffer_offset_bytes = \
2091:D:/Git/VL53L1/lib/core/src\vl53l1_api_core.c **** 				VL53L1_TIMING_CONFIG_I2C_INDEX - i2c_index;
2092:D:/Git/VL53L1/lib/core/src\vl53l1_api_core.c **** 
ARM GAS  C:\Users\Berbardo\AppData\Local\Temp\ccBMvrJ9.s 			page 98


2093:D:/Git/VL53L1/lib/core/src\vl53l1_api_core.c **** 		status =
2094:D:/Git/VL53L1/lib/core/src\vl53l1_api_core.c **** 			VL53L1_i2c_encode_timing_config(
2095:D:/Git/VL53L1/lib/core/src\vl53l1_api_core.c **** 				ptiming,
2096:D:/Git/VL53L1/lib/core/src\vl53l1_api_core.c **** 				VL53L1_TIMING_CONFIG_I2C_SIZE_BYTES,
2097:D:/Git/VL53L1/lib/core/src\vl53l1_api_core.c **** 				&buffer[i2c_buffer_offset_bytes]);
2098:D:/Git/VL53L1/lib/core/src\vl53l1_api_core.c **** 	}
2099:D:/Git/VL53L1/lib/core/src\vl53l1_api_core.c **** 
2100:D:/Git/VL53L1/lib/core/src\vl53l1_api_core.c **** 	if (device_config_level >= VL53L1_DEVICECONFIGLEVEL_DYNAMIC_ONWARDS &&
 3195              		.loc 1 2100 2 is_stmt 1 view .LVU1041
 3196              		.loc 1 2100 5 is_stmt 0 view .LVU1042
 3197 0120 C6B1     		cbz	r6, .L157
 3198              		.loc 1 2100 70 discriminator 1 view .LVU1043
 3199 0122 B8B9     		cbnz	r0, .L157
2101:D:/Git/VL53L1/lib/core/src\vl53l1_api_core.c **** 		status == VL53L1_ERROR_NONE) {
2102:D:/Git/VL53L1/lib/core/src\vl53l1_api_core.c **** 
2103:D:/Git/VL53L1/lib/core/src\vl53l1_api_core.c **** 		i2c_buffer_offset_bytes = \
 3200              		.loc 1 2103 3 is_stmt 1 view .LVU1044
 3201              		.loc 1 2103 27 is_stmt 0 view .LVU1045
 3202 0124 C7F17102 		rsb	r2, r7, #113
 3203 0128 92B2     		uxth	r2, r2
 3204              	.LVL289:
2104:D:/Git/VL53L1/lib/core/src\vl53l1_api_core.c **** 			VL53L1_DYNAMIC_CONFIG_I2C_INDEX - i2c_index;
2105:D:/Git/VL53L1/lib/core/src\vl53l1_api_core.c **** 
2106:D:/Git/VL53L1/lib/core/src\vl53l1_api_core.c **** 		/* If in back to back mode, use GPH ID from cfg_state */
2107:D:/Git/VL53L1/lib/core/src\vl53l1_api_core.c **** 		if ((psystem->system__mode_start &
 3205              		.loc 1 2107 3 is_stmt 1 view .LVU1046
 3206              		.loc 1 2107 15 is_stmt 0 view .LVU1047
 3207 012a 94F8CC31 		ldrb	r3, [r4, #460]	@ zero_extendqisi2
 3208              		.loc 1 2107 6 view .LVU1048
 3209 012e 13F0200F 		tst	r3, #32
 3210 0132 09D0     		beq	.L158
2108:D:/Git/VL53L1/lib/core/src\vl53l1_api_core.c **** 			VL53L1_DEVICEMEASUREMENTMODE_BACKTOBACK) ==
2109:D:/Git/VL53L1/lib/core/src\vl53l1_api_core.c **** 			VL53L1_DEVICEMEASUREMENTMODE_BACKTOBACK) {
2110:D:/Git/VL53L1/lib/core/src\vl53l1_api_core.c **** 			pdynamic->system__grouped_parameter_hold_0 = pstate->cfg_gph_id | 0x01;
 3211              		.loc 1 2110 4 is_stmt 1 view .LVU1049
 3212              		.loc 1 2110 55 is_stmt 0 view .LVU1050
 3213 0134 94F82E30 		ldrb	r3, [r4, #46]	@ zero_extendqisi2
 3214              		.loc 1 2110 47 view .LVU1051
 3215 0138 43F00101 		orr	r1, r3, #1
 3216 013c 84F8B411 		strb	r1, [r4, #436]
2111:D:/Git/VL53L1/lib/core/src\vl53l1_api_core.c **** 			pdynamic->system__grouped_parameter_hold_1 = pstate->cfg_gph_id | 0x01;
 3217              		.loc 1 2111 4 is_stmt 1 view .LVU1052
 3218              		.loc 1 2111 47 is_stmt 0 view .LVU1053
 3219 0140 84F8C011 		strb	r1, [r4, #448]
2112:D:/Git/VL53L1/lib/core/src\vl53l1_api_core.c **** 			pdynamic->system__grouped_parameter_hold   = pstate->cfg_gph_id;
 3220              		.loc 1 2112 4 is_stmt 1 view .LVU1054
 3221              		.loc 1 2112 47 is_stmt 0 view .LVU1055
 3222 0144 84F8C631 		strb	r3, [r4, #454]
 3223              	.L158:
2113:D:/Git/VL53L1/lib/core/src\vl53l1_api_core.c **** 		}
2114:D:/Git/VL53L1/lib/core/src\vl53l1_api_core.c **** 		status =
 3224              		.loc 1 2114 3 is_stmt 1 view .LVU1056
2115:D:/Git/VL53L1/lib/core/src\vl53l1_api_core.c **** 			VL53L1_i2c_encode_dynamic_config(
 3225              		.loc 1 2115 4 is_stmt 0 view .LVU1057
 3226 0148 02AB     		add	r3, sp, #8
 3227 014a 1A44     		add	r2, r2, r3
 3228              	.LVL290:
ARM GAS  C:\Users\Berbardo\AppData\Local\Temp\ccBMvrJ9.s 			page 99


 3229              		.loc 1 2115 4 view .LVU1058
 3230 014c 1221     		movs	r1, #18
 3231 014e 4846     		mov	r0, r9
 3232              	.LVL291:
 3233              		.loc 1 2115 4 view .LVU1059
 3234 0150 FFF7FEFF 		bl	VL53L1_i2c_encode_dynamic_config
 3235              	.LVL292:
 3236              	.L157:
2116:D:/Git/VL53L1/lib/core/src\vl53l1_api_core.c **** 				pdynamic,
2117:D:/Git/VL53L1/lib/core/src\vl53l1_api_core.c **** 				VL53L1_DYNAMIC_CONFIG_I2C_SIZE_BYTES,
2118:D:/Git/VL53L1/lib/core/src\vl53l1_api_core.c **** 				&buffer[i2c_buffer_offset_bytes]);
2119:D:/Git/VL53L1/lib/core/src\vl53l1_api_core.c **** 	}
2120:D:/Git/VL53L1/lib/core/src\vl53l1_api_core.c **** 
2121:D:/Git/VL53L1/lib/core/src\vl53l1_api_core.c **** 	if (status == VL53L1_ERROR_NONE) {
 3237              		.loc 1 2121 2 is_stmt 1 view .LVU1060
 3238              		.loc 1 2121 5 is_stmt 0 view .LVU1061
 3239 0154 0028     		cmp	r0, #0
 3240 0156 39D0     		beq	.L176
 3241              	.L159:
2122:D:/Git/VL53L1/lib/core/src\vl53l1_api_core.c **** 
2123:D:/Git/VL53L1/lib/core/src\vl53l1_api_core.c **** 		i2c_buffer_offset_bytes = \
2124:D:/Git/VL53L1/lib/core/src\vl53l1_api_core.c **** 				VL53L1_SYSTEM_CONTROL_I2C_INDEX - i2c_index;
2125:D:/Git/VL53L1/lib/core/src\vl53l1_api_core.c **** 
2126:D:/Git/VL53L1/lib/core/src\vl53l1_api_core.c **** 		status =
2127:D:/Git/VL53L1/lib/core/src\vl53l1_api_core.c **** 			VL53L1_i2c_encode_system_control(
2128:D:/Git/VL53L1/lib/core/src\vl53l1_api_core.c **** 				psystem,
2129:D:/Git/VL53L1/lib/core/src\vl53l1_api_core.c **** 				VL53L1_SYSTEM_CONTROL_I2C_SIZE_BYTES,
2130:D:/Git/VL53L1/lib/core/src\vl53l1_api_core.c **** 				&buffer[i2c_buffer_offset_bytes]);
2131:D:/Git/VL53L1/lib/core/src\vl53l1_api_core.c **** 	}
2132:D:/Git/VL53L1/lib/core/src\vl53l1_api_core.c **** 
2133:D:/Git/VL53L1/lib/core/src\vl53l1_api_core.c **** 	/* Send I2C Buffer */
2134:D:/Git/VL53L1/lib/core/src\vl53l1_api_core.c **** 
2135:D:/Git/VL53L1/lib/core/src\vl53l1_api_core.c **** 	if (status == VL53L1_ERROR_NONE) {
 3242              		.loc 1 2135 2 is_stmt 1 view .LVU1062
 3243              		.loc 1 2135 5 is_stmt 0 view .LVU1063
 3244 0158 0028     		cmp	r0, #0
 3245 015a 41D0     		beq	.L177
 3246              	.L160:
2136:D:/Git/VL53L1/lib/core/src\vl53l1_api_core.c **** 		status =
2137:D:/Git/VL53L1/lib/core/src\vl53l1_api_core.c **** 			VL53L1_WriteMulti(
2138:D:/Git/VL53L1/lib/core/src\vl53l1_api_core.c **** 				Dev,
2139:D:/Git/VL53L1/lib/core/src\vl53l1_api_core.c **** 				i2c_index,
2140:D:/Git/VL53L1/lib/core/src\vl53l1_api_core.c **** 				buffer,
2141:D:/Git/VL53L1/lib/core/src\vl53l1_api_core.c **** 				(uint32_t)i2c_buffer_size_bytes);
2142:D:/Git/VL53L1/lib/core/src\vl53l1_api_core.c **** 	}
2143:D:/Git/VL53L1/lib/core/src\vl53l1_api_core.c **** 
2144:D:/Git/VL53L1/lib/core/src\vl53l1_api_core.c **** 	/*
2145:D:/Git/VL53L1/lib/core/src\vl53l1_api_core.c **** 	 * Update LL Driver State
2146:D:/Git/VL53L1/lib/core/src\vl53l1_api_core.c **** 	 */
2147:D:/Git/VL53L1/lib/core/src\vl53l1_api_core.c **** 	if (status == VL53L1_ERROR_NONE)
 3247              		.loc 1 2147 2 is_stmt 1 view .LVU1064
 3248              		.loc 1 2147 5 is_stmt 0 view .LVU1065
 3249 015c 0028     		cmp	r0, #0
 3250 015e 46D0     		beq	.L178
 3251              	.L161:
2148:D:/Git/VL53L1/lib/core/src\vl53l1_api_core.c **** 		status = VL53L1_update_ll_driver_rd_state(Dev);
2149:D:/Git/VL53L1/lib/core/src\vl53l1_api_core.c **** 
ARM GAS  C:\Users\Berbardo\AppData\Local\Temp\ccBMvrJ9.s 			page 100


2150:D:/Git/VL53L1/lib/core/src\vl53l1_api_core.c **** 	if (status == VL53L1_ERROR_NONE)
 3252              		.loc 1 2150 2 is_stmt 1 view .LVU1066
 3253              		.loc 1 2150 5 is_stmt 0 view .LVU1067
 3254 0160 0028     		cmp	r0, #0
 3255 0162 48D0     		beq	.L179
 3256              	.L162:
2151:D:/Git/VL53L1/lib/core/src\vl53l1_api_core.c **** 		status = VL53L1_update_ll_driver_cfg_state(Dev);
2152:D:/Git/VL53L1/lib/core/src\vl53l1_api_core.c **** 
2153:D:/Git/VL53L1/lib/core/src\vl53l1_api_core.c **** 	LOG_FUNCTION_END(status);
 3257              		.loc 1 2153 26 is_stmt 1 view .LVU1068
2154:D:/Git/VL53L1/lib/core/src\vl53l1_api_core.c **** 
2155:D:/Git/VL53L1/lib/core/src\vl53l1_api_core.c **** 	return status;
 3258              		.loc 1 2155 2 view .LVU1069
2156:D:/Git/VL53L1/lib/core/src\vl53l1_api_core.c **** }
 3259              		.loc 1 2156 1 is_stmt 0 view .LVU1070
 3260 0164 43B0     		add	sp, sp, #268
 3261              		.cfi_remember_state
 3262              		.cfi_def_cfa_offset 36
 3263              	.LVL293:
 3264              		.loc 1 2156 1 view .LVU1071
 3265              		@ sp needed
 3266 0166 BDE8F08F 		pop	{r4, r5, r6, r7, r8, r9, r10, fp, pc}
 3267              	.LVL294:
 3268              	.L171:
 3269              		.cfi_restore_state
2038:D:/Git/VL53L1/lib/core/src\vl53l1_api_core.c **** 			VL53L1_STATIC_NVM_MANAGED_I2C_INDEX - i2c_index;
 3270              		.loc 1 2038 3 is_stmt 1 view .LVU1072
2038:D:/Git/VL53L1/lib/core/src\vl53l1_api_core.c **** 			VL53L1_STATIC_NVM_MANAGED_I2C_INDEX - i2c_index;
 3271              		.loc 1 2038 27 is_stmt 0 view .LVU1073
 3272 016a C7F10102 		rsb	r2, r7, #1
 3273              	.LVL295:
2041:D:/Git/VL53L1/lib/core/src\vl53l1_api_core.c **** 			VL53L1_i2c_encode_static_nvm_managed(
 3274              		.loc 1 2041 3 is_stmt 1 view .LVU1074
2042:D:/Git/VL53L1/lib/core/src\vl53l1_api_core.c **** 				pstatic_nvm,
 3275              		.loc 1 2042 4 is_stmt 0 view .LVU1075
 3276 016e 02AB     		add	r3, sp, #8
 3277 0170 13FA82F2 		uxtah	r2, r3, r2
 3278 0174 0B21     		movs	r1, #11
 3279 0176 FFF7FEFF 		bl	VL53L1_i2c_encode_static_nvm_managed
 3280              	.LVL296:
2042:D:/Git/VL53L1/lib/core/src\vl53l1_api_core.c **** 				pstatic_nvm,
 3281              		.loc 1 2042 4 view .LVU1076
 3282 017a C1E7     		b	.L152
 3283              	.L172:
2051:D:/Git/VL53L1/lib/core/src\vl53l1_api_core.c **** 			VL53L1_CUSTOMER_NVM_MANAGED_I2C_INDEX - i2c_index;
 3284              		.loc 1 2051 3 is_stmt 1 view .LVU1077
2051:D:/Git/VL53L1/lib/core/src\vl53l1_api_core.c **** 			VL53L1_CUSTOMER_NVM_MANAGED_I2C_INDEX - i2c_index;
 3285              		.loc 1 2051 27 is_stmt 0 view .LVU1078
 3286 017c C7F10D02 		rsb	r2, r7, #13
2054:D:/Git/VL53L1/lib/core/src\vl53l1_api_core.c **** 			VL53L1_i2c_encode_customer_nvm_managed(
 3287              		.loc 1 2054 3 is_stmt 1 view .LVU1079
2055:D:/Git/VL53L1/lib/core/src\vl53l1_api_core.c **** 				pcustomer_nvm,
 3288              		.loc 1 2055 4 is_stmt 0 view .LVU1080
 3289 0180 02AB     		add	r3, sp, #8
 3290 0182 13FA82F2 		uxtah	r2, r3, r2
 3291 0186 1721     		movs	r1, #23
 3292 0188 5846     		mov	r0, fp
ARM GAS  C:\Users\Berbardo\AppData\Local\Temp\ccBMvrJ9.s 			page 101


 3293              	.LVL297:
2055:D:/Git/VL53L1/lib/core/src\vl53l1_api_core.c **** 				pcustomer_nvm,
 3294              		.loc 1 2055 4 view .LVU1081
 3295 018a FFF7FEFF 		bl	VL53L1_i2c_encode_customer_nvm_managed
 3296              	.LVL298:
2055:D:/Git/VL53L1/lib/core/src\vl53l1_api_core.c **** 				pcustomer_nvm,
 3297              		.loc 1 2055 4 view .LVU1082
 3298 018e BBE7     		b	.L153
 3299              	.L173:
2064:D:/Git/VL53L1/lib/core/src\vl53l1_api_core.c **** 			VL53L1_STATIC_CONFIG_I2C_INDEX - i2c_index;
 3300              		.loc 1 2064 3 is_stmt 1 view .LVU1083
2064:D:/Git/VL53L1/lib/core/src\vl53l1_api_core.c **** 			VL53L1_STATIC_CONFIG_I2C_INDEX - i2c_index;
 3301              		.loc 1 2064 27 is_stmt 0 view .LVU1084
 3302 0190 C7F12402 		rsb	r2, r7, #36
2067:D:/Git/VL53L1/lib/core/src\vl53l1_api_core.c **** 			VL53L1_i2c_encode_static_config(
 3303              		.loc 1 2067 3 is_stmt 1 view .LVU1085
2068:D:/Git/VL53L1/lib/core/src\vl53l1_api_core.c **** 				pstatic,
 3304              		.loc 1 2068 4 is_stmt 0 view .LVU1086
 3305 0194 02AB     		add	r3, sp, #8
 3306 0196 13FA82F2 		uxtah	r2, r3, r2
 3307 019a 2021     		movs	r1, #32
 3308 019c 0098     		ldr	r0, [sp]
 3309              	.LVL299:
2068:D:/Git/VL53L1/lib/core/src\vl53l1_api_core.c **** 				pstatic,
 3310              		.loc 1 2068 4 view .LVU1087
 3311 019e FFF7FEFF 		bl	VL53L1_i2c_encode_static_config
 3312              	.LVL300:
2068:D:/Git/VL53L1/lib/core/src\vl53l1_api_core.c **** 				pstatic,
 3313              		.loc 1 2068 4 view .LVU1088
 3314 01a2 B5E7     		b	.L154
 3315              	.L174:
2077:D:/Git/VL53L1/lib/core/src\vl53l1_api_core.c **** 				VL53L1_GENERAL_CONFIG_I2C_INDEX - i2c_index;
 3316              		.loc 1 2077 3 is_stmt 1 view .LVU1089
2077:D:/Git/VL53L1/lib/core/src\vl53l1_api_core.c **** 				VL53L1_GENERAL_CONFIG_I2C_INDEX - i2c_index;
 3317              		.loc 1 2077 27 is_stmt 0 view .LVU1090
 3318 01a4 C7F14402 		rsb	r2, r7, #68
2080:D:/Git/VL53L1/lib/core/src\vl53l1_api_core.c **** 			VL53L1_i2c_encode_general_config(
 3319              		.loc 1 2080 3 is_stmt 1 view .LVU1091
2081:D:/Git/VL53L1/lib/core/src\vl53l1_api_core.c **** 				pgeneral,
 3320              		.loc 1 2081 4 is_stmt 0 view .LVU1092
 3321 01a8 02AB     		add	r3, sp, #8
 3322 01aa 13FA82F2 		uxtah	r2, r3, r2
 3323 01ae 1621     		movs	r1, #22
 3324 01b0 0198     		ldr	r0, [sp, #4]
 3325              	.LVL301:
2081:D:/Git/VL53L1/lib/core/src\vl53l1_api_core.c **** 				pgeneral,
 3326              		.loc 1 2081 4 view .LVU1093
 3327 01b2 FFF7FEFF 		bl	VL53L1_i2c_encode_general_config
 3328              	.LVL302:
2081:D:/Git/VL53L1/lib/core/src\vl53l1_api_core.c **** 				pgeneral,
 3329              		.loc 1 2081 4 view .LVU1094
 3330 01b6 AFE7     		b	.L155
 3331              	.L175:
2090:D:/Git/VL53L1/lib/core/src\vl53l1_api_core.c **** 				VL53L1_TIMING_CONFIG_I2C_INDEX - i2c_index;
 3332              		.loc 1 2090 3 is_stmt 1 view .LVU1095
2090:D:/Git/VL53L1/lib/core/src\vl53l1_api_core.c **** 				VL53L1_TIMING_CONFIG_I2C_INDEX - i2c_index;
 3333              		.loc 1 2090 27 is_stmt 0 view .LVU1096
ARM GAS  C:\Users\Berbardo\AppData\Local\Temp\ccBMvrJ9.s 			page 102


 3334 01b8 C7F15A02 		rsb	r2, r7, #90
2093:D:/Git/VL53L1/lib/core/src\vl53l1_api_core.c **** 			VL53L1_i2c_encode_timing_config(
 3335              		.loc 1 2093 3 is_stmt 1 view .LVU1097
2094:D:/Git/VL53L1/lib/core/src\vl53l1_api_core.c **** 				ptiming,
 3336              		.loc 1 2094 4 is_stmt 0 view .LVU1098
 3337 01bc 02AB     		add	r3, sp, #8
 3338 01be 13FA82F2 		uxtah	r2, r3, r2
 3339 01c2 1721     		movs	r1, #23
 3340 01c4 5046     		mov	r0, r10
 3341              	.LVL303:
2094:D:/Git/VL53L1/lib/core/src\vl53l1_api_core.c **** 				ptiming,
 3342              		.loc 1 2094 4 view .LVU1099
 3343 01c6 FFF7FEFF 		bl	VL53L1_i2c_encode_timing_config
 3344              	.LVL304:
2094:D:/Git/VL53L1/lib/core/src\vl53l1_api_core.c **** 				ptiming,
 3345              		.loc 1 2094 4 view .LVU1100
 3346 01ca A9E7     		b	.L156
 3347              	.L176:
2123:D:/Git/VL53L1/lib/core/src\vl53l1_api_core.c **** 				VL53L1_SYSTEM_CONTROL_I2C_INDEX - i2c_index;
 3348              		.loc 1 2123 3 is_stmt 1 view .LVU1101
2123:D:/Git/VL53L1/lib/core/src\vl53l1_api_core.c **** 				VL53L1_SYSTEM_CONTROL_I2C_INDEX - i2c_index;
 3349              		.loc 1 2123 27 is_stmt 0 view .LVU1102
 3350 01cc C7F18302 		rsb	r2, r7, #131
2126:D:/Git/VL53L1/lib/core/src\vl53l1_api_core.c **** 			VL53L1_i2c_encode_system_control(
 3351              		.loc 1 2126 3 is_stmt 1 view .LVU1103
2127:D:/Git/VL53L1/lib/core/src\vl53l1_api_core.c **** 				psystem,
 3352              		.loc 1 2127 4 is_stmt 0 view .LVU1104
 3353 01d0 02AB     		add	r3, sp, #8
 3354 01d2 13FA82F2 		uxtah	r2, r3, r2
 3355 01d6 0521     		movs	r1, #5
 3356 01d8 4046     		mov	r0, r8
 3357              	.LVL305:
2127:D:/Git/VL53L1/lib/core/src\vl53l1_api_core.c **** 				psystem,
 3358              		.loc 1 2127 4 view .LVU1105
 3359 01da FFF7FEFF 		bl	VL53L1_i2c_encode_system_control
 3360              	.LVL306:
2127:D:/Git/VL53L1/lib/core/src\vl53l1_api_core.c **** 				psystem,
 3361              		.loc 1 2127 4 view .LVU1106
 3362 01de BBE7     		b	.L159
 3363              	.L177:
2136:D:/Git/VL53L1/lib/core/src\vl53l1_api_core.c **** 			VL53L1_WriteMulti(
 3364              		.loc 1 2136 3 is_stmt 1 view .LVU1107
2137:D:/Git/VL53L1/lib/core/src\vl53l1_api_core.c **** 				Dev,
 3365              		.loc 1 2137 4 is_stmt 0 view .LVU1108
 3366 01e0 2B46     		mov	r3, r5
 3367 01e2 02AA     		add	r2, sp, #8
 3368 01e4 3946     		mov	r1, r7
 3369 01e6 2046     		mov	r0, r4
 3370              	.LVL307:
2137:D:/Git/VL53L1/lib/core/src\vl53l1_api_core.c **** 				Dev,
 3371              		.loc 1 2137 4 view .LVU1109
 3372 01e8 FFF7FEFF 		bl	VL53L1_WriteMulti
 3373              	.LVL308:
2137:D:/Git/VL53L1/lib/core/src\vl53l1_api_core.c **** 				Dev,
 3374              		.loc 1 2137 4 view .LVU1110
 3375 01ec B6E7     		b	.L160
 3376              	.L178:
ARM GAS  C:\Users\Berbardo\AppData\Local\Temp\ccBMvrJ9.s 			page 103


2148:D:/Git/VL53L1/lib/core/src\vl53l1_api_core.c **** 
 3377              		.loc 1 2148 3 is_stmt 1 view .LVU1111
2148:D:/Git/VL53L1/lib/core/src\vl53l1_api_core.c **** 
 3378              		.loc 1 2148 12 is_stmt 0 view .LVU1112
 3379 01ee 2046     		mov	r0, r4
 3380              	.LVL309:
2148:D:/Git/VL53L1/lib/core/src\vl53l1_api_core.c **** 
 3381              		.loc 1 2148 12 view .LVU1113
 3382 01f0 FFF7FEFF 		bl	VL53L1_update_ll_driver_rd_state
 3383              	.LVL310:
2148:D:/Git/VL53L1/lib/core/src\vl53l1_api_core.c **** 
 3384              		.loc 1 2148 12 view .LVU1114
 3385 01f4 B4E7     		b	.L161
 3386              	.L179:
2151:D:/Git/VL53L1/lib/core/src\vl53l1_api_core.c **** 
 3387              		.loc 1 2151 3 is_stmt 1 view .LVU1115
2151:D:/Git/VL53L1/lib/core/src\vl53l1_api_core.c **** 
 3388              		.loc 1 2151 12 is_stmt 0 view .LVU1116
 3389 01f6 2046     		mov	r0, r4
 3390              	.LVL311:
2151:D:/Git/VL53L1/lib/core/src\vl53l1_api_core.c **** 
 3391              		.loc 1 2151 12 view .LVU1117
 3392 01f8 FFF7FEFF 		bl	VL53L1_update_ll_driver_cfg_state
 3393              	.LVL312:
2151:D:/Git/VL53L1/lib/core/src\vl53l1_api_core.c **** 
 3394              		.loc 1 2151 12 view .LVU1118
 3395 01fc B2E7     		b	.L162
 3396              	.L181:
 3397 01fe 00BF     		.align	2
 3398              	.L180:
 3399 0200 00010100 		.word	65792
 3400              		.cfi_endproc
 3401              	.LFE164:
 3403              		.section	.text.VL53L1_stop_range,"ax",%progbits
 3404              		.align	1
 3405              		.global	VL53L1_stop_range
 3406              		.syntax unified
 3407              		.thumb
 3408              		.thumb_func
 3409              		.fpu fpv4-sp-d16
 3411              	VL53L1_stop_range:
 3412              	.LVL313:
 3413              	.LFB165:
2157:D:/Git/VL53L1/lib/core/src\vl53l1_api_core.c **** 
2158:D:/Git/VL53L1/lib/core/src\vl53l1_api_core.c **** 
2159:D:/Git/VL53L1/lib/core/src\vl53l1_api_core.c **** VL53L1_Error VL53L1_stop_range(
2160:D:/Git/VL53L1/lib/core/src\vl53l1_api_core.c **** 	VL53L1_DEV     Dev)
2161:D:/Git/VL53L1/lib/core/src\vl53l1_api_core.c **** {
 3414              		.loc 1 2161 1 is_stmt 1 view -0
 3415              		.cfi_startproc
 3416              		@ args = 0, pretend = 0, frame = 0
 3417              		@ frame_needed = 0, uses_anonymous_args = 0
 3418              		.loc 1 2161 1 is_stmt 0 view .LVU1120
 3419 0000 38B5     		push	{r3, r4, r5, lr}
 3420              		.cfi_def_cfa_offset 16
 3421              		.cfi_offset 3, -16
 3422              		.cfi_offset 4, -12
ARM GAS  C:\Users\Berbardo\AppData\Local\Temp\ccBMvrJ9.s 			page 104


 3423              		.cfi_offset 5, -8
 3424              		.cfi_offset 14, -4
 3425 0002 0446     		mov	r4, r0
2162:D:/Git/VL53L1/lib/core/src\vl53l1_api_core.c **** 	/*
2163:D:/Git/VL53L1/lib/core/src\vl53l1_api_core.c **** 	 * Stops any in process range using the ABORT command
2164:D:/Git/VL53L1/lib/core/src\vl53l1_api_core.c **** 	 * Also clears all of the measurement mode bits
2165:D:/Git/VL53L1/lib/core/src\vl53l1_api_core.c **** 	 */
2166:D:/Git/VL53L1/lib/core/src\vl53l1_api_core.c **** 
2167:D:/Git/VL53L1/lib/core/src\vl53l1_api_core.c **** 	VL53L1_Error status = VL53L1_ERROR_NONE;
 3426              		.loc 1 2167 2 is_stmt 1 view .LVU1121
 3427              	.LVL314:
2168:D:/Git/VL53L1/lib/core/src\vl53l1_api_core.c **** 
2169:D:/Git/VL53L1/lib/core/src\vl53l1_api_core.c **** 	VL53L1_LLDriverData_t *pdev =
 3428              		.loc 1 2169 2 view .LVU1122
2170:D:/Git/VL53L1/lib/core/src\vl53l1_api_core.c **** 			VL53L1DevStructGetLLDriverHandle(Dev);
2171:D:/Git/VL53L1/lib/core/src\vl53l1_api_core.c **** 
2172:D:/Git/VL53L1/lib/core/src\vl53l1_api_core.c **** 	/* Merge ABORT mode with mode_start */
2173:D:/Git/VL53L1/lib/core/src\vl53l1_api_core.c **** 
2174:D:/Git/VL53L1/lib/core/src\vl53l1_api_core.c **** 	pdev->sys_ctrl.system__mode_start =
 3429              		.loc 1 2174 2 view .LVU1123
2175:D:/Git/VL53L1/lib/core/src\vl53l1_api_core.c **** 			(pdev->sys_ctrl.system__mode_start & VL53L1_DEVICEMEASUREMENTMODE_STOP_MASK) |
 3430              		.loc 1 2175 19 is_stmt 0 view .LVU1124
 3431 0004 90F9CC31 		ldrsb	r3, [r0, #460]
 3432              		.loc 1 2175 39 view .LVU1125
 3433 0008 03F00F03 		and	r3, r3, #15
 3434              		.loc 1 2175 81 view .LVU1126
 3435 000c 43F08003 		orr	r3, r3, #128
2174:D:/Git/VL53L1/lib/core/src\vl53l1_api_core.c **** 			(pdev->sys_ctrl.system__mode_start & VL53L1_DEVICEMEASUREMENTMODE_STOP_MASK) |
 3436              		.loc 1 2174 36 view .LVU1127
 3437 0010 80F8CC31 		strb	r3, [r0, #460]
2176:D:/Git/VL53L1/lib/core/src\vl53l1_api_core.c **** 			 VL53L1_DEVICEMEASUREMENTMODE_ABORT;
2177:D:/Git/VL53L1/lib/core/src\vl53l1_api_core.c **** 
2178:D:/Git/VL53L1/lib/core/src\vl53l1_api_core.c **** 	status = VL53L1_set_system_control(
 3438              		.loc 1 2178 2 is_stmt 1 view .LVU1128
 3439              		.loc 1 2178 11 is_stmt 0 view .LVU1129
 3440 0014 00F5E471 		add	r1, r0, #456
 3441 0018 FFF7FEFF 		bl	VL53L1_set_system_control
 3442              	.LVL315:
 3443              		.loc 1 2178 11 view .LVU1130
 3444 001c 0546     		mov	r5, r0
 3445              	.LVL316:
2179:D:/Git/VL53L1/lib/core/src\vl53l1_api_core.c **** 				Dev,
2180:D:/Git/VL53L1/lib/core/src\vl53l1_api_core.c **** 				&pdev->sys_ctrl);
2181:D:/Git/VL53L1/lib/core/src\vl53l1_api_core.c **** 
2182:D:/Git/VL53L1/lib/core/src\vl53l1_api_core.c **** 	/* Abort bit is auto clear so clear register group structure to match */
2183:D:/Git/VL53L1/lib/core/src\vl53l1_api_core.c **** 	pdev->sys_ctrl.system__mode_start =
 3446              		.loc 1 2183 2 is_stmt 1 view .LVU1131
2184:D:/Git/VL53L1/lib/core/src\vl53l1_api_core.c **** 			(pdev->sys_ctrl.system__mode_start & VL53L1_DEVICEMEASUREMENTMODE_STOP_MASK);
 3447              		.loc 1 2184 19 is_stmt 0 view .LVU1132
 3448 001e 94F8CC31 		ldrb	r3, [r4, #460]	@ zero_extendqisi2
 3449              		.loc 1 2184 39 view .LVU1133
 3450 0022 03F00F03 		and	r3, r3, #15
2183:D:/Git/VL53L1/lib/core/src\vl53l1_api_core.c **** 			(pdev->sys_ctrl.system__mode_start & VL53L1_DEVICEMEASUREMENTMODE_STOP_MASK);
 3451              		.loc 1 2183 36 view .LVU1134
 3452 0026 84F8CC31 		strb	r3, [r4, #460]
2185:D:/Git/VL53L1/lib/core/src\vl53l1_api_core.c **** 
2186:D:/Git/VL53L1/lib/core/src\vl53l1_api_core.c **** 	/* reset zone dynamic info */
ARM GAS  C:\Users\Berbardo\AppData\Local\Temp\ccBMvrJ9.s 			page 105


2187:D:/Git/VL53L1/lib/core/src\vl53l1_api_core.c **** 	VL53L1_init_ll_driver_state(
 3453              		.loc 1 2187 2 is_stmt 1 view .LVU1135
 3454 002a 0321     		movs	r1, #3
 3455 002c 2046     		mov	r0, r4
 3456 002e FFF7FEFF 		bl	VL53L1_init_ll_driver_state
 3457              	.LVL317:
2188:D:/Git/VL53L1/lib/core/src\vl53l1_api_core.c **** 			Dev,
2189:D:/Git/VL53L1/lib/core/src\vl53l1_api_core.c **** 			VL53L1_DEVICESTATE_SW_STANDBY);
2190:D:/Git/VL53L1/lib/core/src\vl53l1_api_core.c **** 
2191:D:/Git/VL53L1/lib/core/src\vl53l1_api_core.c **** 	/* reset low power auto */
2192:D:/Git/VL53L1/lib/core/src\vl53l1_api_core.c **** 	if (pdev->low_power_auto_data.is_low_power_auto_mode == 1)
 3458              		.loc 1 2192 2 view .LVU1136
 3459              		.loc 1 2192 31 is_stmt 0 view .LVU1137
 3460 0032 94F8E532 		ldrb	r3, [r4, #741]	@ zero_extendqisi2
 3461              		.loc 1 2192 5 view .LVU1138
 3462 0036 012B     		cmp	r3, #1
 3463 0038 01D0     		beq	.L185
 3464              	.L183:
2193:D:/Git/VL53L1/lib/core/src\vl53l1_api_core.c **** 		VL53L1_low_power_auto_data_stop_range(Dev);
2194:D:/Git/VL53L1/lib/core/src\vl53l1_api_core.c **** 
2195:D:/Git/VL53L1/lib/core/src\vl53l1_api_core.c **** 	return status;
 3465              		.loc 1 2195 2 is_stmt 1 view .LVU1139
2196:D:/Git/VL53L1/lib/core/src\vl53l1_api_core.c **** }
 3466              		.loc 1 2196 1 is_stmt 0 view .LVU1140
 3467 003a 2846     		mov	r0, r5
 3468 003c 38BD     		pop	{r3, r4, r5, pc}
 3469              	.LVL318:
 3470              	.L185:
2193:D:/Git/VL53L1/lib/core/src\vl53l1_api_core.c **** 		VL53L1_low_power_auto_data_stop_range(Dev);
 3471              		.loc 1 2193 3 is_stmt 1 view .LVU1141
 3472 003e 2046     		mov	r0, r4
 3473 0040 FFF7FEFF 		bl	VL53L1_low_power_auto_data_stop_range
 3474              	.LVL319:
 3475 0044 F9E7     		b	.L183
 3476              		.cfi_endproc
 3477              	.LFE165:
 3479              		.section	.text.VL53L1_get_measurement_results,"ax",%progbits
 3480              		.align	1
 3481              		.global	VL53L1_get_measurement_results
 3482              		.syntax unified
 3483              		.thumb
 3484              		.thumb_func
 3485              		.fpu fpv4-sp-d16
 3487              	VL53L1_get_measurement_results:
 3488              	.LVL320:
 3489              	.LFB166:
2197:D:/Git/VL53L1/lib/core/src\vl53l1_api_core.c **** 
2198:D:/Git/VL53L1/lib/core/src\vl53l1_api_core.c **** 
2199:D:/Git/VL53L1/lib/core/src\vl53l1_api_core.c **** VL53L1_Error VL53L1_get_measurement_results(
2200:D:/Git/VL53L1/lib/core/src\vl53l1_api_core.c **** 	VL53L1_DEV                     Dev,
2201:D:/Git/VL53L1/lib/core/src\vl53l1_api_core.c **** 	VL53L1_DeviceResultsLevel      device_results_level)
2202:D:/Git/VL53L1/lib/core/src\vl53l1_api_core.c **** {
 3490              		.loc 1 2202 1 view -0
 3491              		.cfi_startproc
 3492              		@ args = 0, pretend = 0, frame = 256
 3493              		@ frame_needed = 0, uses_anonymous_args = 0
 3494              		.loc 1 2202 1 is_stmt 0 view .LVU1143
ARM GAS  C:\Users\Berbardo\AppData\Local\Temp\ccBMvrJ9.s 			page 106


 3495 0000 F0B5     		push	{r4, r5, r6, r7, lr}
 3496              		.cfi_def_cfa_offset 20
 3497              		.cfi_offset 4, -20
 3498              		.cfi_offset 5, -16
 3499              		.cfi_offset 6, -12
 3500              		.cfi_offset 7, -8
 3501              		.cfi_offset 14, -4
 3502 0002 C1B0     		sub	sp, sp, #260
 3503              		.cfi_def_cfa_offset 280
 3504 0004 0C46     		mov	r4, r1
2203:D:/Git/VL53L1/lib/core/src\vl53l1_api_core.c **** 	/*
2204:D:/Git/VL53L1/lib/core/src\vl53l1_api_core.c **** 	 * Read via a single I2C multiple byte transaction all
2205:D:/Git/VL53L1/lib/core/src\vl53l1_api_core.c **** 	 * of the requested device measurement data results
2206:D:/Git/VL53L1/lib/core/src\vl53l1_api_core.c **** 	 */
2207:D:/Git/VL53L1/lib/core/src\vl53l1_api_core.c **** 
2208:D:/Git/VL53L1/lib/core/src\vl53l1_api_core.c **** 	VL53L1_Error status = VL53L1_ERROR_NONE;
 3505              		.loc 1 2208 2 is_stmt 1 view .LVU1144
 3506              	.LVL321:
2209:D:/Git/VL53L1/lib/core/src\vl53l1_api_core.c **** 	VL53L1_LLDriverData_t *pdev = VL53L1DevStructGetLLDriverHandle(Dev);
 3507              		.loc 1 2209 2 view .LVU1145
2210:D:/Git/VL53L1/lib/core/src\vl53l1_api_core.c **** 
2211:D:/Git/VL53L1/lib/core/src\vl53l1_api_core.c **** 	uint8_t buffer[VL53L1_MAX_I2C_XFER_SIZE];
 3508              		.loc 1 2211 2 view .LVU1146
2212:D:/Git/VL53L1/lib/core/src\vl53l1_api_core.c **** 
2213:D:/Git/VL53L1/lib/core/src\vl53l1_api_core.c **** 	VL53L1_system_results_t   *psystem_results = &(pdev->sys_results);
 3509              		.loc 1 2213 2 view .LVU1147
 3510              		.loc 1 2213 29 is_stmt 0 view .LVU1148
 3511 0006 00F5E775 		add	r5, r0, #462
 3512              	.LVL322:
2214:D:/Git/VL53L1/lib/core/src\vl53l1_api_core.c **** 	VL53L1_core_results_t     *pcore_results   = &(pdev->core_results);
 3513              		.loc 1 2214 2 is_stmt 1 view .LVU1149
 3514              		.loc 1 2214 29 is_stmt 0 view .LVU1150
 3515 000a 00F52277 		add	r7, r0, #648
 3516              	.LVL323:
2215:D:/Git/VL53L1/lib/core/src\vl53l1_api_core.c **** 	VL53L1_debug_results_t    *pdebug_results  = &(pdev->dbg_results);
 3517              		.loc 1 2215 2 is_stmt 1 view .LVU1151
 3518              		.loc 1 2215 29 is_stmt 0 view .LVU1152
 3519 000e 00F52B76 		add	r6, r0, #684
 3520              	.LVL324:
2216:D:/Git/VL53L1/lib/core/src\vl53l1_api_core.c **** 
2217:D:/Git/VL53L1/lib/core/src\vl53l1_api_core.c **** 	uint16_t i2c_index               = VL53L1_SYSTEM_RESULTS_I2C_INDEX;
 3521              		.loc 1 2217 2 is_stmt 1 view .LVU1153
2218:D:/Git/VL53L1/lib/core/src\vl53l1_api_core.c **** 	uint16_t i2c_buffer_offset_bytes = 0;
 3522              		.loc 1 2218 2 view .LVU1154
2219:D:/Git/VL53L1/lib/core/src\vl53l1_api_core.c **** 	uint16_t i2c_buffer_size_bytes   = 0;
 3523              		.loc 1 2219 2 view .LVU1155
2220:D:/Git/VL53L1/lib/core/src\vl53l1_api_core.c **** 
2221:D:/Git/VL53L1/lib/core/src\vl53l1_api_core.c **** 	LOG_FUNCTION_START("");
 3524              		.loc 1 2221 24 view .LVU1156
2222:D:/Git/VL53L1/lib/core/src\vl53l1_api_core.c **** 
2223:D:/Git/VL53L1/lib/core/src\vl53l1_api_core.c **** 	/* Determine multi byte read transaction size */
2224:D:/Git/VL53L1/lib/core/src\vl53l1_api_core.c **** 
2225:D:/Git/VL53L1/lib/core/src\vl53l1_api_core.c **** 	switch (device_results_level) {
 3525              		.loc 1 2225 2 view .LVU1157
 3526 0012 0129     		cmp	r1, #1
 3527 0014 0ED0     		beq	.L191
 3528 0016 0229     		cmp	r1, #2
ARM GAS  C:\Users\Berbardo\AppData\Local\Temp\ccBMvrJ9.s 			page 107


 3529 0018 0ED0     		beq	.L192
2226:D:/Git/VL53L1/lib/core/src\vl53l1_api_core.c **** 	case VL53L1_DEVICERESULTSLEVEL_FULL:
2227:D:/Git/VL53L1/lib/core/src\vl53l1_api_core.c **** 		i2c_buffer_size_bytes =
2228:D:/Git/VL53L1/lib/core/src\vl53l1_api_core.c **** 				(VL53L1_DEBUG_RESULTS_I2C_INDEX +
2229:D:/Git/VL53L1/lib/core/src\vl53l1_api_core.c **** 				VL53L1_DEBUG_RESULTS_I2C_SIZE_BYTES) -
2230:D:/Git/VL53L1/lib/core/src\vl53l1_api_core.c **** 				i2c_index;
2231:D:/Git/VL53L1/lib/core/src\vl53l1_api_core.c **** 		break;
2232:D:/Git/VL53L1/lib/core/src\vl53l1_api_core.c **** 	case VL53L1_DEVICERESULTSLEVEL_UPTO_CORE:
2233:D:/Git/VL53L1/lib/core/src\vl53l1_api_core.c **** 		i2c_buffer_size_bytes =
2234:D:/Git/VL53L1/lib/core/src\vl53l1_api_core.c **** 				(VL53L1_CORE_RESULTS_I2C_INDEX +
2235:D:/Git/VL53L1/lib/core/src\vl53l1_api_core.c **** 				VL53L1_CORE_RESULTS_I2C_SIZE_BYTES) -
2236:D:/Git/VL53L1/lib/core/src\vl53l1_api_core.c **** 				i2c_index;
2237:D:/Git/VL53L1/lib/core/src\vl53l1_api_core.c **** 		break;
2238:D:/Git/VL53L1/lib/core/src\vl53l1_api_core.c **** 	default:
2239:D:/Git/VL53L1/lib/core/src\vl53l1_api_core.c **** 		i2c_buffer_size_bytes =
 3530              		.loc 1 2239 25 is_stmt 0 view .LVU1158
 3531 001a 2C23     		movs	r3, #44
 3532              	.L187:
 3533              	.LVL325:
2240:D:/Git/VL53L1/lib/core/src\vl53l1_api_core.c **** 				VL53L1_SYSTEM_RESULTS_I2C_SIZE_BYTES;
2241:D:/Git/VL53L1/lib/core/src\vl53l1_api_core.c **** 		break;
2242:D:/Git/VL53L1/lib/core/src\vl53l1_api_core.c **** 	}
2243:D:/Git/VL53L1/lib/core/src\vl53l1_api_core.c **** 
2244:D:/Git/VL53L1/lib/core/src\vl53l1_api_core.c **** 	/* Read  Result Data */
2245:D:/Git/VL53L1/lib/core/src\vl53l1_api_core.c **** 
2246:D:/Git/VL53L1/lib/core/src\vl53l1_api_core.c **** 	if (status == VL53L1_ERROR_NONE) /*lint !e774 always true*/
 3534              		.loc 1 2246 2 is_stmt 1 view .LVU1159
2247:D:/Git/VL53L1/lib/core/src\vl53l1_api_core.c **** 		status =
 3535              		.loc 1 2247 3 view .LVU1160
2248:D:/Git/VL53L1/lib/core/src\vl53l1_api_core.c **** 			VL53L1_ReadMulti(
 3536              		.loc 1 2248 4 is_stmt 0 view .LVU1161
 3537 001c 6A46     		mov	r2, sp
 3538 001e 8821     		movs	r1, #136
 3539              	.LVL326:
 3540              		.loc 1 2248 4 view .LVU1162
 3541 0020 FFF7FEFF 		bl	VL53L1_ReadMulti
 3542              	.LVL327:
2249:D:/Git/VL53L1/lib/core/src\vl53l1_api_core.c **** 				Dev,
2250:D:/Git/VL53L1/lib/core/src\vl53l1_api_core.c **** 				i2c_index,
2251:D:/Git/VL53L1/lib/core/src\vl53l1_api_core.c **** 				buffer,
2252:D:/Git/VL53L1/lib/core/src\vl53l1_api_core.c **** 				(uint32_t)i2c_buffer_size_bytes);
2253:D:/Git/VL53L1/lib/core/src\vl53l1_api_core.c **** 
2254:D:/Git/VL53L1/lib/core/src\vl53l1_api_core.c **** 	/* Decode  I2C buffer */
2255:D:/Git/VL53L1/lib/core/src\vl53l1_api_core.c **** 
2256:D:/Git/VL53L1/lib/core/src\vl53l1_api_core.c **** 	if (device_results_level >= VL53L1_DEVICERESULTSLEVEL_FULL &&
 3543              		.loc 1 2256 2 is_stmt 1 view .LVU1163
 3544              		.loc 1 2256 5 is_stmt 0 view .LVU1164
 3545 0024 012C     		cmp	r4, #1
 3546 0026 00D9     		bls	.L188
 3547              		.loc 1 2256 61 discriminator 1 view .LVU1165
 3548 0028 40B1     		cbz	r0, .L194
 3549              	.LVL328:
 3550              	.L188:
2257:D:/Git/VL53L1/lib/core/src\vl53l1_api_core.c **** 		status == VL53L1_ERROR_NONE) {
2258:D:/Git/VL53L1/lib/core/src\vl53l1_api_core.c **** 
2259:D:/Git/VL53L1/lib/core/src\vl53l1_api_core.c **** 		i2c_buffer_offset_bytes =
2260:D:/Git/VL53L1/lib/core/src\vl53l1_api_core.c **** 				VL53L1_DEBUG_RESULTS_I2C_INDEX - i2c_index;
ARM GAS  C:\Users\Berbardo\AppData\Local\Temp\ccBMvrJ9.s 			page 108


2261:D:/Git/VL53L1/lib/core/src\vl53l1_api_core.c **** 
2262:D:/Git/VL53L1/lib/core/src\vl53l1_api_core.c **** 		status =
2263:D:/Git/VL53L1/lib/core/src\vl53l1_api_core.c **** 			VL53L1_i2c_decode_debug_results(
2264:D:/Git/VL53L1/lib/core/src\vl53l1_api_core.c **** 				VL53L1_DEBUG_RESULTS_I2C_SIZE_BYTES,
2265:D:/Git/VL53L1/lib/core/src\vl53l1_api_core.c **** 				&buffer[i2c_buffer_offset_bytes],
2266:D:/Git/VL53L1/lib/core/src\vl53l1_api_core.c **** 				pdebug_results);
2267:D:/Git/VL53L1/lib/core/src\vl53l1_api_core.c **** 	}
2268:D:/Git/VL53L1/lib/core/src\vl53l1_api_core.c **** 
2269:D:/Git/VL53L1/lib/core/src\vl53l1_api_core.c **** 	if (device_results_level >= VL53L1_DEVICERESULTSLEVEL_UPTO_CORE &&
 3551              		.loc 1 2269 2 is_stmt 1 view .LVU1166
 3552              		.loc 1 2269 5 is_stmt 0 view .LVU1167
 3553 002a 04B1     		cbz	r4, .L189
 3554              		.loc 1 2269 66 discriminator 1 view .LVU1168
 3555 002c 68B1     		cbz	r0, .L195
 3556              	.L189:
2270:D:/Git/VL53L1/lib/core/src\vl53l1_api_core.c **** 		status == VL53L1_ERROR_NONE) {
2271:D:/Git/VL53L1/lib/core/src\vl53l1_api_core.c **** 
2272:D:/Git/VL53L1/lib/core/src\vl53l1_api_core.c **** 		i2c_buffer_offset_bytes =
2273:D:/Git/VL53L1/lib/core/src\vl53l1_api_core.c **** 				VL53L1_CORE_RESULTS_I2C_INDEX - i2c_index;
2274:D:/Git/VL53L1/lib/core/src\vl53l1_api_core.c **** 
2275:D:/Git/VL53L1/lib/core/src\vl53l1_api_core.c **** 		status =
2276:D:/Git/VL53L1/lib/core/src\vl53l1_api_core.c **** 			VL53L1_i2c_decode_core_results(
2277:D:/Git/VL53L1/lib/core/src\vl53l1_api_core.c **** 				VL53L1_CORE_RESULTS_I2C_SIZE_BYTES,
2278:D:/Git/VL53L1/lib/core/src\vl53l1_api_core.c **** 				&buffer[i2c_buffer_offset_bytes],
2279:D:/Git/VL53L1/lib/core/src\vl53l1_api_core.c **** 				pcore_results);
2280:D:/Git/VL53L1/lib/core/src\vl53l1_api_core.c **** 	}
2281:D:/Git/VL53L1/lib/core/src\vl53l1_api_core.c **** 
2282:D:/Git/VL53L1/lib/core/src\vl53l1_api_core.c **** 	if (status == VL53L1_ERROR_NONE) {
 3557              		.loc 1 2282 2 is_stmt 1 view .LVU1169
 3558              		.loc 1 2282 5 is_stmt 0 view .LVU1170
 3559 002e 90B1     		cbz	r0, .L196
 3560              	.L190:
2283:D:/Git/VL53L1/lib/core/src\vl53l1_api_core.c **** 
2284:D:/Git/VL53L1/lib/core/src\vl53l1_api_core.c **** 		i2c_buffer_offset_bytes = 0;
2285:D:/Git/VL53L1/lib/core/src\vl53l1_api_core.c **** 		status =
2286:D:/Git/VL53L1/lib/core/src\vl53l1_api_core.c **** 			VL53L1_i2c_decode_system_results(
2287:D:/Git/VL53L1/lib/core/src\vl53l1_api_core.c **** 				VL53L1_SYSTEM_RESULTS_I2C_SIZE_BYTES,
2288:D:/Git/VL53L1/lib/core/src\vl53l1_api_core.c **** 				&buffer[i2c_buffer_offset_bytes],
2289:D:/Git/VL53L1/lib/core/src\vl53l1_api_core.c **** 				psystem_results);
2290:D:/Git/VL53L1/lib/core/src\vl53l1_api_core.c **** 	}
2291:D:/Git/VL53L1/lib/core/src\vl53l1_api_core.c **** 
2292:D:/Git/VL53L1/lib/core/src\vl53l1_api_core.c **** 	LOG_FUNCTION_END(status);
 3561              		.loc 1 2292 26 is_stmt 1 view .LVU1171
2293:D:/Git/VL53L1/lib/core/src\vl53l1_api_core.c **** 
2294:D:/Git/VL53L1/lib/core/src\vl53l1_api_core.c **** 	return status;
 3562              		.loc 1 2294 2 view .LVU1172
2295:D:/Git/VL53L1/lib/core/src\vl53l1_api_core.c **** }
 3563              		.loc 1 2295 1 is_stmt 0 view .LVU1173
 3564 0030 41B0     		add	sp, sp, #260
 3565              		.cfi_remember_state
 3566              		.cfi_def_cfa_offset 20
 3567              		@ sp needed
 3568 0032 F0BD     		pop	{r4, r5, r6, r7, pc}
 3569              	.LVL329:
 3570              	.L191:
 3571              		.cfi_restore_state
2233:D:/Git/VL53L1/lib/core/src\vl53l1_api_core.c **** 				(VL53L1_CORE_RESULTS_I2C_INDEX +
ARM GAS  C:\Users\Berbardo\AppData\Local\Temp\ccBMvrJ9.s 			page 109


 3572              		.loc 1 2233 25 view .LVU1174
 3573 0034 4D23     		movs	r3, #77
 3574 0036 F1E7     		b	.L187
 3575              	.L192:
2227:D:/Git/VL53L1/lib/core/src\vl53l1_api_core.c **** 				(VL53L1_DEBUG_RESULTS_I2C_INDEX +
 3576              		.loc 1 2227 25 view .LVU1175
 3577 0038 8623     		movs	r3, #134
 3578 003a EFE7     		b	.L187
 3579              	.LVL330:
 3580              	.L194:
2259:D:/Git/VL53L1/lib/core/src\vl53l1_api_core.c **** 				VL53L1_DEBUG_RESULTS_I2C_INDEX - i2c_index;
 3581              		.loc 1 2259 3 is_stmt 1 view .LVU1176
2262:D:/Git/VL53L1/lib/core/src\vl53l1_api_core.c **** 			VL53L1_i2c_decode_debug_results(
 3582              		.loc 1 2262 3 view .LVU1177
2263:D:/Git/VL53L1/lib/core/src\vl53l1_api_core.c **** 				VL53L1_DEBUG_RESULTS_I2C_SIZE_BYTES,
 3583              		.loc 1 2263 4 is_stmt 0 view .LVU1178
 3584 003c 3246     		mov	r2, r6
 3585 003e 0DF14E01 		add	r1, sp, #78
 3586 0042 3820     		movs	r0, #56
 3587              	.LVL331:
2263:D:/Git/VL53L1/lib/core/src\vl53l1_api_core.c **** 				VL53L1_DEBUG_RESULTS_I2C_SIZE_BYTES,
 3588              		.loc 1 2263 4 view .LVU1179
 3589 0044 FFF7FEFF 		bl	VL53L1_i2c_decode_debug_results
 3590              	.LVL332:
2263:D:/Git/VL53L1/lib/core/src\vl53l1_api_core.c **** 				VL53L1_DEBUG_RESULTS_I2C_SIZE_BYTES,
 3591              		.loc 1 2263 4 view .LVU1180
 3592 0048 EFE7     		b	.L188
 3593              	.LVL333:
 3594              	.L195:
2272:D:/Git/VL53L1/lib/core/src\vl53l1_api_core.c **** 				VL53L1_CORE_RESULTS_I2C_INDEX - i2c_index;
 3595              		.loc 1 2272 3 is_stmt 1 view .LVU1181
2275:D:/Git/VL53L1/lib/core/src\vl53l1_api_core.c **** 			VL53L1_i2c_decode_core_results(
 3596              		.loc 1 2275 3 view .LVU1182
2276:D:/Git/VL53L1/lib/core/src\vl53l1_api_core.c **** 				VL53L1_CORE_RESULTS_I2C_SIZE_BYTES,
 3597              		.loc 1 2276 4 is_stmt 0 view .LVU1183
 3598 004a 3A46     		mov	r2, r7
 3599 004c 0BA9     		add	r1, sp, #44
 3600 004e 2120     		movs	r0, #33
 3601              	.LVL334:
2276:D:/Git/VL53L1/lib/core/src\vl53l1_api_core.c **** 				VL53L1_CORE_RESULTS_I2C_SIZE_BYTES,
 3602              		.loc 1 2276 4 view .LVU1184
 3603 0050 FFF7FEFF 		bl	VL53L1_i2c_decode_core_results
 3604              	.LVL335:
2276:D:/Git/VL53L1/lib/core/src\vl53l1_api_core.c **** 				VL53L1_CORE_RESULTS_I2C_SIZE_BYTES,
 3605              		.loc 1 2276 4 view .LVU1185
 3606 0054 EBE7     		b	.L189
 3607              	.LVL336:
 3608              	.L196:
2284:D:/Git/VL53L1/lib/core/src\vl53l1_api_core.c **** 		status =
 3609              		.loc 1 2284 3 is_stmt 1 view .LVU1186
2285:D:/Git/VL53L1/lib/core/src\vl53l1_api_core.c **** 			VL53L1_i2c_decode_system_results(
 3610              		.loc 1 2285 3 view .LVU1187
2286:D:/Git/VL53L1/lib/core/src\vl53l1_api_core.c **** 				VL53L1_SYSTEM_RESULTS_I2C_SIZE_BYTES,
 3611              		.loc 1 2286 4 is_stmt 0 view .LVU1188
 3612 0056 2A46     		mov	r2, r5
 3613 0058 6946     		mov	r1, sp
 3614 005a 2C20     		movs	r0, #44
ARM GAS  C:\Users\Berbardo\AppData\Local\Temp\ccBMvrJ9.s 			page 110


 3615              	.LVL337:
2286:D:/Git/VL53L1/lib/core/src\vl53l1_api_core.c **** 				VL53L1_SYSTEM_RESULTS_I2C_SIZE_BYTES,
 3616              		.loc 1 2286 4 view .LVU1189
 3617 005c FFF7FEFF 		bl	VL53L1_i2c_decode_system_results
 3618              	.LVL338:
2286:D:/Git/VL53L1/lib/core/src\vl53l1_api_core.c **** 				VL53L1_SYSTEM_RESULTS_I2C_SIZE_BYTES,
 3619              		.loc 1 2286 4 view .LVU1190
 3620 0060 E6E7     		b	.L190
 3621              		.cfi_endproc
 3622              	.LFE166:
 3624              		.section	.text.VL53L1_clear_interrupt_and_enable_next_range,"ax",%progbits
 3625              		.align	1
 3626              		.global	VL53L1_clear_interrupt_and_enable_next_range
 3627              		.syntax unified
 3628              		.thumb
 3629              		.thumb_func
 3630              		.fpu fpv4-sp-d16
 3632              	VL53L1_clear_interrupt_and_enable_next_range:
 3633              	.LVL339:
 3634              	.LFB168:
2296:D:/Git/VL53L1/lib/core/src\vl53l1_api_core.c **** 
2297:D:/Git/VL53L1/lib/core/src\vl53l1_api_core.c **** 
2298:D:/Git/VL53L1/lib/core/src\vl53l1_api_core.c **** VL53L1_Error VL53L1_get_device_results(
2299:D:/Git/VL53L1/lib/core/src\vl53l1_api_core.c **** 	VL53L1_DEV                    Dev,
2300:D:/Git/VL53L1/lib/core/src\vl53l1_api_core.c **** 	VL53L1_DeviceResultsLevel     device_results_level,
2301:D:/Git/VL53L1/lib/core/src\vl53l1_api_core.c **** 	VL53L1_range_results_t       *prange_results)
2302:D:/Git/VL53L1/lib/core/src\vl53l1_api_core.c **** {
2303:D:/Git/VL53L1/lib/core/src\vl53l1_api_core.c **** 	/*
2304:D:/Git/VL53L1/lib/core/src\vl53l1_api_core.c **** 	 * Wrapper function using the functions below
2305:D:/Git/VL53L1/lib/core/src\vl53l1_api_core.c **** 	 *
2306:D:/Git/VL53L1/lib/core/src\vl53l1_api_core.c **** 	 *  VL53L1_get_measurement_results()
2307:D:/Git/VL53L1/lib/core/src\vl53l1_api_core.c **** 	 *  VL53L1_init_and_start_range()
2308:D:/Git/VL53L1/lib/core/src\vl53l1_api_core.c **** 	 *  VL53L1_copy_sys_and_core_results_to_range_results()
2309:D:/Git/VL53L1/lib/core/src\vl53l1_api_core.c **** 	 *
2310:D:/Git/VL53L1/lib/core/src\vl53l1_api_core.c **** 	 *  The input measurement mode controls what happens next ...
2311:D:/Git/VL53L1/lib/core/src\vl53l1_api_core.c **** 	 */
2312:D:/Git/VL53L1/lib/core/src\vl53l1_api_core.c **** 
2313:D:/Git/VL53L1/lib/core/src\vl53l1_api_core.c **** 	VL53L1_Error status = VL53L1_ERROR_NONE;
2314:D:/Git/VL53L1/lib/core/src\vl53l1_api_core.c **** 
2315:D:/Git/VL53L1/lib/core/src\vl53l1_api_core.c **** 	VL53L1_LLDriverData_t *pdev =
2316:D:/Git/VL53L1/lib/core/src\vl53l1_api_core.c **** 			VL53L1DevStructGetLLDriverHandle(Dev);
2317:D:/Git/VL53L1/lib/core/src\vl53l1_api_core.c **** 	VL53L1_LLDriverResults_t *pres =
2318:D:/Git/VL53L1/lib/core/src\vl53l1_api_core.c **** 			VL53L1DevStructGetLLResultsHandle(Dev);
2319:D:/Git/VL53L1/lib/core/src\vl53l1_api_core.c **** 
2320:D:/Git/VL53L1/lib/core/src\vl53l1_api_core.c **** 	VL53L1_range_results_t   *presults = &(pres->range_results);
2321:D:/Git/VL53L1/lib/core/src\vl53l1_api_core.c **** 
2322:D:/Git/VL53L1/lib/core/src\vl53l1_api_core.c **** 	LOG_FUNCTION_START("");
2323:D:/Git/VL53L1/lib/core/src\vl53l1_api_core.c **** 
2324:D:/Git/VL53L1/lib/core/src\vl53l1_api_core.c **** 	/* Get device results */
2325:D:/Git/VL53L1/lib/core/src\vl53l1_api_core.c **** 
2326:D:/Git/VL53L1/lib/core/src\vl53l1_api_core.c **** 	if (status == VL53L1_ERROR_NONE) /*lint !e774 always true*/
2327:D:/Git/VL53L1/lib/core/src\vl53l1_api_core.c **** 		status = VL53L1_get_measurement_results(
2328:D:/Git/VL53L1/lib/core/src\vl53l1_api_core.c **** 						Dev,
2329:D:/Git/VL53L1/lib/core/src\vl53l1_api_core.c **** 						device_results_level);
2330:D:/Git/VL53L1/lib/core/src\vl53l1_api_core.c **** 
2331:D:/Git/VL53L1/lib/core/src\vl53l1_api_core.c **** 	if (status == VL53L1_ERROR_NONE)
2332:D:/Git/VL53L1/lib/core/src\vl53l1_api_core.c **** 		VL53L1_copy_sys_and_core_results_to_range_results(
ARM GAS  C:\Users\Berbardo\AppData\Local\Temp\ccBMvrJ9.s 			page 111


2333:D:/Git/VL53L1/lib/core/src\vl53l1_api_core.c **** 				(int32_t)pdev->gain_cal.standard_ranging_gain_factor,
2334:D:/Git/VL53L1/lib/core/src\vl53l1_api_core.c **** 				&(pdev->sys_results),
2335:D:/Git/VL53L1/lib/core/src\vl53l1_api_core.c **** 				&(pdev->core_results),
2336:D:/Git/VL53L1/lib/core/src\vl53l1_api_core.c **** 				presults);
2337:D:/Git/VL53L1/lib/core/src\vl53l1_api_core.c **** 
2338:D:/Git/VL53L1/lib/core/src\vl53l1_api_core.c **** 	/* Start Patch_LowPowerAutoMode */
2339:D:/Git/VL53L1/lib/core/src\vl53l1_api_core.c **** 	/* process results from first range of low power auto */
2340:D:/Git/VL53L1/lib/core/src\vl53l1_api_core.c **** 	if (pdev->low_power_auto_data.is_low_power_auto_mode == 1) {
2341:D:/Git/VL53L1/lib/core/src\vl53l1_api_core.c **** 		/* change to manual calibrations. Only needed on the
2342:D:/Git/VL53L1/lib/core/src\vl53l1_api_core.c **** 		 * first range out  */
2343:D:/Git/VL53L1/lib/core/src\vl53l1_api_core.c **** 		if ((status == VL53L1_ERROR_NONE) &&
2344:D:/Git/VL53L1/lib/core/src\vl53l1_api_core.c **** 			(pdev->low_power_auto_data.low_power_auto_range_count == 0)) {
2345:D:/Git/VL53L1/lib/core/src\vl53l1_api_core.c **** 			status = VL53L1_low_power_auto_setup_manual_calibration(
2346:D:/Git/VL53L1/lib/core/src\vl53l1_api_core.c **** 					Dev);
2347:D:/Git/VL53L1/lib/core/src\vl53l1_api_core.c **** 			pdev->low_power_auto_data.low_power_auto_range_count = 1;
2348:D:/Git/VL53L1/lib/core/src\vl53l1_api_core.c **** 		} else if ((status == VL53L1_ERROR_NONE) &&
2349:D:/Git/VL53L1/lib/core/src\vl53l1_api_core.c **** 			(pdev->low_power_auto_data.low_power_auto_range_count == 1)) {
2350:D:/Git/VL53L1/lib/core/src\vl53l1_api_core.c **** 			pdev->low_power_auto_data.low_power_auto_range_count = 2;
2351:D:/Git/VL53L1/lib/core/src\vl53l1_api_core.c **** 		}
2352:D:/Git/VL53L1/lib/core/src\vl53l1_api_core.c **** 
2353:D:/Git/VL53L1/lib/core/src\vl53l1_api_core.c **** 		/* perform DSS calculation. This can be performed every range */
2354:D:/Git/VL53L1/lib/core/src\vl53l1_api_core.c **** 		if ((pdev->low_power_auto_data.low_power_auto_range_count != 0xFF) &&
2355:D:/Git/VL53L1/lib/core/src\vl53l1_api_core.c **** 			(status == VL53L1_ERROR_NONE)) {
2356:D:/Git/VL53L1/lib/core/src\vl53l1_api_core.c **** 			status = VL53L1_low_power_auto_update_DSS(
2357:D:/Git/VL53L1/lib/core/src\vl53l1_api_core.c **** 					Dev);
2358:D:/Git/VL53L1/lib/core/src\vl53l1_api_core.c **** 		}
2359:D:/Git/VL53L1/lib/core/src\vl53l1_api_core.c **** 
2360:D:/Git/VL53L1/lib/core/src\vl53l1_api_core.c **** 	}
2361:D:/Git/VL53L1/lib/core/src\vl53l1_api_core.c **** 	/* End Patch_LowPowerAutoMode */
2362:D:/Git/VL53L1/lib/core/src\vl53l1_api_core.c **** 
2363:D:/Git/VL53L1/lib/core/src\vl53l1_api_core.c **** 	/* copy current state into results */
2364:D:/Git/VL53L1/lib/core/src\vl53l1_api_core.c **** 
2365:D:/Git/VL53L1/lib/core/src\vl53l1_api_core.c **** 	presults->cfg_device_state = pdev->ll_state.cfg_device_state;
2366:D:/Git/VL53L1/lib/core/src\vl53l1_api_core.c **** 	presults->rd_device_state  = pdev->ll_state.rd_device_state;
2367:D:/Git/VL53L1/lib/core/src\vl53l1_api_core.c **** 
2368:D:/Git/VL53L1/lib/core/src\vl53l1_api_core.c **** 	/* copy internal structure to supplied output pointer */
2369:D:/Git/VL53L1/lib/core/src\vl53l1_api_core.c **** 
2370:D:/Git/VL53L1/lib/core/src\vl53l1_api_core.c **** 	memcpy(
2371:D:/Git/VL53L1/lib/core/src\vl53l1_api_core.c **** 		prange_results,
2372:D:/Git/VL53L1/lib/core/src\vl53l1_api_core.c **** 		presults,
2373:D:/Git/VL53L1/lib/core/src\vl53l1_api_core.c **** 		sizeof(VL53L1_range_results_t));
2374:D:/Git/VL53L1/lib/core/src\vl53l1_api_core.c **** 
2375:D:/Git/VL53L1/lib/core/src\vl53l1_api_core.c **** 	/*
2376:D:/Git/VL53L1/lib/core/src\vl53l1_api_core.c **** 	 * Check LL driver and Device are in Sync
2377:D:/Git/VL53L1/lib/core/src\vl53l1_api_core.c **** 	 * If not an error is raised
2378:D:/Git/VL53L1/lib/core/src\vl53l1_api_core.c **** 	 */
2379:D:/Git/VL53L1/lib/core/src\vl53l1_api_core.c **** 
2380:D:/Git/VL53L1/lib/core/src\vl53l1_api_core.c **** 	if (status == VL53L1_ERROR_NONE)
2381:D:/Git/VL53L1/lib/core/src\vl53l1_api_core.c **** 		status = VL53L1_check_ll_driver_rd_state(Dev);
2382:D:/Git/VL53L1/lib/core/src\vl53l1_api_core.c **** 
2383:D:/Git/VL53L1/lib/core/src\vl53l1_api_core.c **** #ifdef VL53L1_LOG_ENABLE
2384:D:/Git/VL53L1/lib/core/src\vl53l1_api_core.c **** 	if (status == VL53L1_ERROR_NONE)
2385:D:/Git/VL53L1/lib/core/src\vl53l1_api_core.c **** 		VL53L1_print_range_results(
2386:D:/Git/VL53L1/lib/core/src\vl53l1_api_core.c **** 			presults,
2387:D:/Git/VL53L1/lib/core/src\vl53l1_api_core.c **** 			"get_device_results():pdev->llresults.range_results.",
2388:D:/Git/VL53L1/lib/core/src\vl53l1_api_core.c **** 			VL53L1_TRACE_MODULE_RANGE_RESULTS_DATA);
2389:D:/Git/VL53L1/lib/core/src\vl53l1_api_core.c **** #endif
ARM GAS  C:\Users\Berbardo\AppData\Local\Temp\ccBMvrJ9.s 			page 112


2390:D:/Git/VL53L1/lib/core/src\vl53l1_api_core.c **** 
2391:D:/Git/VL53L1/lib/core/src\vl53l1_api_core.c **** 	LOG_FUNCTION_END(status);
2392:D:/Git/VL53L1/lib/core/src\vl53l1_api_core.c **** 
2393:D:/Git/VL53L1/lib/core/src\vl53l1_api_core.c **** 	return status;
2394:D:/Git/VL53L1/lib/core/src\vl53l1_api_core.c **** }
2395:D:/Git/VL53L1/lib/core/src\vl53l1_api_core.c **** 
2396:D:/Git/VL53L1/lib/core/src\vl53l1_api_core.c **** 
2397:D:/Git/VL53L1/lib/core/src\vl53l1_api_core.c **** VL53L1_Error VL53L1_clear_interrupt_and_enable_next_range(
2398:D:/Git/VL53L1/lib/core/src\vl53l1_api_core.c **** 	VL53L1_DEV        Dev,
2399:D:/Git/VL53L1/lib/core/src\vl53l1_api_core.c **** 	uint8_t           measurement_mode)
2400:D:/Git/VL53L1/lib/core/src\vl53l1_api_core.c **** {
 3635              		.loc 1 2400 1 is_stmt 1 view -0
 3636              		.cfi_startproc
 3637              		@ args = 0, pretend = 0, frame = 0
 3638              		@ frame_needed = 0, uses_anonymous_args = 0
 3639              		.loc 1 2400 1 is_stmt 0 view .LVU1192
 3640 0000 08B5     		push	{r3, lr}
 3641              		.cfi_def_cfa_offset 8
 3642              		.cfi_offset 3, -8
 3643              		.cfi_offset 14, -4
2401:D:/Git/VL53L1/lib/core/src\vl53l1_api_core.c **** 
2402:D:/Git/VL53L1/lib/core/src\vl53l1_api_core.c **** 	/*
2403:D:/Git/VL53L1/lib/core/src\vl53l1_api_core.c **** 	 * Enable next range by sending handshake which
2404:D:/Git/VL53L1/lib/core/src\vl53l1_api_core.c **** 	 * clears the interrupt
2405:D:/Git/VL53L1/lib/core/src\vl53l1_api_core.c **** 	 */
2406:D:/Git/VL53L1/lib/core/src\vl53l1_api_core.c **** 
2407:D:/Git/VL53L1/lib/core/src\vl53l1_api_core.c **** 	VL53L1_Error status = VL53L1_ERROR_NONE;
 3644              		.loc 1 2407 2 is_stmt 1 view .LVU1193
 3645              	.LVL340:
2408:D:/Git/VL53L1/lib/core/src\vl53l1_api_core.c **** 
2409:D:/Git/VL53L1/lib/core/src\vl53l1_api_core.c **** 	LOG_FUNCTION_START("");
 3646              		.loc 1 2409 24 view .LVU1194
2410:D:/Git/VL53L1/lib/core/src\vl53l1_api_core.c **** 
2411:D:/Git/VL53L1/lib/core/src\vl53l1_api_core.c **** 	/* Dynamic Management */
2412:D:/Git/VL53L1/lib/core/src\vl53l1_api_core.c **** 	/* Current results analysis and generate next settings */
2413:D:/Git/VL53L1/lib/core/src\vl53l1_api_core.c **** 
2414:D:/Git/VL53L1/lib/core/src\vl53l1_api_core.c **** 
2415:D:/Git/VL53L1/lib/core/src\vl53l1_api_core.c **** 	/* Dynamic GPH Management     */
2416:D:/Git/VL53L1/lib/core/src\vl53l1_api_core.c **** 	/* Setup GPH absorption point and config values for next measurement */
2417:D:/Git/VL53L1/lib/core/src\vl53l1_api_core.c **** 
2418:D:/Git/VL53L1/lib/core/src\vl53l1_api_core.c **** 	/* Update GPH registers, clear interrupt and set measurement mode */
2419:D:/Git/VL53L1/lib/core/src\vl53l1_api_core.c **** 
2420:D:/Git/VL53L1/lib/core/src\vl53l1_api_core.c **** 	if (status == VL53L1_ERROR_NONE) /*lint !e774 always true*/
 3647              		.loc 1 2420 2 view .LVU1195
2421:D:/Git/VL53L1/lib/core/src\vl53l1_api_core.c **** 		status = VL53L1_init_and_start_range(
 3648              		.loc 1 2421 3 view .LVU1196
 3649              		.loc 1 2421 12 is_stmt 0 view .LVU1197
 3650 0002 0322     		movs	r2, #3
 3651 0004 FFF7FEFF 		bl	VL53L1_init_and_start_range
 3652              	.LVL341:
2422:D:/Git/VL53L1/lib/core/src\vl53l1_api_core.c **** 					Dev,
2423:D:/Git/VL53L1/lib/core/src\vl53l1_api_core.c **** 					measurement_mode,
2424:D:/Git/VL53L1/lib/core/src\vl53l1_api_core.c **** 					VL53L1_DEVICECONFIGLEVEL_GENERAL_ONWARDS);
2425:D:/Git/VL53L1/lib/core/src\vl53l1_api_core.c **** 
2426:D:/Git/VL53L1/lib/core/src\vl53l1_api_core.c **** 	LOG_FUNCTION_END(status);
 3653              		.loc 1 2426 26 is_stmt 1 view .LVU1198
2427:D:/Git/VL53L1/lib/core/src\vl53l1_api_core.c **** 
ARM GAS  C:\Users\Berbardo\AppData\Local\Temp\ccBMvrJ9.s 			page 113


2428:D:/Git/VL53L1/lib/core/src\vl53l1_api_core.c **** 	return status;
 3654              		.loc 1 2428 2 view .LVU1199
2429:D:/Git/VL53L1/lib/core/src\vl53l1_api_core.c **** }
 3655              		.loc 1 2429 1 is_stmt 0 view .LVU1200
 3656 0008 08BD     		pop	{r3, pc}
 3657              		.cfi_endproc
 3658              	.LFE168:
 3660              		.section	.text.VL53L1_copy_sys_and_core_results_to_range_results,"ax",%progbits
 3661              		.align	1
 3662              		.global	VL53L1_copy_sys_and_core_results_to_range_results
 3663              		.syntax unified
 3664              		.thumb
 3665              		.thumb_func
 3666              		.fpu fpv4-sp-d16
 3668              	VL53L1_copy_sys_and_core_results_to_range_results:
 3669              	.LVL342:
 3670              	.LFB169:
2430:D:/Git/VL53L1/lib/core/src\vl53l1_api_core.c **** 
2431:D:/Git/VL53L1/lib/core/src\vl53l1_api_core.c **** 
2432:D:/Git/VL53L1/lib/core/src\vl53l1_api_core.c **** void VL53L1_copy_sys_and_core_results_to_range_results(
2433:D:/Git/VL53L1/lib/core/src\vl53l1_api_core.c **** 	int32_t                           gain_factor,
2434:D:/Git/VL53L1/lib/core/src\vl53l1_api_core.c **** 	VL53L1_system_results_t          *psys,
2435:D:/Git/VL53L1/lib/core/src\vl53l1_api_core.c **** 	VL53L1_core_results_t            *pcore,
2436:D:/Git/VL53L1/lib/core/src\vl53l1_api_core.c **** 	VL53L1_range_results_t           *presults)
2437:D:/Git/VL53L1/lib/core/src\vl53l1_api_core.c **** {
 3671              		.loc 1 2437 1 is_stmt 1 view -0
 3672              		.cfi_startproc
 3673              		@ args = 0, pretend = 0, frame = 0
 3674              		@ frame_needed = 0, uses_anonymous_args = 0
 3675              		@ link register save eliminated.
 3676              		.loc 1 2437 1 is_stmt 0 view .LVU1202
 3677 0000 70B4     		push	{r4, r5, r6}
 3678              		.cfi_def_cfa_offset 12
 3679              		.cfi_offset 4, -12
 3680              		.cfi_offset 5, -8
 3681              		.cfi_offset 6, -4
2438:D:/Git/VL53L1/lib/core/src\vl53l1_api_core.c **** 	uint8_t  i = 0;
 3682              		.loc 1 2438 2 is_stmt 1 view .LVU1203
 3683              	.LVL343:
2439:D:/Git/VL53L1/lib/core/src\vl53l1_api_core.c **** 
2440:D:/Git/VL53L1/lib/core/src\vl53l1_api_core.c **** 	VL53L1_range_data_t *pdata;
 3684              		.loc 1 2440 2 view .LVU1204
2441:D:/Git/VL53L1/lib/core/src\vl53l1_api_core.c **** 	int32_t range_mm = 0;
 3685              		.loc 1 2441 2 view .LVU1205
2442:D:/Git/VL53L1/lib/core/src\vl53l1_api_core.c **** 	uint32_t tmpu32 = 0;
 3686              		.loc 1 2442 2 view .LVU1206
2443:D:/Git/VL53L1/lib/core/src\vl53l1_api_core.c **** 
2444:D:/Git/VL53L1/lib/core/src\vl53l1_api_core.c **** 	LOG_FUNCTION_START("");
 3687              		.loc 1 2444 24 view .LVU1207
2445:D:/Git/VL53L1/lib/core/src\vl53l1_api_core.c **** 
2446:D:/Git/VL53L1/lib/core/src\vl53l1_api_core.c **** 	/* copy results */
2447:D:/Git/VL53L1/lib/core/src\vl53l1_api_core.c **** 
2448:D:/Git/VL53L1/lib/core/src\vl53l1_api_core.c **** 	presults->stream_count    = psys->result__stream_count;
 3688              		.loc 1 2448 2 view .LVU1208
 3689              		.loc 1 2448 34 is_stmt 0 view .LVU1209
 3690 0002 CC78     		ldrb	r4, [r1, #3]	@ zero_extendqisi2
 3691              		.loc 1 2448 28 view .LVU1210
ARM GAS  C:\Users\Berbardo\AppData\Local\Temp\ccBMvrJ9.s 			page 114


 3692 0004 9C70     		strb	r4, [r3, #2]
2449:D:/Git/VL53L1/lib/core/src\vl53l1_api_core.c **** 
2450:D:/Git/VL53L1/lib/core/src\vl53l1_api_core.c **** 	pdata = &(presults->data[0]);
 3693              		.loc 1 2450 2 is_stmt 1 view .LVU1211
 3694              		.loc 1 2450 8 is_stmt 0 view .LVU1212
 3695 0006 1C1D     		adds	r4, r3, #4
 3696              	.LVL344:
2451:D:/Git/VL53L1/lib/core/src\vl53l1_api_core.c **** 
2452:D:/Git/VL53L1/lib/core/src\vl53l1_api_core.c **** 	for (i = 0 ; i < 2 ; i++) {
 3697              		.loc 1 2452 2 is_stmt 1 view .LVU1213
 3698              		.loc 1 2452 9 is_stmt 0 view .LVU1214
 3699 0008 0025     		movs	r5, #0
 3700              		.loc 1 2452 2 view .LVU1215
 3701 000a 0AE0     		b	.L200
 3702              	.LVL345:
 3703              	.L201:
2453:D:/Git/VL53L1/lib/core/src\vl53l1_api_core.c **** 
2454:D:/Git/VL53L1/lib/core/src\vl53l1_api_core.c **** 		pdata->range_id     = i;
2455:D:/Git/VL53L1/lib/core/src\vl53l1_api_core.c **** 		pdata->time_stamp   = 0;
2456:D:/Git/VL53L1/lib/core/src\vl53l1_api_core.c **** 
2457:D:/Git/VL53L1/lib/core/src\vl53l1_api_core.c **** 		if ((psys->result__stream_count == 0) &&
2458:D:/Git/VL53L1/lib/core/src\vl53l1_api_core.c **** 			((psys->result__range_status & VL53L1_RANGE_STATUS__RANGE_STATUS_MASK) ==
2459:D:/Git/VL53L1/lib/core/src\vl53l1_api_core.c **** 			VL53L1_DEVICEERROR_RANGECOMPLETE)) {
2460:D:/Git/VL53L1/lib/core/src\vl53l1_api_core.c **** 			pdata->range_status = VL53L1_DEVICEERROR_RANGECOMPLETE_NO_WRAP_CHECK;
2461:D:/Git/VL53L1/lib/core/src\vl53l1_api_core.c **** 		} else {
2462:D:/Git/VL53L1/lib/core/src\vl53l1_api_core.c **** 			pdata->range_status =
 3704              		.loc 1 2462 4 is_stmt 1 view .LVU1216
2463:D:/Git/VL53L1/lib/core/src\vl53l1_api_core.c **** 					psys->result__range_status & VL53L1_RANGE_STATUS__RANGE_STATUS_MASK;
 3705              		.loc 1 2463 10 is_stmt 0 view .LVU1217
 3706 000c 4E78     		ldrb	r6, [r1, #1]	@ zero_extendqisi2
 3707              		.loc 1 2463 33 view .LVU1218
 3708 000e 06F01F06 		and	r6, r6, #31
2462:D:/Git/VL53L1/lib/core/src\vl53l1_api_core.c **** 					psys->result__range_status & VL53L1_RANGE_STATUS__RANGE_STATUS_MASK;
 3709              		.loc 1 2462 24 view .LVU1219
 3710 0012 84F83E60 		strb	r6, [r4, #62]
 3711              	.L202:
2464:D:/Git/VL53L1/lib/core/src\vl53l1_api_core.c **** 		}
2465:D:/Git/VL53L1/lib/core/src\vl53l1_api_core.c **** 
2466:D:/Git/VL53L1/lib/core/src\vl53l1_api_core.c **** 		switch (i) {
 3712              		.loc 1 2466 3 is_stmt 1 view .LVU1220
 3713 0016 ADB1     		cbz	r5, .L203
 3714 0018 012D     		cmp	r5, #1
 3715 001a 45D0     		beq	.L204
 3716              	.L205:
2467:D:/Git/VL53L1/lib/core/src\vl53l1_api_core.c **** 
2468:D:/Git/VL53L1/lib/core/src\vl53l1_api_core.c **** 		case 0:
2469:D:/Git/VL53L1/lib/core/src\vl53l1_api_core.c **** 
2470:D:/Git/VL53L1/lib/core/src\vl53l1_api_core.c **** 			if (psys->result__report_status == VL53L1_DEVICEREPORTSTATUS_MM1)
2471:D:/Git/VL53L1/lib/core/src\vl53l1_api_core.c **** 				pdata->actual_effective_spads =
2472:D:/Git/VL53L1/lib/core/src\vl53l1_api_core.c **** 					psys->result__mm_inner_actual_effective_spads_sd0;
2473:D:/Git/VL53L1/lib/core/src\vl53l1_api_core.c **** 			else if (psys->result__report_status == VL53L1_DEVICEREPORTSTATUS_MM2)
2474:D:/Git/VL53L1/lib/core/src\vl53l1_api_core.c **** 				pdata->actual_effective_spads =
2475:D:/Git/VL53L1/lib/core/src\vl53l1_api_core.c **** 						psys->result__mm_outer_actual_effective_spads_sd0;
2476:D:/Git/VL53L1/lib/core/src\vl53l1_api_core.c **** 			else
2477:D:/Git/VL53L1/lib/core/src\vl53l1_api_core.c **** 				pdata->actual_effective_spads =
2478:D:/Git/VL53L1/lib/core/src\vl53l1_api_core.c **** 					psys->result__dss_actual_effective_spads_sd0;
2479:D:/Git/VL53L1/lib/core/src\vl53l1_api_core.c **** 
ARM GAS  C:\Users\Berbardo\AppData\Local\Temp\ccBMvrJ9.s 			page 115


2480:D:/Git/VL53L1/lib/core/src\vl53l1_api_core.c **** 			pdata->peak_signal_count_rate_mcps =
2481:D:/Git/VL53L1/lib/core/src\vl53l1_api_core.c **** 				psys->result__peak_signal_count_rate_crosstalk_corrected_mcps_sd0;
2482:D:/Git/VL53L1/lib/core/src\vl53l1_api_core.c **** 			pdata->avg_signal_count_rate_mcps =
2483:D:/Git/VL53L1/lib/core/src\vl53l1_api_core.c **** 				psys->result__avg_signal_count_rate_mcps_sd0;
2484:D:/Git/VL53L1/lib/core/src\vl53l1_api_core.c **** 			pdata->ambient_count_rate_mcps =
2485:D:/Git/VL53L1/lib/core/src\vl53l1_api_core.c **** 				psys->result__ambient_count_rate_mcps_sd0;
2486:D:/Git/VL53L1/lib/core/src\vl53l1_api_core.c **** 
2487:D:/Git/VL53L1/lib/core/src\vl53l1_api_core.c **** 			/* Start Patch_SigmaEstimateAccuracyImprovement */
2488:D:/Git/VL53L1/lib/core/src\vl53l1_api_core.c **** 
2489:D:/Git/VL53L1/lib/core/src\vl53l1_api_core.c **** 			/* shift up sigma estimate to 7 bit fractional and clip to 9 bit int */
2490:D:/Git/VL53L1/lib/core/src\vl53l1_api_core.c **** 			tmpu32 = ((uint32_t)psys->result__sigma_sd0 << 5);
2491:D:/Git/VL53L1/lib/core/src\vl53l1_api_core.c **** 			if (tmpu32 > 0xFFFF) {
2492:D:/Git/VL53L1/lib/core/src\vl53l1_api_core.c **** 				tmpu32 = 0xFFFF;
2493:D:/Git/VL53L1/lib/core/src\vl53l1_api_core.c **** 			}
2494:D:/Git/VL53L1/lib/core/src\vl53l1_api_core.c **** 			pdata->sigma_mm = (uint16_t)tmpu32;
2495:D:/Git/VL53L1/lib/core/src\vl53l1_api_core.c **** 
2496:D:/Git/VL53L1/lib/core/src\vl53l1_api_core.c **** 			/* End Patch_SigmaEstimateAccuracyImprovement */
2497:D:/Git/VL53L1/lib/core/src\vl53l1_api_core.c **** 
2498:D:/Git/VL53L1/lib/core/src\vl53l1_api_core.c **** 			pdata->median_phase =
2499:D:/Git/VL53L1/lib/core/src\vl53l1_api_core.c **** 				psys->result__phase_sd0;
2500:D:/Git/VL53L1/lib/core/src\vl53l1_api_core.c **** 
2501:D:/Git/VL53L1/lib/core/src\vl53l1_api_core.c **** 			range_mm =
2502:D:/Git/VL53L1/lib/core/src\vl53l1_api_core.c **** 				(int32_t)psys->result__final_crosstalk_corrected_range_mm_sd0;
2503:D:/Git/VL53L1/lib/core/src\vl53l1_api_core.c **** 
2504:D:/Git/VL53L1/lib/core/src\vl53l1_api_core.c **** 			/* apply correction gain */
2505:D:/Git/VL53L1/lib/core/src\vl53l1_api_core.c **** 			range_mm *= gain_factor;
2506:D:/Git/VL53L1/lib/core/src\vl53l1_api_core.c **** 			range_mm += 0x0400;
2507:D:/Git/VL53L1/lib/core/src\vl53l1_api_core.c **** 			range_mm /= 0x0800;
2508:D:/Git/VL53L1/lib/core/src\vl53l1_api_core.c **** 
2509:D:/Git/VL53L1/lib/core/src\vl53l1_api_core.c **** 			pdata->median_range_mm = (int16_t)range_mm;
2510:D:/Git/VL53L1/lib/core/src\vl53l1_api_core.c **** 
2511:D:/Git/VL53L1/lib/core/src\vl53l1_api_core.c **** 			pdata->ranging_total_events =
2512:D:/Git/VL53L1/lib/core/src\vl53l1_api_core.c **** 				pcore->result_core__ranging_total_events_sd0;
2513:D:/Git/VL53L1/lib/core/src\vl53l1_api_core.c **** 			pdata->signal_total_events =
2514:D:/Git/VL53L1/lib/core/src\vl53l1_api_core.c **** 				pcore->result_core__signal_total_events_sd0;
2515:D:/Git/VL53L1/lib/core/src\vl53l1_api_core.c **** 			pdata->total_periods_elapsed =
2516:D:/Git/VL53L1/lib/core/src\vl53l1_api_core.c **** 				pcore->result_core__total_periods_elapsed_sd0;
2517:D:/Git/VL53L1/lib/core/src\vl53l1_api_core.c **** 			pdata->ambient_window_events =
2518:D:/Git/VL53L1/lib/core/src\vl53l1_api_core.c **** 				pcore->result_core__ambient_window_events_sd0;
2519:D:/Git/VL53L1/lib/core/src\vl53l1_api_core.c **** 
2520:D:/Git/VL53L1/lib/core/src\vl53l1_api_core.c **** 			break;
2521:D:/Git/VL53L1/lib/core/src\vl53l1_api_core.c **** 		case 1:
2522:D:/Git/VL53L1/lib/core/src\vl53l1_api_core.c **** 
2523:D:/Git/VL53L1/lib/core/src\vl53l1_api_core.c **** 			pdata->actual_effective_spads =
2524:D:/Git/VL53L1/lib/core/src\vl53l1_api_core.c **** 				psys->result__dss_actual_effective_spads_sd1;
2525:D:/Git/VL53L1/lib/core/src\vl53l1_api_core.c **** 			pdata->peak_signal_count_rate_mcps =
2526:D:/Git/VL53L1/lib/core/src\vl53l1_api_core.c **** 				psys->result__peak_signal_count_rate_mcps_sd1;
2527:D:/Git/VL53L1/lib/core/src\vl53l1_api_core.c **** 			pdata->avg_signal_count_rate_mcps =
2528:D:/Git/VL53L1/lib/core/src\vl53l1_api_core.c **** 				0xFFFF;
2529:D:/Git/VL53L1/lib/core/src\vl53l1_api_core.c **** 			pdata->ambient_count_rate_mcps =
2530:D:/Git/VL53L1/lib/core/src\vl53l1_api_core.c **** 				psys->result__ambient_count_rate_mcps_sd1;
2531:D:/Git/VL53L1/lib/core/src\vl53l1_api_core.c **** 
2532:D:/Git/VL53L1/lib/core/src\vl53l1_api_core.c **** 			/* Start Patch_SigmaEstimateAccuracyImprovement */
2533:D:/Git/VL53L1/lib/core/src\vl53l1_api_core.c **** 
2534:D:/Git/VL53L1/lib/core/src\vl53l1_api_core.c **** 			/* shift up sigma estimate to 7 bit fractional and clip to 9 bit int */
2535:D:/Git/VL53L1/lib/core/src\vl53l1_api_core.c **** 			tmpu32 = ((uint32_t)psys->result__sigma_sd1 << 5);
2536:D:/Git/VL53L1/lib/core/src\vl53l1_api_core.c **** 			if (tmpu32 > 0xFFFF) {
ARM GAS  C:\Users\Berbardo\AppData\Local\Temp\ccBMvrJ9.s 			page 116


2537:D:/Git/VL53L1/lib/core/src\vl53l1_api_core.c **** 				tmpu32 = 0xFFFF;
2538:D:/Git/VL53L1/lib/core/src\vl53l1_api_core.c **** 			}
2539:D:/Git/VL53L1/lib/core/src\vl53l1_api_core.c **** 			pdata->sigma_mm = (uint16_t)tmpu32;
2540:D:/Git/VL53L1/lib/core/src\vl53l1_api_core.c **** 
2541:D:/Git/VL53L1/lib/core/src\vl53l1_api_core.c **** 			/* End Patch_SigmaEstimateAccuracyImprovement */
2542:D:/Git/VL53L1/lib/core/src\vl53l1_api_core.c **** 
2543:D:/Git/VL53L1/lib/core/src\vl53l1_api_core.c **** 			pdata->median_phase =
2544:D:/Git/VL53L1/lib/core/src\vl53l1_api_core.c **** 				psys->result__phase_sd1;
2545:D:/Git/VL53L1/lib/core/src\vl53l1_api_core.c **** 
2546:D:/Git/VL53L1/lib/core/src\vl53l1_api_core.c **** 			range_mm =
2547:D:/Git/VL53L1/lib/core/src\vl53l1_api_core.c **** 				(int32_t)psys->result__final_crosstalk_corrected_range_mm_sd1;
2548:D:/Git/VL53L1/lib/core/src\vl53l1_api_core.c **** 
2549:D:/Git/VL53L1/lib/core/src\vl53l1_api_core.c **** 			/* apply correction gain */
2550:D:/Git/VL53L1/lib/core/src\vl53l1_api_core.c **** 			range_mm *= gain_factor;
2551:D:/Git/VL53L1/lib/core/src\vl53l1_api_core.c **** 			range_mm += 0x0400;
2552:D:/Git/VL53L1/lib/core/src\vl53l1_api_core.c **** 			range_mm /= 0x0800;
2553:D:/Git/VL53L1/lib/core/src\vl53l1_api_core.c **** 
2554:D:/Git/VL53L1/lib/core/src\vl53l1_api_core.c **** 			pdata->median_range_mm = (int16_t)range_mm;
2555:D:/Git/VL53L1/lib/core/src\vl53l1_api_core.c **** 
2556:D:/Git/VL53L1/lib/core/src\vl53l1_api_core.c **** 			pdata->ranging_total_events =
2557:D:/Git/VL53L1/lib/core/src\vl53l1_api_core.c **** 				pcore->result_core__ranging_total_events_sd1;
2558:D:/Git/VL53L1/lib/core/src\vl53l1_api_core.c **** 			pdata->signal_total_events =
2559:D:/Git/VL53L1/lib/core/src\vl53l1_api_core.c **** 				pcore->result_core__signal_total_events_sd1;
2560:D:/Git/VL53L1/lib/core/src\vl53l1_api_core.c **** 			pdata->total_periods_elapsed  =
2561:D:/Git/VL53L1/lib/core/src\vl53l1_api_core.c **** 				pcore->result_core__total_periods_elapsed_sd1;
2562:D:/Git/VL53L1/lib/core/src\vl53l1_api_core.c **** 			pdata->ambient_window_events =
2563:D:/Git/VL53L1/lib/core/src\vl53l1_api_core.c **** 				pcore->result_core__ambient_window_events_sd1;
2564:D:/Git/VL53L1/lib/core/src\vl53l1_api_core.c **** 
2565:D:/Git/VL53L1/lib/core/src\vl53l1_api_core.c **** 			break;
2566:D:/Git/VL53L1/lib/core/src\vl53l1_api_core.c **** 		}
2567:D:/Git/VL53L1/lib/core/src\vl53l1_api_core.c **** 
2568:D:/Git/VL53L1/lib/core/src\vl53l1_api_core.c **** 		pdata++;
 3717              		.loc 1 2568 3 discriminator 2 view .LVU1221
 3718              		.loc 1 2568 8 is_stmt 0 discriminator 2 view .LVU1222
 3719 001c 4034     		adds	r4, r4, #64
 3720              	.LVL346:
2452:D:/Git/VL53L1/lib/core/src\vl53l1_api_core.c **** 
 3721              		.loc 1 2452 24 discriminator 2 view .LVU1223
 3722 001e 0135     		adds	r5, r5, #1
 3723              	.LVL347:
2452:D:/Git/VL53L1/lib/core/src\vl53l1_api_core.c **** 
 3724              		.loc 1 2452 24 discriminator 2 view .LVU1224
 3725 0020 EDB2     		uxtb	r5, r5
 3726              	.LVL348:
 3727              	.L200:
2452:D:/Git/VL53L1/lib/core/src\vl53l1_api_core.c **** 
 3728              		.loc 1 2452 2 discriminator 1 view .LVU1225
 3729 0022 012D     		cmp	r5, #1
 3730 0024 68D8     		bhi	.L220
2454:D:/Git/VL53L1/lib/core/src\vl53l1_api_core.c **** 		pdata->time_stamp   = 0;
 3731              		.loc 1 2454 3 is_stmt 1 view .LVU1226
2454:D:/Git/VL53L1/lib/core/src\vl53l1_api_core.c **** 		pdata->time_stamp   = 0;
 3732              		.loc 1 2454 23 is_stmt 0 view .LVU1227
 3733 0026 2570     		strb	r5, [r4]
2455:D:/Git/VL53L1/lib/core/src\vl53l1_api_core.c **** 
 3734              		.loc 1 2455 3 is_stmt 1 view .LVU1228
2455:D:/Git/VL53L1/lib/core/src\vl53l1_api_core.c **** 
ARM GAS  C:\Users\Berbardo\AppData\Local\Temp\ccBMvrJ9.s 			page 117


 3735              		.loc 1 2455 23 is_stmt 0 view .LVU1229
 3736 0028 0026     		movs	r6, #0
 3737 002a 6660     		str	r6, [r4, #4]
2457:D:/Git/VL53L1/lib/core/src\vl53l1_api_core.c **** 			((psys->result__range_status & VL53L1_RANGE_STATUS__RANGE_STATUS_MASK) ==
 3738              		.loc 1 2457 3 is_stmt 1 view .LVU1230
2457:D:/Git/VL53L1/lib/core/src\vl53l1_api_core.c **** 			((psys->result__range_status & VL53L1_RANGE_STATUS__RANGE_STATUS_MASK) ==
 3739              		.loc 1 2457 12 is_stmt 0 view .LVU1231
 3740 002c CE78     		ldrb	r6, [r1, #3]	@ zero_extendqisi2
2457:D:/Git/VL53L1/lib/core/src\vl53l1_api_core.c **** 			((psys->result__range_status & VL53L1_RANGE_STATUS__RANGE_STATUS_MASK) ==
 3741              		.loc 1 2457 6 view .LVU1232
 3742 002e 002E     		cmp	r6, #0
 3743 0030 ECD1     		bne	.L201
2458:D:/Git/VL53L1/lib/core/src\vl53l1_api_core.c **** 			VL53L1_DEVICEERROR_RANGECOMPLETE)) {
 3744              		.loc 1 2458 10 discriminator 1 view .LVU1233
 3745 0032 4E78     		ldrb	r6, [r1, #1]	@ zero_extendqisi2
2457:D:/Git/VL53L1/lib/core/src\vl53l1_api_core.c **** 			((psys->result__range_status & VL53L1_RANGE_STATUS__RANGE_STATUS_MASK) ==
 3746              		.loc 1 2457 41 discriminator 1 view .LVU1234
 3747 0034 06F01F06 		and	r6, r6, #31
 3748 0038 092E     		cmp	r6, #9
 3749 003a E7D1     		bne	.L201
2460:D:/Git/VL53L1/lib/core/src\vl53l1_api_core.c **** 		} else {
 3750              		.loc 1 2460 4 is_stmt 1 view .LVU1235
2460:D:/Git/VL53L1/lib/core/src\vl53l1_api_core.c **** 		} else {
 3751              		.loc 1 2460 24 is_stmt 0 view .LVU1236
 3752 003c 1326     		movs	r6, #19
 3753 003e 84F83E60 		strb	r6, [r4, #62]
 3754 0042 E8E7     		b	.L202
 3755              	.L203:
2470:D:/Git/VL53L1/lib/core/src\vl53l1_api_core.c **** 				pdata->actual_effective_spads =
 3756              		.loc 1 2470 4 is_stmt 1 view .LVU1237
2470:D:/Git/VL53L1/lib/core/src\vl53l1_api_core.c **** 				pdata->actual_effective_spads =
 3757              		.loc 1 2470 12 is_stmt 0 view .LVU1238
 3758 0044 8E78     		ldrb	r6, [r1, #2]	@ zero_extendqisi2
2470:D:/Git/VL53L1/lib/core/src\vl53l1_api_core.c **** 				pdata->actual_effective_spads =
 3759              		.loc 1 2470 7 view .LVU1239
 3760 0046 072E     		cmp	r6, #7
 3761 0048 25D0     		beq	.L221
2473:D:/Git/VL53L1/lib/core/src\vl53l1_api_core.c **** 				pdata->actual_effective_spads =
 3762              		.loc 1 2473 9 is_stmt 1 view .LVU1240
2473:D:/Git/VL53L1/lib/core/src\vl53l1_api_core.c **** 				pdata->actual_effective_spads =
 3763              		.loc 1 2473 12 is_stmt 0 view .LVU1241
 3764 004a 082E     		cmp	r6, #8
 3765 004c 26D0     		beq	.L222
2477:D:/Git/VL53L1/lib/core/src\vl53l1_api_core.c **** 					psys->result__dss_actual_effective_spads_sd0;
 3766              		.loc 1 2477 5 is_stmt 1 view .LVU1242
2478:D:/Git/VL53L1/lib/core/src\vl53l1_api_core.c **** 
 3767              		.loc 1 2478 10 is_stmt 0 view .LVU1243
 3768 004e 8E88     		ldrh	r6, [r1, #4]
2477:D:/Git/VL53L1/lib/core/src\vl53l1_api_core.c **** 					psys->result__dss_actual_effective_spads_sd0;
 3769              		.loc 1 2477 35 view .LVU1244
 3770 0050 2682     		strh	r6, [r4, #16]	@ movhi
 3771              	.L207:
2480:D:/Git/VL53L1/lib/core/src\vl53l1_api_core.c **** 				psys->result__peak_signal_count_rate_crosstalk_corrected_mcps_sd0;
 3772              		.loc 1 2480 4 is_stmt 1 view .LVU1245
2481:D:/Git/VL53L1/lib/core/src\vl53l1_api_core.c **** 			pdata->avg_signal_count_rate_mcps =
 3773              		.loc 1 2481 9 is_stmt 0 view .LVU1246
 3774 0052 0E8A     		ldrh	r6, [r1, #16]
ARM GAS  C:\Users\Berbardo\AppData\Local\Temp\ccBMvrJ9.s 			page 118


2480:D:/Git/VL53L1/lib/core/src\vl53l1_api_core.c **** 				psys->result__peak_signal_count_rate_crosstalk_corrected_mcps_sd0;
 3775              		.loc 1 2480 39 view .LVU1247
 3776 0054 A685     		strh	r6, [r4, #44]	@ movhi
2482:D:/Git/VL53L1/lib/core/src\vl53l1_api_core.c **** 				psys->result__avg_signal_count_rate_mcps_sd0;
 3777              		.loc 1 2482 4 is_stmt 1 view .LVU1248
2483:D:/Git/VL53L1/lib/core/src\vl53l1_api_core.c **** 			pdata->ambient_count_rate_mcps =
 3778              		.loc 1 2483 9 is_stmt 0 view .LVU1249
 3779 0056 CE8A     		ldrh	r6, [r1, #22]
2482:D:/Git/VL53L1/lib/core/src\vl53l1_api_core.c **** 				psys->result__avg_signal_count_rate_mcps_sd0;
 3780              		.loc 1 2482 38 view .LVU1250
 3781 0058 E685     		strh	r6, [r4, #46]	@ movhi
2484:D:/Git/VL53L1/lib/core/src\vl53l1_api_core.c **** 				psys->result__ambient_count_rate_mcps_sd0;
 3782              		.loc 1 2484 4 is_stmt 1 view .LVU1251
2485:D:/Git/VL53L1/lib/core/src\vl53l1_api_core.c **** 
 3783              		.loc 1 2485 9 is_stmt 0 view .LVU1252
 3784 005a 0E89     		ldrh	r6, [r1, #8]
2484:D:/Git/VL53L1/lib/core/src\vl53l1_api_core.c **** 				psys->result__ambient_count_rate_mcps_sd0;
 3785              		.loc 1 2484 35 view .LVU1253
 3786 005c 2686     		strh	r6, [r4, #48]	@ movhi
2490:D:/Git/VL53L1/lib/core/src\vl53l1_api_core.c **** 			if (tmpu32 > 0xFFFF) {
 3787              		.loc 1 2490 4 is_stmt 1 view .LVU1254
2490:D:/Git/VL53L1/lib/core/src\vl53l1_api_core.c **** 			if (tmpu32 > 0xFFFF) {
 3788              		.loc 1 2490 28 is_stmt 0 view .LVU1255
 3789 005e 4E89     		ldrh	r6, [r1, #10]
2490:D:/Git/VL53L1/lib/core/src\vl53l1_api_core.c **** 			if (tmpu32 > 0xFFFF) {
 3790              		.loc 1 2490 11 view .LVU1256
 3791 0060 7601     		lsls	r6, r6, #5
 3792              	.LVL349:
2491:D:/Git/VL53L1/lib/core/src\vl53l1_api_core.c **** 				tmpu32 = 0xFFFF;
 3793              		.loc 1 2491 4 is_stmt 1 view .LVU1257
2491:D:/Git/VL53L1/lib/core/src\vl53l1_api_core.c **** 				tmpu32 = 0xFFFF;
 3794              		.loc 1 2491 7 is_stmt 0 view .LVU1258
 3795 0062 B6F5803F 		cmp	r6, #65536
 3796 0066 01D3     		bcc	.L209
2492:D:/Git/VL53L1/lib/core/src\vl53l1_api_core.c **** 			}
 3797              		.loc 1 2492 12 view .LVU1259
 3798 0068 4FF6FF76 		movw	r6, #65535
 3799              	.LVL350:
 3800              	.L209:
2494:D:/Git/VL53L1/lib/core/src\vl53l1_api_core.c **** 
 3801              		.loc 1 2494 4 is_stmt 1 view .LVU1260
2494:D:/Git/VL53L1/lib/core/src\vl53l1_api_core.c **** 
 3802              		.loc 1 2494 20 is_stmt 0 view .LVU1261
 3803 006c 2687     		strh	r6, [r4, #56]	@ movhi
2498:D:/Git/VL53L1/lib/core/src\vl53l1_api_core.c **** 				psys->result__phase_sd0;
 3804              		.loc 1 2498 4 is_stmt 1 view .LVU1262
2499:D:/Git/VL53L1/lib/core/src\vl53l1_api_core.c **** 
 3805              		.loc 1 2499 9 is_stmt 0 view .LVU1263
 3806 006e 8E89     		ldrh	r6, [r1, #12]
 3807              	.LVL351:
2498:D:/Git/VL53L1/lib/core/src\vl53l1_api_core.c **** 				psys->result__phase_sd0;
 3808              		.loc 1 2498 24 view .LVU1264
 3809 0070 6687     		strh	r6, [r4, #58]	@ movhi
2501:D:/Git/VL53L1/lib/core/src\vl53l1_api_core.c **** 				(int32_t)psys->result__final_crosstalk_corrected_range_mm_sd0;
 3810              		.loc 1 2501 4 is_stmt 1 view .LVU1265
2502:D:/Git/VL53L1/lib/core/src\vl53l1_api_core.c **** 
 3811              		.loc 1 2502 18 is_stmt 0 view .LVU1266
ARM GAS  C:\Users\Berbardo\AppData\Local\Temp\ccBMvrJ9.s 			page 119


 3812 0072 CE89     		ldrh	r6, [r1, #14]
 3813              	.LVL352:
2505:D:/Git/VL53L1/lib/core/src\vl53l1_api_core.c **** 			range_mm += 0x0400;
 3814              		.loc 1 2505 4 is_stmt 1 view .LVU1267
2505:D:/Git/VL53L1/lib/core/src\vl53l1_api_core.c **** 			range_mm += 0x0400;
 3815              		.loc 1 2505 13 is_stmt 0 view .LVU1268
 3816 0074 00FB06F6 		mul	r6, r0, r6
 3817              	.LVL353:
2506:D:/Git/VL53L1/lib/core/src\vl53l1_api_core.c **** 			range_mm /= 0x0800;
 3818              		.loc 1 2506 4 is_stmt 1 view .LVU1269
2507:D:/Git/VL53L1/lib/core/src\vl53l1_api_core.c **** 
 3819              		.loc 1 2507 4 view .LVU1270
2507:D:/Git/VL53L1/lib/core/src\vl53l1_api_core.c **** 
 3820              		.loc 1 2507 13 is_stmt 0 view .LVU1271
 3821 0078 16F58066 		adds	r6, r6, #1024
 3822 007c 11D4     		bmi	.L223
 3823              	.L210:
 3824              	.LVL354:
2509:D:/Git/VL53L1/lib/core/src\vl53l1_api_core.c **** 
 3825              		.loc 1 2509 4 is_stmt 1 view .LVU1272
2509:D:/Git/VL53L1/lib/core/src\vl53l1_api_core.c **** 
 3826              		.loc 1 2509 29 is_stmt 0 view .LVU1273
 3827 007e 46F3CF26 		sbfx	r6, r6, #11, #16
 3828              	.LVL355:
2509:D:/Git/VL53L1/lib/core/src\vl53l1_api_core.c **** 
 3829              		.loc 1 2509 27 view .LVU1274
 3830 0082 A687     		strh	r6, [r4, #60]	@ movhi
2511:D:/Git/VL53L1/lib/core/src\vl53l1_api_core.c **** 				pcore->result_core__ranging_total_events_sd0;
 3831              		.loc 1 2511 4 is_stmt 1 view .LVU1275
2512:D:/Git/VL53L1/lib/core/src\vl53l1_api_core.c **** 			pdata->signal_total_events =
 3832              		.loc 1 2512 10 is_stmt 0 view .LVU1276
 3833 0084 5668     		ldr	r6, [r2, #4]
2511:D:/Git/VL53L1/lib/core/src\vl53l1_api_core.c **** 				pcore->result_core__ranging_total_events_sd0;
 3834              		.loc 1 2511 32 view .LVU1277
 3835 0086 6662     		str	r6, [r4, #36]
2513:D:/Git/VL53L1/lib/core/src\vl53l1_api_core.c **** 				pcore->result_core__signal_total_events_sd0;
 3836              		.loc 1 2513 4 is_stmt 1 view .LVU1278
2514:D:/Git/VL53L1/lib/core/src\vl53l1_api_core.c **** 			pdata->total_periods_elapsed =
 3837              		.loc 1 2514 10 is_stmt 0 view .LVU1279
 3838 0088 9668     		ldr	r6, [r2, #8]
2513:D:/Git/VL53L1/lib/core/src\vl53l1_api_core.c **** 				pcore->result_core__signal_total_events_sd0;
 3839              		.loc 1 2513 31 view .LVU1280
 3840 008a A662     		str	r6, [r4, #40]
2515:D:/Git/VL53L1/lib/core/src\vl53l1_api_core.c **** 				pcore->result_core__total_periods_elapsed_sd0;
 3841              		.loc 1 2515 4 is_stmt 1 view .LVU1281
2516:D:/Git/VL53L1/lib/core/src\vl53l1_api_core.c **** 			pdata->ambient_window_events =
 3842              		.loc 1 2516 10 is_stmt 0 view .LVU1282
 3843 008c D668     		ldr	r6, [r2, #12]
2515:D:/Git/VL53L1/lib/core/src\vl53l1_api_core.c **** 				pcore->result_core__total_periods_elapsed_sd0;
 3844              		.loc 1 2515 33 view .LVU1283
 3845 008e 6661     		str	r6, [r4, #20]
2517:D:/Git/VL53L1/lib/core/src\vl53l1_api_core.c **** 				pcore->result_core__ambient_window_events_sd0;
 3846              		.loc 1 2517 4 is_stmt 1 view .LVU1284
2518:D:/Git/VL53L1/lib/core/src\vl53l1_api_core.c **** 
 3847              		.loc 1 2518 10 is_stmt 0 view .LVU1285
 3848 0090 1668     		ldr	r6, [r2]
2517:D:/Git/VL53L1/lib/core/src\vl53l1_api_core.c **** 				pcore->result_core__ambient_window_events_sd0;
ARM GAS  C:\Users\Berbardo\AppData\Local\Temp\ccBMvrJ9.s 			page 120


 3849              		.loc 1 2517 33 view .LVU1286
 3850 0092 2662     		str	r6, [r4, #32]
2520:D:/Git/VL53L1/lib/core/src\vl53l1_api_core.c **** 		case 1:
 3851              		.loc 1 2520 4 is_stmt 1 view .LVU1287
 3852 0094 C2E7     		b	.L205
 3853              	.L221:
2471:D:/Git/VL53L1/lib/core/src\vl53l1_api_core.c **** 					psys->result__mm_inner_actual_effective_spads_sd0;
 3854              		.loc 1 2471 5 view .LVU1288
2472:D:/Git/VL53L1/lib/core/src\vl53l1_api_core.c **** 			else if (psys->result__report_status == VL53L1_DEVICEREPORTSTATUS_MM2)
 3855              		.loc 1 2472 10 is_stmt 0 view .LVU1289
 3856 0096 4E8A     		ldrh	r6, [r1, #18]
2471:D:/Git/VL53L1/lib/core/src\vl53l1_api_core.c **** 					psys->result__mm_inner_actual_effective_spads_sd0;
 3857              		.loc 1 2471 35 view .LVU1290
 3858 0098 2682     		strh	r6, [r4, #16]	@ movhi
 3859 009a DAE7     		b	.L207
 3860              	.L222:
2474:D:/Git/VL53L1/lib/core/src\vl53l1_api_core.c **** 						psys->result__mm_outer_actual_effective_spads_sd0;
 3861              		.loc 1 2474 5 is_stmt 1 view .LVU1291
2475:D:/Git/VL53L1/lib/core/src\vl53l1_api_core.c **** 			else
 3862              		.loc 1 2475 11 is_stmt 0 view .LVU1292
 3863 009c 8E8A     		ldrh	r6, [r1, #20]
2474:D:/Git/VL53L1/lib/core/src\vl53l1_api_core.c **** 						psys->result__mm_outer_actual_effective_spads_sd0;
 3864              		.loc 1 2474 35 view .LVU1293
 3865 009e 2682     		strh	r6, [r4, #16]	@ movhi
 3866 00a0 D7E7     		b	.L207
 3867              	.L223:
2507:D:/Git/VL53L1/lib/core/src\vl53l1_api_core.c **** 
 3868              		.loc 1 2507 13 view .LVU1294
 3869 00a2 06F2FF76 		addw	r6, r6, #2047
 3870 00a6 EAE7     		b	.L210
 3871              	.L204:
2523:D:/Git/VL53L1/lib/core/src\vl53l1_api_core.c **** 				psys->result__dss_actual_effective_spads_sd1;
 3872              		.loc 1 2523 4 is_stmt 1 view .LVU1295
2524:D:/Git/VL53L1/lib/core/src\vl53l1_api_core.c **** 			pdata->peak_signal_count_rate_mcps =
 3873              		.loc 1 2524 9 is_stmt 0 view .LVU1296
 3874 00a8 0E8B     		ldrh	r6, [r1, #24]
2523:D:/Git/VL53L1/lib/core/src\vl53l1_api_core.c **** 				psys->result__dss_actual_effective_spads_sd1;
 3875              		.loc 1 2523 34 view .LVU1297
 3876 00aa 2682     		strh	r6, [r4, #16]	@ movhi
2525:D:/Git/VL53L1/lib/core/src\vl53l1_api_core.c **** 				psys->result__peak_signal_count_rate_mcps_sd1;
 3877              		.loc 1 2525 4 is_stmt 1 view .LVU1298
2526:D:/Git/VL53L1/lib/core/src\vl53l1_api_core.c **** 			pdata->avg_signal_count_rate_mcps =
 3878              		.loc 1 2526 9 is_stmt 0 view .LVU1299
 3879 00ac 4E8B     		ldrh	r6, [r1, #26]
2525:D:/Git/VL53L1/lib/core/src\vl53l1_api_core.c **** 				psys->result__peak_signal_count_rate_mcps_sd1;
 3880              		.loc 1 2525 39 view .LVU1300
 3881 00ae A685     		strh	r6, [r4, #44]	@ movhi
2527:D:/Git/VL53L1/lib/core/src\vl53l1_api_core.c **** 				0xFFFF;
 3882              		.loc 1 2527 4 is_stmt 1 view .LVU1301
2527:D:/Git/VL53L1/lib/core/src\vl53l1_api_core.c **** 				0xFFFF;
 3883              		.loc 1 2527 38 is_stmt 0 view .LVU1302
 3884 00b0 4FF6FF76 		movw	r6, #65535
 3885 00b4 E685     		strh	r6, [r4, #46]	@ movhi
2529:D:/Git/VL53L1/lib/core/src\vl53l1_api_core.c **** 				psys->result__ambient_count_rate_mcps_sd1;
 3886              		.loc 1 2529 4 is_stmt 1 view .LVU1303
2530:D:/Git/VL53L1/lib/core/src\vl53l1_api_core.c **** 
 3887              		.loc 1 2530 9 is_stmt 0 view .LVU1304
ARM GAS  C:\Users\Berbardo\AppData\Local\Temp\ccBMvrJ9.s 			page 121


 3888 00b6 8E8B     		ldrh	r6, [r1, #28]
2529:D:/Git/VL53L1/lib/core/src\vl53l1_api_core.c **** 				psys->result__ambient_count_rate_mcps_sd1;
 3889              		.loc 1 2529 35 view .LVU1305
 3890 00b8 2686     		strh	r6, [r4, #48]	@ movhi
2535:D:/Git/VL53L1/lib/core/src\vl53l1_api_core.c **** 			if (tmpu32 > 0xFFFF) {
 3891              		.loc 1 2535 4 is_stmt 1 view .LVU1306
2535:D:/Git/VL53L1/lib/core/src\vl53l1_api_core.c **** 			if (tmpu32 > 0xFFFF) {
 3892              		.loc 1 2535 28 is_stmt 0 view .LVU1307
 3893 00ba CE8B     		ldrh	r6, [r1, #30]
2535:D:/Git/VL53L1/lib/core/src\vl53l1_api_core.c **** 			if (tmpu32 > 0xFFFF) {
 3894              		.loc 1 2535 11 view .LVU1308
 3895 00bc 7601     		lsls	r6, r6, #5
 3896              	.LVL356:
2536:D:/Git/VL53L1/lib/core/src\vl53l1_api_core.c **** 				tmpu32 = 0xFFFF;
 3897              		.loc 1 2536 4 is_stmt 1 view .LVU1309
2536:D:/Git/VL53L1/lib/core/src\vl53l1_api_core.c **** 				tmpu32 = 0xFFFF;
 3898              		.loc 1 2536 7 is_stmt 0 view .LVU1310
 3899 00be B6F5803F 		cmp	r6, #65536
 3900 00c2 01D3     		bcc	.L211
2537:D:/Git/VL53L1/lib/core/src\vl53l1_api_core.c **** 			}
 3901              		.loc 1 2537 12 view .LVU1311
 3902 00c4 4FF6FF76 		movw	r6, #65535
 3903              	.LVL357:
 3904              	.L211:
2539:D:/Git/VL53L1/lib/core/src\vl53l1_api_core.c **** 
 3905              		.loc 1 2539 4 is_stmt 1 view .LVU1312
2539:D:/Git/VL53L1/lib/core/src\vl53l1_api_core.c **** 
 3906              		.loc 1 2539 20 is_stmt 0 view .LVU1313
 3907 00c8 2687     		strh	r6, [r4, #56]	@ movhi
2543:D:/Git/VL53L1/lib/core/src\vl53l1_api_core.c **** 				psys->result__phase_sd1;
 3908              		.loc 1 2543 4 is_stmt 1 view .LVU1314
2544:D:/Git/VL53L1/lib/core/src\vl53l1_api_core.c **** 
 3909              		.loc 1 2544 9 is_stmt 0 view .LVU1315
 3910 00ca 0E8C     		ldrh	r6, [r1, #32]
 3911              	.LVL358:
2543:D:/Git/VL53L1/lib/core/src\vl53l1_api_core.c **** 				psys->result__phase_sd1;
 3912              		.loc 1 2543 24 view .LVU1316
 3913 00cc 6687     		strh	r6, [r4, #58]	@ movhi
2546:D:/Git/VL53L1/lib/core/src\vl53l1_api_core.c **** 				(int32_t)psys->result__final_crosstalk_corrected_range_mm_sd1;
 3914              		.loc 1 2546 4 is_stmt 1 view .LVU1317
2547:D:/Git/VL53L1/lib/core/src\vl53l1_api_core.c **** 
 3915              		.loc 1 2547 18 is_stmt 0 view .LVU1318
 3916 00ce 4E8C     		ldrh	r6, [r1, #34]
 3917              	.LVL359:
2550:D:/Git/VL53L1/lib/core/src\vl53l1_api_core.c **** 			range_mm += 0x0400;
 3918              		.loc 1 2550 4 is_stmt 1 view .LVU1319
2550:D:/Git/VL53L1/lib/core/src\vl53l1_api_core.c **** 			range_mm += 0x0400;
 3919              		.loc 1 2550 13 is_stmt 0 view .LVU1320
 3920 00d0 06FB00F6 		mul	r6, r6, r0
 3921              	.LVL360:
2551:D:/Git/VL53L1/lib/core/src\vl53l1_api_core.c **** 			range_mm /= 0x0800;
 3922              		.loc 1 2551 4 is_stmt 1 view .LVU1321
2552:D:/Git/VL53L1/lib/core/src\vl53l1_api_core.c **** 
 3923              		.loc 1 2552 4 view .LVU1322
2552:D:/Git/VL53L1/lib/core/src\vl53l1_api_core.c **** 
 3924              		.loc 1 2552 13 is_stmt 0 view .LVU1323
 3925 00d4 16F58066 		adds	r6, r6, #1024
ARM GAS  C:\Users\Berbardo\AppData\Local\Temp\ccBMvrJ9.s 			page 122


 3926 00d8 0BD4     		bmi	.L224
 3927              	.L212:
 3928              	.LVL361:
2554:D:/Git/VL53L1/lib/core/src\vl53l1_api_core.c **** 
 3929              		.loc 1 2554 4 is_stmt 1 view .LVU1324
2554:D:/Git/VL53L1/lib/core/src\vl53l1_api_core.c **** 
 3930              		.loc 1 2554 29 is_stmt 0 view .LVU1325
 3931 00da 46F3CF26 		sbfx	r6, r6, #11, #16
 3932              	.LVL362:
2554:D:/Git/VL53L1/lib/core/src\vl53l1_api_core.c **** 
 3933              		.loc 1 2554 27 view .LVU1326
 3934 00de A687     		strh	r6, [r4, #60]	@ movhi
2556:D:/Git/VL53L1/lib/core/src\vl53l1_api_core.c **** 				pcore->result_core__ranging_total_events_sd1;
 3935              		.loc 1 2556 4 is_stmt 1 view .LVU1327
2557:D:/Git/VL53L1/lib/core/src\vl53l1_api_core.c **** 			pdata->signal_total_events =
 3936              		.loc 1 2557 10 is_stmt 0 view .LVU1328
 3937 00e0 5669     		ldr	r6, [r2, #20]
2556:D:/Git/VL53L1/lib/core/src\vl53l1_api_core.c **** 				pcore->result_core__ranging_total_events_sd1;
 3938              		.loc 1 2556 32 view .LVU1329
 3939 00e2 6662     		str	r6, [r4, #36]
2558:D:/Git/VL53L1/lib/core/src\vl53l1_api_core.c **** 				pcore->result_core__signal_total_events_sd1;
 3940              		.loc 1 2558 4 is_stmt 1 view .LVU1330
2559:D:/Git/VL53L1/lib/core/src\vl53l1_api_core.c **** 			pdata->total_periods_elapsed  =
 3941              		.loc 1 2559 10 is_stmt 0 view .LVU1331
 3942 00e4 9669     		ldr	r6, [r2, #24]
2558:D:/Git/VL53L1/lib/core/src\vl53l1_api_core.c **** 				pcore->result_core__signal_total_events_sd1;
 3943              		.loc 1 2558 31 view .LVU1332
 3944 00e6 A662     		str	r6, [r4, #40]
2560:D:/Git/VL53L1/lib/core/src\vl53l1_api_core.c **** 				pcore->result_core__total_periods_elapsed_sd1;
 3945              		.loc 1 2560 4 is_stmt 1 view .LVU1333
2561:D:/Git/VL53L1/lib/core/src\vl53l1_api_core.c **** 			pdata->ambient_window_events =
 3946              		.loc 1 2561 10 is_stmt 0 view .LVU1334
 3947 00e8 D669     		ldr	r6, [r2, #28]
2560:D:/Git/VL53L1/lib/core/src\vl53l1_api_core.c **** 				pcore->result_core__total_periods_elapsed_sd1;
 3948              		.loc 1 2560 34 view .LVU1335
 3949 00ea 6661     		str	r6, [r4, #20]
2562:D:/Git/VL53L1/lib/core/src\vl53l1_api_core.c **** 				pcore->result_core__ambient_window_events_sd1;
 3950              		.loc 1 2562 4 is_stmt 1 view .LVU1336
2563:D:/Git/VL53L1/lib/core/src\vl53l1_api_core.c **** 
 3951              		.loc 1 2563 10 is_stmt 0 view .LVU1337
 3952 00ec 1669     		ldr	r6, [r2, #16]
2562:D:/Git/VL53L1/lib/core/src\vl53l1_api_core.c **** 				pcore->result_core__ambient_window_events_sd1;
 3953              		.loc 1 2562 33 view .LVU1338
 3954 00ee 2662     		str	r6, [r4, #32]
2565:D:/Git/VL53L1/lib/core/src\vl53l1_api_core.c **** 		}
 3955              		.loc 1 2565 4 is_stmt 1 view .LVU1339
 3956 00f0 94E7     		b	.L205
 3957              	.L224:
2552:D:/Git/VL53L1/lib/core/src\vl53l1_api_core.c **** 
 3958              		.loc 1 2552 13 is_stmt 0 view .LVU1340
 3959 00f2 06F2FF76 		addw	r6, r6, #2047
 3960 00f6 F0E7     		b	.L212
 3961              	.L220:
2569:D:/Git/VL53L1/lib/core/src\vl53l1_api_core.c **** 	}
2570:D:/Git/VL53L1/lib/core/src\vl53l1_api_core.c **** 
2571:D:/Git/VL53L1/lib/core/src\vl53l1_api_core.c **** 	/* Update Global Device Status for results
2572:D:/Git/VL53L1/lib/core/src\vl53l1_api_core.c **** 	 * - Default to no update
ARM GAS  C:\Users\Berbardo\AppData\Local\Temp\ccBMvrJ9.s 			page 123


2573:D:/Git/VL53L1/lib/core/src\vl53l1_api_core.c **** 	 */
2574:D:/Git/VL53L1/lib/core/src\vl53l1_api_core.c **** 
2575:D:/Git/VL53L1/lib/core/src\vl53l1_api_core.c **** 	presults->device_status = VL53L1_DEVICEERROR_NOUPDATE;
 3962              		.loc 1 2575 2 is_stmt 1 view .LVU1341
 3963              		.loc 1 2575 26 is_stmt 0 view .LVU1342
 3964 00f8 0022     		movs	r2, #0
 3965              	.LVL363:
 3966              		.loc 1 2575 26 view .LVU1343
 3967 00fa DA70     		strb	r2, [r3, #3]
2576:D:/Git/VL53L1/lib/core/src\vl53l1_api_core.c **** 
2577:D:/Git/VL53L1/lib/core/src\vl53l1_api_core.c **** 	/* Check range status
2578:D:/Git/VL53L1/lib/core/src\vl53l1_api_core.c **** 	 * - If device error condition, update device status
2579:D:/Git/VL53L1/lib/core/src\vl53l1_api_core.c **** 	 * - Remove device status from range status output this should
2580:D:/Git/VL53L1/lib/core/src\vl53l1_api_core.c **** 	 * only contain information relating to range data
2581:D:/Git/VL53L1/lib/core/src\vl53l1_api_core.c **** 	 */
2582:D:/Git/VL53L1/lib/core/src\vl53l1_api_core.c **** 
2583:D:/Git/VL53L1/lib/core/src\vl53l1_api_core.c **** 	switch (psys->result__range_status &
 3968              		.loc 1 2583 2 is_stmt 1 view .LVU1344
 3969              		.loc 1 2583 14 is_stmt 0 view .LVU1345
 3970 00fc 4A78     		ldrb	r2, [r1, #1]	@ zero_extendqisi2
 3971 00fe 02F01F02 		and	r2, r2, #31
 3972              		.loc 1 2583 2 view .LVU1346
 3973 0102 511E     		subs	r1, r2, #1
 3974              	.LVL364:
 3975              		.loc 1 2583 2 view .LVU1347
 3976 0104 1029     		cmp	r1, #16
 3977 0106 0ED8     		bhi	.L199
 3978 0108 DFE801F0 		tbb	[pc, r1]
 3979              	.LVL365:
 3980              	.L216:
 3981 010c 09       		.byte	(.L215-.L216)/2
 3982 010d 09       		.byte	(.L215-.L216)/2
 3983 010e 09       		.byte	(.L215-.L216)/2
 3984 010f 0D       		.byte	(.L199-.L216)/2
 3985 0110 0D       		.byte	(.L199-.L216)/2
 3986 0111 0D       		.byte	(.L199-.L216)/2
 3987 0112 0D       		.byte	(.L199-.L216)/2
 3988 0113 0D       		.byte	(.L199-.L216)/2
 3989 0114 0D       		.byte	(.L199-.L216)/2
 3990 0115 0D       		.byte	(.L199-.L216)/2
 3991 0116 0D       		.byte	(.L199-.L216)/2
 3992 0117 0D       		.byte	(.L199-.L216)/2
 3993 0118 09       		.byte	(.L215-.L216)/2
 3994 0119 0D       		.byte	(.L199-.L216)/2
 3995 011a 0D       		.byte	(.L199-.L216)/2
 3996 011b 0D       		.byte	(.L199-.L216)/2
 3997 011c 09       		.byte	(.L215-.L216)/2
 3998 011d 00       		.p2align 1
 3999              	.L215:
2584:D:/Git/VL53L1/lib/core/src\vl53l1_api_core.c **** 			VL53L1_RANGE_STATUS__RANGE_STATUS_MASK) {
2585:D:/Git/VL53L1/lib/core/src\vl53l1_api_core.c **** 
2586:D:/Git/VL53L1/lib/core/src\vl53l1_api_core.c **** 	case VL53L1_DEVICEERROR_VCSELCONTINUITYTESTFAILURE:
2587:D:/Git/VL53L1/lib/core/src\vl53l1_api_core.c **** 	case VL53L1_DEVICEERROR_VCSELWATCHDOGTESTFAILURE:
2588:D:/Git/VL53L1/lib/core/src\vl53l1_api_core.c **** 	case VL53L1_DEVICEERROR_NOVHVVALUEFOUND:
2589:D:/Git/VL53L1/lib/core/src\vl53l1_api_core.c **** 	case VL53L1_DEVICEERROR_USERROICLIP:
2590:D:/Git/VL53L1/lib/core/src\vl53l1_api_core.c **** 	case VL53L1_DEVICEERROR_MULTCLIPFAIL:
2591:D:/Git/VL53L1/lib/core/src\vl53l1_api_core.c **** 
ARM GAS  C:\Users\Berbardo\AppData\Local\Temp\ccBMvrJ9.s 			page 124


2592:D:/Git/VL53L1/lib/core/src\vl53l1_api_core.c **** 		presults->device_status = (psys->result__range_status &
 4000              		.loc 1 2592 3 is_stmt 1 view .LVU1348
 4001              		.loc 1 2592 27 is_stmt 0 view .LVU1349
 4002 011e DA70     		strb	r2, [r3, #3]
2593:D:/Git/VL53L1/lib/core/src\vl53l1_api_core.c **** 				VL53L1_RANGE_STATUS__RANGE_STATUS_MASK);
2594:D:/Git/VL53L1/lib/core/src\vl53l1_api_core.c **** 
2595:D:/Git/VL53L1/lib/core/src\vl53l1_api_core.c **** 		presults->data[0].range_status = VL53L1_DEVICEERROR_NOUPDATE;
 4003              		.loc 1 2595 3 is_stmt 1 view .LVU1350
 4004              		.loc 1 2595 34 is_stmt 0 view .LVU1351
 4005 0120 0022     		movs	r2, #0
 4006 0122 83F84220 		strb	r2, [r3, #66]
2596:D:/Git/VL53L1/lib/core/src\vl53l1_api_core.c **** 	break;
 4007              		.loc 1 2596 2 is_stmt 1 view .LVU1352
2597:D:/Git/VL53L1/lib/core/src\vl53l1_api_core.c **** 
2598:D:/Git/VL53L1/lib/core/src\vl53l1_api_core.c **** 	}
2599:D:/Git/VL53L1/lib/core/src\vl53l1_api_core.c **** 
2600:D:/Git/VL53L1/lib/core/src\vl53l1_api_core.c **** 	LOG_FUNCTION_END(0);
 4008              		.loc 1 2600 21 view .LVU1353
 4009              	.L199:
2601:D:/Git/VL53L1/lib/core/src\vl53l1_api_core.c **** }
 4010              		.loc 1 2601 1 is_stmt 0 view .LVU1354
 4011 0126 70BC     		pop	{r4, r5, r6}
 4012              		.cfi_restore 6
 4013              		.cfi_restore 5
 4014              		.cfi_restore 4
 4015              		.cfi_def_cfa_offset 0
 4016              	.LVL366:
 4017              		.loc 1 2601 1 view .LVU1355
 4018 0128 7047     		bx	lr
 4019              		.cfi_endproc
 4020              	.LFE169:
 4022              		.section	.text.VL53L1_get_device_results,"ax",%progbits
 4023              		.align	1
 4024              		.global	VL53L1_get_device_results
 4025              		.syntax unified
 4026              		.thumb
 4027              		.thumb_func
 4028              		.fpu fpv4-sp-d16
 4030              	VL53L1_get_device_results:
 4031              	.LVL367:
 4032              	.LFB167:
2302:D:/Git/VL53L1/lib/core/src\vl53l1_api_core.c **** 	/*
 4033              		.loc 1 2302 1 is_stmt 1 view -0
 4034              		.cfi_startproc
 4035              		@ args = 0, pretend = 0, frame = 0
 4036              		@ frame_needed = 0, uses_anonymous_args = 0
2302:D:/Git/VL53L1/lib/core/src\vl53l1_api_core.c **** 	/*
 4037              		.loc 1 2302 1 is_stmt 0 view .LVU1357
 4038 0000 F8B5     		push	{r3, r4, r5, r6, r7, lr}
 4039              		.cfi_def_cfa_offset 24
 4040              		.cfi_offset 3, -24
 4041              		.cfi_offset 4, -20
 4042              		.cfi_offset 5, -16
 4043              		.cfi_offset 6, -12
 4044              		.cfi_offset 7, -8
 4045              		.cfi_offset 14, -4
 4046 0002 0446     		mov	r4, r0
ARM GAS  C:\Users\Berbardo\AppData\Local\Temp\ccBMvrJ9.s 			page 125


 4047 0004 1746     		mov	r7, r2
2313:D:/Git/VL53L1/lib/core/src\vl53l1_api_core.c **** 
 4048              		.loc 1 2313 2 is_stmt 1 view .LVU1358
 4049              	.LVL368:
2315:D:/Git/VL53L1/lib/core/src\vl53l1_api_core.c **** 			VL53L1DevStructGetLLDriverHandle(Dev);
 4050              		.loc 1 2315 2 view .LVU1359
2317:D:/Git/VL53L1/lib/core/src\vl53l1_api_core.c **** 			VL53L1DevStructGetLLResultsHandle(Dev);
 4051              		.loc 1 2317 2 view .LVU1360
2320:D:/Git/VL53L1/lib/core/src\vl53l1_api_core.c **** 
 4052              		.loc 1 2320 2 view .LVU1361
2320:D:/Git/VL53L1/lib/core/src\vl53l1_api_core.c **** 
 4053              		.loc 1 2320 28 is_stmt 0 view .LVU1362
 4054 0006 00F53D76 		add	r6, r0, #756
 4055              	.LVL369:
2322:D:/Git/VL53L1/lib/core/src\vl53l1_api_core.c **** 
 4056              		.loc 1 2322 24 is_stmt 1 view .LVU1363
2326:D:/Git/VL53L1/lib/core/src\vl53l1_api_core.c **** 		status = VL53L1_get_measurement_results(
 4057              		.loc 1 2326 2 view .LVU1364
2327:D:/Git/VL53L1/lib/core/src\vl53l1_api_core.c **** 						Dev,
 4058              		.loc 1 2327 3 view .LVU1365
2327:D:/Git/VL53L1/lib/core/src\vl53l1_api_core.c **** 						Dev,
 4059              		.loc 1 2327 12 is_stmt 0 view .LVU1366
 4060 000a FFF7FEFF 		bl	VL53L1_get_measurement_results
 4061              	.LVL370:
2331:D:/Git/VL53L1/lib/core/src\vl53l1_api_core.c **** 		VL53L1_copy_sys_and_core_results_to_range_results(
 4062              		.loc 1 2331 2 is_stmt 1 view .LVU1367
2331:D:/Git/VL53L1/lib/core/src\vl53l1_api_core.c **** 		VL53L1_copy_sys_and_core_results_to_range_results(
 4063              		.loc 1 2331 5 is_stmt 0 view .LVU1368
 4064 000e 0546     		mov	r5, r0
 4065 0010 98B1     		cbz	r0, .L232
 4066              	.LVL371:
 4067              	.L226:
2340:D:/Git/VL53L1/lib/core/src\vl53l1_api_core.c **** 		/* change to manual calibrations. Only needed on the
 4068              		.loc 1 2340 2 is_stmt 1 view .LVU1369
2340:D:/Git/VL53L1/lib/core/src\vl53l1_api_core.c **** 		/* change to manual calibrations. Only needed on the
 4069              		.loc 1 2340 31 is_stmt 0 view .LVU1370
 4070 0012 94F8E532 		ldrb	r3, [r4, #741]	@ zero_extendqisi2
2340:D:/Git/VL53L1/lib/core/src\vl53l1_api_core.c **** 		/* change to manual calibrations. Only needed on the
 4071              		.loc 1 2340 5 view .LVU1371
 4072 0016 012B     		cmp	r3, #1
 4073 0018 19D0     		beq	.L233
 4074              	.L227:
 4075              	.LVL372:
2365:D:/Git/VL53L1/lib/core/src\vl53l1_api_core.c **** 	presults->rd_device_state  = pdev->ll_state.rd_device_state;
 4076              		.loc 1 2365 2 is_stmt 1 view .LVU1372
2365:D:/Git/VL53L1/lib/core/src\vl53l1_api_core.c **** 	presults->rd_device_state  = pdev->ll_state.rd_device_state;
 4077              		.loc 1 2365 45 is_stmt 0 view .LVU1373
 4078 001a 94F82C30 		ldrb	r3, [r4, #44]	@ zero_extendqisi2
2365:D:/Git/VL53L1/lib/core/src\vl53l1_api_core.c **** 	presults->rd_device_state  = pdev->ll_state.rd_device_state;
 4079              		.loc 1 2365 29 view .LVU1374
 4080 001e 84F8F432 		strb	r3, [r4, #756]
2366:D:/Git/VL53L1/lib/core/src\vl53l1_api_core.c **** 
 4081              		.loc 1 2366 2 is_stmt 1 view .LVU1375
2366:D:/Git/VL53L1/lib/core/src\vl53l1_api_core.c **** 
 4082              		.loc 1 2366 45 is_stmt 0 view .LVU1376
 4083 0022 94F83030 		ldrb	r3, [r4, #48]	@ zero_extendqisi2
2366:D:/Git/VL53L1/lib/core/src\vl53l1_api_core.c **** 
ARM GAS  C:\Users\Berbardo\AppData\Local\Temp\ccBMvrJ9.s 			page 126


 4084              		.loc 1 2366 29 view .LVU1377
 4085 0026 84F8F532 		strb	r3, [r4, #757]
2370:D:/Git/VL53L1/lib/core/src\vl53l1_api_core.c **** 		prange_results,
 4086              		.loc 1 2370 2 is_stmt 1 view .LVU1378
 4087 002a 8422     		movs	r2, #132
 4088 002c 3146     		mov	r1, r6
 4089 002e 3846     		mov	r0, r7
 4090 0030 FFF7FEFF 		bl	memcpy
 4091              	.LVL373:
2380:D:/Git/VL53L1/lib/core/src\vl53l1_api_core.c **** 		status = VL53L1_check_ll_driver_rd_state(Dev);
 4092              		.loc 1 2380 2 view .LVU1379
2380:D:/Git/VL53L1/lib/core/src\vl53l1_api_core.c **** 		status = VL53L1_check_ll_driver_rd_state(Dev);
 4093              		.loc 1 2380 5 is_stmt 0 view .LVU1380
 4094 0034 5DB3     		cbz	r5, .L234
 4095              	.L230:
2391:D:/Git/VL53L1/lib/core/src\vl53l1_api_core.c **** 
 4096              		.loc 1 2391 26 is_stmt 1 view .LVU1381
2393:D:/Git/VL53L1/lib/core/src\vl53l1_api_core.c **** }
 4097              		.loc 1 2393 2 view .LVU1382
2394:D:/Git/VL53L1/lib/core/src\vl53l1_api_core.c **** 
 4098              		.loc 1 2394 1 is_stmt 0 view .LVU1383
 4099 0036 2846     		mov	r0, r5
 4100 0038 F8BD     		pop	{r3, r4, r5, r6, r7, pc}
 4101              	.LVL374:
 4102              	.L232:
2332:D:/Git/VL53L1/lib/core/src\vl53l1_api_core.c **** 				(int32_t)pdev->gain_cal.standard_ranging_gain_factor,
 4103              		.loc 1 2332 3 is_stmt 1 view .LVU1384
 4104 003a 3346     		mov	r3, r6
 4105 003c 04F52272 		add	r2, r4, #648
 4106 0040 04F5E771 		add	r1, r4, #462
 4107 0044 B4F89C00 		ldrh	r0, [r4, #156]
 4108              	.LVL375:
2332:D:/Git/VL53L1/lib/core/src\vl53l1_api_core.c **** 				(int32_t)pdev->gain_cal.standard_ranging_gain_factor,
 4109              		.loc 1 2332 3 is_stmt 0 view .LVU1385
 4110 0048 FFF7FEFF 		bl	VL53L1_copy_sys_and_core_results_to_range_results
 4111              	.LVL376:
 4112 004c E1E7     		b	.L226
 4113              	.L233:
2343:D:/Git/VL53L1/lib/core/src\vl53l1_api_core.c **** 			(pdev->low_power_auto_data.low_power_auto_range_count == 0)) {
 4114              		.loc 1 2343 3 is_stmt 1 view .LVU1386
2343:D:/Git/VL53L1/lib/core/src\vl53l1_api_core.c **** 			(pdev->low_power_auto_data.low_power_auto_range_count == 0)) {
 4115              		.loc 1 2343 6 is_stmt 0 view .LVU1387
 4116 004e 15B9     		cbnz	r5, .L228
2344:D:/Git/VL53L1/lib/core/src\vl53l1_api_core.c **** 			status = VL53L1_low_power_auto_setup_manual_calibration(
 4117              		.loc 1 2344 30 discriminator 1 view .LVU1388
 4118 0050 94F8E632 		ldrb	r3, [r4, #742]	@ zero_extendqisi2
2343:D:/Git/VL53L1/lib/core/src\vl53l1_api_core.c **** 			(pdev->low_power_auto_data.low_power_auto_range_count == 0)) {
 4119              		.loc 1 2343 37 discriminator 1 view .LVU1389
 4120 0054 7BB1     		cbz	r3, .L235
 4121              	.L228:
2348:D:/Git/VL53L1/lib/core/src\vl53l1_api_core.c **** 			(pdev->low_power_auto_data.low_power_auto_range_count == 1)) {
 4122              		.loc 1 2348 10 is_stmt 1 view .LVU1390
2348:D:/Git/VL53L1/lib/core/src\vl53l1_api_core.c **** 			(pdev->low_power_auto_data.low_power_auto_range_count == 1)) {
 4123              		.loc 1 2348 13 is_stmt 0 view .LVU1391
 4124 0056 1DB9     		cbnz	r5, .L229
2349:D:/Git/VL53L1/lib/core/src\vl53l1_api_core.c **** 			pdev->low_power_auto_data.low_power_auto_range_count = 2;
 4125              		.loc 1 2349 30 discriminator 1 view .LVU1392
ARM GAS  C:\Users\Berbardo\AppData\Local\Temp\ccBMvrJ9.s 			page 127


 4126 0058 94F8E632 		ldrb	r3, [r4, #742]	@ zero_extendqisi2
2348:D:/Git/VL53L1/lib/core/src\vl53l1_api_core.c **** 			(pdev->low_power_auto_data.low_power_auto_range_count == 1)) {
 4127              		.loc 1 2348 44 discriminator 1 view .LVU1393
 4128 005c 012B     		cmp	r3, #1
 4129 005e 12D0     		beq	.L236
 4130              	.L229:
 4131              	.LVL377:
2354:D:/Git/VL53L1/lib/core/src\vl53l1_api_core.c **** 			(status == VL53L1_ERROR_NONE)) {
 4132              		.loc 1 2354 3 is_stmt 1 view .LVU1394
2354:D:/Git/VL53L1/lib/core/src\vl53l1_api_core.c **** 			(status == VL53L1_ERROR_NONE)) {
 4133              		.loc 1 2354 33 is_stmt 0 view .LVU1395
 4134 0060 94F8E632 		ldrb	r3, [r4, #742]	@ zero_extendqisi2
2354:D:/Git/VL53L1/lib/core/src\vl53l1_api_core.c **** 			(status == VL53L1_ERROR_NONE)) {
 4135              		.loc 1 2354 6 view .LVU1396
 4136 0064 FF2B     		cmp	r3, #255
 4137 0066 D8D0     		beq	.L227
2354:D:/Git/VL53L1/lib/core/src\vl53l1_api_core.c **** 			(status == VL53L1_ERROR_NONE)) {
 4138              		.loc 1 2354 70 discriminator 1 view .LVU1397
 4139 0068 002D     		cmp	r5, #0
 4140 006a D6D1     		bne	.L227
2356:D:/Git/VL53L1/lib/core/src\vl53l1_api_core.c **** 					Dev);
 4141              		.loc 1 2356 4 is_stmt 1 view .LVU1398
2356:D:/Git/VL53L1/lib/core/src\vl53l1_api_core.c **** 					Dev);
 4142              		.loc 1 2356 13 is_stmt 0 view .LVU1399
 4143 006c 2046     		mov	r0, r4
 4144 006e FFF7FEFF 		bl	VL53L1_low_power_auto_update_DSS
 4145              	.LVL378:
 4146 0072 0546     		mov	r5, r0
 4147              	.LVL379:
2356:D:/Git/VL53L1/lib/core/src\vl53l1_api_core.c **** 					Dev);
 4148              		.loc 1 2356 13 view .LVU1400
 4149 0074 D1E7     		b	.L227
 4150              	.LVL380:
 4151              	.L235:
2345:D:/Git/VL53L1/lib/core/src\vl53l1_api_core.c **** 					Dev);
 4152              		.loc 1 2345 4 is_stmt 1 view .LVU1401
2345:D:/Git/VL53L1/lib/core/src\vl53l1_api_core.c **** 					Dev);
 4153              		.loc 1 2345 13 is_stmt 0 view .LVU1402
 4154 0076 2046     		mov	r0, r4
 4155 0078 FFF7FEFF 		bl	VL53L1_low_power_auto_setup_manual_calibration
 4156              	.LVL381:
 4157 007c 0546     		mov	r5, r0
 4158              	.LVL382:
2347:D:/Git/VL53L1/lib/core/src\vl53l1_api_core.c **** 		} else if ((status == VL53L1_ERROR_NONE) &&
 4159              		.loc 1 2347 4 is_stmt 1 view .LVU1403
2347:D:/Git/VL53L1/lib/core/src\vl53l1_api_core.c **** 		} else if ((status == VL53L1_ERROR_NONE) &&
 4160              		.loc 1 2347 57 is_stmt 0 view .LVU1404
 4161 007e 0123     		movs	r3, #1
 4162 0080 84F8E632 		strb	r3, [r4, #742]
 4163 0084 ECE7     		b	.L229
 4164              	.LVL383:
 4165              	.L236:
2350:D:/Git/VL53L1/lib/core/src\vl53l1_api_core.c **** 		}
 4166              		.loc 1 2350 4 is_stmt 1 view .LVU1405
2350:D:/Git/VL53L1/lib/core/src\vl53l1_api_core.c **** 		}
 4167              		.loc 1 2350 57 is_stmt 0 view .LVU1406
 4168 0086 0223     		movs	r3, #2
ARM GAS  C:\Users\Berbardo\AppData\Local\Temp\ccBMvrJ9.s 			page 128


 4169 0088 84F8E632 		strb	r3, [r4, #742]
 4170 008c E8E7     		b	.L229
 4171              	.LVL384:
 4172              	.L234:
2381:D:/Git/VL53L1/lib/core/src\vl53l1_api_core.c **** 
 4173              		.loc 1 2381 3 is_stmt 1 view .LVU1407
2381:D:/Git/VL53L1/lib/core/src\vl53l1_api_core.c **** 
 4174              		.loc 1 2381 12 is_stmt 0 view .LVU1408
 4175 008e 2046     		mov	r0, r4
 4176 0090 FFF7FEFF 		bl	VL53L1_check_ll_driver_rd_state
 4177              	.LVL385:
 4178 0094 0546     		mov	r5, r0
 4179              	.LVL386:
2381:D:/Git/VL53L1/lib/core/src\vl53l1_api_core.c **** 
 4180              		.loc 1 2381 12 view .LVU1409
 4181 0096 CEE7     		b	.L230
 4182              		.cfi_endproc
 4183              	.LFE167:
 4185              		.section	.text.VL53L1_set_GPIO_interrupt_config,"ax",%progbits
 4186              		.align	1
 4187              		.global	VL53L1_set_GPIO_interrupt_config
 4188              		.syntax unified
 4189              		.thumb
 4190              		.thumb_func
 4191              		.fpu fpv4-sp-d16
 4193              	VL53L1_set_GPIO_interrupt_config:
 4194              	.LVL387:
 4195              	.LFB170:
2602:D:/Git/VL53L1/lib/core/src\vl53l1_api_core.c **** 
2603:D:/Git/VL53L1/lib/core/src\vl53l1_api_core.c **** /*
2604:D:/Git/VL53L1/lib/core/src\vl53l1_api_core.c ****  * Configure the GPIO interrupt config, from the given input
2605:D:/Git/VL53L1/lib/core/src\vl53l1_api_core.c ****  */
2606:D:/Git/VL53L1/lib/core/src\vl53l1_api_core.c **** 
2607:D:/Git/VL53L1/lib/core/src\vl53l1_api_core.c **** VL53L1_Error VL53L1_set_GPIO_interrupt_config(
2608:D:/Git/VL53L1/lib/core/src\vl53l1_api_core.c **** 	VL53L1_DEV                      Dev,
2609:D:/Git/VL53L1/lib/core/src\vl53l1_api_core.c **** 	VL53L1_GPIO_Interrupt_Mode	intr_mode_distance,
2610:D:/Git/VL53L1/lib/core/src\vl53l1_api_core.c **** 	VL53L1_GPIO_Interrupt_Mode	intr_mode_rate,
2611:D:/Git/VL53L1/lib/core/src\vl53l1_api_core.c **** 	uint8_t				intr_new_measure_ready,
2612:D:/Git/VL53L1/lib/core/src\vl53l1_api_core.c **** 	uint8_t				intr_no_target,
2613:D:/Git/VL53L1/lib/core/src\vl53l1_api_core.c **** 	uint8_t				intr_combined_mode,
2614:D:/Git/VL53L1/lib/core/src\vl53l1_api_core.c **** 	uint16_t			thresh_distance_high,
2615:D:/Git/VL53L1/lib/core/src\vl53l1_api_core.c **** 	uint16_t			thresh_distance_low,
2616:D:/Git/VL53L1/lib/core/src\vl53l1_api_core.c **** 	uint16_t			thresh_rate_high,
2617:D:/Git/VL53L1/lib/core/src\vl53l1_api_core.c **** 	uint16_t			thresh_rate_low
2618:D:/Git/VL53L1/lib/core/src\vl53l1_api_core.c **** 	)
2619:D:/Git/VL53L1/lib/core/src\vl53l1_api_core.c **** {
 4196              		.loc 1 2619 1 is_stmt 1 view -0
 4197              		.cfi_startproc
 4198              		@ args = 24, pretend = 0, frame = 0
 4199              		@ frame_needed = 0, uses_anonymous_args = 0
 4200              		.loc 1 2619 1 is_stmt 0 view .LVU1411
 4201 0000 38B5     		push	{r3, r4, r5, lr}
 4202              		.cfi_def_cfa_offset 16
 4203              		.cfi_offset 3, -16
 4204              		.cfi_offset 4, -12
 4205              		.cfi_offset 5, -8
 4206              		.cfi_offset 14, -4
ARM GAS  C:\Users\Berbardo\AppData\Local\Temp\ccBMvrJ9.s 			page 129


 4207 0002 0446     		mov	r4, r0
2620:D:/Git/VL53L1/lib/core/src\vl53l1_api_core.c **** 	VL53L1_Error  status = VL53L1_ERROR_NONE;
 4208              		.loc 1 2620 2 is_stmt 1 view .LVU1412
 4209              	.LVL388:
2621:D:/Git/VL53L1/lib/core/src\vl53l1_api_core.c **** 
2622:D:/Git/VL53L1/lib/core/src\vl53l1_api_core.c **** 	VL53L1_LLDriverData_t *pdev = VL53L1DevStructGetLLDriverHandle(Dev);
 4210              		.loc 1 2622 2 view .LVU1413
2623:D:/Git/VL53L1/lib/core/src\vl53l1_api_core.c **** 	VL53L1_GPIO_interrupt_config_t *pintconf = &(pdev->gpio_interrupt_config);
 4211              		.loc 1 2623 2 view .LVU1414
 4212              		.loc 1 2623 34 is_stmt 0 view .LVU1415
 4213 0004 00F13405 		add	r5, r0, #52
 4214              	.LVL389:
2624:D:/Git/VL53L1/lib/core/src\vl53l1_api_core.c **** 
2625:D:/Git/VL53L1/lib/core/src\vl53l1_api_core.c **** 	LOG_FUNCTION_START("");
 4215              		.loc 1 2625 24 is_stmt 1 view .LVU1416
2626:D:/Git/VL53L1/lib/core/src\vl53l1_api_core.c **** 
2627:D:/Git/VL53L1/lib/core/src\vl53l1_api_core.c **** 	/* update local data structure */
2628:D:/Git/VL53L1/lib/core/src\vl53l1_api_core.c **** 	pintconf->intr_mode_distance = intr_mode_distance;
 4216              		.loc 1 2628 2 view .LVU1417
 4217              		.loc 1 2628 31 is_stmt 0 view .LVU1418
 4218 0008 80F83410 		strb	r1, [r0, #52]
2629:D:/Git/VL53L1/lib/core/src\vl53l1_api_core.c **** 	pintconf->intr_mode_rate = intr_mode_rate;
 4219              		.loc 1 2629 2 is_stmt 1 view .LVU1419
 4220              		.loc 1 2629 27 is_stmt 0 view .LVU1420
 4221 000c 80F83520 		strb	r2, [r0, #53]
2630:D:/Git/VL53L1/lib/core/src\vl53l1_api_core.c **** 	pintconf->intr_new_measure_ready = intr_new_measure_ready;
 4222              		.loc 1 2630 2 is_stmt 1 view .LVU1421
 4223              		.loc 1 2630 35 is_stmt 0 view .LVU1422
 4224 0010 80F83630 		strb	r3, [r0, #54]
2631:D:/Git/VL53L1/lib/core/src\vl53l1_api_core.c **** 	pintconf->intr_no_target = intr_no_target;
 4225              		.loc 1 2631 2 is_stmt 1 view .LVU1423
 4226              		.loc 1 2631 27 is_stmt 0 view .LVU1424
 4227 0014 9DF81030 		ldrb	r3, [sp, #16]	@ zero_extendqisi2
 4228              	.LVL390:
 4229              		.loc 1 2631 27 view .LVU1425
 4230 0018 80F83730 		strb	r3, [r0, #55]
2632:D:/Git/VL53L1/lib/core/src\vl53l1_api_core.c **** 	pintconf->intr_combined_mode = intr_combined_mode;
 4231              		.loc 1 2632 2 is_stmt 1 view .LVU1426
 4232              		.loc 1 2632 31 is_stmt 0 view .LVU1427
 4233 001c 9DF81430 		ldrb	r3, [sp, #20]	@ zero_extendqisi2
 4234 0020 80F83830 		strb	r3, [r0, #56]
2633:D:/Git/VL53L1/lib/core/src\vl53l1_api_core.c **** 	pintconf->threshold_distance_high = thresh_distance_high;
 4235              		.loc 1 2633 2 is_stmt 1 view .LVU1428
 4236              		.loc 1 2633 36 is_stmt 0 view .LVU1429
 4237 0024 BDF81830 		ldrh	r3, [sp, #24]
 4238 0028 4387     		strh	r3, [r0, #58]	@ movhi
2634:D:/Git/VL53L1/lib/core/src\vl53l1_api_core.c **** 	pintconf->threshold_distance_low = thresh_distance_low;
 4239              		.loc 1 2634 2 is_stmt 1 view .LVU1430
 4240              		.loc 1 2634 35 is_stmt 0 view .LVU1431
 4241 002a BDF81C30 		ldrh	r3, [sp, #28]
 4242 002e 8387     		strh	r3, [r0, #60]	@ movhi
2635:D:/Git/VL53L1/lib/core/src\vl53l1_api_core.c **** 	pintconf->threshold_rate_high = thresh_rate_high;
 4243              		.loc 1 2635 2 is_stmt 1 view .LVU1432
 4244              		.loc 1 2635 32 is_stmt 0 view .LVU1433
 4245 0030 BDF82030 		ldrh	r3, [sp, #32]
 4246 0034 C387     		strh	r3, [r0, #62]	@ movhi
2636:D:/Git/VL53L1/lib/core/src\vl53l1_api_core.c **** 	pintconf->threshold_rate_low = thresh_rate_low;
ARM GAS  C:\Users\Berbardo\AppData\Local\Temp\ccBMvrJ9.s 			page 130


 4247              		.loc 1 2636 2 is_stmt 1 view .LVU1434
 4248              		.loc 1 2636 31 is_stmt 0 view .LVU1435
 4249 0036 BDF82430 		ldrh	r3, [sp, #36]
 4250 003a A0F84030 		strh	r3, [r0, #64]	@ movhi
2637:D:/Git/VL53L1/lib/core/src\vl53l1_api_core.c **** 
2638:D:/Git/VL53L1/lib/core/src\vl53l1_api_core.c **** 	/* encoded interrupt config */
2639:D:/Git/VL53L1/lib/core/src\vl53l1_api_core.c **** 	pdev->gen_cfg.system__interrupt_config_gpio =
 4251              		.loc 1 2639 2 is_stmt 1 view .LVU1436
2640:D:/Git/VL53L1/lib/core/src\vl53l1_api_core.c **** 		VL53L1_encode_GPIO_interrupt_config(pintconf);
 4252              		.loc 1 2640 3 is_stmt 0 view .LVU1437
 4253 003e 2846     		mov	r0, r5
 4254              	.LVL391:
 4255              		.loc 1 2640 3 view .LVU1438
 4256 0040 FFF7FEFF 		bl	VL53L1_encode_GPIO_interrupt_config
 4257              	.LVL392:
2639:D:/Git/VL53L1/lib/core/src\vl53l1_api_core.c **** 		VL53L1_encode_GPIO_interrupt_config(pintconf);
 4258              		.loc 1 2639 46 view .LVU1439
 4259 0044 84F88601 		strb	r0, [r4, #390]
2641:D:/Git/VL53L1/lib/core/src\vl53l1_api_core.c **** 
2642:D:/Git/VL53L1/lib/core/src\vl53l1_api_core.c **** 
2643:D:/Git/VL53L1/lib/core/src\vl53l1_api_core.c **** 	/* set thresholds */
2644:D:/Git/VL53L1/lib/core/src\vl53l1_api_core.c **** 	status = VL53L1_set_GPIO_thresholds_from_struct(
 4260              		.loc 1 2644 2 is_stmt 1 view .LVU1440
 4261              		.loc 1 2644 11 is_stmt 0 view .LVU1441
 4262 0048 2946     		mov	r1, r5
 4263 004a 2046     		mov	r0, r4
 4264 004c FFF7FEFF 		bl	VL53L1_set_GPIO_thresholds_from_struct
 4265              	.LVL393:
2645:D:/Git/VL53L1/lib/core/src\vl53l1_api_core.c **** 			Dev,
2646:D:/Git/VL53L1/lib/core/src\vl53l1_api_core.c **** 			pintconf);
2647:D:/Git/VL53L1/lib/core/src\vl53l1_api_core.c **** 
2648:D:/Git/VL53L1/lib/core/src\vl53l1_api_core.c **** 	LOG_FUNCTION_END(status);
 4266              		.loc 1 2648 26 is_stmt 1 view .LVU1442
2649:D:/Git/VL53L1/lib/core/src\vl53l1_api_core.c **** 	return status;
 4267              		.loc 1 2649 2 view .LVU1443
2650:D:/Git/VL53L1/lib/core/src\vl53l1_api_core.c **** }
 4268              		.loc 1 2650 1 is_stmt 0 view .LVU1444
 4269 0050 38BD     		pop	{r3, r4, r5, pc}
 4270              		.loc 1 2650 1 view .LVU1445
 4271              		.cfi_endproc
 4272              	.LFE170:
 4274              		.section	.text.VL53L1_set_GPIO_interrupt_config_struct,"ax",%progbits
 4275              		.align	1
 4276              		.global	VL53L1_set_GPIO_interrupt_config_struct
 4277              		.syntax unified
 4278              		.thumb
 4279              		.thumb_func
 4280              		.fpu fpv4-sp-d16
 4282              	VL53L1_set_GPIO_interrupt_config_struct:
 4283              	.LVL394:
 4284              	.LFB171:
2651:D:/Git/VL53L1/lib/core/src\vl53l1_api_core.c **** 
2652:D:/Git/VL53L1/lib/core/src\vl53l1_api_core.c **** /*
2653:D:/Git/VL53L1/lib/core/src\vl53l1_api_core.c ****  * Configure the GPIO interrupt config, from the given structure
2654:D:/Git/VL53L1/lib/core/src\vl53l1_api_core.c ****  */
2655:D:/Git/VL53L1/lib/core/src\vl53l1_api_core.c **** 
2656:D:/Git/VL53L1/lib/core/src\vl53l1_api_core.c **** VL53L1_Error VL53L1_set_GPIO_interrupt_config_struct(
ARM GAS  C:\Users\Berbardo\AppData\Local\Temp\ccBMvrJ9.s 			page 131


2657:D:/Git/VL53L1/lib/core/src\vl53l1_api_core.c **** 	VL53L1_DEV                      Dev,
2658:D:/Git/VL53L1/lib/core/src\vl53l1_api_core.c **** 	VL53L1_GPIO_interrupt_config_t	intconf)
2659:D:/Git/VL53L1/lib/core/src\vl53l1_api_core.c **** {
 4285              		.loc 1 2659 1 is_stmt 1 view -0
 4286              		.cfi_startproc
 4287              		@ args = 20, pretend = 16, frame = 0
 4288              		@ frame_needed = 0, uses_anonymous_args = 0
 4289              		.loc 1 2659 1 is_stmt 0 view .LVU1447
 4290 0000 84B0     		sub	sp, sp, #16
 4291              		.cfi_def_cfa_offset 16
 4292 0002 38B5     		push	{r3, r4, r5, lr}
 4293              		.cfi_def_cfa_offset 32
 4294              		.cfi_offset 3, -32
 4295              		.cfi_offset 4, -28
 4296              		.cfi_offset 5, -24
 4297              		.cfi_offset 14, -20
 4298 0004 0546     		mov	r5, r0
 4299 0006 05A8     		add	r0, sp, #20
 4300              	.LVL395:
 4301              		.loc 1 2659 1 view .LVU1448
 4302 0008 80E80E00 		stm	r0, {r1, r2, r3}
2660:D:/Git/VL53L1/lib/core/src\vl53l1_api_core.c **** 	VL53L1_Error  status = VL53L1_ERROR_NONE;
 4303              		.loc 1 2660 2 is_stmt 1 view .LVU1449
 4304              	.LVL396:
2661:D:/Git/VL53L1/lib/core/src\vl53l1_api_core.c **** 
2662:D:/Git/VL53L1/lib/core/src\vl53l1_api_core.c **** 	VL53L1_LLDriverData_t *pdev = VL53L1DevStructGetLLDriverHandle(Dev);
 4305              		.loc 1 2662 2 view .LVU1450
2663:D:/Git/VL53L1/lib/core/src\vl53l1_api_core.c **** 	VL53L1_GPIO_interrupt_config_t *pintconf = &(pdev->gpio_interrupt_config);
 4306              		.loc 1 2663 2 view .LVU1451
 4307              		.loc 1 2663 34 is_stmt 0 view .LVU1452
 4308 000c 05F13404 		add	r4, r5, #52
 4309              	.LVL397:
2664:D:/Git/VL53L1/lib/core/src\vl53l1_api_core.c **** 
2665:D:/Git/VL53L1/lib/core/src\vl53l1_api_core.c **** 	LOG_FUNCTION_START("");
 4310              		.loc 1 2665 24 is_stmt 1 view .LVU1453
2666:D:/Git/VL53L1/lib/core/src\vl53l1_api_core.c **** 
2667:D:/Git/VL53L1/lib/core/src\vl53l1_api_core.c **** 	 /* using memcpy(dst, src, size in bytes) */
2668:D:/Git/VL53L1/lib/core/src\vl53l1_api_core.c **** 	memcpy(pintconf, &(intconf), sizeof(VL53L1_GPIO_interrupt_config_t));
 4311              		.loc 1 2668 2 view .LVU1454
 4312 0010 0168     		ldr	r1, [r0]	@ unaligned
 4313 0012 4268     		ldr	r2, [r0, #4]	@ unaligned
 4314 0014 8368     		ldr	r3, [r0, #8]	@ unaligned
 4315 0016 6963     		str	r1, [r5, #52]	@ unaligned
 4316 0018 AA63     		str	r2, [r5, #56]	@ unaligned
 4317 001a EB63     		str	r3, [r5, #60]	@ unaligned
 4318 001c 8389     		ldrh	r3, [r0, #12]	@ unaligned
 4319 001e A5F84030 		strh	r3, [r5, #64]	@ unaligned
2669:D:/Git/VL53L1/lib/core/src\vl53l1_api_core.c **** 
2670:D:/Git/VL53L1/lib/core/src\vl53l1_api_core.c **** 	/* encoded interrupt config */
2671:D:/Git/VL53L1/lib/core/src\vl53l1_api_core.c **** 	pdev->gen_cfg.system__interrupt_config_gpio =
 4320              		.loc 1 2671 2 view .LVU1455
2672:D:/Git/VL53L1/lib/core/src\vl53l1_api_core.c **** 		VL53L1_encode_GPIO_interrupt_config(pintconf);
 4321              		.loc 1 2672 3 is_stmt 0 view .LVU1456
 4322 0022 2046     		mov	r0, r4
 4323 0024 FFF7FEFF 		bl	VL53L1_encode_GPIO_interrupt_config
 4324              	.LVL398:
2671:D:/Git/VL53L1/lib/core/src\vl53l1_api_core.c **** 		VL53L1_encode_GPIO_interrupt_config(pintconf);
ARM GAS  C:\Users\Berbardo\AppData\Local\Temp\ccBMvrJ9.s 			page 132


 4325              		.loc 1 2671 46 view .LVU1457
 4326 0028 85F88601 		strb	r0, [r5, #390]
2673:D:/Git/VL53L1/lib/core/src\vl53l1_api_core.c **** 
2674:D:/Git/VL53L1/lib/core/src\vl53l1_api_core.c **** 	/* set thresholds */
2675:D:/Git/VL53L1/lib/core/src\vl53l1_api_core.c **** 	status = VL53L1_set_GPIO_thresholds_from_struct(
 4327              		.loc 1 2675 2 is_stmt 1 view .LVU1458
 4328              		.loc 1 2675 11 is_stmt 0 view .LVU1459
 4329 002c 2146     		mov	r1, r4
 4330 002e 2846     		mov	r0, r5
 4331 0030 FFF7FEFF 		bl	VL53L1_set_GPIO_thresholds_from_struct
 4332              	.LVL399:
2676:D:/Git/VL53L1/lib/core/src\vl53l1_api_core.c **** 			Dev,
2677:D:/Git/VL53L1/lib/core/src\vl53l1_api_core.c **** 			pintconf);
2678:D:/Git/VL53L1/lib/core/src\vl53l1_api_core.c **** 
2679:D:/Git/VL53L1/lib/core/src\vl53l1_api_core.c **** 	LOG_FUNCTION_END(status);
 4333              		.loc 1 2679 26 is_stmt 1 view .LVU1460
2680:D:/Git/VL53L1/lib/core/src\vl53l1_api_core.c **** 	return status;
 4334              		.loc 1 2680 2 view .LVU1461
2681:D:/Git/VL53L1/lib/core/src\vl53l1_api_core.c **** }
 4335              		.loc 1 2681 1 is_stmt 0 view .LVU1462
 4336 0034 BDE83840 		pop	{r3, r4, r5, lr}
 4337              		.cfi_restore 14
 4338              		.cfi_restore 5
 4339              		.cfi_restore 4
 4340              		.cfi_restore 3
 4341              		.cfi_def_cfa_offset 16
 4342              	.LVL400:
 4343              		.loc 1 2681 1 view .LVU1463
 4344 0038 04B0     		add	sp, sp, #16
 4345              		.cfi_def_cfa_offset 0
 4346 003a 7047     		bx	lr
 4347              		.cfi_endproc
 4348              	.LFE171:
 4350              		.section	.text.VL53L1_get_GPIO_interrupt_config,"ax",%progbits
 4351              		.align	1
 4352              		.global	VL53L1_get_GPIO_interrupt_config
 4353              		.syntax unified
 4354              		.thumb
 4355              		.thumb_func
 4356              		.fpu fpv4-sp-d16
 4358              	VL53L1_get_GPIO_interrupt_config:
 4359              	.LVL401:
 4360              	.LFB172:
2682:D:/Git/VL53L1/lib/core/src\vl53l1_api_core.c **** 
2683:D:/Git/VL53L1/lib/core/src\vl53l1_api_core.c **** /*
2684:D:/Git/VL53L1/lib/core/src\vl53l1_api_core.c ****  * Retrieve GPIO interrupt config structure
2685:D:/Git/VL53L1/lib/core/src\vl53l1_api_core.c ****  */
2686:D:/Git/VL53L1/lib/core/src\vl53l1_api_core.c **** 
2687:D:/Git/VL53L1/lib/core/src\vl53l1_api_core.c **** VL53L1_Error VL53L1_get_GPIO_interrupt_config(
2688:D:/Git/VL53L1/lib/core/src\vl53l1_api_core.c **** 	VL53L1_DEV                      Dev,
2689:D:/Git/VL53L1/lib/core/src\vl53l1_api_core.c **** 	VL53L1_GPIO_interrupt_config_t	*pintconf)
2690:D:/Git/VL53L1/lib/core/src\vl53l1_api_core.c **** {
 4361              		.loc 1 2690 1 is_stmt 1 view -0
 4362              		.cfi_startproc
 4363              		@ args = 0, pretend = 0, frame = 16
 4364              		@ frame_needed = 0, uses_anonymous_args = 0
 4365              		.loc 1 2690 1 is_stmt 0 view .LVU1465
ARM GAS  C:\Users\Berbardo\AppData\Local\Temp\ccBMvrJ9.s 			page 133


 4366 0000 30B5     		push	{r4, r5, lr}
 4367              		.cfi_def_cfa_offset 12
 4368              		.cfi_offset 4, -12
 4369              		.cfi_offset 5, -8
 4370              		.cfi_offset 14, -4
 4371 0002 85B0     		sub	sp, sp, #20
 4372              		.cfi_def_cfa_offset 32
 4373 0004 0446     		mov	r4, r0
 4374 0006 0D46     		mov	r5, r1
2691:D:/Git/VL53L1/lib/core/src\vl53l1_api_core.c **** 	VL53L1_Error  status = VL53L1_ERROR_NONE;
 4375              		.loc 1 2691 2 is_stmt 1 view .LVU1466
 4376              	.LVL402:
2692:D:/Git/VL53L1/lib/core/src\vl53l1_api_core.c **** 
2693:D:/Git/VL53L1/lib/core/src\vl53l1_api_core.c **** 	VL53L1_LLDriverData_t *pdev = VL53L1DevStructGetLLDriverHandle(Dev);
 4377              		.loc 1 2693 2 view .LVU1467
2694:D:/Git/VL53L1/lib/core/src\vl53l1_api_core.c **** 
2695:D:/Git/VL53L1/lib/core/src\vl53l1_api_core.c **** 	LOG_FUNCTION_START("");
 4378              		.loc 1 2695 24 view .LVU1468
2696:D:/Git/VL53L1/lib/core/src\vl53l1_api_core.c **** 
2697:D:/Git/VL53L1/lib/core/src\vl53l1_api_core.c **** 	/*
2698:D:/Git/VL53L1/lib/core/src\vl53l1_api_core.c **** 	 * Decode the system__interrupt_config_gpio register
2699:D:/Git/VL53L1/lib/core/src\vl53l1_api_core.c **** 	 * This makes sure the structure is in line with the register
2700:D:/Git/VL53L1/lib/core/src\vl53l1_api_core.c **** 	 */
2701:D:/Git/VL53L1/lib/core/src\vl53l1_api_core.c **** 	pdev->gpio_interrupt_config = VL53L1_decode_GPIO_interrupt_config(
 4379              		.loc 1 2701 2 view .LVU1469
 4380              		.loc 1 2701 32 is_stmt 0 view .LVU1470
 4381 0008 90F88611 		ldrb	r1, [r0, #390]	@ zero_extendqisi2
 4382              	.LVL403:
 4383              		.loc 1 2701 32 view .LVU1471
 4384 000c 6846     		mov	r0, sp
 4385              	.LVL404:
 4386              		.loc 1 2701 32 view .LVU1472
 4387 000e FFF7FEFF 		bl	VL53L1_decode_GPIO_interrupt_config
 4388              	.LVL405:
 4389 0012 04F13403 		add	r3, r4, #52
 4390 0016 0098     		ldr	r0, [sp]	@ unaligned
 4391 0018 0199     		ldr	r1, [sp, #4]	@ unaligned
 4392 001a 029A     		ldr	r2, [sp, #8]	@ unaligned
 4393 001c 07C3     		stmia	r3!, {r0, r1, r2}
2702:D:/Git/VL53L1/lib/core/src\vl53l1_api_core.c **** 			pdev->gen_cfg.system__interrupt_config_gpio);
2703:D:/Git/VL53L1/lib/core/src\vl53l1_api_core.c **** 
2704:D:/Git/VL53L1/lib/core/src\vl53l1_api_core.c **** 	/*
2705:D:/Git/VL53L1/lib/core/src\vl53l1_api_core.c **** 	 * Readout the system thresholds
2706:D:/Git/VL53L1/lib/core/src\vl53l1_api_core.c **** 	 */
2707:D:/Git/VL53L1/lib/core/src\vl53l1_api_core.c **** 	pdev->gpio_interrupt_config.threshold_distance_high =
 4394              		.loc 1 2707 2 is_stmt 1 view .LVU1473
2708:D:/Git/VL53L1/lib/core/src\vl53l1_api_core.c **** 		pdev->dyn_cfg.system__thresh_high;
 4395              		.loc 1 2708 16 is_stmt 0 view .LVU1474
 4396 001e B4F8B631 		ldrh	r3, [r4, #438]
2707:D:/Git/VL53L1/lib/core/src\vl53l1_api_core.c **** 		pdev->dyn_cfg.system__thresh_high;
 4397              		.loc 1 2707 54 view .LVU1475
 4398 0022 6387     		strh	r3, [r4, #58]	@ movhi
2709:D:/Git/VL53L1/lib/core/src\vl53l1_api_core.c **** 	pdev->gpio_interrupt_config.threshold_distance_low =
 4399              		.loc 1 2709 2 is_stmt 1 view .LVU1476
2710:D:/Git/VL53L1/lib/core/src\vl53l1_api_core.c **** 		pdev->dyn_cfg.system__thresh_low;
 4400              		.loc 1 2710 16 is_stmt 0 view .LVU1477
 4401 0024 B4F8B831 		ldrh	r3, [r4, #440]
ARM GAS  C:\Users\Berbardo\AppData\Local\Temp\ccBMvrJ9.s 			page 134


2709:D:/Git/VL53L1/lib/core/src\vl53l1_api_core.c **** 	pdev->gpio_interrupt_config.threshold_distance_low =
 4402              		.loc 1 2709 53 view .LVU1478
 4403 0028 A387     		strh	r3, [r4, #60]	@ movhi
2711:D:/Git/VL53L1/lib/core/src\vl53l1_api_core.c **** 
2712:D:/Git/VL53L1/lib/core/src\vl53l1_api_core.c **** 	pdev->gpio_interrupt_config.threshold_rate_high =
 4404              		.loc 1 2712 2 is_stmt 1 view .LVU1479
2713:D:/Git/VL53L1/lib/core/src\vl53l1_api_core.c **** 		pdev->gen_cfg.system__thresh_rate_high;
 4405              		.loc 1 2713 16 is_stmt 0 view .LVU1480
 4406 002a B4F89031 		ldrh	r3, [r4, #400]
2712:D:/Git/VL53L1/lib/core/src\vl53l1_api_core.c **** 		pdev->gen_cfg.system__thresh_rate_high;
 4407              		.loc 1 2712 50 view .LVU1481
 4408 002e E387     		strh	r3, [r4, #62]	@ movhi
2714:D:/Git/VL53L1/lib/core/src\vl53l1_api_core.c **** 	pdev->gpio_interrupt_config.threshold_rate_low =
 4409              		.loc 1 2714 2 is_stmt 1 view .LVU1482
2715:D:/Git/VL53L1/lib/core/src\vl53l1_api_core.c **** 		pdev->gen_cfg.system__thresh_rate_low;
 4410              		.loc 1 2715 16 is_stmt 0 view .LVU1483
 4411 0030 B4F89231 		ldrh	r3, [r4, #402]
2714:D:/Git/VL53L1/lib/core/src\vl53l1_api_core.c **** 	pdev->gpio_interrupt_config.threshold_rate_low =
 4412              		.loc 1 2714 49 view .LVU1484
 4413 0034 A4F84030 		strh	r3, [r4, #64]	@ movhi
2716:D:/Git/VL53L1/lib/core/src\vl53l1_api_core.c **** 
2717:D:/Git/VL53L1/lib/core/src\vl53l1_api_core.c **** 	if (pintconf == &(pdev->gpio_interrupt_config))	{
 4414              		.loc 1 2717 2 is_stmt 1 view .LVU1485
 4415              		.loc 1 2717 18 is_stmt 0 view .LVU1486
 4416 0038 3434     		adds	r4, r4, #52
 4417              	.LVL406:
 4418              		.loc 1 2717 5 view .LVU1487
 4419 003a AC42     		cmp	r4, r5
 4420 003c 07D0     		beq	.L242
2718:D:/Git/VL53L1/lib/core/src\vl53l1_api_core.c **** 		/* Cowardly refusing to copy the same memory locations */
2719:D:/Git/VL53L1/lib/core/src\vl53l1_api_core.c **** 	} else {
2720:D:/Git/VL53L1/lib/core/src\vl53l1_api_core.c **** 
2721:D:/Git/VL53L1/lib/core/src\vl53l1_api_core.c **** 		/* using memcpy(dst, src, size in bytes) */
2722:D:/Git/VL53L1/lib/core/src\vl53l1_api_core.c **** 		memcpy(pintconf, &(pdev->gpio_interrupt_config),
 4421              		.loc 1 2722 3 is_stmt 1 view .LVU1488
 4422 003e 2168     		ldr	r1, [r4]	@ unaligned
 4423 0040 6268     		ldr	r2, [r4, #4]	@ unaligned
 4424 0042 A368     		ldr	r3, [r4, #8]	@ unaligned
 4425 0044 2960     		str	r1, [r5]	@ unaligned
 4426 0046 6A60     		str	r2, [r5, #4]	@ unaligned
 4427 0048 AB60     		str	r3, [r5, #8]	@ unaligned
 4428 004a A389     		ldrh	r3, [r4, #12]	@ unaligned
 4429 004c AB81     		strh	r3, [r5, #12]	@ unaligned
 4430              	.L242:
2723:D:/Git/VL53L1/lib/core/src\vl53l1_api_core.c **** 				sizeof(VL53L1_GPIO_interrupt_config_t));
2724:D:/Git/VL53L1/lib/core/src\vl53l1_api_core.c **** 	}
2725:D:/Git/VL53L1/lib/core/src\vl53l1_api_core.c **** 
2726:D:/Git/VL53L1/lib/core/src\vl53l1_api_core.c **** 	LOG_FUNCTION_END(status);
 4431              		.loc 1 2726 26 view .LVU1489
2727:D:/Git/VL53L1/lib/core/src\vl53l1_api_core.c **** 	return status;
 4432              		.loc 1 2727 2 view .LVU1490
2728:D:/Git/VL53L1/lib/core/src\vl53l1_api_core.c **** }
 4433              		.loc 1 2728 1 is_stmt 0 view .LVU1491
 4434 004e 0020     		movs	r0, #0
 4435 0050 05B0     		add	sp, sp, #20
 4436              		.cfi_def_cfa_offset 12
 4437              		@ sp needed
ARM GAS  C:\Users\Berbardo\AppData\Local\Temp\ccBMvrJ9.s 			page 135


 4438 0052 30BD     		pop	{r4, r5, pc}
 4439              		.loc 1 2728 1 view .LVU1492
 4440              		.cfi_endproc
 4441              	.LFE172:
 4443              		.section	.text.VL53L1_set_offset_calibration_mode,"ax",%progbits
 4444              		.align	1
 4445              		.global	VL53L1_set_offset_calibration_mode
 4446              		.syntax unified
 4447              		.thumb
 4448              		.thumb_func
 4449              		.fpu fpv4-sp-d16
 4451              	VL53L1_set_offset_calibration_mode:
 4452              	.LVL407:
 4453              	.LFB173:
2729:D:/Git/VL53L1/lib/core/src\vl53l1_api_core.c **** 
2730:D:/Git/VL53L1/lib/core/src\vl53l1_api_core.c **** VL53L1_Error VL53L1_set_offset_calibration_mode(
2731:D:/Git/VL53L1/lib/core/src\vl53l1_api_core.c **** 	VL53L1_DEV                     Dev,
2732:D:/Git/VL53L1/lib/core/src\vl53l1_api_core.c **** 	VL53L1_OffsetCalibrationMode   offset_cal_mode)
2733:D:/Git/VL53L1/lib/core/src\vl53l1_api_core.c **** {
 4454              		.loc 1 2733 1 is_stmt 1 view -0
 4455              		.cfi_startproc
 4456              		@ args = 0, pretend = 0, frame = 0
 4457              		@ frame_needed = 0, uses_anonymous_args = 0
 4458              		@ link register save eliminated.
2734:D:/Git/VL53L1/lib/core/src\vl53l1_api_core.c **** 
2735:D:/Git/VL53L1/lib/core/src\vl53l1_api_core.c **** 	/*
2736:D:/Git/VL53L1/lib/core/src\vl53l1_api_core.c **** 	 * Sets the offset calibration mode
2737:D:/Git/VL53L1/lib/core/src\vl53l1_api_core.c **** 	 */
2738:D:/Git/VL53L1/lib/core/src\vl53l1_api_core.c **** 
2739:D:/Git/VL53L1/lib/core/src\vl53l1_api_core.c **** 	VL53L1_Error  status = VL53L1_ERROR_NONE;
 4459              		.loc 1 2739 2 view .LVU1494
2740:D:/Git/VL53L1/lib/core/src\vl53l1_api_core.c **** 
2741:D:/Git/VL53L1/lib/core/src\vl53l1_api_core.c **** 	VL53L1_LLDriverData_t *pdev = VL53L1DevStructGetLLDriverHandle(Dev);
 4460              		.loc 1 2741 2 view .LVU1495
2742:D:/Git/VL53L1/lib/core/src\vl53l1_api_core.c **** 
2743:D:/Git/VL53L1/lib/core/src\vl53l1_api_core.c **** 	LOG_FUNCTION_START("");
 4461              		.loc 1 2743 24 view .LVU1496
2744:D:/Git/VL53L1/lib/core/src\vl53l1_api_core.c **** 
2745:D:/Git/VL53L1/lib/core/src\vl53l1_api_core.c **** 	pdev->offset_calibration_mode = offset_cal_mode;
 4462              		.loc 1 2745 2 view .LVU1497
 4463              		.loc 1 2745 32 is_stmt 0 view .LVU1498
 4464 0000 C170     		strb	r1, [r0, #3]
2746:D:/Git/VL53L1/lib/core/src\vl53l1_api_core.c **** 
2747:D:/Git/VL53L1/lib/core/src\vl53l1_api_core.c **** 	LOG_FUNCTION_END(status);
 4465              		.loc 1 2747 26 is_stmt 1 view .LVU1499
2748:D:/Git/VL53L1/lib/core/src\vl53l1_api_core.c **** 
2749:D:/Git/VL53L1/lib/core/src\vl53l1_api_core.c **** 	return status;
 4466              		.loc 1 2749 2 view .LVU1500
2750:D:/Git/VL53L1/lib/core/src\vl53l1_api_core.c **** }
 4467              		.loc 1 2750 1 is_stmt 0 view .LVU1501
 4468 0002 0020     		movs	r0, #0
 4469              	.LVL408:
 4470              		.loc 1 2750 1 view .LVU1502
 4471 0004 7047     		bx	lr
 4472              		.cfi_endproc
 4473              	.LFE173:
 4475              		.section	.text.VL53L1_get_offset_calibration_mode,"ax",%progbits
ARM GAS  C:\Users\Berbardo\AppData\Local\Temp\ccBMvrJ9.s 			page 136


 4476              		.align	1
 4477              		.global	VL53L1_get_offset_calibration_mode
 4478              		.syntax unified
 4479              		.thumb
 4480              		.thumb_func
 4481              		.fpu fpv4-sp-d16
 4483              	VL53L1_get_offset_calibration_mode:
 4484              	.LVL409:
 4485              	.LFB174:
2751:D:/Git/VL53L1/lib/core/src\vl53l1_api_core.c **** 
2752:D:/Git/VL53L1/lib/core/src\vl53l1_api_core.c **** 
2753:D:/Git/VL53L1/lib/core/src\vl53l1_api_core.c **** VL53L1_Error VL53L1_get_offset_calibration_mode(
2754:D:/Git/VL53L1/lib/core/src\vl53l1_api_core.c **** 	VL53L1_DEV                     Dev,
2755:D:/Git/VL53L1/lib/core/src\vl53l1_api_core.c **** 	VL53L1_OffsetCalibrationMode  *poffset_cal_mode)
2756:D:/Git/VL53L1/lib/core/src\vl53l1_api_core.c **** {
 4486              		.loc 1 2756 1 is_stmt 1 view -0
 4487              		.cfi_startproc
 4488              		@ args = 0, pretend = 0, frame = 0
 4489              		@ frame_needed = 0, uses_anonymous_args = 0
 4490              		@ link register save eliminated.
2757:D:/Git/VL53L1/lib/core/src\vl53l1_api_core.c **** 
2758:D:/Git/VL53L1/lib/core/src\vl53l1_api_core.c **** 	/*
2759:D:/Git/VL53L1/lib/core/src\vl53l1_api_core.c **** 	 * Gets the offset calibration mode
2760:D:/Git/VL53L1/lib/core/src\vl53l1_api_core.c **** 	 */
2761:D:/Git/VL53L1/lib/core/src\vl53l1_api_core.c **** 
2762:D:/Git/VL53L1/lib/core/src\vl53l1_api_core.c **** 	VL53L1_Error  status = VL53L1_ERROR_NONE;
 4491              		.loc 1 2762 2 view .LVU1504
2763:D:/Git/VL53L1/lib/core/src\vl53l1_api_core.c **** 
2764:D:/Git/VL53L1/lib/core/src\vl53l1_api_core.c **** 	VL53L1_LLDriverData_t *pdev = VL53L1DevStructGetLLDriverHandle(Dev);
 4492              		.loc 1 2764 2 view .LVU1505
2765:D:/Git/VL53L1/lib/core/src\vl53l1_api_core.c **** 
2766:D:/Git/VL53L1/lib/core/src\vl53l1_api_core.c **** 	LOG_FUNCTION_START("");
 4493              		.loc 1 2766 24 view .LVU1506
2767:D:/Git/VL53L1/lib/core/src\vl53l1_api_core.c **** 
2768:D:/Git/VL53L1/lib/core/src\vl53l1_api_core.c **** 	*poffset_cal_mode = pdev->offset_calibration_mode;
 4494              		.loc 1 2768 2 view .LVU1507
 4495              		.loc 1 2768 26 is_stmt 0 view .LVU1508
 4496 0000 C378     		ldrb	r3, [r0, #3]	@ zero_extendqisi2
 4497              		.loc 1 2768 20 view .LVU1509
 4498 0002 0B70     		strb	r3, [r1]
2769:D:/Git/VL53L1/lib/core/src\vl53l1_api_core.c **** 
2770:D:/Git/VL53L1/lib/core/src\vl53l1_api_core.c **** 	LOG_FUNCTION_END(status);
 4499              		.loc 1 2770 26 is_stmt 1 view .LVU1510
2771:D:/Git/VL53L1/lib/core/src\vl53l1_api_core.c **** 
2772:D:/Git/VL53L1/lib/core/src\vl53l1_api_core.c **** 	return status;
 4500              		.loc 1 2772 2 view .LVU1511
2773:D:/Git/VL53L1/lib/core/src\vl53l1_api_core.c **** }
 4501              		.loc 1 2773 1 is_stmt 0 view .LVU1512
 4502 0004 0020     		movs	r0, #0
 4503              	.LVL410:
 4504              		.loc 1 2773 1 view .LVU1513
 4505 0006 7047     		bx	lr
 4506              		.cfi_endproc
 4507              	.LFE174:
 4509              		.section	.text.VL53L1_set_offset_correction_mode,"ax",%progbits
 4510              		.align	1
 4511              		.global	VL53L1_set_offset_correction_mode
ARM GAS  C:\Users\Berbardo\AppData\Local\Temp\ccBMvrJ9.s 			page 137


 4512              		.syntax unified
 4513              		.thumb
 4514              		.thumb_func
 4515              		.fpu fpv4-sp-d16
 4517              	VL53L1_set_offset_correction_mode:
 4518              	.LVL411:
 4519              	.LFB175:
2774:D:/Git/VL53L1/lib/core/src\vl53l1_api_core.c **** 
2775:D:/Git/VL53L1/lib/core/src\vl53l1_api_core.c **** 
2776:D:/Git/VL53L1/lib/core/src\vl53l1_api_core.c **** VL53L1_Error VL53L1_set_offset_correction_mode(
2777:D:/Git/VL53L1/lib/core/src\vl53l1_api_core.c **** 	VL53L1_DEV                     Dev,
2778:D:/Git/VL53L1/lib/core/src\vl53l1_api_core.c **** 	VL53L1_OffsetCorrectionMode    offset_cor_mode)
2779:D:/Git/VL53L1/lib/core/src\vl53l1_api_core.c **** {
 4520              		.loc 1 2779 1 is_stmt 1 view -0
 4521              		.cfi_startproc
 4522              		@ args = 0, pretend = 0, frame = 0
 4523              		@ frame_needed = 0, uses_anonymous_args = 0
 4524              		@ link register save eliminated.
2780:D:/Git/VL53L1/lib/core/src\vl53l1_api_core.c **** 
2781:D:/Git/VL53L1/lib/core/src\vl53l1_api_core.c **** 	/*
2782:D:/Git/VL53L1/lib/core/src\vl53l1_api_core.c **** 	 * Sets the offset correction mode
2783:D:/Git/VL53L1/lib/core/src\vl53l1_api_core.c **** 	 */
2784:D:/Git/VL53L1/lib/core/src\vl53l1_api_core.c **** 
2785:D:/Git/VL53L1/lib/core/src\vl53l1_api_core.c **** 	VL53L1_Error  status = VL53L1_ERROR_NONE;
 4525              		.loc 1 2785 2 view .LVU1515
2786:D:/Git/VL53L1/lib/core/src\vl53l1_api_core.c **** 
2787:D:/Git/VL53L1/lib/core/src\vl53l1_api_core.c **** 	VL53L1_LLDriverData_t *pdev = VL53L1DevStructGetLLDriverHandle(Dev);
 4526              		.loc 1 2787 2 view .LVU1516
2788:D:/Git/VL53L1/lib/core/src\vl53l1_api_core.c **** 
2789:D:/Git/VL53L1/lib/core/src\vl53l1_api_core.c **** 	LOG_FUNCTION_START("");
 4527              		.loc 1 2789 24 view .LVU1517
2790:D:/Git/VL53L1/lib/core/src\vl53l1_api_core.c **** 
2791:D:/Git/VL53L1/lib/core/src\vl53l1_api_core.c **** 	pdev->offset_correction_mode = offset_cor_mode;
 4528              		.loc 1 2791 2 view .LVU1518
 4529              		.loc 1 2791 31 is_stmt 0 view .LVU1519
 4530 0000 0171     		strb	r1, [r0, #4]
2792:D:/Git/VL53L1/lib/core/src\vl53l1_api_core.c **** 
2793:D:/Git/VL53L1/lib/core/src\vl53l1_api_core.c **** 	LOG_FUNCTION_END(status);
 4531              		.loc 1 2793 26 is_stmt 1 view .LVU1520
2794:D:/Git/VL53L1/lib/core/src\vl53l1_api_core.c **** 
2795:D:/Git/VL53L1/lib/core/src\vl53l1_api_core.c **** 	return status;
 4532              		.loc 1 2795 2 view .LVU1521
2796:D:/Git/VL53L1/lib/core/src\vl53l1_api_core.c **** }
 4533              		.loc 1 2796 1 is_stmt 0 view .LVU1522
 4534 0002 0020     		movs	r0, #0
 4535              	.LVL412:
 4536              		.loc 1 2796 1 view .LVU1523
 4537 0004 7047     		bx	lr
 4538              		.cfi_endproc
 4539              	.LFE175:
 4541              		.section	.text.VL53L1_get_offset_correction_mode,"ax",%progbits
 4542              		.align	1
 4543              		.global	VL53L1_get_offset_correction_mode
 4544              		.syntax unified
 4545              		.thumb
 4546              		.thumb_func
 4547              		.fpu fpv4-sp-d16
ARM GAS  C:\Users\Berbardo\AppData\Local\Temp\ccBMvrJ9.s 			page 138


 4549              	VL53L1_get_offset_correction_mode:
 4550              	.LVL413:
 4551              	.LFB176:
2797:D:/Git/VL53L1/lib/core/src\vl53l1_api_core.c **** 
2798:D:/Git/VL53L1/lib/core/src\vl53l1_api_core.c **** 
2799:D:/Git/VL53L1/lib/core/src\vl53l1_api_core.c **** VL53L1_Error VL53L1_get_offset_correction_mode(
2800:D:/Git/VL53L1/lib/core/src\vl53l1_api_core.c **** 	VL53L1_DEV                     Dev,
2801:D:/Git/VL53L1/lib/core/src\vl53l1_api_core.c **** 	VL53L1_OffsetCorrectionMode   *poffset_cor_mode)
2802:D:/Git/VL53L1/lib/core/src\vl53l1_api_core.c **** {
 4552              		.loc 1 2802 1 is_stmt 1 view -0
 4553              		.cfi_startproc
 4554              		@ args = 0, pretend = 0, frame = 0
 4555              		@ frame_needed = 0, uses_anonymous_args = 0
 4556              		@ link register save eliminated.
2803:D:/Git/VL53L1/lib/core/src\vl53l1_api_core.c **** 
2804:D:/Git/VL53L1/lib/core/src\vl53l1_api_core.c **** 	/*
2805:D:/Git/VL53L1/lib/core/src\vl53l1_api_core.c **** 	 * Gets the offset correction mode
2806:D:/Git/VL53L1/lib/core/src\vl53l1_api_core.c **** 	 */
2807:D:/Git/VL53L1/lib/core/src\vl53l1_api_core.c **** 
2808:D:/Git/VL53L1/lib/core/src\vl53l1_api_core.c **** 	VL53L1_Error  status = VL53L1_ERROR_NONE;
 4557              		.loc 1 2808 2 view .LVU1525
2809:D:/Git/VL53L1/lib/core/src\vl53l1_api_core.c **** 
2810:D:/Git/VL53L1/lib/core/src\vl53l1_api_core.c **** 	VL53L1_LLDriverData_t *pdev = VL53L1DevStructGetLLDriverHandle(Dev);
 4558              		.loc 1 2810 2 view .LVU1526
2811:D:/Git/VL53L1/lib/core/src\vl53l1_api_core.c **** 
2812:D:/Git/VL53L1/lib/core/src\vl53l1_api_core.c **** 	LOG_FUNCTION_START("");
 4559              		.loc 1 2812 24 view .LVU1527
2813:D:/Git/VL53L1/lib/core/src\vl53l1_api_core.c **** 
2814:D:/Git/VL53L1/lib/core/src\vl53l1_api_core.c **** 	*poffset_cor_mode = pdev->offset_correction_mode;
 4560              		.loc 1 2814 2 view .LVU1528
 4561              		.loc 1 2814 26 is_stmt 0 view .LVU1529
 4562 0000 0379     		ldrb	r3, [r0, #4]	@ zero_extendqisi2
 4563              		.loc 1 2814 20 view .LVU1530
 4564 0002 0B70     		strb	r3, [r1]
2815:D:/Git/VL53L1/lib/core/src\vl53l1_api_core.c **** 
2816:D:/Git/VL53L1/lib/core/src\vl53l1_api_core.c **** 	LOG_FUNCTION_END(status);
 4565              		.loc 1 2816 26 is_stmt 1 view .LVU1531
2817:D:/Git/VL53L1/lib/core/src\vl53l1_api_core.c **** 
2818:D:/Git/VL53L1/lib/core/src\vl53l1_api_core.c **** 	return status;
 4566              		.loc 1 2818 2 view .LVU1532
2819:D:/Git/VL53L1/lib/core/src\vl53l1_api_core.c **** }
 4567              		.loc 1 2819 1 is_stmt 0 view .LVU1533
 4568 0004 0020     		movs	r0, #0
 4569              	.LVL414:
 4570              		.loc 1 2819 1 view .LVU1534
 4571 0006 7047     		bx	lr
 4572              		.cfi_endproc
 4573              	.LFE176:
 4575              		.section	.text.VL53L1_get_tuning_parm,"ax",%progbits
 4576              		.align	1
 4577              		.global	VL53L1_get_tuning_parm
 4578              		.syntax unified
 4579              		.thumb
 4580              		.thumb_func
 4581              		.fpu fpv4-sp-d16
 4583              	VL53L1_get_tuning_parm:
 4584              	.LVL415:
ARM GAS  C:\Users\Berbardo\AppData\Local\Temp\ccBMvrJ9.s 			page 139


 4585              	.LFB177:
2820:D:/Git/VL53L1/lib/core/src\vl53l1_api_core.c **** 
2821:D:/Git/VL53L1/lib/core/src\vl53l1_api_core.c **** 
2822:D:/Git/VL53L1/lib/core/src\vl53l1_api_core.c **** /* Start Patch_AddedTuningParms_11761 */
2823:D:/Git/VL53L1/lib/core/src\vl53l1_api_core.c **** #ifdef VL53L1_DEBUG
2824:D:/Git/VL53L1/lib/core/src\vl53l1_api_core.c **** VL53L1_Error VL53L1_get_tuning_debug_data(
2825:D:/Git/VL53L1/lib/core/src\vl53l1_api_core.c **** 	VL53L1_DEV                            Dev,
2826:D:/Git/VL53L1/lib/core/src\vl53l1_api_core.c **** 	VL53L1_tuning_parameters_t           *ptun_data)
2827:D:/Git/VL53L1/lib/core/src\vl53l1_api_core.c **** {
2828:D:/Git/VL53L1/lib/core/src\vl53l1_api_core.c **** 	/*
2829:D:/Git/VL53L1/lib/core/src\vl53l1_api_core.c **** 	 * Helper function to extract all tuning parm values
2830:D:/Git/VL53L1/lib/core/src\vl53l1_api_core.c **** 	 */
2831:D:/Git/VL53L1/lib/core/src\vl53l1_api_core.c **** 
2832:D:/Git/VL53L1/lib/core/src\vl53l1_api_core.c **** 	VL53L1_Error  status = VL53L1_ERROR_NONE;
2833:D:/Git/VL53L1/lib/core/src\vl53l1_api_core.c **** 
2834:D:/Git/VL53L1/lib/core/src\vl53l1_api_core.c **** 	VL53L1_LLDriverData_t *pdev = VL53L1DevStructGetLLDriverHandle(Dev);
2835:D:/Git/VL53L1/lib/core/src\vl53l1_api_core.c **** 
2836:D:/Git/VL53L1/lib/core/src\vl53l1_api_core.c **** 	LOG_FUNCTION_START("");
2837:D:/Git/VL53L1/lib/core/src\vl53l1_api_core.c **** 
2838:D:/Git/VL53L1/lib/core/src\vl53l1_api_core.c **** 	ptun_data->vl53l1_tuningparm_version =
2839:D:/Git/VL53L1/lib/core/src\vl53l1_api_core.c **** 		pdev->tuning_parms.tp_tuning_parm_version;
2840:D:/Git/VL53L1/lib/core/src\vl53l1_api_core.c **** 
2841:D:/Git/VL53L1/lib/core/src\vl53l1_api_core.c **** 	ptun_data->vl53l1_tuningparm_key_table_version =
2842:D:/Git/VL53L1/lib/core/src\vl53l1_api_core.c **** 		pdev->tuning_parms.tp_tuning_parm_key_table_version;
2843:D:/Git/VL53L1/lib/core/src\vl53l1_api_core.c **** 
2844:D:/Git/VL53L1/lib/core/src\vl53l1_api_core.c **** 
2845:D:/Git/VL53L1/lib/core/src\vl53l1_api_core.c **** 	ptun_data->vl53l1_tuningparm_lld_version =
2846:D:/Git/VL53L1/lib/core/src\vl53l1_api_core.c **** 		pdev->tuning_parms.tp_tuning_parm_lld_version;
2847:D:/Git/VL53L1/lib/core/src\vl53l1_api_core.c **** 
2848:D:/Git/VL53L1/lib/core/src\vl53l1_api_core.c **** 	ptun_data->vl53l1_tuningparm_lite_min_clip_mm =
2849:D:/Git/VL53L1/lib/core/src\vl53l1_api_core.c **** 		pdev->tuning_parms.tp_lite_min_clip;
2850:D:/Git/VL53L1/lib/core/src\vl53l1_api_core.c **** 
2851:D:/Git/VL53L1/lib/core/src\vl53l1_api_core.c **** 	ptun_data->vl53l1_tuningparm_lite_long_sigma_thresh_mm =
2852:D:/Git/VL53L1/lib/core/src\vl53l1_api_core.c **** 		pdev->tuning_parms.tp_lite_long_sigma_thresh_mm;
2853:D:/Git/VL53L1/lib/core/src\vl53l1_api_core.c **** 
2854:D:/Git/VL53L1/lib/core/src\vl53l1_api_core.c **** 	ptun_data->vl53l1_tuningparm_lite_med_sigma_thresh_mm =
2855:D:/Git/VL53L1/lib/core/src\vl53l1_api_core.c **** 		pdev->tuning_parms.tp_lite_med_sigma_thresh_mm;
2856:D:/Git/VL53L1/lib/core/src\vl53l1_api_core.c **** 
2857:D:/Git/VL53L1/lib/core/src\vl53l1_api_core.c **** 	ptun_data->vl53l1_tuningparm_lite_short_sigma_thresh_mm =
2858:D:/Git/VL53L1/lib/core/src\vl53l1_api_core.c **** 		pdev->tuning_parms.tp_lite_short_sigma_thresh_mm;
2859:D:/Git/VL53L1/lib/core/src\vl53l1_api_core.c **** 
2860:D:/Git/VL53L1/lib/core/src\vl53l1_api_core.c **** 	ptun_data->vl53l1_tuningparm_lite_long_min_count_rate_rtn_mcps =
2861:D:/Git/VL53L1/lib/core/src\vl53l1_api_core.c **** 		pdev->tuning_parms.tp_lite_long_min_count_rate_rtn_mcps;
2862:D:/Git/VL53L1/lib/core/src\vl53l1_api_core.c **** 
2863:D:/Git/VL53L1/lib/core/src\vl53l1_api_core.c **** 	ptun_data->vl53l1_tuningparm_lite_med_min_count_rate_rtn_mcps =
2864:D:/Git/VL53L1/lib/core/src\vl53l1_api_core.c **** 		pdev->tuning_parms.tp_lite_med_min_count_rate_rtn_mcps;
2865:D:/Git/VL53L1/lib/core/src\vl53l1_api_core.c **** 
2866:D:/Git/VL53L1/lib/core/src\vl53l1_api_core.c **** 	ptun_data->vl53l1_tuningparm_lite_short_min_count_rate_rtn_mcps =
2867:D:/Git/VL53L1/lib/core/src\vl53l1_api_core.c **** 		pdev->tuning_parms.tp_lite_short_min_count_rate_rtn_mcps;
2868:D:/Git/VL53L1/lib/core/src\vl53l1_api_core.c **** 
2869:D:/Git/VL53L1/lib/core/src\vl53l1_api_core.c **** 	ptun_data->vl53l1_tuningparm_lite_sigma_est_pulse_width =
2870:D:/Git/VL53L1/lib/core/src\vl53l1_api_core.c **** 		pdev->tuning_parms.tp_lite_sigma_est_pulse_width_ns;
2871:D:/Git/VL53L1/lib/core/src\vl53l1_api_core.c **** 
2872:D:/Git/VL53L1/lib/core/src\vl53l1_api_core.c **** 	ptun_data->vl53l1_tuningparm_lite_sigma_est_amb_width_ns =
2873:D:/Git/VL53L1/lib/core/src\vl53l1_api_core.c **** 		pdev->tuning_parms.tp_lite_sigma_est_amb_width_ns;
2874:D:/Git/VL53L1/lib/core/src\vl53l1_api_core.c **** 
2875:D:/Git/VL53L1/lib/core/src\vl53l1_api_core.c **** 	ptun_data->vl53l1_tuningparm_lite_sigma_ref_mm =
ARM GAS  C:\Users\Berbardo\AppData\Local\Temp\ccBMvrJ9.s 			page 140


2876:D:/Git/VL53L1/lib/core/src\vl53l1_api_core.c **** 		pdev->tuning_parms.tp_lite_sigma_ref_mm;
2877:D:/Git/VL53L1/lib/core/src\vl53l1_api_core.c **** 
2878:D:/Git/VL53L1/lib/core/src\vl53l1_api_core.c **** 	ptun_data->vl53l1_tuningparm_lite_rit_mult =
2879:D:/Git/VL53L1/lib/core/src\vl53l1_api_core.c **** 		pdev->xtalk_cfg.crosstalk_range_ignore_threshold_mult;
2880:D:/Git/VL53L1/lib/core/src\vl53l1_api_core.c **** 
2881:D:/Git/VL53L1/lib/core/src\vl53l1_api_core.c **** 	ptun_data->vl53l1_tuningparm_lite_seed_config =
2882:D:/Git/VL53L1/lib/core/src\vl53l1_api_core.c **** 		pdev->tuning_parms.tp_lite_seed_cfg ;
2883:D:/Git/VL53L1/lib/core/src\vl53l1_api_core.c **** 
2884:D:/Git/VL53L1/lib/core/src\vl53l1_api_core.c **** 	ptun_data->vl53l1_tuningparm_lite_quantifier =
2885:D:/Git/VL53L1/lib/core/src\vl53l1_api_core.c **** 		pdev->tuning_parms.tp_lite_quantifier;
2886:D:/Git/VL53L1/lib/core/src\vl53l1_api_core.c **** 
2887:D:/Git/VL53L1/lib/core/src\vl53l1_api_core.c **** 	ptun_data->vl53l1_tuningparm_lite_first_order_select =
2888:D:/Git/VL53L1/lib/core/src\vl53l1_api_core.c **** 		pdev->tuning_parms.tp_lite_first_order_select;
2889:D:/Git/VL53L1/lib/core/src\vl53l1_api_core.c **** 
2890:D:/Git/VL53L1/lib/core/src\vl53l1_api_core.c **** 	ptun_data->vl53l1_tuningparm_lite_xtalk_margin_kcps =
2891:D:/Git/VL53L1/lib/core/src\vl53l1_api_core.c **** 		pdev->xtalk_cfg.lite_mode_crosstalk_margin_kcps;
2892:D:/Git/VL53L1/lib/core/src\vl53l1_api_core.c **** 
2893:D:/Git/VL53L1/lib/core/src\vl53l1_api_core.c **** 	ptun_data->vl53l1_tuningparm_initial_phase_rtn_lite_long_range =
2894:D:/Git/VL53L1/lib/core/src\vl53l1_api_core.c **** 		pdev->tuning_parms.tp_init_phase_rtn_lite_long;
2895:D:/Git/VL53L1/lib/core/src\vl53l1_api_core.c **** 
2896:D:/Git/VL53L1/lib/core/src\vl53l1_api_core.c **** 	ptun_data->vl53l1_tuningparm_initial_phase_rtn_lite_med_range =
2897:D:/Git/VL53L1/lib/core/src\vl53l1_api_core.c **** 		pdev->tuning_parms.tp_init_phase_rtn_lite_med;
2898:D:/Git/VL53L1/lib/core/src\vl53l1_api_core.c **** 
2899:D:/Git/VL53L1/lib/core/src\vl53l1_api_core.c **** 	ptun_data->vl53l1_tuningparm_initial_phase_rtn_lite_short_range =
2900:D:/Git/VL53L1/lib/core/src\vl53l1_api_core.c **** 		pdev->tuning_parms.tp_init_phase_rtn_lite_short;
2901:D:/Git/VL53L1/lib/core/src\vl53l1_api_core.c **** 
2902:D:/Git/VL53L1/lib/core/src\vl53l1_api_core.c **** 	ptun_data->vl53l1_tuningparm_initial_phase_ref_lite_long_range =
2903:D:/Git/VL53L1/lib/core/src\vl53l1_api_core.c **** 		pdev->tuning_parms.tp_init_phase_ref_lite_long;
2904:D:/Git/VL53L1/lib/core/src\vl53l1_api_core.c **** 
2905:D:/Git/VL53L1/lib/core/src\vl53l1_api_core.c **** 	ptun_data->vl53l1_tuningparm_initial_phase_ref_lite_med_range =
2906:D:/Git/VL53L1/lib/core/src\vl53l1_api_core.c **** 		pdev->tuning_parms.tp_init_phase_ref_lite_med;
2907:D:/Git/VL53L1/lib/core/src\vl53l1_api_core.c **** 
2908:D:/Git/VL53L1/lib/core/src\vl53l1_api_core.c **** 	ptun_data->vl53l1_tuningparm_initial_phase_ref_lite_short_range =
2909:D:/Git/VL53L1/lib/core/src\vl53l1_api_core.c **** 		pdev->tuning_parms.tp_init_phase_ref_lite_short;
2910:D:/Git/VL53L1/lib/core/src\vl53l1_api_core.c **** 
2911:D:/Git/VL53L1/lib/core/src\vl53l1_api_core.c **** 	ptun_data->vl53l1_tuningparm_timed_seed_config =
2912:D:/Git/VL53L1/lib/core/src\vl53l1_api_core.c **** 		pdev->tuning_parms.tp_timed_seed_cfg;
2913:D:/Git/VL53L1/lib/core/src\vl53l1_api_core.c **** 
2914:D:/Git/VL53L1/lib/core/src\vl53l1_api_core.c **** 	ptun_data->vl53l1_tuningparm_vhv_loopbound =
2915:D:/Git/VL53L1/lib/core/src\vl53l1_api_core.c **** 		pdev->stat_nvm.vhv_config__timeout_macrop_loop_bound;
2916:D:/Git/VL53L1/lib/core/src\vl53l1_api_core.c **** 
2917:D:/Git/VL53L1/lib/core/src\vl53l1_api_core.c **** 	ptun_data->vl53l1_tuningparm_refspadchar_device_test_mode =
2918:D:/Git/VL53L1/lib/core/src\vl53l1_api_core.c **** 		pdev->refspadchar.device_test_mode;
2919:D:/Git/VL53L1/lib/core/src\vl53l1_api_core.c **** 
2920:D:/Git/VL53L1/lib/core/src\vl53l1_api_core.c **** 	ptun_data->vl53l1_tuningparm_refspadchar_vcsel_period =
2921:D:/Git/VL53L1/lib/core/src\vl53l1_api_core.c **** 		pdev->refspadchar.vcsel_period;
2922:D:/Git/VL53L1/lib/core/src\vl53l1_api_core.c **** 
2923:D:/Git/VL53L1/lib/core/src\vl53l1_api_core.c **** 	ptun_data->vl53l1_tuningparm_refspadchar_phasecal_timeout_us =
2924:D:/Git/VL53L1/lib/core/src\vl53l1_api_core.c **** 		pdev->refspadchar.timeout_us;
2925:D:/Git/VL53L1/lib/core/src\vl53l1_api_core.c **** 
2926:D:/Git/VL53L1/lib/core/src\vl53l1_api_core.c **** 	ptun_data->vl53l1_tuningparm_refspadchar_target_count_rate_mcps =
2927:D:/Git/VL53L1/lib/core/src\vl53l1_api_core.c **** 		pdev->refspadchar.target_count_rate_mcps;
2928:D:/Git/VL53L1/lib/core/src\vl53l1_api_core.c **** 
2929:D:/Git/VL53L1/lib/core/src\vl53l1_api_core.c **** 	ptun_data->vl53l1_tuningparm_refspadchar_min_countrate_limit_mcps =
2930:D:/Git/VL53L1/lib/core/src\vl53l1_api_core.c **** 		pdev->refspadchar.min_count_rate_limit_mcps;
2931:D:/Git/VL53L1/lib/core/src\vl53l1_api_core.c **** 
2932:D:/Git/VL53L1/lib/core/src\vl53l1_api_core.c **** 	ptun_data->vl53l1_tuningparm_refspadchar_max_countrate_limit_mcps =
ARM GAS  C:\Users\Berbardo\AppData\Local\Temp\ccBMvrJ9.s 			page 141


2933:D:/Git/VL53L1/lib/core/src\vl53l1_api_core.c **** 		pdev->refspadchar.max_count_rate_limit_mcps;
2934:D:/Git/VL53L1/lib/core/src\vl53l1_api_core.c **** 
2935:D:/Git/VL53L1/lib/core/src\vl53l1_api_core.c **** 	ptun_data->vl53l1_tuningparm_offset_cal_dss_rate_mcps =
2936:D:/Git/VL53L1/lib/core/src\vl53l1_api_core.c **** 		pdev->offsetcal_cfg.dss_config__target_total_rate_mcps;
2937:D:/Git/VL53L1/lib/core/src\vl53l1_api_core.c **** 
2938:D:/Git/VL53L1/lib/core/src\vl53l1_api_core.c **** 	ptun_data->vl53l1_tuningparm_offset_cal_phasecal_timeout_us =
2939:D:/Git/VL53L1/lib/core/src\vl53l1_api_core.c **** 		pdev->offsetcal_cfg.phasecal_config_timeout_us;
2940:D:/Git/VL53L1/lib/core/src\vl53l1_api_core.c **** 
2941:D:/Git/VL53L1/lib/core/src\vl53l1_api_core.c **** 	ptun_data->vl53l1_tuningparm_offset_cal_mm_timeout_us =
2942:D:/Git/VL53L1/lib/core/src\vl53l1_api_core.c **** 		pdev->offsetcal_cfg.mm_config_timeout_us;
2943:D:/Git/VL53L1/lib/core/src\vl53l1_api_core.c **** 
2944:D:/Git/VL53L1/lib/core/src\vl53l1_api_core.c **** 	ptun_data->vl53l1_tuningparm_offset_cal_range_timeout_us =
2945:D:/Git/VL53L1/lib/core/src\vl53l1_api_core.c **** 		pdev->offsetcal_cfg.range_config_timeout_us;
2946:D:/Git/VL53L1/lib/core/src\vl53l1_api_core.c **** 
2947:D:/Git/VL53L1/lib/core/src\vl53l1_api_core.c **** 	ptun_data->vl53l1_tuningparm_offset_cal_pre_samples =
2948:D:/Git/VL53L1/lib/core/src\vl53l1_api_core.c **** 		pdev->offsetcal_cfg.pre_num_of_samples;
2949:D:/Git/VL53L1/lib/core/src\vl53l1_api_core.c **** 
2950:D:/Git/VL53L1/lib/core/src\vl53l1_api_core.c **** 	ptun_data->vl53l1_tuningparm_offset_cal_mm1_samples =
2951:D:/Git/VL53L1/lib/core/src\vl53l1_api_core.c **** 		pdev->offsetcal_cfg.mm1_num_of_samples;
2952:D:/Git/VL53L1/lib/core/src\vl53l1_api_core.c **** 
2953:D:/Git/VL53L1/lib/core/src\vl53l1_api_core.c **** 	ptun_data->vl53l1_tuningparm_offset_cal_mm2_samples =
2954:D:/Git/VL53L1/lib/core/src\vl53l1_api_core.c **** 		pdev->offsetcal_cfg.mm2_num_of_samples;
2955:D:/Git/VL53L1/lib/core/src\vl53l1_api_core.c **** 
2956:D:/Git/VL53L1/lib/core/src\vl53l1_api_core.c **** 	ptun_data->vl53l1_tuningparm_spadmap_vcsel_period =
2957:D:/Git/VL53L1/lib/core/src\vl53l1_api_core.c **** 		pdev->ssc_cfg.vcsel_period;
2958:D:/Git/VL53L1/lib/core/src\vl53l1_api_core.c **** 
2959:D:/Git/VL53L1/lib/core/src\vl53l1_api_core.c **** 	ptun_data->vl53l1_tuningparm_spadmap_vcsel_start =
2960:D:/Git/VL53L1/lib/core/src\vl53l1_api_core.c **** 		pdev->ssc_cfg.vcsel_start;
2961:D:/Git/VL53L1/lib/core/src\vl53l1_api_core.c **** 
2962:D:/Git/VL53L1/lib/core/src\vl53l1_api_core.c **** 	ptun_data->vl53l1_tuningparm_spadmap_rate_limit_mcps =
2963:D:/Git/VL53L1/lib/core/src\vl53l1_api_core.c **** 		pdev->ssc_cfg.rate_limit_mcps;
2964:D:/Git/VL53L1/lib/core/src\vl53l1_api_core.c **** 
2965:D:/Git/VL53L1/lib/core/src\vl53l1_api_core.c **** 	ptun_data->vl53l1_tuningparm_lite_dss_config_target_total_rate_mcps =
2966:D:/Git/VL53L1/lib/core/src\vl53l1_api_core.c **** 		pdev->tuning_parms.tp_dss_target_lite_mcps;
2967:D:/Git/VL53L1/lib/core/src\vl53l1_api_core.c **** 
2968:D:/Git/VL53L1/lib/core/src\vl53l1_api_core.c **** 	ptun_data->vl53l1_tuningparm_timed_dss_config_target_total_rate_mcps =
2969:D:/Git/VL53L1/lib/core/src\vl53l1_api_core.c **** 		pdev->tuning_parms.tp_dss_target_timed_mcps;
2970:D:/Git/VL53L1/lib/core/src\vl53l1_api_core.c **** 
2971:D:/Git/VL53L1/lib/core/src\vl53l1_api_core.c **** 	ptun_data->vl53l1_tuningparm_lite_phasecal_config_timeout_us =
2972:D:/Git/VL53L1/lib/core/src\vl53l1_api_core.c **** 		pdev->tuning_parms.tp_phasecal_timeout_lite_us;
2973:D:/Git/VL53L1/lib/core/src\vl53l1_api_core.c **** 
2974:D:/Git/VL53L1/lib/core/src\vl53l1_api_core.c **** 	ptun_data->vl53l1_tuningparm_timed_phasecal_config_timeout_us =
2975:D:/Git/VL53L1/lib/core/src\vl53l1_api_core.c **** 		pdev->tuning_parms.tp_phasecal_timeout_timed_us;
2976:D:/Git/VL53L1/lib/core/src\vl53l1_api_core.c **** 
2977:D:/Git/VL53L1/lib/core/src\vl53l1_api_core.c **** 	ptun_data->vl53l1_tuningparm_lite_mm_config_timeout_us =
2978:D:/Git/VL53L1/lib/core/src\vl53l1_api_core.c **** 		pdev->tuning_parms.tp_mm_timeout_lite_us;
2979:D:/Git/VL53L1/lib/core/src\vl53l1_api_core.c **** 
2980:D:/Git/VL53L1/lib/core/src\vl53l1_api_core.c **** 	ptun_data->vl53l1_tuningparm_timed_mm_config_timeout_us =
2981:D:/Git/VL53L1/lib/core/src\vl53l1_api_core.c **** 		pdev->tuning_parms.tp_mm_timeout_timed_us;
2982:D:/Git/VL53L1/lib/core/src\vl53l1_api_core.c **** 
2983:D:/Git/VL53L1/lib/core/src\vl53l1_api_core.c **** 	ptun_data->vl53l1_tuningparm_lite_range_config_timeout_us =
2984:D:/Git/VL53L1/lib/core/src\vl53l1_api_core.c **** 		pdev->tuning_parms.tp_range_timeout_lite_us;
2985:D:/Git/VL53L1/lib/core/src\vl53l1_api_core.c **** 
2986:D:/Git/VL53L1/lib/core/src\vl53l1_api_core.c **** 	ptun_data->vl53l1_tuningparm_timed_range_config_timeout_us =
2987:D:/Git/VL53L1/lib/core/src\vl53l1_api_core.c **** 		pdev->tuning_parms.tp_range_timeout_timed_us;
2988:D:/Git/VL53L1/lib/core/src\vl53l1_api_core.c **** 
2989:D:/Git/VL53L1/lib/core/src\vl53l1_api_core.c **** 	ptun_data->vl53l1_tuningparm_lowpowerauto_vhv_loop_bound =
ARM GAS  C:\Users\Berbardo\AppData\Local\Temp\ccBMvrJ9.s 			page 142


2990:D:/Git/VL53L1/lib/core/src\vl53l1_api_core.c **** 		pdev->low_power_auto_data.vhv_loop_bound;
2991:D:/Git/VL53L1/lib/core/src\vl53l1_api_core.c **** 
2992:D:/Git/VL53L1/lib/core/src\vl53l1_api_core.c **** 	ptun_data->vl53l1_tuningparm_lowpowerauto_mm_config_timeout_us =
2993:D:/Git/VL53L1/lib/core/src\vl53l1_api_core.c **** 		pdev->tuning_parms.tp_mm_timeout_lpa_us;
2994:D:/Git/VL53L1/lib/core/src\vl53l1_api_core.c **** 
2995:D:/Git/VL53L1/lib/core/src\vl53l1_api_core.c **** 	ptun_data->vl53l1_tuningparm_lowpowerauto_range_config_timeout_us =
2996:D:/Git/VL53L1/lib/core/src\vl53l1_api_core.c **** 		pdev->tuning_parms.tp_range_timeout_lpa_us;
2997:D:/Git/VL53L1/lib/core/src\vl53l1_api_core.c **** 
2998:D:/Git/VL53L1/lib/core/src\vl53l1_api_core.c **** 	LOG_FUNCTION_END(status);
2999:D:/Git/VL53L1/lib/core/src\vl53l1_api_core.c **** 
3000:D:/Git/VL53L1/lib/core/src\vl53l1_api_core.c **** 	return status;
3001:D:/Git/VL53L1/lib/core/src\vl53l1_api_core.c **** }
3002:D:/Git/VL53L1/lib/core/src\vl53l1_api_core.c **** #endif
3003:D:/Git/VL53L1/lib/core/src\vl53l1_api_core.c **** 
3004:D:/Git/VL53L1/lib/core/src\vl53l1_api_core.c **** VL53L1_Error VL53L1_get_tuning_parm(
3005:D:/Git/VL53L1/lib/core/src\vl53l1_api_core.c **** 	VL53L1_DEV                     Dev,
3006:D:/Git/VL53L1/lib/core/src\vl53l1_api_core.c **** 	VL53L1_TuningParms             tuning_parm_key,
3007:D:/Git/VL53L1/lib/core/src\vl53l1_api_core.c **** 	int32_t                       *ptuning_parm_value)
3008:D:/Git/VL53L1/lib/core/src\vl53l1_api_core.c **** {
 4586              		.loc 1 3008 1 is_stmt 1 view -0
 4587              		.cfi_startproc
 4588              		@ args = 0, pretend = 0, frame = 0
 4589              		@ frame_needed = 0, uses_anonymous_args = 0
 4590              		@ link register save eliminated.
3009:D:/Git/VL53L1/lib/core/src\vl53l1_api_core.c **** 
3010:D:/Git/VL53L1/lib/core/src\vl53l1_api_core.c **** 	/*
3011:D:/Git/VL53L1/lib/core/src\vl53l1_api_core.c **** 	 * Gets the requested tuning parm value
3012:D:/Git/VL53L1/lib/core/src\vl53l1_api_core.c **** 	 * - Large case statement for returns
3013:D:/Git/VL53L1/lib/core/src\vl53l1_api_core.c **** 	 * - if key does not match, INVALID parm error returned
3014:D:/Git/VL53L1/lib/core/src\vl53l1_api_core.c **** 	 */
3015:D:/Git/VL53L1/lib/core/src\vl53l1_api_core.c **** 
3016:D:/Git/VL53L1/lib/core/src\vl53l1_api_core.c **** 	VL53L1_Error  status = VL53L1_ERROR_NONE;
 4591              		.loc 1 3016 2 view .LVU1536
3017:D:/Git/VL53L1/lib/core/src\vl53l1_api_core.c **** 
3018:D:/Git/VL53L1/lib/core/src\vl53l1_api_core.c **** 	VL53L1_LLDriverData_t *pdev = VL53L1DevStructGetLLDriverHandle(Dev);
 4592              		.loc 1 3018 2 view .LVU1537
3019:D:/Git/VL53L1/lib/core/src\vl53l1_api_core.c **** 
3020:D:/Git/VL53L1/lib/core/src\vl53l1_api_core.c **** 	LOG_FUNCTION_START("");
 4593              		.loc 1 3020 24 view .LVU1538
3021:D:/Git/VL53L1/lib/core/src\vl53l1_api_core.c **** 
3022:D:/Git/VL53L1/lib/core/src\vl53l1_api_core.c **** 	switch (tuning_parm_key) {
 4594              		.loc 1 3022 2 view .LVU1539
 4595 0000 A1F50041 		sub	r1, r1, #32768
 4596              	.LVL416:
 4597              		.loc 1 3022 2 is_stmt 0 view .LVU1540
 4598 0004 3829     		cmp	r1, #56
 4599 0006 00F25881 		bhi	.L249
 4600 000a DFE811F0 		tbh	[pc, r1, lsl #1]
 4601              	.L251:
 4602 000e 3900     		.2byte	(.L307-.L251)/2
 4603 0010 3E00     		.2byte	(.L306-.L251)/2
 4604 0012 4300     		.2byte	(.L305-.L251)/2
 4605 0014 4800     		.2byte	(.L304-.L251)/2
 4606 0016 4D00     		.2byte	(.L303-.L251)/2
 4607 0018 5200     		.2byte	(.L302-.L251)/2
 4608 001a 5700     		.2byte	(.L301-.L251)/2
 4609 001c 5C00     		.2byte	(.L300-.L251)/2
ARM GAS  C:\Users\Berbardo\AppData\Local\Temp\ccBMvrJ9.s 			page 143


 4610 001e 6100     		.2byte	(.L299-.L251)/2
 4611 0020 6600     		.2byte	(.L298-.L251)/2
 4612 0022 6B00     		.2byte	(.L297-.L251)/2
 4613 0024 7000     		.2byte	(.L296-.L251)/2
 4614 0026 7500     		.2byte	(.L295-.L251)/2
 4615 0028 7A00     		.2byte	(.L294-.L251)/2
 4616 002a 7F00     		.2byte	(.L293-.L251)/2
 4617 002c 8400     		.2byte	(.L292-.L251)/2
 4618 002e 8900     		.2byte	(.L291-.L251)/2
 4619 0030 8E00     		.2byte	(.L290-.L251)/2
 4620 0032 9300     		.2byte	(.L289-.L251)/2
 4621 0034 9800     		.2byte	(.L288-.L251)/2
 4622 0036 9D00     		.2byte	(.L287-.L251)/2
 4623 0038 A200     		.2byte	(.L286-.L251)/2
 4624 003a A700     		.2byte	(.L285-.L251)/2
 4625 003c AC00     		.2byte	(.L284-.L251)/2
 4626 003e B100     		.2byte	(.L283-.L251)/2
 4627 0040 B600     		.2byte	(.L282-.L251)/2
 4628 0042 BB00     		.2byte	(.L281-.L251)/2
 4629 0044 C000     		.2byte	(.L280-.L251)/2
 4630 0046 C500     		.2byte	(.L279-.L251)/2
 4631 0048 CA00     		.2byte	(.L278-.L251)/2
 4632 004a CF00     		.2byte	(.L277-.L251)/2
 4633 004c D400     		.2byte	(.L276-.L251)/2
 4634 004e D900     		.2byte	(.L275-.L251)/2
 4635 0050 DE00     		.2byte	(.L274-.L251)/2
 4636 0052 E300     		.2byte	(.L273-.L251)/2
 4637 0054 E800     		.2byte	(.L272-.L251)/2
 4638 0056 ED00     		.2byte	(.L271-.L251)/2
 4639 0058 F200     		.2byte	(.L270-.L251)/2
 4640 005a F700     		.2byte	(.L269-.L251)/2
 4641 005c FC00     		.2byte	(.L268-.L251)/2
 4642 005e 0101     		.2byte	(.L267-.L251)/2
 4643 0060 0601     		.2byte	(.L266-.L251)/2
 4644 0062 0B01     		.2byte	(.L265-.L251)/2
 4645 0064 1001     		.2byte	(.L264-.L251)/2
 4646 0066 1501     		.2byte	(.L263-.L251)/2
 4647 0068 1A01     		.2byte	(.L262-.L251)/2
 4648 006a 1F01     		.2byte	(.L261-.L251)/2
 4649 006c 2401     		.2byte	(.L260-.L251)/2
 4650 006e 2901     		.2byte	(.L259-.L251)/2
 4651 0070 2E01     		.2byte	(.L258-.L251)/2
 4652 0072 3301     		.2byte	(.L257-.L251)/2
 4653 0074 3801     		.2byte	(.L256-.L251)/2
 4654 0076 3D01     		.2byte	(.L255-.L251)/2
 4655 0078 4201     		.2byte	(.L254-.L251)/2
 4656 007a 4701     		.2byte	(.L253-.L251)/2
 4657 007c 4C01     		.2byte	(.L252-.L251)/2
 4658 007e 5101     		.2byte	(.L250-.L251)/2
 4659              		.p2align 1
 4660              	.L307:
3023:D:/Git/VL53L1/lib/core/src\vl53l1_api_core.c **** 
3024:D:/Git/VL53L1/lib/core/src\vl53l1_api_core.c **** 	case VL53L1_TUNINGPARM_VERSION:
3025:D:/Git/VL53L1/lib/core/src\vl53l1_api_core.c **** 		*ptuning_parm_value =
 4661              		.loc 1 3025 3 is_stmt 1 view .LVU1541
3026:D:/Git/VL53L1/lib/core/src\vl53l1_api_core.c **** 				(int32_t)pdev->tuning_parms.tp_tuning_parm_version;
 4662              		.loc 1 3026 32 is_stmt 0 view .LVU1542
ARM GAS  C:\Users\Berbardo\AppData\Local\Temp\ccBMvrJ9.s 			page 144


 4663 0080 B0F8A430 		ldrh	r3, [r0, #164]
3025:D:/Git/VL53L1/lib/core/src\vl53l1_api_core.c **** 				(int32_t)pdev->tuning_parms.tp_tuning_parm_version;
 4664              		.loc 1 3025 23 view .LVU1543
 4665 0084 1360     		str	r3, [r2]
3027:D:/Git/VL53L1/lib/core/src\vl53l1_api_core.c **** 	break;
 4666              		.loc 1 3027 2 is_stmt 1 view .LVU1544
3016:D:/Git/VL53L1/lib/core/src\vl53l1_api_core.c **** 
 4667              		.loc 1 3016 16 is_stmt 0 view .LVU1545
 4668 0086 0020     		movs	r0, #0
 4669              	.LVL417:
 4670              		.loc 1 3027 2 view .LVU1546
 4671 0088 7047     		bx	lr
 4672              	.LVL418:
 4673              	.L306:
3028:D:/Git/VL53L1/lib/core/src\vl53l1_api_core.c **** 	case VL53L1_TUNINGPARM_KEY_TABLE_VERSION:
3029:D:/Git/VL53L1/lib/core/src\vl53l1_api_core.c **** 		*ptuning_parm_value =
 4674              		.loc 1 3029 3 is_stmt 1 view .LVU1547
3030:D:/Git/VL53L1/lib/core/src\vl53l1_api_core.c **** 				(int32_t)pdev->tuning_parms.tp_tuning_parm_key_table_version;
 4675              		.loc 1 3030 32 is_stmt 0 view .LVU1548
 4676 008a B0F8A630 		ldrh	r3, [r0, #166]
3029:D:/Git/VL53L1/lib/core/src\vl53l1_api_core.c **** 				(int32_t)pdev->tuning_parms.tp_tuning_parm_key_table_version;
 4677              		.loc 1 3029 23 view .LVU1549
 4678 008e 1360     		str	r3, [r2]
3031:D:/Git/VL53L1/lib/core/src\vl53l1_api_core.c **** 	break;
 4679              		.loc 1 3031 2 is_stmt 1 view .LVU1550
3016:D:/Git/VL53L1/lib/core/src\vl53l1_api_core.c **** 
 4680              		.loc 1 3016 16 is_stmt 0 view .LVU1551
 4681 0090 0020     		movs	r0, #0
 4682              	.LVL419:
 4683              		.loc 1 3031 2 view .LVU1552
 4684 0092 7047     		bx	lr
 4685              	.LVL420:
 4686              	.L305:
3032:D:/Git/VL53L1/lib/core/src\vl53l1_api_core.c **** 	case VL53L1_TUNINGPARM_LLD_VERSION:
3033:D:/Git/VL53L1/lib/core/src\vl53l1_api_core.c **** 		*ptuning_parm_value =
 4687              		.loc 1 3033 3 is_stmt 1 view .LVU1553
3034:D:/Git/VL53L1/lib/core/src\vl53l1_api_core.c **** 				(int32_t)pdev->tuning_parms.tp_tuning_parm_lld_version;
 4688              		.loc 1 3034 32 is_stmt 0 view .LVU1554
 4689 0094 B0F8A830 		ldrh	r3, [r0, #168]
3033:D:/Git/VL53L1/lib/core/src\vl53l1_api_core.c **** 				(int32_t)pdev->tuning_parms.tp_tuning_parm_lld_version;
 4690              		.loc 1 3033 23 view .LVU1555
 4691 0098 1360     		str	r3, [r2]
3035:D:/Git/VL53L1/lib/core/src\vl53l1_api_core.c **** 	break;
 4692              		.loc 1 3035 2 is_stmt 1 view .LVU1556
3016:D:/Git/VL53L1/lib/core/src\vl53l1_api_core.c **** 
 4693              		.loc 1 3016 16 is_stmt 0 view .LVU1557
 4694 009a 0020     		movs	r0, #0
 4695              	.LVL421:
 4696              		.loc 1 3035 2 view .LVU1558
 4697 009c 7047     		bx	lr
 4698              	.LVL422:
 4699              	.L304:
3036:D:/Git/VL53L1/lib/core/src\vl53l1_api_core.c **** 	case VL53L1_TUNINGPARM_CONSISTENCY_LITE_PHASE_TOLERANCE:
3037:D:/Git/VL53L1/lib/core/src\vl53l1_api_core.c **** 		*ptuning_parm_value =
 4700              		.loc 1 3037 3 is_stmt 1 view .LVU1559
3038:D:/Git/VL53L1/lib/core/src\vl53l1_api_core.c **** 				(int32_t)pdev->tuning_parms.tp_consistency_lite_phase_tolerance;
 4701              		.loc 1 3038 32 is_stmt 0 view .LVU1560
ARM GAS  C:\Users\Berbardo\AppData\Local\Temp\ccBMvrJ9.s 			page 145


 4702 009e 90F8B030 		ldrb	r3, [r0, #176]	@ zero_extendqisi2
3037:D:/Git/VL53L1/lib/core/src\vl53l1_api_core.c **** 				(int32_t)pdev->tuning_parms.tp_consistency_lite_phase_tolerance;
 4703              		.loc 1 3037 23 view .LVU1561
 4704 00a2 1360     		str	r3, [r2]
3039:D:/Git/VL53L1/lib/core/src\vl53l1_api_core.c **** 	break;
 4705              		.loc 1 3039 2 is_stmt 1 view .LVU1562
3016:D:/Git/VL53L1/lib/core/src\vl53l1_api_core.c **** 
 4706              		.loc 1 3016 16 is_stmt 0 view .LVU1563
 4707 00a4 0020     		movs	r0, #0
 4708              	.LVL423:
 4709              		.loc 1 3039 2 view .LVU1564
 4710 00a6 7047     		bx	lr
 4711              	.LVL424:
 4712              	.L303:
3040:D:/Git/VL53L1/lib/core/src\vl53l1_api_core.c **** 	case VL53L1_TUNINGPARM_PHASECAL_TARGET:
3041:D:/Git/VL53L1/lib/core/src\vl53l1_api_core.c **** 		*ptuning_parm_value =
 4713              		.loc 1 3041 3 is_stmt 1 view .LVU1565
3042:D:/Git/VL53L1/lib/core/src\vl53l1_api_core.c **** 				(int32_t)pdev->tuning_parms.tp_phasecal_target;
 4714              		.loc 1 3042 32 is_stmt 0 view .LVU1566
 4715 00a8 90F8B130 		ldrb	r3, [r0, #177]	@ zero_extendqisi2
3041:D:/Git/VL53L1/lib/core/src\vl53l1_api_core.c **** 				(int32_t)pdev->tuning_parms.tp_phasecal_target;
 4716              		.loc 1 3041 23 view .LVU1567
 4717 00ac 1360     		str	r3, [r2]
3043:D:/Git/VL53L1/lib/core/src\vl53l1_api_core.c **** 	break;
 4718              		.loc 1 3043 2 is_stmt 1 view .LVU1568
3016:D:/Git/VL53L1/lib/core/src\vl53l1_api_core.c **** 
 4719              		.loc 1 3016 16 is_stmt 0 view .LVU1569
 4720 00ae 0020     		movs	r0, #0
 4721              	.LVL425:
 4722              		.loc 1 3043 2 view .LVU1570
 4723 00b0 7047     		bx	lr
 4724              	.LVL426:
 4725              	.L302:
3044:D:/Git/VL53L1/lib/core/src\vl53l1_api_core.c **** 	case VL53L1_TUNINGPARM_LITE_CAL_REPEAT_RATE:
3045:D:/Git/VL53L1/lib/core/src\vl53l1_api_core.c **** 		*ptuning_parm_value =
 4726              		.loc 1 3045 3 is_stmt 1 view .LVU1571
3046:D:/Git/VL53L1/lib/core/src\vl53l1_api_core.c **** 				(int32_t)pdev->tuning_parms.tp_cal_repeat_rate;
 4727              		.loc 1 3046 32 is_stmt 0 view .LVU1572
 4728 00b2 B0F8B230 		ldrh	r3, [r0, #178]
3045:D:/Git/VL53L1/lib/core/src\vl53l1_api_core.c **** 				(int32_t)pdev->tuning_parms.tp_cal_repeat_rate;
 4729              		.loc 1 3045 23 view .LVU1573
 4730 00b6 1360     		str	r3, [r2]
3047:D:/Git/VL53L1/lib/core/src\vl53l1_api_core.c **** 	break;
 4731              		.loc 1 3047 2 is_stmt 1 view .LVU1574
3016:D:/Git/VL53L1/lib/core/src\vl53l1_api_core.c **** 
 4732              		.loc 1 3016 16 is_stmt 0 view .LVU1575
 4733 00b8 0020     		movs	r0, #0
 4734              	.LVL427:
 4735              		.loc 1 3047 2 view .LVU1576
 4736 00ba 7047     		bx	lr
 4737              	.LVL428:
 4738              	.L301:
3048:D:/Git/VL53L1/lib/core/src\vl53l1_api_core.c **** 	case VL53L1_TUNINGPARM_LITE_RANGING_GAIN_FACTOR:
3049:D:/Git/VL53L1/lib/core/src\vl53l1_api_core.c **** 		*ptuning_parm_value =
 4739              		.loc 1 3049 3 is_stmt 1 view .LVU1577
3050:D:/Git/VL53L1/lib/core/src\vl53l1_api_core.c **** 				(int32_t)pdev->gain_cal.standard_ranging_gain_factor;
 4740              		.loc 1 3050 28 is_stmt 0 view .LVU1578
ARM GAS  C:\Users\Berbardo\AppData\Local\Temp\ccBMvrJ9.s 			page 146


 4741 00bc B0F89C30 		ldrh	r3, [r0, #156]
3049:D:/Git/VL53L1/lib/core/src\vl53l1_api_core.c **** 				(int32_t)pdev->gain_cal.standard_ranging_gain_factor;
 4742              		.loc 1 3049 23 view .LVU1579
 4743 00c0 1360     		str	r3, [r2]
3051:D:/Git/VL53L1/lib/core/src\vl53l1_api_core.c **** 	break;
 4744              		.loc 1 3051 2 is_stmt 1 view .LVU1580
3016:D:/Git/VL53L1/lib/core/src\vl53l1_api_core.c **** 
 4745              		.loc 1 3016 16 is_stmt 0 view .LVU1581
 4746 00c2 0020     		movs	r0, #0
 4747              	.LVL429:
 4748              		.loc 1 3051 2 view .LVU1582
 4749 00c4 7047     		bx	lr
 4750              	.LVL430:
 4751              	.L300:
3052:D:/Git/VL53L1/lib/core/src\vl53l1_api_core.c **** 	case VL53L1_TUNINGPARM_LITE_MIN_CLIP_MM:
3053:D:/Git/VL53L1/lib/core/src\vl53l1_api_core.c **** 		*ptuning_parm_value =
 4752              		.loc 1 3053 3 is_stmt 1 view .LVU1583
3054:D:/Git/VL53L1/lib/core/src\vl53l1_api_core.c **** 				(int32_t)pdev->tuning_parms.tp_lite_min_clip;
 4753              		.loc 1 3054 32 is_stmt 0 view .LVU1584
 4754 00c6 90F8B430 		ldrb	r3, [r0, #180]	@ zero_extendqisi2
3053:D:/Git/VL53L1/lib/core/src\vl53l1_api_core.c **** 				(int32_t)pdev->tuning_parms.tp_lite_min_clip;
 4755              		.loc 1 3053 23 view .LVU1585
 4756 00ca 1360     		str	r3, [r2]
3055:D:/Git/VL53L1/lib/core/src\vl53l1_api_core.c **** 	break;
 4757              		.loc 1 3055 2 is_stmt 1 view .LVU1586
3016:D:/Git/VL53L1/lib/core/src\vl53l1_api_core.c **** 
 4758              		.loc 1 3016 16 is_stmt 0 view .LVU1587
 4759 00cc 0020     		movs	r0, #0
 4760              	.LVL431:
 4761              		.loc 1 3055 2 view .LVU1588
 4762 00ce 7047     		bx	lr
 4763              	.LVL432:
 4764              	.L299:
3056:D:/Git/VL53L1/lib/core/src\vl53l1_api_core.c **** 	case VL53L1_TUNINGPARM_LITE_LONG_SIGMA_THRESH_MM:
3057:D:/Git/VL53L1/lib/core/src\vl53l1_api_core.c **** 		*ptuning_parm_value =
 4765              		.loc 1 3057 3 is_stmt 1 view .LVU1589
3058:D:/Git/VL53L1/lib/core/src\vl53l1_api_core.c **** 				(int32_t)pdev->tuning_parms.tp_lite_long_sigma_thresh_mm;
 4766              		.loc 1 3058 32 is_stmt 0 view .LVU1590
 4767 00d0 B0F8B630 		ldrh	r3, [r0, #182]
3057:D:/Git/VL53L1/lib/core/src\vl53l1_api_core.c **** 				(int32_t)pdev->tuning_parms.tp_lite_long_sigma_thresh_mm;
 4768              		.loc 1 3057 23 view .LVU1591
 4769 00d4 1360     		str	r3, [r2]
3059:D:/Git/VL53L1/lib/core/src\vl53l1_api_core.c **** 	break;
 4770              		.loc 1 3059 2 is_stmt 1 view .LVU1592
3016:D:/Git/VL53L1/lib/core/src\vl53l1_api_core.c **** 
 4771              		.loc 1 3016 16 is_stmt 0 view .LVU1593
 4772 00d6 0020     		movs	r0, #0
 4773              	.LVL433:
 4774              		.loc 1 3059 2 view .LVU1594
 4775 00d8 7047     		bx	lr
 4776              	.LVL434:
 4777              	.L298:
3060:D:/Git/VL53L1/lib/core/src\vl53l1_api_core.c **** 	case VL53L1_TUNINGPARM_LITE_MED_SIGMA_THRESH_MM:
3061:D:/Git/VL53L1/lib/core/src\vl53l1_api_core.c **** 		*ptuning_parm_value =
 4778              		.loc 1 3061 3 is_stmt 1 view .LVU1595
3062:D:/Git/VL53L1/lib/core/src\vl53l1_api_core.c **** 				(int32_t)pdev->tuning_parms.tp_lite_med_sigma_thresh_mm;
 4779              		.loc 1 3062 32 is_stmt 0 view .LVU1596
ARM GAS  C:\Users\Berbardo\AppData\Local\Temp\ccBMvrJ9.s 			page 147


 4780 00da B0F8B830 		ldrh	r3, [r0, #184]
3061:D:/Git/VL53L1/lib/core/src\vl53l1_api_core.c **** 				(int32_t)pdev->tuning_parms.tp_lite_med_sigma_thresh_mm;
 4781              		.loc 1 3061 23 view .LVU1597
 4782 00de 1360     		str	r3, [r2]
3063:D:/Git/VL53L1/lib/core/src\vl53l1_api_core.c **** 	break;
 4783              		.loc 1 3063 2 is_stmt 1 view .LVU1598
3016:D:/Git/VL53L1/lib/core/src\vl53l1_api_core.c **** 
 4784              		.loc 1 3016 16 is_stmt 0 view .LVU1599
 4785 00e0 0020     		movs	r0, #0
 4786              	.LVL435:
 4787              		.loc 1 3063 2 view .LVU1600
 4788 00e2 7047     		bx	lr
 4789              	.LVL436:
 4790              	.L297:
3064:D:/Git/VL53L1/lib/core/src\vl53l1_api_core.c **** 	case VL53L1_TUNINGPARM_LITE_SHORT_SIGMA_THRESH_MM:
3065:D:/Git/VL53L1/lib/core/src\vl53l1_api_core.c **** 		*ptuning_parm_value =
 4791              		.loc 1 3065 3 is_stmt 1 view .LVU1601
3066:D:/Git/VL53L1/lib/core/src\vl53l1_api_core.c **** 				(int32_t)pdev->tuning_parms.tp_lite_short_sigma_thresh_mm;
 4792              		.loc 1 3066 32 is_stmt 0 view .LVU1602
 4793 00e4 B0F8BA30 		ldrh	r3, [r0, #186]
3065:D:/Git/VL53L1/lib/core/src\vl53l1_api_core.c **** 				(int32_t)pdev->tuning_parms.tp_lite_short_sigma_thresh_mm;
 4794              		.loc 1 3065 23 view .LVU1603
 4795 00e8 1360     		str	r3, [r2]
3067:D:/Git/VL53L1/lib/core/src\vl53l1_api_core.c **** 	break;
 4796              		.loc 1 3067 2 is_stmt 1 view .LVU1604
3016:D:/Git/VL53L1/lib/core/src\vl53l1_api_core.c **** 
 4797              		.loc 1 3016 16 is_stmt 0 view .LVU1605
 4798 00ea 0020     		movs	r0, #0
 4799              	.LVL437:
 4800              		.loc 1 3067 2 view .LVU1606
 4801 00ec 7047     		bx	lr
 4802              	.LVL438:
 4803              	.L296:
3068:D:/Git/VL53L1/lib/core/src\vl53l1_api_core.c **** 	case VL53L1_TUNINGPARM_LITE_LONG_MIN_COUNT_RATE_RTN_MCPS:
3069:D:/Git/VL53L1/lib/core/src\vl53l1_api_core.c **** 		*ptuning_parm_value =
 4804              		.loc 1 3069 3 is_stmt 1 view .LVU1607
3070:D:/Git/VL53L1/lib/core/src\vl53l1_api_core.c **** 				(int32_t)pdev->tuning_parms.tp_lite_long_min_count_rate_rtn_mcps;
 4805              		.loc 1 3070 32 is_stmt 0 view .LVU1608
 4806 00ee B0F8BC30 		ldrh	r3, [r0, #188]
3069:D:/Git/VL53L1/lib/core/src\vl53l1_api_core.c **** 				(int32_t)pdev->tuning_parms.tp_lite_long_min_count_rate_rtn_mcps;
 4807              		.loc 1 3069 23 view .LVU1609
 4808 00f2 1360     		str	r3, [r2]
3071:D:/Git/VL53L1/lib/core/src\vl53l1_api_core.c **** 	break;
 4809              		.loc 1 3071 2 is_stmt 1 view .LVU1610
3016:D:/Git/VL53L1/lib/core/src\vl53l1_api_core.c **** 
 4810              		.loc 1 3016 16 is_stmt 0 view .LVU1611
 4811 00f4 0020     		movs	r0, #0
 4812              	.LVL439:
 4813              		.loc 1 3071 2 view .LVU1612
 4814 00f6 7047     		bx	lr
 4815              	.LVL440:
 4816              	.L295:
3072:D:/Git/VL53L1/lib/core/src\vl53l1_api_core.c **** 	case VL53L1_TUNINGPARM_LITE_MED_MIN_COUNT_RATE_RTN_MCPS:
3073:D:/Git/VL53L1/lib/core/src\vl53l1_api_core.c **** 		*ptuning_parm_value =
 4817              		.loc 1 3073 3 is_stmt 1 view .LVU1613
3074:D:/Git/VL53L1/lib/core/src\vl53l1_api_core.c **** 				(int32_t)pdev->tuning_parms.tp_lite_med_min_count_rate_rtn_mcps;
 4818              		.loc 1 3074 32 is_stmt 0 view .LVU1614
ARM GAS  C:\Users\Berbardo\AppData\Local\Temp\ccBMvrJ9.s 			page 148


 4819 00f8 B0F8BE30 		ldrh	r3, [r0, #190]
3073:D:/Git/VL53L1/lib/core/src\vl53l1_api_core.c **** 				(int32_t)pdev->tuning_parms.tp_lite_med_min_count_rate_rtn_mcps;
 4820              		.loc 1 3073 23 view .LVU1615
 4821 00fc 1360     		str	r3, [r2]
3075:D:/Git/VL53L1/lib/core/src\vl53l1_api_core.c **** 	break;
 4822              		.loc 1 3075 2 is_stmt 1 view .LVU1616
3016:D:/Git/VL53L1/lib/core/src\vl53l1_api_core.c **** 
 4823              		.loc 1 3016 16 is_stmt 0 view .LVU1617
 4824 00fe 0020     		movs	r0, #0
 4825              	.LVL441:
 4826              		.loc 1 3075 2 view .LVU1618
 4827 0100 7047     		bx	lr
 4828              	.LVL442:
 4829              	.L294:
3076:D:/Git/VL53L1/lib/core/src\vl53l1_api_core.c **** 	case VL53L1_TUNINGPARM_LITE_SHORT_MIN_COUNT_RATE_RTN_MCPS:
3077:D:/Git/VL53L1/lib/core/src\vl53l1_api_core.c **** 		*ptuning_parm_value =
 4830              		.loc 1 3077 3 is_stmt 1 view .LVU1619
3078:D:/Git/VL53L1/lib/core/src\vl53l1_api_core.c **** 				(int32_t)pdev->tuning_parms.tp_lite_short_min_count_rate_rtn_mcps;
 4831              		.loc 1 3078 32 is_stmt 0 view .LVU1620
 4832 0102 B0F8C030 		ldrh	r3, [r0, #192]
3077:D:/Git/VL53L1/lib/core/src\vl53l1_api_core.c **** 				(int32_t)pdev->tuning_parms.tp_lite_short_min_count_rate_rtn_mcps;
 4833              		.loc 1 3077 23 view .LVU1621
 4834 0106 1360     		str	r3, [r2]
3079:D:/Git/VL53L1/lib/core/src\vl53l1_api_core.c **** 	break;
 4835              		.loc 1 3079 2 is_stmt 1 view .LVU1622
3016:D:/Git/VL53L1/lib/core/src\vl53l1_api_core.c **** 
 4836              		.loc 1 3016 16 is_stmt 0 view .LVU1623
 4837 0108 0020     		movs	r0, #0
 4838              	.LVL443:
 4839              		.loc 1 3079 2 view .LVU1624
 4840 010a 7047     		bx	lr
 4841              	.LVL444:
 4842              	.L293:
3080:D:/Git/VL53L1/lib/core/src\vl53l1_api_core.c **** 	case VL53L1_TUNINGPARM_LITE_SIGMA_EST_PULSE_WIDTH:
3081:D:/Git/VL53L1/lib/core/src\vl53l1_api_core.c **** 		*ptuning_parm_value =
 4843              		.loc 1 3081 3 is_stmt 1 view .LVU1625
3082:D:/Git/VL53L1/lib/core/src\vl53l1_api_core.c **** 				(int32_t)pdev->tuning_parms.tp_lite_sigma_est_pulse_width_ns;
 4844              		.loc 1 3082 32 is_stmt 0 view .LVU1626
 4845 010c 90F8C230 		ldrb	r3, [r0, #194]	@ zero_extendqisi2
3081:D:/Git/VL53L1/lib/core/src\vl53l1_api_core.c **** 				(int32_t)pdev->tuning_parms.tp_lite_sigma_est_pulse_width_ns;
 4846              		.loc 1 3081 23 view .LVU1627
 4847 0110 1360     		str	r3, [r2]
3083:D:/Git/VL53L1/lib/core/src\vl53l1_api_core.c **** 	break;
 4848              		.loc 1 3083 2 is_stmt 1 view .LVU1628
3016:D:/Git/VL53L1/lib/core/src\vl53l1_api_core.c **** 
 4849              		.loc 1 3016 16 is_stmt 0 view .LVU1629
 4850 0112 0020     		movs	r0, #0
 4851              	.LVL445:
 4852              		.loc 1 3083 2 view .LVU1630
 4853 0114 7047     		bx	lr
 4854              	.LVL446:
 4855              	.L292:
3084:D:/Git/VL53L1/lib/core/src\vl53l1_api_core.c **** 	case VL53L1_TUNINGPARM_LITE_SIGMA_EST_AMB_WIDTH_NS:
3085:D:/Git/VL53L1/lib/core/src\vl53l1_api_core.c **** 		*ptuning_parm_value =
 4856              		.loc 1 3085 3 is_stmt 1 view .LVU1631
3086:D:/Git/VL53L1/lib/core/src\vl53l1_api_core.c **** 				(int32_t)pdev->tuning_parms.tp_lite_sigma_est_amb_width_ns;
 4857              		.loc 1 3086 32 is_stmt 0 view .LVU1632
ARM GAS  C:\Users\Berbardo\AppData\Local\Temp\ccBMvrJ9.s 			page 149


 4858 0116 90F8C330 		ldrb	r3, [r0, #195]	@ zero_extendqisi2
3085:D:/Git/VL53L1/lib/core/src\vl53l1_api_core.c **** 				(int32_t)pdev->tuning_parms.tp_lite_sigma_est_amb_width_ns;
 4859              		.loc 1 3085 23 view .LVU1633
 4860 011a 1360     		str	r3, [r2]
3087:D:/Git/VL53L1/lib/core/src\vl53l1_api_core.c **** 	break;
 4861              		.loc 1 3087 2 is_stmt 1 view .LVU1634
3016:D:/Git/VL53L1/lib/core/src\vl53l1_api_core.c **** 
 4862              		.loc 1 3016 16 is_stmt 0 view .LVU1635
 4863 011c 0020     		movs	r0, #0
 4864              	.LVL447:
 4865              		.loc 1 3087 2 view .LVU1636
 4866 011e 7047     		bx	lr
 4867              	.LVL448:
 4868              	.L291:
3088:D:/Git/VL53L1/lib/core/src\vl53l1_api_core.c **** 	case VL53L1_TUNINGPARM_LITE_SIGMA_REF_MM:
3089:D:/Git/VL53L1/lib/core/src\vl53l1_api_core.c **** 		*ptuning_parm_value =
 4869              		.loc 1 3089 3 is_stmt 1 view .LVU1637
3090:D:/Git/VL53L1/lib/core/src\vl53l1_api_core.c **** 				(int32_t)pdev->tuning_parms.tp_lite_sigma_ref_mm;
 4870              		.loc 1 3090 32 is_stmt 0 view .LVU1638
 4871 0120 90F8C430 		ldrb	r3, [r0, #196]	@ zero_extendqisi2
3089:D:/Git/VL53L1/lib/core/src\vl53l1_api_core.c **** 				(int32_t)pdev->tuning_parms.tp_lite_sigma_ref_mm;
 4872              		.loc 1 3089 23 view .LVU1639
 4873 0124 1360     		str	r3, [r2]
3091:D:/Git/VL53L1/lib/core/src\vl53l1_api_core.c **** 	break;
 4874              		.loc 1 3091 2 is_stmt 1 view .LVU1640
3016:D:/Git/VL53L1/lib/core/src\vl53l1_api_core.c **** 
 4875              		.loc 1 3016 16 is_stmt 0 view .LVU1641
 4876 0126 0020     		movs	r0, #0
 4877              	.LVL449:
 4878              		.loc 1 3091 2 view .LVU1642
 4879 0128 7047     		bx	lr
 4880              	.LVL450:
 4881              	.L290:
3092:D:/Git/VL53L1/lib/core/src\vl53l1_api_core.c **** 	case VL53L1_TUNINGPARM_LITE_RIT_MULT:
3093:D:/Git/VL53L1/lib/core/src\vl53l1_api_core.c **** 		*ptuning_parm_value =
 4882              		.loc 1 3093 3 is_stmt 1 view .LVU1643
3094:D:/Git/VL53L1/lib/core/src\vl53l1_api_core.c **** 				(int32_t)pdev->xtalk_cfg.crosstalk_range_ignore_threshold_mult;
 4883              		.loc 1 3094 29 is_stmt 0 view .LVU1644
 4884 012a 90F84031 		ldrb	r3, [r0, #320]	@ zero_extendqisi2
3093:D:/Git/VL53L1/lib/core/src\vl53l1_api_core.c **** 				(int32_t)pdev->xtalk_cfg.crosstalk_range_ignore_threshold_mult;
 4885              		.loc 1 3093 23 view .LVU1645
 4886 012e 1360     		str	r3, [r2]
3095:D:/Git/VL53L1/lib/core/src\vl53l1_api_core.c **** 	break;
 4887              		.loc 1 3095 2 is_stmt 1 view .LVU1646
3016:D:/Git/VL53L1/lib/core/src\vl53l1_api_core.c **** 
 4888              		.loc 1 3016 16 is_stmt 0 view .LVU1647
 4889 0130 0020     		movs	r0, #0
 4890              	.LVL451:
 4891              		.loc 1 3095 2 view .LVU1648
 4892 0132 7047     		bx	lr
 4893              	.LVL452:
 4894              	.L289:
3096:D:/Git/VL53L1/lib/core/src\vl53l1_api_core.c **** 	case VL53L1_TUNINGPARM_LITE_SEED_CONFIG:
3097:D:/Git/VL53L1/lib/core/src\vl53l1_api_core.c **** 		*ptuning_parm_value =
 4895              		.loc 1 3097 3 is_stmt 1 view .LVU1649
3098:D:/Git/VL53L1/lib/core/src\vl53l1_api_core.c **** 				(int32_t)pdev->tuning_parms.tp_lite_seed_cfg ;
 4896              		.loc 1 3098 32 is_stmt 0 view .LVU1650
ARM GAS  C:\Users\Berbardo\AppData\Local\Temp\ccBMvrJ9.s 			page 150


 4897 0134 90F8C530 		ldrb	r3, [r0, #197]	@ zero_extendqisi2
3097:D:/Git/VL53L1/lib/core/src\vl53l1_api_core.c **** 				(int32_t)pdev->tuning_parms.tp_lite_seed_cfg ;
 4898              		.loc 1 3097 23 view .LVU1651
 4899 0138 1360     		str	r3, [r2]
3099:D:/Git/VL53L1/lib/core/src\vl53l1_api_core.c **** 	break;
 4900              		.loc 1 3099 2 is_stmt 1 view .LVU1652
3016:D:/Git/VL53L1/lib/core/src\vl53l1_api_core.c **** 
 4901              		.loc 1 3016 16 is_stmt 0 view .LVU1653
 4902 013a 0020     		movs	r0, #0
 4903              	.LVL453:
 4904              		.loc 1 3099 2 view .LVU1654
 4905 013c 7047     		bx	lr
 4906              	.LVL454:
 4907              	.L288:
3100:D:/Git/VL53L1/lib/core/src\vl53l1_api_core.c **** 	case VL53L1_TUNINGPARM_LITE_QUANTIFIER:
3101:D:/Git/VL53L1/lib/core/src\vl53l1_api_core.c **** 		*ptuning_parm_value =
 4908              		.loc 1 3101 3 is_stmt 1 view .LVU1655
3102:D:/Git/VL53L1/lib/core/src\vl53l1_api_core.c **** 				(int32_t)pdev->tuning_parms.tp_lite_quantifier;
 4909              		.loc 1 3102 32 is_stmt 0 view .LVU1656
 4910 013e 90F8C730 		ldrb	r3, [r0, #199]	@ zero_extendqisi2
3101:D:/Git/VL53L1/lib/core/src\vl53l1_api_core.c **** 				(int32_t)pdev->tuning_parms.tp_lite_quantifier;
 4911              		.loc 1 3101 23 view .LVU1657
 4912 0142 1360     		str	r3, [r2]
3103:D:/Git/VL53L1/lib/core/src\vl53l1_api_core.c **** 	break;
 4913              		.loc 1 3103 2 is_stmt 1 view .LVU1658
3016:D:/Git/VL53L1/lib/core/src\vl53l1_api_core.c **** 
 4914              		.loc 1 3016 16 is_stmt 0 view .LVU1659
 4915 0144 0020     		movs	r0, #0
 4916              	.LVL455:
 4917              		.loc 1 3103 2 view .LVU1660
 4918 0146 7047     		bx	lr
 4919              	.LVL456:
 4920              	.L287:
3104:D:/Git/VL53L1/lib/core/src\vl53l1_api_core.c **** 	case VL53L1_TUNINGPARM_LITE_FIRST_ORDER_SELECT:
3105:D:/Git/VL53L1/lib/core/src\vl53l1_api_core.c **** 		*ptuning_parm_value =
 4921              		.loc 1 3105 3 is_stmt 1 view .LVU1661
3106:D:/Git/VL53L1/lib/core/src\vl53l1_api_core.c **** 				(int32_t)pdev->tuning_parms.tp_lite_first_order_select;
 4922              		.loc 1 3106 32 is_stmt 0 view .LVU1662
 4923 0148 90F8C830 		ldrb	r3, [r0, #200]	@ zero_extendqisi2
3105:D:/Git/VL53L1/lib/core/src\vl53l1_api_core.c **** 				(int32_t)pdev->tuning_parms.tp_lite_first_order_select;
 4924              		.loc 1 3105 23 view .LVU1663
 4925 014c 1360     		str	r3, [r2]
3107:D:/Git/VL53L1/lib/core/src\vl53l1_api_core.c **** 	break;
 4926              		.loc 1 3107 2 is_stmt 1 view .LVU1664
3016:D:/Git/VL53L1/lib/core/src\vl53l1_api_core.c **** 
 4927              		.loc 1 3016 16 is_stmt 0 view .LVU1665
 4928 014e 0020     		movs	r0, #0
 4929              	.LVL457:
 4930              		.loc 1 3107 2 view .LVU1666
 4931 0150 7047     		bx	lr
 4932              	.LVL458:
 4933              	.L286:
3108:D:/Git/VL53L1/lib/core/src\vl53l1_api_core.c **** 	case VL53L1_TUNINGPARM_LITE_XTALK_MARGIN_KCPS:
3109:D:/Git/VL53L1/lib/core/src\vl53l1_api_core.c **** 		*ptuning_parm_value =
 4934              		.loc 1 3109 3 is_stmt 1 view .LVU1667
3110:D:/Git/VL53L1/lib/core/src\vl53l1_api_core.c **** 				(int32_t)pdev->xtalk_cfg.lite_mode_crosstalk_margin_kcps;
 4935              		.loc 1 3110 29 is_stmt 0 view .LVU1668
ARM GAS  C:\Users\Berbardo\AppData\Local\Temp\ccBMvrJ9.s 			page 151


 4936 0152 B0F93E31 		ldrsh	r3, [r0, #318]
3109:D:/Git/VL53L1/lib/core/src\vl53l1_api_core.c **** 				(int32_t)pdev->xtalk_cfg.lite_mode_crosstalk_margin_kcps;
 4937              		.loc 1 3109 23 view .LVU1669
 4938 0156 1360     		str	r3, [r2]
3111:D:/Git/VL53L1/lib/core/src\vl53l1_api_core.c **** 	break;
 4939              		.loc 1 3111 2 is_stmt 1 view .LVU1670
3016:D:/Git/VL53L1/lib/core/src\vl53l1_api_core.c **** 
 4940              		.loc 1 3016 16 is_stmt 0 view .LVU1671
 4941 0158 0020     		movs	r0, #0
 4942              	.LVL459:
 4943              		.loc 1 3111 2 view .LVU1672
 4944 015a 7047     		bx	lr
 4945              	.LVL460:
 4946              	.L285:
3112:D:/Git/VL53L1/lib/core/src\vl53l1_api_core.c **** 	case VL53L1_TUNINGPARM_INITIAL_PHASE_RTN_LITE_LONG_RANGE:
3113:D:/Git/VL53L1/lib/core/src\vl53l1_api_core.c **** 		*ptuning_parm_value =
 4947              		.loc 1 3113 3 is_stmt 1 view .LVU1673
3114:D:/Git/VL53L1/lib/core/src\vl53l1_api_core.c **** 				(int32_t)pdev->tuning_parms.tp_init_phase_rtn_lite_long;
 4948              		.loc 1 3114 32 is_stmt 0 view .LVU1674
 4949 015c 90F8AA30 		ldrb	r3, [r0, #170]	@ zero_extendqisi2
3113:D:/Git/VL53L1/lib/core/src\vl53l1_api_core.c **** 				(int32_t)pdev->tuning_parms.tp_init_phase_rtn_lite_long;
 4950              		.loc 1 3113 23 view .LVU1675
 4951 0160 1360     		str	r3, [r2]
3115:D:/Git/VL53L1/lib/core/src\vl53l1_api_core.c **** 	break;
 4952              		.loc 1 3115 2 is_stmt 1 view .LVU1676
3016:D:/Git/VL53L1/lib/core/src\vl53l1_api_core.c **** 
 4953              		.loc 1 3016 16 is_stmt 0 view .LVU1677
 4954 0162 0020     		movs	r0, #0
 4955              	.LVL461:
 4956              		.loc 1 3115 2 view .LVU1678
 4957 0164 7047     		bx	lr
 4958              	.LVL462:
 4959              	.L284:
3116:D:/Git/VL53L1/lib/core/src\vl53l1_api_core.c **** 	case VL53L1_TUNINGPARM_INITIAL_PHASE_RTN_LITE_MED_RANGE:
3117:D:/Git/VL53L1/lib/core/src\vl53l1_api_core.c **** 		*ptuning_parm_value =
 4960              		.loc 1 3117 3 is_stmt 1 view .LVU1679
3118:D:/Git/VL53L1/lib/core/src\vl53l1_api_core.c **** 				(int32_t)pdev->tuning_parms.tp_init_phase_rtn_lite_med;
 4961              		.loc 1 3118 32 is_stmt 0 view .LVU1680
 4962 0166 90F8AB30 		ldrb	r3, [r0, #171]	@ zero_extendqisi2
3117:D:/Git/VL53L1/lib/core/src\vl53l1_api_core.c **** 				(int32_t)pdev->tuning_parms.tp_init_phase_rtn_lite_med;
 4963              		.loc 1 3117 23 view .LVU1681
 4964 016a 1360     		str	r3, [r2]
3119:D:/Git/VL53L1/lib/core/src\vl53l1_api_core.c **** 	break;
 4965              		.loc 1 3119 2 is_stmt 1 view .LVU1682
3016:D:/Git/VL53L1/lib/core/src\vl53l1_api_core.c **** 
 4966              		.loc 1 3016 16 is_stmt 0 view .LVU1683
 4967 016c 0020     		movs	r0, #0
 4968              	.LVL463:
 4969              		.loc 1 3119 2 view .LVU1684
 4970 016e 7047     		bx	lr
 4971              	.LVL464:
 4972              	.L283:
3120:D:/Git/VL53L1/lib/core/src\vl53l1_api_core.c **** 	case VL53L1_TUNINGPARM_INITIAL_PHASE_RTN_LITE_SHORT_RANGE:
3121:D:/Git/VL53L1/lib/core/src\vl53l1_api_core.c **** 		*ptuning_parm_value =
 4973              		.loc 1 3121 3 is_stmt 1 view .LVU1685
3122:D:/Git/VL53L1/lib/core/src\vl53l1_api_core.c **** 				(int32_t)pdev->tuning_parms.tp_init_phase_rtn_lite_short;
 4974              		.loc 1 3122 32 is_stmt 0 view .LVU1686
ARM GAS  C:\Users\Berbardo\AppData\Local\Temp\ccBMvrJ9.s 			page 152


 4975 0170 90F8AC30 		ldrb	r3, [r0, #172]	@ zero_extendqisi2
3121:D:/Git/VL53L1/lib/core/src\vl53l1_api_core.c **** 				(int32_t)pdev->tuning_parms.tp_init_phase_rtn_lite_short;
 4976              		.loc 1 3121 23 view .LVU1687
 4977 0174 1360     		str	r3, [r2]
3123:D:/Git/VL53L1/lib/core/src\vl53l1_api_core.c **** 	break;
 4978              		.loc 1 3123 2 is_stmt 1 view .LVU1688
3016:D:/Git/VL53L1/lib/core/src\vl53l1_api_core.c **** 
 4979              		.loc 1 3016 16 is_stmt 0 view .LVU1689
 4980 0176 0020     		movs	r0, #0
 4981              	.LVL465:
 4982              		.loc 1 3123 2 view .LVU1690
 4983 0178 7047     		bx	lr
 4984              	.LVL466:
 4985              	.L282:
3124:D:/Git/VL53L1/lib/core/src\vl53l1_api_core.c **** 	case VL53L1_TUNINGPARM_INITIAL_PHASE_REF_LITE_LONG_RANGE:
3125:D:/Git/VL53L1/lib/core/src\vl53l1_api_core.c **** 		*ptuning_parm_value =
 4986              		.loc 1 3125 3 is_stmt 1 view .LVU1691
3126:D:/Git/VL53L1/lib/core/src\vl53l1_api_core.c **** 				(int32_t)pdev->tuning_parms.tp_init_phase_ref_lite_long;
 4987              		.loc 1 3126 32 is_stmt 0 view .LVU1692
 4988 017a 90F8AD30 		ldrb	r3, [r0, #173]	@ zero_extendqisi2
3125:D:/Git/VL53L1/lib/core/src\vl53l1_api_core.c **** 				(int32_t)pdev->tuning_parms.tp_init_phase_ref_lite_long;
 4989              		.loc 1 3125 23 view .LVU1693
 4990 017e 1360     		str	r3, [r2]
3127:D:/Git/VL53L1/lib/core/src\vl53l1_api_core.c **** 	break;
 4991              		.loc 1 3127 2 is_stmt 1 view .LVU1694
3016:D:/Git/VL53L1/lib/core/src\vl53l1_api_core.c **** 
 4992              		.loc 1 3016 16 is_stmt 0 view .LVU1695
 4993 0180 0020     		movs	r0, #0
 4994              	.LVL467:
 4995              		.loc 1 3127 2 view .LVU1696
 4996 0182 7047     		bx	lr
 4997              	.LVL468:
 4998              	.L281:
3128:D:/Git/VL53L1/lib/core/src\vl53l1_api_core.c **** 	case VL53L1_TUNINGPARM_INITIAL_PHASE_REF_LITE_MED_RANGE:
3129:D:/Git/VL53L1/lib/core/src\vl53l1_api_core.c **** 		*ptuning_parm_value =
 4999              		.loc 1 3129 3 is_stmt 1 view .LVU1697
3130:D:/Git/VL53L1/lib/core/src\vl53l1_api_core.c **** 				(int32_t)pdev->tuning_parms.tp_init_phase_ref_lite_med;
 5000              		.loc 1 3130 32 is_stmt 0 view .LVU1698
 5001 0184 90F8AE30 		ldrb	r3, [r0, #174]	@ zero_extendqisi2
3129:D:/Git/VL53L1/lib/core/src\vl53l1_api_core.c **** 				(int32_t)pdev->tuning_parms.tp_init_phase_ref_lite_med;
 5002              		.loc 1 3129 23 view .LVU1699
 5003 0188 1360     		str	r3, [r2]
3131:D:/Git/VL53L1/lib/core/src\vl53l1_api_core.c **** 	break;
 5004              		.loc 1 3131 2 is_stmt 1 view .LVU1700
3016:D:/Git/VL53L1/lib/core/src\vl53l1_api_core.c **** 
 5005              		.loc 1 3016 16 is_stmt 0 view .LVU1701
 5006 018a 0020     		movs	r0, #0
 5007              	.LVL469:
 5008              		.loc 1 3131 2 view .LVU1702
 5009 018c 7047     		bx	lr
 5010              	.LVL470:
 5011              	.L280:
3132:D:/Git/VL53L1/lib/core/src\vl53l1_api_core.c **** 	case VL53L1_TUNINGPARM_INITIAL_PHASE_REF_LITE_SHORT_RANGE:
3133:D:/Git/VL53L1/lib/core/src\vl53l1_api_core.c **** 		*ptuning_parm_value =
 5012              		.loc 1 3133 3 is_stmt 1 view .LVU1703
3134:D:/Git/VL53L1/lib/core/src\vl53l1_api_core.c **** 				(int32_t)pdev->tuning_parms.tp_init_phase_ref_lite_short;
 5013              		.loc 1 3134 32 is_stmt 0 view .LVU1704
ARM GAS  C:\Users\Berbardo\AppData\Local\Temp\ccBMvrJ9.s 			page 153


 5014 018e 90F8AF30 		ldrb	r3, [r0, #175]	@ zero_extendqisi2
3133:D:/Git/VL53L1/lib/core/src\vl53l1_api_core.c **** 				(int32_t)pdev->tuning_parms.tp_init_phase_ref_lite_short;
 5015              		.loc 1 3133 23 view .LVU1705
 5016 0192 1360     		str	r3, [r2]
3135:D:/Git/VL53L1/lib/core/src\vl53l1_api_core.c **** 	break;
 5017              		.loc 1 3135 2 is_stmt 1 view .LVU1706
3016:D:/Git/VL53L1/lib/core/src\vl53l1_api_core.c **** 
 5018              		.loc 1 3016 16 is_stmt 0 view .LVU1707
 5019 0194 0020     		movs	r0, #0
 5020              	.LVL471:
 5021              		.loc 1 3135 2 view .LVU1708
 5022 0196 7047     		bx	lr
 5023              	.LVL472:
 5024              	.L279:
3136:D:/Git/VL53L1/lib/core/src\vl53l1_api_core.c **** 	case VL53L1_TUNINGPARM_TIMED_SEED_CONFIG:
3137:D:/Git/VL53L1/lib/core/src\vl53l1_api_core.c **** 		*ptuning_parm_value =
 5025              		.loc 1 3137 3 is_stmt 1 view .LVU1709
3138:D:/Git/VL53L1/lib/core/src\vl53l1_api_core.c **** 				(int32_t)pdev->tuning_parms.tp_timed_seed_cfg;
 5026              		.loc 1 3138 32 is_stmt 0 view .LVU1710
 5027 0198 90F8C630 		ldrb	r3, [r0, #198]	@ zero_extendqisi2
3137:D:/Git/VL53L1/lib/core/src\vl53l1_api_core.c **** 				(int32_t)pdev->tuning_parms.tp_timed_seed_cfg;
 5028              		.loc 1 3137 23 view .LVU1711
 5029 019c 1360     		str	r3, [r2]
3139:D:/Git/VL53L1/lib/core/src\vl53l1_api_core.c **** 	break;
 5030              		.loc 1 3139 2 is_stmt 1 view .LVU1712
3016:D:/Git/VL53L1/lib/core/src\vl53l1_api_core.c **** 
 5031              		.loc 1 3016 16 is_stmt 0 view .LVU1713
 5032 019e 0020     		movs	r0, #0
 5033              	.LVL473:
 5034              		.loc 1 3139 2 view .LVU1714
 5035 01a0 7047     		bx	lr
 5036              	.LVL474:
 5037              	.L278:
3140:D:/Git/VL53L1/lib/core/src\vl53l1_api_core.c **** 	case VL53L1_TUNINGPARM_VHV_LOOPBOUND:
3141:D:/Git/VL53L1/lib/core/src\vl53l1_api_core.c **** 		*ptuning_parm_value =
 5038              		.loc 1 3141 3 is_stmt 1 view .LVU1715
3142:D:/Git/VL53L1/lib/core/src\vl53l1_api_core.c **** 				(int32_t)pdev->stat_nvm.vhv_config__timeout_macrop_loop_bound;
 5039              		.loc 1 3142 28 is_stmt 0 view .LVU1716
 5040 01a2 90F86031 		ldrb	r3, [r0, #352]	@ zero_extendqisi2
3141:D:/Git/VL53L1/lib/core/src\vl53l1_api_core.c **** 				(int32_t)pdev->stat_nvm.vhv_config__timeout_macrop_loop_bound;
 5041              		.loc 1 3141 23 view .LVU1717
 5042 01a6 1360     		str	r3, [r2]
3143:D:/Git/VL53L1/lib/core/src\vl53l1_api_core.c **** 	break;
 5043              		.loc 1 3143 2 is_stmt 1 view .LVU1718
3016:D:/Git/VL53L1/lib/core/src\vl53l1_api_core.c **** 
 5044              		.loc 1 3016 16 is_stmt 0 view .LVU1719
 5045 01a8 0020     		movs	r0, #0
 5046              	.LVL475:
 5047              		.loc 1 3143 2 view .LVU1720
 5048 01aa 7047     		bx	lr
 5049              	.LVL476:
 5050              	.L277:
3144:D:/Git/VL53L1/lib/core/src\vl53l1_api_core.c **** 	case VL53L1_TUNINGPARM_REFSPADCHAR_DEVICE_TEST_MODE:
3145:D:/Git/VL53L1/lib/core/src\vl53l1_api_core.c **** 		*ptuning_parm_value =
 5051              		.loc 1 3145 3 is_stmt 1 view .LVU1721
3146:D:/Git/VL53L1/lib/core/src\vl53l1_api_core.c **** 				(int32_t)pdev->refspadchar.device_test_mode;
 5052              		.loc 1 3146 31 is_stmt 0 view .LVU1722
ARM GAS  C:\Users\Berbardo\AppData\Local\Temp\ccBMvrJ9.s 			page 154


 5053 01ac 90F81031 		ldrb	r3, [r0, #272]	@ zero_extendqisi2
3145:D:/Git/VL53L1/lib/core/src\vl53l1_api_core.c **** 				(int32_t)pdev->refspadchar.device_test_mode;
 5054              		.loc 1 3145 23 view .LVU1723
 5055 01b0 1360     		str	r3, [r2]
3147:D:/Git/VL53L1/lib/core/src\vl53l1_api_core.c **** 	break;
 5056              		.loc 1 3147 2 is_stmt 1 view .LVU1724
3016:D:/Git/VL53L1/lib/core/src\vl53l1_api_core.c **** 
 5057              		.loc 1 3016 16 is_stmt 0 view .LVU1725
 5058 01b2 0020     		movs	r0, #0
 5059              	.LVL477:
 5060              		.loc 1 3147 2 view .LVU1726
 5061 01b4 7047     		bx	lr
 5062              	.LVL478:
 5063              	.L276:
3148:D:/Git/VL53L1/lib/core/src\vl53l1_api_core.c **** 	case VL53L1_TUNINGPARM_REFSPADCHAR_VCSEL_PERIOD:
3149:D:/Git/VL53L1/lib/core/src\vl53l1_api_core.c **** 		*ptuning_parm_value =
 5064              		.loc 1 3149 3 is_stmt 1 view .LVU1727
3150:D:/Git/VL53L1/lib/core/src\vl53l1_api_core.c **** 				(int32_t)pdev->refspadchar.vcsel_period;
 5065              		.loc 1 3150 31 is_stmt 0 view .LVU1728
 5066 01b6 90F81131 		ldrb	r3, [r0, #273]	@ zero_extendqisi2
3149:D:/Git/VL53L1/lib/core/src\vl53l1_api_core.c **** 				(int32_t)pdev->refspadchar.vcsel_period;
 5067              		.loc 1 3149 23 view .LVU1729
 5068 01ba 1360     		str	r3, [r2]
3151:D:/Git/VL53L1/lib/core/src\vl53l1_api_core.c **** 	break;
 5069              		.loc 1 3151 2 is_stmt 1 view .LVU1730
3016:D:/Git/VL53L1/lib/core/src\vl53l1_api_core.c **** 
 5070              		.loc 1 3016 16 is_stmt 0 view .LVU1731
 5071 01bc 0020     		movs	r0, #0
 5072              	.LVL479:
 5073              		.loc 1 3151 2 view .LVU1732
 5074 01be 7047     		bx	lr
 5075              	.LVL480:
 5076              	.L275:
3152:D:/Git/VL53L1/lib/core/src\vl53l1_api_core.c **** 	case VL53L1_TUNINGPARM_REFSPADCHAR_PHASECAL_TIMEOUT_US:
3153:D:/Git/VL53L1/lib/core/src\vl53l1_api_core.c **** 		*ptuning_parm_value =
 5077              		.loc 1 3153 3 is_stmt 1 view .LVU1733
3154:D:/Git/VL53L1/lib/core/src\vl53l1_api_core.c **** 				(int32_t)pdev->refspadchar.timeout_us;
 5078              		.loc 1 3154 31 is_stmt 0 view .LVU1734
 5079 01c0 D0F81431 		ldr	r3, [r0, #276]
3153:D:/Git/VL53L1/lib/core/src\vl53l1_api_core.c **** 				(int32_t)pdev->refspadchar.timeout_us;
 5080              		.loc 1 3153 23 view .LVU1735
 5081 01c4 1360     		str	r3, [r2]
3155:D:/Git/VL53L1/lib/core/src\vl53l1_api_core.c **** 	break;
 5082              		.loc 1 3155 2 is_stmt 1 view .LVU1736
3016:D:/Git/VL53L1/lib/core/src\vl53l1_api_core.c **** 
 5083              		.loc 1 3016 16 is_stmt 0 view .LVU1737
 5084 01c6 0020     		movs	r0, #0
 5085              	.LVL481:
 5086              		.loc 1 3155 2 view .LVU1738
 5087 01c8 7047     		bx	lr
 5088              	.LVL482:
 5089              	.L274:
3156:D:/Git/VL53L1/lib/core/src\vl53l1_api_core.c **** 	case VL53L1_TUNINGPARM_REFSPADCHAR_TARGET_COUNT_RATE_MCPS:
3157:D:/Git/VL53L1/lib/core/src\vl53l1_api_core.c **** 		*ptuning_parm_value =
 5090              		.loc 1 3157 3 is_stmt 1 view .LVU1739
3158:D:/Git/VL53L1/lib/core/src\vl53l1_api_core.c **** 				(int32_t)pdev->refspadchar.target_count_rate_mcps;
 5091              		.loc 1 3158 31 is_stmt 0 view .LVU1740
ARM GAS  C:\Users\Berbardo\AppData\Local\Temp\ccBMvrJ9.s 			page 155


 5092 01ca B0F81831 		ldrh	r3, [r0, #280]
3157:D:/Git/VL53L1/lib/core/src\vl53l1_api_core.c **** 				(int32_t)pdev->refspadchar.target_count_rate_mcps;
 5093              		.loc 1 3157 23 view .LVU1741
 5094 01ce 1360     		str	r3, [r2]
3159:D:/Git/VL53L1/lib/core/src\vl53l1_api_core.c **** 	break;
 5095              		.loc 1 3159 2 is_stmt 1 view .LVU1742
3016:D:/Git/VL53L1/lib/core/src\vl53l1_api_core.c **** 
 5096              		.loc 1 3016 16 is_stmt 0 view .LVU1743
 5097 01d0 0020     		movs	r0, #0
 5098              	.LVL483:
 5099              		.loc 1 3159 2 view .LVU1744
 5100 01d2 7047     		bx	lr
 5101              	.LVL484:
 5102              	.L273:
3160:D:/Git/VL53L1/lib/core/src\vl53l1_api_core.c **** 	case VL53L1_TUNINGPARM_REFSPADCHAR_MIN_COUNTRATE_LIMIT_MCPS:
3161:D:/Git/VL53L1/lib/core/src\vl53l1_api_core.c **** 		*ptuning_parm_value =
 5103              		.loc 1 3161 3 is_stmt 1 view .LVU1745
3162:D:/Git/VL53L1/lib/core/src\vl53l1_api_core.c **** 				(int32_t)pdev->refspadchar.min_count_rate_limit_mcps;
 5104              		.loc 1 3162 31 is_stmt 0 view .LVU1746
 5105 01d4 B0F81A31 		ldrh	r3, [r0, #282]
3161:D:/Git/VL53L1/lib/core/src\vl53l1_api_core.c **** 				(int32_t)pdev->refspadchar.min_count_rate_limit_mcps;
 5106              		.loc 1 3161 23 view .LVU1747
 5107 01d8 1360     		str	r3, [r2]
3163:D:/Git/VL53L1/lib/core/src\vl53l1_api_core.c **** 	break;
 5108              		.loc 1 3163 2 is_stmt 1 view .LVU1748
3016:D:/Git/VL53L1/lib/core/src\vl53l1_api_core.c **** 
 5109              		.loc 1 3016 16 is_stmt 0 view .LVU1749
 5110 01da 0020     		movs	r0, #0
 5111              	.LVL485:
 5112              		.loc 1 3163 2 view .LVU1750
 5113 01dc 7047     		bx	lr
 5114              	.LVL486:
 5115              	.L272:
3164:D:/Git/VL53L1/lib/core/src\vl53l1_api_core.c **** 	case VL53L1_TUNINGPARM_REFSPADCHAR_MAX_COUNTRATE_LIMIT_MCPS:
3165:D:/Git/VL53L1/lib/core/src\vl53l1_api_core.c **** 		*ptuning_parm_value =
 5116              		.loc 1 3165 3 is_stmt 1 view .LVU1751
3166:D:/Git/VL53L1/lib/core/src\vl53l1_api_core.c **** 				(int32_t)pdev->refspadchar.max_count_rate_limit_mcps;
 5117              		.loc 1 3166 31 is_stmt 0 view .LVU1752
 5118 01de B0F81C31 		ldrh	r3, [r0, #284]
3165:D:/Git/VL53L1/lib/core/src\vl53l1_api_core.c **** 				(int32_t)pdev->refspadchar.max_count_rate_limit_mcps;
 5119              		.loc 1 3165 23 view .LVU1753
 5120 01e2 1360     		str	r3, [r2]
3167:D:/Git/VL53L1/lib/core/src\vl53l1_api_core.c **** 	break;
 5121              		.loc 1 3167 2 is_stmt 1 view .LVU1754
3016:D:/Git/VL53L1/lib/core/src\vl53l1_api_core.c **** 
 5122              		.loc 1 3016 16 is_stmt 0 view .LVU1755
 5123 01e4 0020     		movs	r0, #0
 5124              	.LVL487:
 5125              		.loc 1 3167 2 view .LVU1756
 5126 01e6 7047     		bx	lr
 5127              	.LVL488:
 5128              	.L271:
3168:D:/Git/VL53L1/lib/core/src\vl53l1_api_core.c **** 	case VL53L1_TUNINGPARM_OFFSET_CAL_DSS_RATE_MCPS:
3169:D:/Git/VL53L1/lib/core/src\vl53l1_api_core.c **** 		*ptuning_parm_value =
 5129              		.loc 1 3169 3 is_stmt 1 view .LVU1757
3170:D:/Git/VL53L1/lib/core/src\vl53l1_api_core.c **** 				(int32_t)pdev->offsetcal_cfg.dss_config__target_total_rate_mcps;;
 5130              		.loc 1 3170 33 is_stmt 0 view .LVU1758
ARM GAS  C:\Users\Berbardo\AppData\Local\Temp\ccBMvrJ9.s 			page 156


 5131 01e8 B0F84431 		ldrh	r3, [r0, #324]
3169:D:/Git/VL53L1/lib/core/src\vl53l1_api_core.c **** 				(int32_t)pdev->offsetcal_cfg.dss_config__target_total_rate_mcps;;
 5132              		.loc 1 3169 23 view .LVU1759
 5133 01ec 1360     		str	r3, [r2]
 5134              		.loc 1 3170 69 is_stmt 1 view .LVU1760
3171:D:/Git/VL53L1/lib/core/src\vl53l1_api_core.c **** 	break;
 5135              		.loc 1 3171 2 view .LVU1761
3016:D:/Git/VL53L1/lib/core/src\vl53l1_api_core.c **** 
 5136              		.loc 1 3016 16 is_stmt 0 view .LVU1762
 5137 01ee 0020     		movs	r0, #0
 5138              	.LVL489:
 5139              		.loc 1 3171 2 view .LVU1763
 5140 01f0 7047     		bx	lr
 5141              	.LVL490:
 5142              	.L270:
3172:D:/Git/VL53L1/lib/core/src\vl53l1_api_core.c **** 	case VL53L1_TUNINGPARM_OFFSET_CAL_PHASECAL_TIMEOUT_US:
3173:D:/Git/VL53L1/lib/core/src\vl53l1_api_core.c **** 		*ptuning_parm_value =
 5143              		.loc 1 3173 3 is_stmt 1 view .LVU1764
3174:D:/Git/VL53L1/lib/core/src\vl53l1_api_core.c **** 				(int32_t)pdev->offsetcal_cfg.phasecal_config_timeout_us;
 5144              		.loc 1 3174 33 is_stmt 0 view .LVU1765
 5145 01f2 D0F84831 		ldr	r3, [r0, #328]
3173:D:/Git/VL53L1/lib/core/src\vl53l1_api_core.c **** 				(int32_t)pdev->offsetcal_cfg.phasecal_config_timeout_us;
 5146              		.loc 1 3173 23 view .LVU1766
 5147 01f6 1360     		str	r3, [r2]
3175:D:/Git/VL53L1/lib/core/src\vl53l1_api_core.c **** 	break;
 5148              		.loc 1 3175 2 is_stmt 1 view .LVU1767
3016:D:/Git/VL53L1/lib/core/src\vl53l1_api_core.c **** 
 5149              		.loc 1 3016 16 is_stmt 0 view .LVU1768
 5150 01f8 0020     		movs	r0, #0
 5151              	.LVL491:
 5152              		.loc 1 3175 2 view .LVU1769
 5153 01fa 7047     		bx	lr
 5154              	.LVL492:
 5155              	.L269:
3176:D:/Git/VL53L1/lib/core/src\vl53l1_api_core.c **** 	case VL53L1_TUNINGPARM_OFFSET_CAL_MM_TIMEOUT_US:
3177:D:/Git/VL53L1/lib/core/src\vl53l1_api_core.c **** 		*ptuning_parm_value =
 5156              		.loc 1 3177 3 is_stmt 1 view .LVU1770
3178:D:/Git/VL53L1/lib/core/src\vl53l1_api_core.c **** 				(int32_t)pdev->offsetcal_cfg.mm_config_timeout_us;
 5157              		.loc 1 3178 33 is_stmt 0 view .LVU1771
 5158 01fc D0F85031 		ldr	r3, [r0, #336]
3177:D:/Git/VL53L1/lib/core/src\vl53l1_api_core.c **** 				(int32_t)pdev->offsetcal_cfg.mm_config_timeout_us;
 5159              		.loc 1 3177 23 view .LVU1772
 5160 0200 1360     		str	r3, [r2]
3179:D:/Git/VL53L1/lib/core/src\vl53l1_api_core.c **** 	break;
 5161              		.loc 1 3179 2 is_stmt 1 view .LVU1773
3016:D:/Git/VL53L1/lib/core/src\vl53l1_api_core.c **** 
 5162              		.loc 1 3016 16 is_stmt 0 view .LVU1774
 5163 0202 0020     		movs	r0, #0
 5164              	.LVL493:
 5165              		.loc 1 3179 2 view .LVU1775
 5166 0204 7047     		bx	lr
 5167              	.LVL494:
 5168              	.L268:
3180:D:/Git/VL53L1/lib/core/src\vl53l1_api_core.c **** 	case VL53L1_TUNINGPARM_OFFSET_CAL_RANGE_TIMEOUT_US:
3181:D:/Git/VL53L1/lib/core/src\vl53l1_api_core.c **** 		*ptuning_parm_value =
 5169              		.loc 1 3181 3 is_stmt 1 view .LVU1776
3182:D:/Git/VL53L1/lib/core/src\vl53l1_api_core.c **** 				(int32_t)pdev->offsetcal_cfg.range_config_timeout_us;
ARM GAS  C:\Users\Berbardo\AppData\Local\Temp\ccBMvrJ9.s 			page 157


 5170              		.loc 1 3182 33 is_stmt 0 view .LVU1777
 5171 0206 D0F84C31 		ldr	r3, [r0, #332]
3181:D:/Git/VL53L1/lib/core/src\vl53l1_api_core.c **** 				(int32_t)pdev->offsetcal_cfg.range_config_timeout_us;
 5172              		.loc 1 3181 23 view .LVU1778
 5173 020a 1360     		str	r3, [r2]
3183:D:/Git/VL53L1/lib/core/src\vl53l1_api_core.c **** 	break;
 5174              		.loc 1 3183 2 is_stmt 1 view .LVU1779
3016:D:/Git/VL53L1/lib/core/src\vl53l1_api_core.c **** 
 5175              		.loc 1 3016 16 is_stmt 0 view .LVU1780
 5176 020c 0020     		movs	r0, #0
 5177              	.LVL495:
 5178              		.loc 1 3183 2 view .LVU1781
 5179 020e 7047     		bx	lr
 5180              	.LVL496:
 5181              	.L267:
3184:D:/Git/VL53L1/lib/core/src\vl53l1_api_core.c **** 	case VL53L1_TUNINGPARM_OFFSET_CAL_PRE_SAMPLES:
3185:D:/Git/VL53L1/lib/core/src\vl53l1_api_core.c **** 		*ptuning_parm_value =
 5182              		.loc 1 3185 3 is_stmt 1 view .LVU1782
3186:D:/Git/VL53L1/lib/core/src\vl53l1_api_core.c **** 				(int32_t)pdev->offsetcal_cfg.pre_num_of_samples;
 5183              		.loc 1 3186 33 is_stmt 0 view .LVU1783
 5184 0210 90F85431 		ldrb	r3, [r0, #340]	@ zero_extendqisi2
3185:D:/Git/VL53L1/lib/core/src\vl53l1_api_core.c **** 				(int32_t)pdev->offsetcal_cfg.pre_num_of_samples;
 5185              		.loc 1 3185 23 view .LVU1784
 5186 0214 1360     		str	r3, [r2]
3187:D:/Git/VL53L1/lib/core/src\vl53l1_api_core.c **** 	break;
 5187              		.loc 1 3187 2 is_stmt 1 view .LVU1785
3016:D:/Git/VL53L1/lib/core/src\vl53l1_api_core.c **** 
 5188              		.loc 1 3016 16 is_stmt 0 view .LVU1786
 5189 0216 0020     		movs	r0, #0
 5190              	.LVL497:
 5191              		.loc 1 3187 2 view .LVU1787
 5192 0218 7047     		bx	lr
 5193              	.LVL498:
 5194              	.L266:
3188:D:/Git/VL53L1/lib/core/src\vl53l1_api_core.c **** 	case VL53L1_TUNINGPARM_OFFSET_CAL_MM1_SAMPLES:
3189:D:/Git/VL53L1/lib/core/src\vl53l1_api_core.c **** 		*ptuning_parm_value =
 5195              		.loc 1 3189 3 is_stmt 1 view .LVU1788
3190:D:/Git/VL53L1/lib/core/src\vl53l1_api_core.c **** 			(int32_t)pdev->offsetcal_cfg.mm1_num_of_samples;
 5196              		.loc 1 3190 32 is_stmt 0 view .LVU1789
 5197 021a 90F85531 		ldrb	r3, [r0, #341]	@ zero_extendqisi2
3189:D:/Git/VL53L1/lib/core/src\vl53l1_api_core.c **** 			(int32_t)pdev->offsetcal_cfg.mm1_num_of_samples;
 5198              		.loc 1 3189 23 view .LVU1790
 5199 021e 1360     		str	r3, [r2]
3191:D:/Git/VL53L1/lib/core/src\vl53l1_api_core.c **** 	break;
 5200              		.loc 1 3191 2 is_stmt 1 view .LVU1791
3016:D:/Git/VL53L1/lib/core/src\vl53l1_api_core.c **** 
 5201              		.loc 1 3016 16 is_stmt 0 view .LVU1792
 5202 0220 0020     		movs	r0, #0
 5203              	.LVL499:
 5204              		.loc 1 3191 2 view .LVU1793
 5205 0222 7047     		bx	lr
 5206              	.LVL500:
 5207              	.L265:
3192:D:/Git/VL53L1/lib/core/src\vl53l1_api_core.c **** 	case VL53L1_TUNINGPARM_OFFSET_CAL_MM2_SAMPLES:
3193:D:/Git/VL53L1/lib/core/src\vl53l1_api_core.c **** 		*ptuning_parm_value =
 5208              		.loc 1 3193 3 is_stmt 1 view .LVU1794
3194:D:/Git/VL53L1/lib/core/src\vl53l1_api_core.c **** 				(int32_t)pdev->offsetcal_cfg.mm2_num_of_samples;
ARM GAS  C:\Users\Berbardo\AppData\Local\Temp\ccBMvrJ9.s 			page 158


 5209              		.loc 1 3194 33 is_stmt 0 view .LVU1795
 5210 0224 90F85631 		ldrb	r3, [r0, #342]	@ zero_extendqisi2
3193:D:/Git/VL53L1/lib/core/src\vl53l1_api_core.c **** 				(int32_t)pdev->offsetcal_cfg.mm2_num_of_samples;
 5211              		.loc 1 3193 23 view .LVU1796
 5212 0228 1360     		str	r3, [r2]
3195:D:/Git/VL53L1/lib/core/src\vl53l1_api_core.c **** 	break;
 5213              		.loc 1 3195 2 is_stmt 1 view .LVU1797
3016:D:/Git/VL53L1/lib/core/src\vl53l1_api_core.c **** 
 5214              		.loc 1 3016 16 is_stmt 0 view .LVU1798
 5215 022a 0020     		movs	r0, #0
 5216              	.LVL501:
 5217              		.loc 1 3195 2 view .LVU1799
 5218 022c 7047     		bx	lr
 5219              	.LVL502:
 5220              	.L264:
3196:D:/Git/VL53L1/lib/core/src\vl53l1_api_core.c **** 	case VL53L1_TUNINGPARM_SPADMAP_VCSEL_PERIOD:
3197:D:/Git/VL53L1/lib/core/src\vl53l1_api_core.c **** 		*ptuning_parm_value =
 5221              		.loc 1 3197 3 is_stmt 1 view .LVU1800
3198:D:/Git/VL53L1/lib/core/src\vl53l1_api_core.c **** 				(int32_t)pdev->ssc_cfg.vcsel_period;
 5222              		.loc 1 3198 27 is_stmt 0 view .LVU1801
 5223 022e 90F82131 		ldrb	r3, [r0, #289]	@ zero_extendqisi2
3197:D:/Git/VL53L1/lib/core/src\vl53l1_api_core.c **** 				(int32_t)pdev->ssc_cfg.vcsel_period;
 5224              		.loc 1 3197 23 view .LVU1802
 5225 0232 1360     		str	r3, [r2]
3199:D:/Git/VL53L1/lib/core/src\vl53l1_api_core.c **** 	break;
 5226              		.loc 1 3199 2 is_stmt 1 view .LVU1803
3016:D:/Git/VL53L1/lib/core/src\vl53l1_api_core.c **** 
 5227              		.loc 1 3016 16 is_stmt 0 view .LVU1804
 5228 0234 0020     		movs	r0, #0
 5229              	.LVL503:
 5230              		.loc 1 3199 2 view .LVU1805
 5231 0236 7047     		bx	lr
 5232              	.LVL504:
 5233              	.L263:
3200:D:/Git/VL53L1/lib/core/src\vl53l1_api_core.c **** 	case VL53L1_TUNINGPARM_SPADMAP_VCSEL_START:
3201:D:/Git/VL53L1/lib/core/src\vl53l1_api_core.c **** 		*ptuning_parm_value =
 5234              		.loc 1 3201 3 is_stmt 1 view .LVU1806
3202:D:/Git/VL53L1/lib/core/src\vl53l1_api_core.c **** 				(int32_t)pdev->ssc_cfg.vcsel_start;
 5235              		.loc 1 3202 27 is_stmt 0 view .LVU1807
 5236 0238 90F82231 		ldrb	r3, [r0, #290]	@ zero_extendqisi2
3201:D:/Git/VL53L1/lib/core/src\vl53l1_api_core.c **** 				(int32_t)pdev->ssc_cfg.vcsel_start;
 5237              		.loc 1 3201 23 view .LVU1808
 5238 023c 1360     		str	r3, [r2]
3203:D:/Git/VL53L1/lib/core/src\vl53l1_api_core.c **** 	break;
 5239              		.loc 1 3203 2 is_stmt 1 view .LVU1809
3016:D:/Git/VL53L1/lib/core/src\vl53l1_api_core.c **** 
 5240              		.loc 1 3016 16 is_stmt 0 view .LVU1810
 5241 023e 0020     		movs	r0, #0
 5242              	.LVL505:
 5243              		.loc 1 3203 2 view .LVU1811
 5244 0240 7047     		bx	lr
 5245              	.LVL506:
 5246              	.L262:
3204:D:/Git/VL53L1/lib/core/src\vl53l1_api_core.c **** 	case VL53L1_TUNINGPARM_SPADMAP_RATE_LIMIT_MCPS:
3205:D:/Git/VL53L1/lib/core/src\vl53l1_api_core.c **** 		*ptuning_parm_value =
 5247              		.loc 1 3205 3 is_stmt 1 view .LVU1812
3206:D:/Git/VL53L1/lib/core/src\vl53l1_api_core.c **** 				(int32_t)pdev->ssc_cfg.rate_limit_mcps;
ARM GAS  C:\Users\Berbardo\AppData\Local\Temp\ccBMvrJ9.s 			page 159


 5248              		.loc 1 3206 27 is_stmt 0 view .LVU1813
 5249 0242 B0F82831 		ldrh	r3, [r0, #296]
3205:D:/Git/VL53L1/lib/core/src\vl53l1_api_core.c **** 				(int32_t)pdev->ssc_cfg.rate_limit_mcps;
 5250              		.loc 1 3205 23 view .LVU1814
 5251 0246 1360     		str	r3, [r2]
3207:D:/Git/VL53L1/lib/core/src\vl53l1_api_core.c **** 	break;
 5252              		.loc 1 3207 2 is_stmt 1 view .LVU1815
3016:D:/Git/VL53L1/lib/core/src\vl53l1_api_core.c **** 
 5253              		.loc 1 3016 16 is_stmt 0 view .LVU1816
 5254 0248 0020     		movs	r0, #0
 5255              	.LVL507:
 5256              		.loc 1 3207 2 view .LVU1817
 5257 024a 7047     		bx	lr
 5258              	.LVL508:
 5259              	.L261:
3208:D:/Git/VL53L1/lib/core/src\vl53l1_api_core.c **** 	case VL53L1_TUNINGPARM_LITE_DSS_CONFIG_TARGET_TOTAL_RATE_MCPS:
3209:D:/Git/VL53L1/lib/core/src\vl53l1_api_core.c **** 		*ptuning_parm_value =
 5260              		.loc 1 3209 3 is_stmt 1 view .LVU1818
3210:D:/Git/VL53L1/lib/core/src\vl53l1_api_core.c **** 				(int32_t)pdev->tuning_parms.tp_dss_target_lite_mcps;
 5261              		.loc 1 3210 32 is_stmt 0 view .LVU1819
 5262 024c B0F8CA30 		ldrh	r3, [r0, #202]
3209:D:/Git/VL53L1/lib/core/src\vl53l1_api_core.c **** 				(int32_t)pdev->tuning_parms.tp_dss_target_lite_mcps;
 5263              		.loc 1 3209 23 view .LVU1820
 5264 0250 1360     		str	r3, [r2]
3211:D:/Git/VL53L1/lib/core/src\vl53l1_api_core.c **** 	break;
 5265              		.loc 1 3211 2 is_stmt 1 view .LVU1821
3016:D:/Git/VL53L1/lib/core/src\vl53l1_api_core.c **** 
 5266              		.loc 1 3016 16 is_stmt 0 view .LVU1822
 5267 0252 0020     		movs	r0, #0
 5268              	.LVL509:
 5269              		.loc 1 3211 2 view .LVU1823
 5270 0254 7047     		bx	lr
 5271              	.LVL510:
 5272              	.L260:
3212:D:/Git/VL53L1/lib/core/src\vl53l1_api_core.c **** 	case VL53L1_TUNINGPARM_TIMED_DSS_CONFIG_TARGET_TOTAL_RATE_MCPS:
3213:D:/Git/VL53L1/lib/core/src\vl53l1_api_core.c **** 		*ptuning_parm_value =
 5273              		.loc 1 3213 3 is_stmt 1 view .LVU1824
3214:D:/Git/VL53L1/lib/core/src\vl53l1_api_core.c **** 				(int32_t)pdev->tuning_parms.tp_dss_target_timed_mcps;
 5274              		.loc 1 3214 32 is_stmt 0 view .LVU1825
 5275 0256 B0F8CC30 		ldrh	r3, [r0, #204]
3213:D:/Git/VL53L1/lib/core/src\vl53l1_api_core.c **** 				(int32_t)pdev->tuning_parms.tp_dss_target_timed_mcps;
 5276              		.loc 1 3213 23 view .LVU1826
 5277 025a 1360     		str	r3, [r2]
3215:D:/Git/VL53L1/lib/core/src\vl53l1_api_core.c **** 	break;
 5278              		.loc 1 3215 2 is_stmt 1 view .LVU1827
3016:D:/Git/VL53L1/lib/core/src\vl53l1_api_core.c **** 
 5279              		.loc 1 3016 16 is_stmt 0 view .LVU1828
 5280 025c 0020     		movs	r0, #0
 5281              	.LVL511:
 5282              		.loc 1 3215 2 view .LVU1829
 5283 025e 7047     		bx	lr
 5284              	.LVL512:
 5285              	.L259:
3216:D:/Git/VL53L1/lib/core/src\vl53l1_api_core.c **** 	case VL53L1_TUNINGPARM_LITE_PHASECAL_CONFIG_TIMEOUT_US:
3217:D:/Git/VL53L1/lib/core/src\vl53l1_api_core.c **** 		*ptuning_parm_value =
 5286              		.loc 1 3217 3 is_stmt 1 view .LVU1830
3218:D:/Git/VL53L1/lib/core/src\vl53l1_api_core.c **** 				(int32_t)pdev->tuning_parms.tp_phasecal_timeout_lite_us;
ARM GAS  C:\Users\Berbardo\AppData\Local\Temp\ccBMvrJ9.s 			page 160


 5287              		.loc 1 3218 32 is_stmt 0 view .LVU1831
 5288 0260 D0F8D030 		ldr	r3, [r0, #208]
3217:D:/Git/VL53L1/lib/core/src\vl53l1_api_core.c **** 				(int32_t)pdev->tuning_parms.tp_phasecal_timeout_lite_us;
 5289              		.loc 1 3217 23 view .LVU1832
 5290 0264 1360     		str	r3, [r2]
3219:D:/Git/VL53L1/lib/core/src\vl53l1_api_core.c **** 	break;
 5291              		.loc 1 3219 2 is_stmt 1 view .LVU1833
3016:D:/Git/VL53L1/lib/core/src\vl53l1_api_core.c **** 
 5292              		.loc 1 3016 16 is_stmt 0 view .LVU1834
 5293 0266 0020     		movs	r0, #0
 5294              	.LVL513:
 5295              		.loc 1 3219 2 view .LVU1835
 5296 0268 7047     		bx	lr
 5297              	.LVL514:
 5298              	.L258:
3220:D:/Git/VL53L1/lib/core/src\vl53l1_api_core.c **** 	case VL53L1_TUNINGPARM_TIMED_PHASECAL_CONFIG_TIMEOUT_US:
3221:D:/Git/VL53L1/lib/core/src\vl53l1_api_core.c **** 		*ptuning_parm_value =
 5299              		.loc 1 3221 3 is_stmt 1 view .LVU1836
3222:D:/Git/VL53L1/lib/core/src\vl53l1_api_core.c **** 				(int32_t)pdev->tuning_parms.tp_phasecal_timeout_timed_us;
 5300              		.loc 1 3222 32 is_stmt 0 view .LVU1837
 5301 026a D0F8D430 		ldr	r3, [r0, #212]
3221:D:/Git/VL53L1/lib/core/src\vl53l1_api_core.c **** 				(int32_t)pdev->tuning_parms.tp_phasecal_timeout_timed_us;
 5302              		.loc 1 3221 23 view .LVU1838
 5303 026e 1360     		str	r3, [r2]
3223:D:/Git/VL53L1/lib/core/src\vl53l1_api_core.c **** 	break;
 5304              		.loc 1 3223 2 is_stmt 1 view .LVU1839
3016:D:/Git/VL53L1/lib/core/src\vl53l1_api_core.c **** 
 5305              		.loc 1 3016 16 is_stmt 0 view .LVU1840
 5306 0270 0020     		movs	r0, #0
 5307              	.LVL515:
 5308              		.loc 1 3223 2 view .LVU1841
 5309 0272 7047     		bx	lr
 5310              	.LVL516:
 5311              	.L257:
3224:D:/Git/VL53L1/lib/core/src\vl53l1_api_core.c **** 	case VL53L1_TUNINGPARM_LITE_MM_CONFIG_TIMEOUT_US:
3225:D:/Git/VL53L1/lib/core/src\vl53l1_api_core.c **** 		*ptuning_parm_value =
 5312              		.loc 1 3225 3 is_stmt 1 view .LVU1842
3226:D:/Git/VL53L1/lib/core/src\vl53l1_api_core.c **** 				(int32_t)pdev->tuning_parms.tp_mm_timeout_lite_us;
 5313              		.loc 1 3226 32 is_stmt 0 view .LVU1843
 5314 0274 D0F8D830 		ldr	r3, [r0, #216]
3225:D:/Git/VL53L1/lib/core/src\vl53l1_api_core.c **** 				(int32_t)pdev->tuning_parms.tp_mm_timeout_lite_us;
 5315              		.loc 1 3225 23 view .LVU1844
 5316 0278 1360     		str	r3, [r2]
3227:D:/Git/VL53L1/lib/core/src\vl53l1_api_core.c **** 	break;
 5317              		.loc 1 3227 2 is_stmt 1 view .LVU1845
3016:D:/Git/VL53L1/lib/core/src\vl53l1_api_core.c **** 
 5318              		.loc 1 3016 16 is_stmt 0 view .LVU1846
 5319 027a 0020     		movs	r0, #0
 5320              	.LVL517:
 5321              		.loc 1 3227 2 view .LVU1847
 5322 027c 7047     		bx	lr
 5323              	.LVL518:
 5324              	.L256:
3228:D:/Git/VL53L1/lib/core/src\vl53l1_api_core.c **** 	case VL53L1_TUNINGPARM_TIMED_MM_CONFIG_TIMEOUT_US:
3229:D:/Git/VL53L1/lib/core/src\vl53l1_api_core.c **** 		*ptuning_parm_value =
 5325              		.loc 1 3229 3 is_stmt 1 view .LVU1848
3230:D:/Git/VL53L1/lib/core/src\vl53l1_api_core.c **** 				(int32_t)pdev->tuning_parms.tp_mm_timeout_timed_us;
ARM GAS  C:\Users\Berbardo\AppData\Local\Temp\ccBMvrJ9.s 			page 161


 5326              		.loc 1 3230 32 is_stmt 0 view .LVU1849
 5327 027e D0F8DC30 		ldr	r3, [r0, #220]
3229:D:/Git/VL53L1/lib/core/src\vl53l1_api_core.c **** 				(int32_t)pdev->tuning_parms.tp_mm_timeout_timed_us;
 5328              		.loc 1 3229 23 view .LVU1850
 5329 0282 1360     		str	r3, [r2]
3231:D:/Git/VL53L1/lib/core/src\vl53l1_api_core.c **** 	break;
 5330              		.loc 1 3231 2 is_stmt 1 view .LVU1851
3016:D:/Git/VL53L1/lib/core/src\vl53l1_api_core.c **** 
 5331              		.loc 1 3016 16 is_stmt 0 view .LVU1852
 5332 0284 0020     		movs	r0, #0
 5333              	.LVL519:
 5334              		.loc 1 3231 2 view .LVU1853
 5335 0286 7047     		bx	lr
 5336              	.LVL520:
 5337              	.L255:
3232:D:/Git/VL53L1/lib/core/src\vl53l1_api_core.c **** 	case VL53L1_TUNINGPARM_LITE_RANGE_CONFIG_TIMEOUT_US:
3233:D:/Git/VL53L1/lib/core/src\vl53l1_api_core.c **** 		*ptuning_parm_value =
 5338              		.loc 1 3233 3 is_stmt 1 view .LVU1854
3234:D:/Git/VL53L1/lib/core/src\vl53l1_api_core.c **** 				(int32_t)pdev->tuning_parms.tp_range_timeout_lite_us;
 5339              		.loc 1 3234 32 is_stmt 0 view .LVU1855
 5340 0288 D0F8E430 		ldr	r3, [r0, #228]
3233:D:/Git/VL53L1/lib/core/src\vl53l1_api_core.c **** 				(int32_t)pdev->tuning_parms.tp_range_timeout_lite_us;
 5341              		.loc 1 3233 23 view .LVU1856
 5342 028c 1360     		str	r3, [r2]
3235:D:/Git/VL53L1/lib/core/src\vl53l1_api_core.c **** 	break;
 5343              		.loc 1 3235 2 is_stmt 1 view .LVU1857
3016:D:/Git/VL53L1/lib/core/src\vl53l1_api_core.c **** 
 5344              		.loc 1 3016 16 is_stmt 0 view .LVU1858
 5345 028e 0020     		movs	r0, #0
 5346              	.LVL521:
 5347              		.loc 1 3235 2 view .LVU1859
 5348 0290 7047     		bx	lr
 5349              	.LVL522:
 5350              	.L254:
3236:D:/Git/VL53L1/lib/core/src\vl53l1_api_core.c **** 	case VL53L1_TUNINGPARM_TIMED_RANGE_CONFIG_TIMEOUT_US:
3237:D:/Git/VL53L1/lib/core/src\vl53l1_api_core.c **** 		*ptuning_parm_value =
 5351              		.loc 1 3237 3 is_stmt 1 view .LVU1860
3238:D:/Git/VL53L1/lib/core/src\vl53l1_api_core.c **** 				(int32_t)pdev->tuning_parms.tp_range_timeout_timed_us;
 5352              		.loc 1 3238 32 is_stmt 0 view .LVU1861
 5353 0292 D0F8E830 		ldr	r3, [r0, #232]
3237:D:/Git/VL53L1/lib/core/src\vl53l1_api_core.c **** 				(int32_t)pdev->tuning_parms.tp_range_timeout_timed_us;
 5354              		.loc 1 3237 23 view .LVU1862
 5355 0296 1360     		str	r3, [r2]
3239:D:/Git/VL53L1/lib/core/src\vl53l1_api_core.c **** 	break;
 5356              		.loc 1 3239 2 is_stmt 1 view .LVU1863
3016:D:/Git/VL53L1/lib/core/src\vl53l1_api_core.c **** 
 5357              		.loc 1 3016 16 is_stmt 0 view .LVU1864
 5358 0298 0020     		movs	r0, #0
 5359              	.LVL523:
 5360              		.loc 1 3239 2 view .LVU1865
 5361 029a 7047     		bx	lr
 5362              	.LVL524:
 5363              	.L253:
3240:D:/Git/VL53L1/lib/core/src\vl53l1_api_core.c **** 	case VL53L1_TUNINGPARM_LOWPOWERAUTO_VHV_LOOP_BOUND:
3241:D:/Git/VL53L1/lib/core/src\vl53l1_api_core.c **** 		*ptuning_parm_value =
 5364              		.loc 1 3241 3 is_stmt 1 view .LVU1866
3242:D:/Git/VL53L1/lib/core/src\vl53l1_api_core.c **** 				(int32_t)pdev->low_power_auto_data.vhv_loop_bound;
ARM GAS  C:\Users\Berbardo\AppData\Local\Temp\ccBMvrJ9.s 			page 162


 5365              		.loc 1 3242 39 is_stmt 0 view .LVU1867
 5366 029c 90F8E432 		ldrb	r3, [r0, #740]	@ zero_extendqisi2
3241:D:/Git/VL53L1/lib/core/src\vl53l1_api_core.c **** 				(int32_t)pdev->low_power_auto_data.vhv_loop_bound;
 5367              		.loc 1 3241 23 view .LVU1868
 5368 02a0 1360     		str	r3, [r2]
3243:D:/Git/VL53L1/lib/core/src\vl53l1_api_core.c **** 	break;
 5369              		.loc 1 3243 2 is_stmt 1 view .LVU1869
3016:D:/Git/VL53L1/lib/core/src\vl53l1_api_core.c **** 
 5370              		.loc 1 3016 16 is_stmt 0 view .LVU1870
 5371 02a2 0020     		movs	r0, #0
 5372              	.LVL525:
 5373              		.loc 1 3243 2 view .LVU1871
 5374 02a4 7047     		bx	lr
 5375              	.LVL526:
 5376              	.L252:
3244:D:/Git/VL53L1/lib/core/src\vl53l1_api_core.c **** 	case VL53L1_TUNINGPARM_LOWPOWERAUTO_MM_CONFIG_TIMEOUT_US:
3245:D:/Git/VL53L1/lib/core/src\vl53l1_api_core.c **** 		*ptuning_parm_value =
 5377              		.loc 1 3245 3 is_stmt 1 view .LVU1872
3246:D:/Git/VL53L1/lib/core/src\vl53l1_api_core.c **** 				(int32_t)pdev->tuning_parms.tp_mm_timeout_lpa_us;
 5378              		.loc 1 3246 32 is_stmt 0 view .LVU1873
 5379 02a6 D0F8E030 		ldr	r3, [r0, #224]
3245:D:/Git/VL53L1/lib/core/src\vl53l1_api_core.c **** 				(int32_t)pdev->tuning_parms.tp_mm_timeout_lpa_us;
 5380              		.loc 1 3245 23 view .LVU1874
 5381 02aa 1360     		str	r3, [r2]
3247:D:/Git/VL53L1/lib/core/src\vl53l1_api_core.c **** 	break;
 5382              		.loc 1 3247 2 is_stmt 1 view .LVU1875
3016:D:/Git/VL53L1/lib/core/src\vl53l1_api_core.c **** 
 5383              		.loc 1 3016 16 is_stmt 0 view .LVU1876
 5384 02ac 0020     		movs	r0, #0
 5385              	.LVL527:
 5386              		.loc 1 3247 2 view .LVU1877
 5387 02ae 7047     		bx	lr
 5388              	.LVL528:
 5389              	.L250:
3248:D:/Git/VL53L1/lib/core/src\vl53l1_api_core.c **** 	case VL53L1_TUNINGPARM_LOWPOWERAUTO_RANGE_CONFIG_TIMEOUT_US:
3249:D:/Git/VL53L1/lib/core/src\vl53l1_api_core.c **** 		*ptuning_parm_value =
 5390              		.loc 1 3249 3 is_stmt 1 view .LVU1878
3250:D:/Git/VL53L1/lib/core/src\vl53l1_api_core.c **** 				(int32_t)pdev->tuning_parms.tp_range_timeout_lpa_us;
 5391              		.loc 1 3250 32 is_stmt 0 view .LVU1879
 5392 02b0 D0F8EC30 		ldr	r3, [r0, #236]
3249:D:/Git/VL53L1/lib/core/src\vl53l1_api_core.c **** 				(int32_t)pdev->tuning_parms.tp_range_timeout_lpa_us;
 5393              		.loc 1 3249 23 view .LVU1880
 5394 02b4 1360     		str	r3, [r2]
3251:D:/Git/VL53L1/lib/core/src\vl53l1_api_core.c **** 	break;
 5395              		.loc 1 3251 2 is_stmt 1 view .LVU1881
3016:D:/Git/VL53L1/lib/core/src\vl53l1_api_core.c **** 
 5396              		.loc 1 3016 16 is_stmt 0 view .LVU1882
 5397 02b6 0020     		movs	r0, #0
 5398              	.LVL529:
 5399              		.loc 1 3251 2 view .LVU1883
 5400 02b8 7047     		bx	lr
 5401              	.LVL530:
 5402              	.L249:
3252:D:/Git/VL53L1/lib/core/src\vl53l1_api_core.c **** 
3253:D:/Git/VL53L1/lib/core/src\vl53l1_api_core.c **** 
3254:D:/Git/VL53L1/lib/core/src\vl53l1_api_core.c **** 	default:
3255:D:/Git/VL53L1/lib/core/src\vl53l1_api_core.c **** 		*ptuning_parm_value = 0x7FFFFFFF;
ARM GAS  C:\Users\Berbardo\AppData\Local\Temp\ccBMvrJ9.s 			page 163


 5403              		.loc 1 3255 3 is_stmt 1 view .LVU1884
 5404              		.loc 1 3255 23 is_stmt 0 view .LVU1885
 5405 02ba 6FF00043 		mvn	r3, #-2147483648
 5406 02be 1360     		str	r3, [r2]
3256:D:/Git/VL53L1/lib/core/src\vl53l1_api_core.c **** 		status = VL53L1_ERROR_INVALID_PARAMS;
 5407              		.loc 1 3256 3 is_stmt 1 view .LVU1886
 5408              	.LVL531:
3257:D:/Git/VL53L1/lib/core/src\vl53l1_api_core.c **** 	break;
 5409              		.loc 1 3257 2 view .LVU1887
3256:D:/Git/VL53L1/lib/core/src\vl53l1_api_core.c **** 		status = VL53L1_ERROR_INVALID_PARAMS;
 5410              		.loc 1 3256 10 is_stmt 0 view .LVU1888
 5411 02c0 6FF00300 		mvn	r0, #3
 5412              	.LVL532:
3258:D:/Git/VL53L1/lib/core/src\vl53l1_api_core.c **** 
3259:D:/Git/VL53L1/lib/core/src\vl53l1_api_core.c **** 	}
3260:D:/Git/VL53L1/lib/core/src\vl53l1_api_core.c **** 
3261:D:/Git/VL53L1/lib/core/src\vl53l1_api_core.c **** 	LOG_FUNCTION_END(status);
 5413              		.loc 1 3261 26 is_stmt 1 view .LVU1889
3262:D:/Git/VL53L1/lib/core/src\vl53l1_api_core.c **** 
3263:D:/Git/VL53L1/lib/core/src\vl53l1_api_core.c **** 	return status;
 5414              		.loc 1 3263 2 view .LVU1890
3264:D:/Git/VL53L1/lib/core/src\vl53l1_api_core.c **** }
 5415              		.loc 1 3264 1 is_stmt 0 view .LVU1891
 5416 02c4 7047     		bx	lr
 5417              		.cfi_endproc
 5418              	.LFE177:
 5420              		.section	.text.VL53L1_set_tuning_parm,"ax",%progbits
 5421              		.align	1
 5422              		.global	VL53L1_set_tuning_parm
 5423              		.syntax unified
 5424              		.thumb
 5425              		.thumb_func
 5426              		.fpu fpv4-sp-d16
 5428              	VL53L1_set_tuning_parm:
 5429              	.LVL533:
 5430              	.LFB178:
3265:D:/Git/VL53L1/lib/core/src\vl53l1_api_core.c **** 
3266:D:/Git/VL53L1/lib/core/src\vl53l1_api_core.c **** VL53L1_Error VL53L1_set_tuning_parm(
3267:D:/Git/VL53L1/lib/core/src\vl53l1_api_core.c **** 	VL53L1_DEV            Dev,
3268:D:/Git/VL53L1/lib/core/src\vl53l1_api_core.c **** 	VL53L1_TuningParms    tuning_parm_key,
3269:D:/Git/VL53L1/lib/core/src\vl53l1_api_core.c **** 	int32_t               tuning_parm_value)
3270:D:/Git/VL53L1/lib/core/src\vl53l1_api_core.c **** {
 5431              		.loc 1 3270 1 is_stmt 1 view -0
 5432              		.cfi_startproc
 5433              		@ args = 0, pretend = 0, frame = 0
 5434              		@ frame_needed = 0, uses_anonymous_args = 0
 5435              		@ link register save eliminated.
3271:D:/Git/VL53L1/lib/core/src\vl53l1_api_core.c **** 
3272:D:/Git/VL53L1/lib/core/src\vl53l1_api_core.c **** 	/*
3273:D:/Git/VL53L1/lib/core/src\vl53l1_api_core.c **** 	 * Sets the requested tuning parm value
3274:D:/Git/VL53L1/lib/core/src\vl53l1_api_core.c **** 	 * - Large case statement for set value
3275:D:/Git/VL53L1/lib/core/src\vl53l1_api_core.c **** 	 * - if key does not match, INVALID parm error returned
3276:D:/Git/VL53L1/lib/core/src\vl53l1_api_core.c **** 	 */
3277:D:/Git/VL53L1/lib/core/src\vl53l1_api_core.c **** 
3278:D:/Git/VL53L1/lib/core/src\vl53l1_api_core.c **** 	VL53L1_Error  status = VL53L1_ERROR_NONE;
 5436              		.loc 1 3278 2 view .LVU1893
3279:D:/Git/VL53L1/lib/core/src\vl53l1_api_core.c **** 
ARM GAS  C:\Users\Berbardo\AppData\Local\Temp\ccBMvrJ9.s 			page 164


3280:D:/Git/VL53L1/lib/core/src\vl53l1_api_core.c **** 	VL53L1_LLDriverData_t *pdev = VL53L1DevStructGetLLDriverHandle(Dev);
 5437              		.loc 1 3280 2 view .LVU1894
3281:D:/Git/VL53L1/lib/core/src\vl53l1_api_core.c **** 
3282:D:/Git/VL53L1/lib/core/src\vl53l1_api_core.c **** 	LOG_FUNCTION_START("");
 5438              		.loc 1 3282 24 view .LVU1895
3283:D:/Git/VL53L1/lib/core/src\vl53l1_api_core.c **** 
3284:D:/Git/VL53L1/lib/core/src\vl53l1_api_core.c **** 	switch (tuning_parm_key) {
 5439              		.loc 1 3284 2 view .LVU1896
 5440 0000 A1F50041 		sub	r1, r1, #32768
 5441              	.LVL534:
 5442              		.loc 1 3284 2 is_stmt 0 view .LVU1897
 5443 0004 3829     		cmp	r1, #56
 5444 0006 00F22581 		bhi	.L369
 5445 000a DFE811F0 		tbh	[pc, r1, lsl #1]
 5446              	.L312:
 5447 000e 3900     		.2byte	(.L368-.L312)/2
 5448 0010 3D00     		.2byte	(.L367-.L312)/2
 5449 0012 4700     		.2byte	(.L366-.L312)/2
 5450 0014 4B00     		.2byte	(.L365-.L312)/2
 5451 0016 4F00     		.2byte	(.L364-.L312)/2
 5452 0018 5300     		.2byte	(.L363-.L312)/2
 5453 001a 5700     		.2byte	(.L362-.L312)/2
 5454 001c 5B00     		.2byte	(.L361-.L312)/2
 5455 001e 5F00     		.2byte	(.L360-.L312)/2
 5456 0020 6300     		.2byte	(.L359-.L312)/2
 5457 0022 6700     		.2byte	(.L358-.L312)/2
 5458 0024 6B00     		.2byte	(.L357-.L312)/2
 5459 0026 6F00     		.2byte	(.L356-.L312)/2
 5460 0028 7300     		.2byte	(.L355-.L312)/2
 5461 002a 7700     		.2byte	(.L354-.L312)/2
 5462 002c 7B00     		.2byte	(.L353-.L312)/2
 5463 002e 7F00     		.2byte	(.L352-.L312)/2
 5464 0030 8300     		.2byte	(.L351-.L312)/2
 5465 0032 8700     		.2byte	(.L350-.L312)/2
 5466 0034 8B00     		.2byte	(.L349-.L312)/2
 5467 0036 8F00     		.2byte	(.L348-.L312)/2
 5468 0038 9300     		.2byte	(.L347-.L312)/2
 5469 003a 9700     		.2byte	(.L346-.L312)/2
 5470 003c 9B00     		.2byte	(.L345-.L312)/2
 5471 003e 9F00     		.2byte	(.L344-.L312)/2
 5472 0040 A300     		.2byte	(.L343-.L312)/2
 5473 0042 A700     		.2byte	(.L342-.L312)/2
 5474 0044 AB00     		.2byte	(.L341-.L312)/2
 5475 0046 AF00     		.2byte	(.L340-.L312)/2
 5476 0048 B300     		.2byte	(.L339-.L312)/2
 5477 004a B700     		.2byte	(.L338-.L312)/2
 5478 004c BB00     		.2byte	(.L337-.L312)/2
 5479 004e BF00     		.2byte	(.L336-.L312)/2
 5480 0050 C300     		.2byte	(.L335-.L312)/2
 5481 0052 C700     		.2byte	(.L334-.L312)/2
 5482 0054 CB00     		.2byte	(.L333-.L312)/2
 5483 0056 CF00     		.2byte	(.L332-.L312)/2
 5484 0058 D300     		.2byte	(.L331-.L312)/2
 5485 005a D700     		.2byte	(.L330-.L312)/2
 5486 005c DB00     		.2byte	(.L329-.L312)/2
 5487 005e DF00     		.2byte	(.L328-.L312)/2
 5488 0060 E300     		.2byte	(.L327-.L312)/2
ARM GAS  C:\Users\Berbardo\AppData\Local\Temp\ccBMvrJ9.s 			page 165


 5489 0062 E700     		.2byte	(.L326-.L312)/2
 5490 0064 EB00     		.2byte	(.L325-.L312)/2
 5491 0066 EF00     		.2byte	(.L324-.L312)/2
 5492 0068 F300     		.2byte	(.L323-.L312)/2
 5493 006a F700     		.2byte	(.L322-.L312)/2
 5494 006c FB00     		.2byte	(.L321-.L312)/2
 5495 006e FF00     		.2byte	(.L320-.L312)/2
 5496 0070 0301     		.2byte	(.L319-.L312)/2
 5497 0072 0701     		.2byte	(.L318-.L312)/2
 5498 0074 0B01     		.2byte	(.L317-.L312)/2
 5499 0076 0F01     		.2byte	(.L316-.L312)/2
 5500 0078 1301     		.2byte	(.L315-.L312)/2
 5501 007a 1701     		.2byte	(.L314-.L312)/2
 5502 007c 1B01     		.2byte	(.L313-.L312)/2
 5503 007e 1F01     		.2byte	(.L311-.L312)/2
 5504              		.p2align 1
 5505              	.L368:
3285:D:/Git/VL53L1/lib/core/src\vl53l1_api_core.c **** 
3286:D:/Git/VL53L1/lib/core/src\vl53l1_api_core.c **** 	case VL53L1_TUNINGPARM_VERSION:
3287:D:/Git/VL53L1/lib/core/src\vl53l1_api_core.c **** 		pdev->tuning_parms.tp_tuning_parm_version =
 5506              		.loc 1 3287 3 is_stmt 1 view .LVU1898
 5507              		.loc 1 3287 45 is_stmt 0 view .LVU1899
 5508 0080 A0F8A420 		strh	r2, [r0, #164]	@ movhi
3288:D:/Git/VL53L1/lib/core/src\vl53l1_api_core.c **** 				(uint16_t)tuning_parm_value;
3289:D:/Git/VL53L1/lib/core/src\vl53l1_api_core.c **** 	break;
 5509              		.loc 1 3289 2 is_stmt 1 view .LVU1900
3278:D:/Git/VL53L1/lib/core/src\vl53l1_api_core.c **** 
 5510              		.loc 1 3278 16 is_stmt 0 view .LVU1901
 5511 0084 0020     		movs	r0, #0
 5512              	.LVL535:
 5513              		.loc 1 3289 2 view .LVU1902
 5514 0086 7047     		bx	lr
 5515              	.LVL536:
 5516              	.L367:
3290:D:/Git/VL53L1/lib/core/src\vl53l1_api_core.c **** 	case VL53L1_TUNINGPARM_KEY_TABLE_VERSION:
3291:D:/Git/VL53L1/lib/core/src\vl53l1_api_core.c **** 		pdev->tuning_parms.tp_tuning_parm_key_table_version =
 5517              		.loc 1 3291 3 is_stmt 1 view .LVU1903
3292:D:/Git/VL53L1/lib/core/src\vl53l1_api_core.c **** 					(uint16_t)tuning_parm_value;
 5518              		.loc 1 3292 6 is_stmt 0 view .LVU1904
 5519 0088 92B2     		uxth	r2, r2
 5520              	.LVL537:
3291:D:/Git/VL53L1/lib/core/src\vl53l1_api_core.c **** 					(uint16_t)tuning_parm_value;
 5521              		.loc 1 3291 55 view .LVU1905
 5522 008a A0F8A620 		strh	r2, [r0, #166]	@ movhi
3293:D:/Git/VL53L1/lib/core/src\vl53l1_api_core.c **** 
3294:D:/Git/VL53L1/lib/core/src\vl53l1_api_core.c **** 		/* Perform Key Table Check
3295:D:/Git/VL53L1/lib/core/src\vl53l1_api_core.c **** 		 *
3296:D:/Git/VL53L1/lib/core/src\vl53l1_api_core.c **** 		 * - If does not match default, key table
3297:D:/Git/VL53L1/lib/core/src\vl53l1_api_core.c **** 		 * format does not match tuning file,
3298:D:/Git/VL53L1/lib/core/src\vl53l1_api_core.c **** 		 * error should be thrown
3299:D:/Git/VL53L1/lib/core/src\vl53l1_api_core.c **** 		 *
3300:D:/Git/VL53L1/lib/core/src\vl53l1_api_core.c **** 		 */
3301:D:/Git/VL53L1/lib/core/src\vl53l1_api_core.c **** 
3302:D:/Git/VL53L1/lib/core/src\vl53l1_api_core.c **** 		if ((uint16_t)tuning_parm_value
 5523              		.loc 1 3302 3 is_stmt 1 view .LVU1906
 5524              		.loc 1 3302 6 is_stmt 0 view .LVU1907
 5525 008e 48F20103 		movw	r3, #32769
ARM GAS  C:\Users\Berbardo\AppData\Local\Temp\ccBMvrJ9.s 			page 166


 5526 0092 9A42     		cmp	r2, r3
 5527 0094 40F0E180 		bne	.L370
3278:D:/Git/VL53L1/lib/core/src\vl53l1_api_core.c **** 
 5528              		.loc 1 3278 16 view .LVU1908
 5529 0098 0020     		movs	r0, #0
 5530              	.LVL538:
3278:D:/Git/VL53L1/lib/core/src\vl53l1_api_core.c **** 
 5531              		.loc 1 3278 16 view .LVU1909
 5532 009a 7047     		bx	lr
 5533              	.LVL539:
 5534              	.L366:
3303:D:/Git/VL53L1/lib/core/src\vl53l1_api_core.c **** 				!= VL53L1_TUNINGPARM_KEY_TABLE_VERSION_DEFAULT) {
3304:D:/Git/VL53L1/lib/core/src\vl53l1_api_core.c **** 			status = VL53L1_ERROR_TUNING_PARM_KEY_MISMATCH;
3305:D:/Git/VL53L1/lib/core/src\vl53l1_api_core.c **** 		}
3306:D:/Git/VL53L1/lib/core/src\vl53l1_api_core.c **** 	break;
3307:D:/Git/VL53L1/lib/core/src\vl53l1_api_core.c **** 	case VL53L1_TUNINGPARM_LLD_VERSION:
3308:D:/Git/VL53L1/lib/core/src\vl53l1_api_core.c **** 		pdev->tuning_parms.tp_tuning_parm_lld_version =
 5535              		.loc 1 3308 3 is_stmt 1 view .LVU1910
 5536              		.loc 1 3308 49 is_stmt 0 view .LVU1911
 5537 009c A0F8A820 		strh	r2, [r0, #168]	@ movhi
3309:D:/Git/VL53L1/lib/core/src\vl53l1_api_core.c **** 				(uint16_t)tuning_parm_value;
3310:D:/Git/VL53L1/lib/core/src\vl53l1_api_core.c **** 	break;
 5538              		.loc 1 3310 2 is_stmt 1 view .LVU1912
3278:D:/Git/VL53L1/lib/core/src\vl53l1_api_core.c **** 
 5539              		.loc 1 3278 16 is_stmt 0 view .LVU1913
 5540 00a0 0020     		movs	r0, #0
 5541              	.LVL540:
 5542              		.loc 1 3310 2 view .LVU1914
 5543 00a2 7047     		bx	lr
 5544              	.LVL541:
 5545              	.L365:
3311:D:/Git/VL53L1/lib/core/src\vl53l1_api_core.c **** 	case VL53L1_TUNINGPARM_CONSISTENCY_LITE_PHASE_TOLERANCE:
3312:D:/Git/VL53L1/lib/core/src\vl53l1_api_core.c **** 		pdev->tuning_parms.tp_consistency_lite_phase_tolerance =
 5546              		.loc 1 3312 3 is_stmt 1 view .LVU1915
 5547              		.loc 1 3312 58 is_stmt 0 view .LVU1916
 5548 00a4 80F8B020 		strb	r2, [r0, #176]
3313:D:/Git/VL53L1/lib/core/src\vl53l1_api_core.c **** 				(uint8_t)tuning_parm_value;
3314:D:/Git/VL53L1/lib/core/src\vl53l1_api_core.c **** 	break;
 5549              		.loc 1 3314 2 is_stmt 1 view .LVU1917
3278:D:/Git/VL53L1/lib/core/src\vl53l1_api_core.c **** 
 5550              		.loc 1 3278 16 is_stmt 0 view .LVU1918
 5551 00a8 0020     		movs	r0, #0
 5552              	.LVL542:
 5553              		.loc 1 3314 2 view .LVU1919
 5554 00aa 7047     		bx	lr
 5555              	.LVL543:
 5556              	.L364:
3315:D:/Git/VL53L1/lib/core/src\vl53l1_api_core.c **** 	case VL53L1_TUNINGPARM_PHASECAL_TARGET:
3316:D:/Git/VL53L1/lib/core/src\vl53l1_api_core.c **** 		pdev->tuning_parms.tp_phasecal_target =
 5557              		.loc 1 3316 3 is_stmt 1 view .LVU1920
 5558              		.loc 1 3316 41 is_stmt 0 view .LVU1921
 5559 00ac 80F8B120 		strb	r2, [r0, #177]
3317:D:/Git/VL53L1/lib/core/src\vl53l1_api_core.c **** 				(uint8_t)tuning_parm_value;
3318:D:/Git/VL53L1/lib/core/src\vl53l1_api_core.c **** 	break;
 5560              		.loc 1 3318 2 is_stmt 1 view .LVU1922
3278:D:/Git/VL53L1/lib/core/src\vl53l1_api_core.c **** 
 5561              		.loc 1 3278 16 is_stmt 0 view .LVU1923
ARM GAS  C:\Users\Berbardo\AppData\Local\Temp\ccBMvrJ9.s 			page 167


 5562 00b0 0020     		movs	r0, #0
 5563              	.LVL544:
 5564              		.loc 1 3318 2 view .LVU1924
 5565 00b2 7047     		bx	lr
 5566              	.LVL545:
 5567              	.L363:
3319:D:/Git/VL53L1/lib/core/src\vl53l1_api_core.c **** 	case VL53L1_TUNINGPARM_LITE_CAL_REPEAT_RATE:
3320:D:/Git/VL53L1/lib/core/src\vl53l1_api_core.c **** 		pdev->tuning_parms.tp_cal_repeat_rate =
 5568              		.loc 1 3320 3 is_stmt 1 view .LVU1925
 5569              		.loc 1 3320 41 is_stmt 0 view .LVU1926
 5570 00b4 A0F8B220 		strh	r2, [r0, #178]	@ movhi
3321:D:/Git/VL53L1/lib/core/src\vl53l1_api_core.c **** 				(uint16_t)tuning_parm_value;
3322:D:/Git/VL53L1/lib/core/src\vl53l1_api_core.c **** 	break;
 5571              		.loc 1 3322 2 is_stmt 1 view .LVU1927
3278:D:/Git/VL53L1/lib/core/src\vl53l1_api_core.c **** 
 5572              		.loc 1 3278 16 is_stmt 0 view .LVU1928
 5573 00b8 0020     		movs	r0, #0
 5574              	.LVL546:
 5575              		.loc 1 3322 2 view .LVU1929
 5576 00ba 7047     		bx	lr
 5577              	.LVL547:
 5578              	.L362:
3323:D:/Git/VL53L1/lib/core/src\vl53l1_api_core.c **** 	case VL53L1_TUNINGPARM_LITE_RANGING_GAIN_FACTOR:
3324:D:/Git/VL53L1/lib/core/src\vl53l1_api_core.c **** 		pdev->gain_cal.standard_ranging_gain_factor =
 5579              		.loc 1 3324 3 is_stmt 1 view .LVU1930
 5580              		.loc 1 3324 47 is_stmt 0 view .LVU1931
 5581 00bc A0F89C20 		strh	r2, [r0, #156]	@ movhi
3325:D:/Git/VL53L1/lib/core/src\vl53l1_api_core.c **** 				(uint16_t)tuning_parm_value;
3326:D:/Git/VL53L1/lib/core/src\vl53l1_api_core.c **** 	break;
 5582              		.loc 1 3326 2 is_stmt 1 view .LVU1932
3278:D:/Git/VL53L1/lib/core/src\vl53l1_api_core.c **** 
 5583              		.loc 1 3278 16 is_stmt 0 view .LVU1933
 5584 00c0 0020     		movs	r0, #0
 5585              	.LVL548:
 5586              		.loc 1 3326 2 view .LVU1934
 5587 00c2 7047     		bx	lr
 5588              	.LVL549:
 5589              	.L361:
3327:D:/Git/VL53L1/lib/core/src\vl53l1_api_core.c **** 	case VL53L1_TUNINGPARM_LITE_MIN_CLIP_MM:
3328:D:/Git/VL53L1/lib/core/src\vl53l1_api_core.c **** 		pdev->tuning_parms.tp_lite_min_clip =
 5590              		.loc 1 3328 3 is_stmt 1 view .LVU1935
 5591              		.loc 1 3328 39 is_stmt 0 view .LVU1936
 5592 00c4 80F8B420 		strb	r2, [r0, #180]
3329:D:/Git/VL53L1/lib/core/src\vl53l1_api_core.c **** 				(uint8_t)tuning_parm_value;
3330:D:/Git/VL53L1/lib/core/src\vl53l1_api_core.c **** 	break;
 5593              		.loc 1 3330 2 is_stmt 1 view .LVU1937
3278:D:/Git/VL53L1/lib/core/src\vl53l1_api_core.c **** 
 5594              		.loc 1 3278 16 is_stmt 0 view .LVU1938
 5595 00c8 0020     		movs	r0, #0
 5596              	.LVL550:
 5597              		.loc 1 3330 2 view .LVU1939
 5598 00ca 7047     		bx	lr
 5599              	.LVL551:
 5600              	.L360:
3331:D:/Git/VL53L1/lib/core/src\vl53l1_api_core.c **** 	case VL53L1_TUNINGPARM_LITE_LONG_SIGMA_THRESH_MM:
3332:D:/Git/VL53L1/lib/core/src\vl53l1_api_core.c **** 		pdev->tuning_parms.tp_lite_long_sigma_thresh_mm =
 5601              		.loc 1 3332 3 is_stmt 1 view .LVU1940
ARM GAS  C:\Users\Berbardo\AppData\Local\Temp\ccBMvrJ9.s 			page 168


 5602              		.loc 1 3332 51 is_stmt 0 view .LVU1941
 5603 00cc A0F8B620 		strh	r2, [r0, #182]	@ movhi
3333:D:/Git/VL53L1/lib/core/src\vl53l1_api_core.c **** 				(uint16_t)tuning_parm_value;
3334:D:/Git/VL53L1/lib/core/src\vl53l1_api_core.c **** 	break;
 5604              		.loc 1 3334 2 is_stmt 1 view .LVU1942
3278:D:/Git/VL53L1/lib/core/src\vl53l1_api_core.c **** 
 5605              		.loc 1 3278 16 is_stmt 0 view .LVU1943
 5606 00d0 0020     		movs	r0, #0
 5607              	.LVL552:
 5608              		.loc 1 3334 2 view .LVU1944
 5609 00d2 7047     		bx	lr
 5610              	.LVL553:
 5611              	.L359:
3335:D:/Git/VL53L1/lib/core/src\vl53l1_api_core.c **** 	case VL53L1_TUNINGPARM_LITE_MED_SIGMA_THRESH_MM:
3336:D:/Git/VL53L1/lib/core/src\vl53l1_api_core.c **** 		pdev->tuning_parms.tp_lite_med_sigma_thresh_mm =
 5612              		.loc 1 3336 3 is_stmt 1 view .LVU1945
 5613              		.loc 1 3336 50 is_stmt 0 view .LVU1946
 5614 00d4 A0F8B820 		strh	r2, [r0, #184]	@ movhi
3337:D:/Git/VL53L1/lib/core/src\vl53l1_api_core.c **** 				(uint16_t)tuning_parm_value;
3338:D:/Git/VL53L1/lib/core/src\vl53l1_api_core.c **** 	break;
 5615              		.loc 1 3338 2 is_stmt 1 view .LVU1947
3278:D:/Git/VL53L1/lib/core/src\vl53l1_api_core.c **** 
 5616              		.loc 1 3278 16 is_stmt 0 view .LVU1948
 5617 00d8 0020     		movs	r0, #0
 5618              	.LVL554:
 5619              		.loc 1 3338 2 view .LVU1949
 5620 00da 7047     		bx	lr
 5621              	.LVL555:
 5622              	.L358:
3339:D:/Git/VL53L1/lib/core/src\vl53l1_api_core.c **** 	case VL53L1_TUNINGPARM_LITE_SHORT_SIGMA_THRESH_MM:
3340:D:/Git/VL53L1/lib/core/src\vl53l1_api_core.c **** 		pdev->tuning_parms.tp_lite_short_sigma_thresh_mm =
 5623              		.loc 1 3340 3 is_stmt 1 view .LVU1950
 5624              		.loc 1 3340 52 is_stmt 0 view .LVU1951
 5625 00dc A0F8BA20 		strh	r2, [r0, #186]	@ movhi
3341:D:/Git/VL53L1/lib/core/src\vl53l1_api_core.c **** 				(uint16_t)tuning_parm_value;
3342:D:/Git/VL53L1/lib/core/src\vl53l1_api_core.c **** 	break;
 5626              		.loc 1 3342 2 is_stmt 1 view .LVU1952
3278:D:/Git/VL53L1/lib/core/src\vl53l1_api_core.c **** 
 5627              		.loc 1 3278 16 is_stmt 0 view .LVU1953
 5628 00e0 0020     		movs	r0, #0
 5629              	.LVL556:
 5630              		.loc 1 3342 2 view .LVU1954
 5631 00e2 7047     		bx	lr
 5632              	.LVL557:
 5633              	.L357:
3343:D:/Git/VL53L1/lib/core/src\vl53l1_api_core.c **** 	case VL53L1_TUNINGPARM_LITE_LONG_MIN_COUNT_RATE_RTN_MCPS:
3344:D:/Git/VL53L1/lib/core/src\vl53l1_api_core.c **** 		pdev->tuning_parms.tp_lite_long_min_count_rate_rtn_mcps =
 5634              		.loc 1 3344 3 is_stmt 1 view .LVU1955
 5635              		.loc 1 3344 59 is_stmt 0 view .LVU1956
 5636 00e4 A0F8BC20 		strh	r2, [r0, #188]	@ movhi
3345:D:/Git/VL53L1/lib/core/src\vl53l1_api_core.c **** 				(uint16_t)tuning_parm_value;
3346:D:/Git/VL53L1/lib/core/src\vl53l1_api_core.c **** 	break;
 5637              		.loc 1 3346 2 is_stmt 1 view .LVU1957
3278:D:/Git/VL53L1/lib/core/src\vl53l1_api_core.c **** 
 5638              		.loc 1 3278 16 is_stmt 0 view .LVU1958
 5639 00e8 0020     		movs	r0, #0
 5640              	.LVL558:
ARM GAS  C:\Users\Berbardo\AppData\Local\Temp\ccBMvrJ9.s 			page 169


 5641              		.loc 1 3346 2 view .LVU1959
 5642 00ea 7047     		bx	lr
 5643              	.LVL559:
 5644              	.L356:
3347:D:/Git/VL53L1/lib/core/src\vl53l1_api_core.c **** 	case VL53L1_TUNINGPARM_LITE_MED_MIN_COUNT_RATE_RTN_MCPS:
3348:D:/Git/VL53L1/lib/core/src\vl53l1_api_core.c **** 		pdev->tuning_parms.tp_lite_med_min_count_rate_rtn_mcps =
 5645              		.loc 1 3348 3 is_stmt 1 view .LVU1960
 5646              		.loc 1 3348 58 is_stmt 0 view .LVU1961
 5647 00ec A0F8BE20 		strh	r2, [r0, #190]	@ movhi
3349:D:/Git/VL53L1/lib/core/src\vl53l1_api_core.c **** 				(uint16_t)tuning_parm_value;
3350:D:/Git/VL53L1/lib/core/src\vl53l1_api_core.c **** 	break;
 5648              		.loc 1 3350 2 is_stmt 1 view .LVU1962
3278:D:/Git/VL53L1/lib/core/src\vl53l1_api_core.c **** 
 5649              		.loc 1 3278 16 is_stmt 0 view .LVU1963
 5650 00f0 0020     		movs	r0, #0
 5651              	.LVL560:
 5652              		.loc 1 3350 2 view .LVU1964
 5653 00f2 7047     		bx	lr
 5654              	.LVL561:
 5655              	.L355:
3351:D:/Git/VL53L1/lib/core/src\vl53l1_api_core.c **** 	case VL53L1_TUNINGPARM_LITE_SHORT_MIN_COUNT_RATE_RTN_MCPS:
3352:D:/Git/VL53L1/lib/core/src\vl53l1_api_core.c **** 		pdev->tuning_parms.tp_lite_short_min_count_rate_rtn_mcps =
 5656              		.loc 1 3352 3 is_stmt 1 view .LVU1965
 5657              		.loc 1 3352 60 is_stmt 0 view .LVU1966
 5658 00f4 A0F8C020 		strh	r2, [r0, #192]	@ movhi
3353:D:/Git/VL53L1/lib/core/src\vl53l1_api_core.c **** 				(uint16_t)tuning_parm_value;
3354:D:/Git/VL53L1/lib/core/src\vl53l1_api_core.c **** 	break;
 5659              		.loc 1 3354 2 is_stmt 1 view .LVU1967
3278:D:/Git/VL53L1/lib/core/src\vl53l1_api_core.c **** 
 5660              		.loc 1 3278 16 is_stmt 0 view .LVU1968
 5661 00f8 0020     		movs	r0, #0
 5662              	.LVL562:
 5663              		.loc 1 3354 2 view .LVU1969
 5664 00fa 7047     		bx	lr
 5665              	.LVL563:
 5666              	.L354:
3355:D:/Git/VL53L1/lib/core/src\vl53l1_api_core.c **** 	case VL53L1_TUNINGPARM_LITE_SIGMA_EST_PULSE_WIDTH:
3356:D:/Git/VL53L1/lib/core/src\vl53l1_api_core.c **** 		pdev->tuning_parms.tp_lite_sigma_est_pulse_width_ns =
 5667              		.loc 1 3356 3 is_stmt 1 view .LVU1970
 5668              		.loc 1 3356 55 is_stmt 0 view .LVU1971
 5669 00fc 80F8C220 		strb	r2, [r0, #194]
3357:D:/Git/VL53L1/lib/core/src\vl53l1_api_core.c **** 				(uint8_t)tuning_parm_value;
3358:D:/Git/VL53L1/lib/core/src\vl53l1_api_core.c **** 	break;
 5670              		.loc 1 3358 2 is_stmt 1 view .LVU1972
3278:D:/Git/VL53L1/lib/core/src\vl53l1_api_core.c **** 
 5671              		.loc 1 3278 16 is_stmt 0 view .LVU1973
 5672 0100 0020     		movs	r0, #0
 5673              	.LVL564:
 5674              		.loc 1 3358 2 view .LVU1974
 5675 0102 7047     		bx	lr
 5676              	.LVL565:
 5677              	.L353:
3359:D:/Git/VL53L1/lib/core/src\vl53l1_api_core.c **** 	case VL53L1_TUNINGPARM_LITE_SIGMA_EST_AMB_WIDTH_NS:
3360:D:/Git/VL53L1/lib/core/src\vl53l1_api_core.c **** 		pdev->tuning_parms.tp_lite_sigma_est_amb_width_ns =
 5678              		.loc 1 3360 3 is_stmt 1 view .LVU1975
 5679              		.loc 1 3360 53 is_stmt 0 view .LVU1976
 5680 0104 80F8C320 		strb	r2, [r0, #195]
ARM GAS  C:\Users\Berbardo\AppData\Local\Temp\ccBMvrJ9.s 			page 170


3361:D:/Git/VL53L1/lib/core/src\vl53l1_api_core.c **** 				(uint8_t)tuning_parm_value;
3362:D:/Git/VL53L1/lib/core/src\vl53l1_api_core.c **** 	break;
 5681              		.loc 1 3362 2 is_stmt 1 view .LVU1977
3278:D:/Git/VL53L1/lib/core/src\vl53l1_api_core.c **** 
 5682              		.loc 1 3278 16 is_stmt 0 view .LVU1978
 5683 0108 0020     		movs	r0, #0
 5684              	.LVL566:
 5685              		.loc 1 3362 2 view .LVU1979
 5686 010a 7047     		bx	lr
 5687              	.LVL567:
 5688              	.L352:
3363:D:/Git/VL53L1/lib/core/src\vl53l1_api_core.c **** 	case VL53L1_TUNINGPARM_LITE_SIGMA_REF_MM:
3364:D:/Git/VL53L1/lib/core/src\vl53l1_api_core.c **** 		pdev->tuning_parms.tp_lite_sigma_ref_mm =
 5689              		.loc 1 3364 3 is_stmt 1 view .LVU1980
 5690              		.loc 1 3364 43 is_stmt 0 view .LVU1981
 5691 010c 80F8C420 		strb	r2, [r0, #196]
3365:D:/Git/VL53L1/lib/core/src\vl53l1_api_core.c **** 				(uint8_t)tuning_parm_value;
3366:D:/Git/VL53L1/lib/core/src\vl53l1_api_core.c **** 	break;
 5692              		.loc 1 3366 2 is_stmt 1 view .LVU1982
3278:D:/Git/VL53L1/lib/core/src\vl53l1_api_core.c **** 
 5693              		.loc 1 3278 16 is_stmt 0 view .LVU1983
 5694 0110 0020     		movs	r0, #0
 5695              	.LVL568:
 5696              		.loc 1 3366 2 view .LVU1984
 5697 0112 7047     		bx	lr
 5698              	.LVL569:
 5699              	.L351:
3367:D:/Git/VL53L1/lib/core/src\vl53l1_api_core.c **** 	case VL53L1_TUNINGPARM_LITE_RIT_MULT:
3368:D:/Git/VL53L1/lib/core/src\vl53l1_api_core.c **** 		pdev->xtalk_cfg.crosstalk_range_ignore_threshold_mult =
 5700              		.loc 1 3368 3 is_stmt 1 view .LVU1985
 5701              		.loc 1 3368 57 is_stmt 0 view .LVU1986
 5702 0114 80F84021 		strb	r2, [r0, #320]
3369:D:/Git/VL53L1/lib/core/src\vl53l1_api_core.c **** 				(uint8_t)tuning_parm_value;
3370:D:/Git/VL53L1/lib/core/src\vl53l1_api_core.c **** 	break;
 5703              		.loc 1 3370 2 is_stmt 1 view .LVU1987
3278:D:/Git/VL53L1/lib/core/src\vl53l1_api_core.c **** 
 5704              		.loc 1 3278 16 is_stmt 0 view .LVU1988
 5705 0118 0020     		movs	r0, #0
 5706              	.LVL570:
 5707              		.loc 1 3370 2 view .LVU1989
 5708 011a 7047     		bx	lr
 5709              	.LVL571:
 5710              	.L350:
3371:D:/Git/VL53L1/lib/core/src\vl53l1_api_core.c **** 	case VL53L1_TUNINGPARM_LITE_SEED_CONFIG:
3372:D:/Git/VL53L1/lib/core/src\vl53l1_api_core.c **** 		pdev->tuning_parms.tp_lite_seed_cfg =
 5711              		.loc 1 3372 3 is_stmt 1 view .LVU1990
 5712              		.loc 1 3372 39 is_stmt 0 view .LVU1991
 5713 011c 80F8C520 		strb	r2, [r0, #197]
3373:D:/Git/VL53L1/lib/core/src\vl53l1_api_core.c **** 				(uint8_t)tuning_parm_value;
3374:D:/Git/VL53L1/lib/core/src\vl53l1_api_core.c **** 	break;
 5714              		.loc 1 3374 2 is_stmt 1 view .LVU1992
3278:D:/Git/VL53L1/lib/core/src\vl53l1_api_core.c **** 
 5715              		.loc 1 3278 16 is_stmt 0 view .LVU1993
 5716 0120 0020     		movs	r0, #0
 5717              	.LVL572:
 5718              		.loc 1 3374 2 view .LVU1994
 5719 0122 7047     		bx	lr
ARM GAS  C:\Users\Berbardo\AppData\Local\Temp\ccBMvrJ9.s 			page 171


 5720              	.LVL573:
 5721              	.L349:
3375:D:/Git/VL53L1/lib/core/src\vl53l1_api_core.c **** 	case VL53L1_TUNINGPARM_LITE_QUANTIFIER:
3376:D:/Git/VL53L1/lib/core/src\vl53l1_api_core.c **** 		pdev->tuning_parms.tp_lite_quantifier =
 5722              		.loc 1 3376 3 is_stmt 1 view .LVU1995
 5723              		.loc 1 3376 41 is_stmt 0 view .LVU1996
 5724 0124 80F8C720 		strb	r2, [r0, #199]
3377:D:/Git/VL53L1/lib/core/src\vl53l1_api_core.c **** 				(uint8_t)tuning_parm_value;
3378:D:/Git/VL53L1/lib/core/src\vl53l1_api_core.c **** 	break;
 5725              		.loc 1 3378 2 is_stmt 1 view .LVU1997
3278:D:/Git/VL53L1/lib/core/src\vl53l1_api_core.c **** 
 5726              		.loc 1 3278 16 is_stmt 0 view .LVU1998
 5727 0128 0020     		movs	r0, #0
 5728              	.LVL574:
 5729              		.loc 1 3378 2 view .LVU1999
 5730 012a 7047     		bx	lr
 5731              	.LVL575:
 5732              	.L348:
3379:D:/Git/VL53L1/lib/core/src\vl53l1_api_core.c **** 	case VL53L1_TUNINGPARM_LITE_FIRST_ORDER_SELECT:
3380:D:/Git/VL53L1/lib/core/src\vl53l1_api_core.c **** 		pdev->tuning_parms.tp_lite_first_order_select =
 5733              		.loc 1 3380 3 is_stmt 1 view .LVU2000
 5734              		.loc 1 3380 49 is_stmt 0 view .LVU2001
 5735 012c 80F8C820 		strb	r2, [r0, #200]
3381:D:/Git/VL53L1/lib/core/src\vl53l1_api_core.c **** 				(uint8_t)tuning_parm_value;
3382:D:/Git/VL53L1/lib/core/src\vl53l1_api_core.c **** 	break;
 5736              		.loc 1 3382 2 is_stmt 1 view .LVU2002
3278:D:/Git/VL53L1/lib/core/src\vl53l1_api_core.c **** 
 5737              		.loc 1 3278 16 is_stmt 0 view .LVU2003
 5738 0130 0020     		movs	r0, #0
 5739              	.LVL576:
 5740              		.loc 1 3382 2 view .LVU2004
 5741 0132 7047     		bx	lr
 5742              	.LVL577:
 5743              	.L347:
3383:D:/Git/VL53L1/lib/core/src\vl53l1_api_core.c **** 	case VL53L1_TUNINGPARM_LITE_XTALK_MARGIN_KCPS:
3384:D:/Git/VL53L1/lib/core/src\vl53l1_api_core.c **** 		pdev->xtalk_cfg.lite_mode_crosstalk_margin_kcps =
 5744              		.loc 1 3384 3 is_stmt 1 view .LVU2005
 5745              		.loc 1 3384 51 is_stmt 0 view .LVU2006
 5746 0134 A0F83E21 		strh	r2, [r0, #318]	@ movhi
3385:D:/Git/VL53L1/lib/core/src\vl53l1_api_core.c **** 				(int16_t)tuning_parm_value;
3386:D:/Git/VL53L1/lib/core/src\vl53l1_api_core.c **** 	break;
 5747              		.loc 1 3386 2 is_stmt 1 view .LVU2007
3278:D:/Git/VL53L1/lib/core/src\vl53l1_api_core.c **** 
 5748              		.loc 1 3278 16 is_stmt 0 view .LVU2008
 5749 0138 0020     		movs	r0, #0
 5750              	.LVL578:
 5751              		.loc 1 3386 2 view .LVU2009
 5752 013a 7047     		bx	lr
 5753              	.LVL579:
 5754              	.L346:
3387:D:/Git/VL53L1/lib/core/src\vl53l1_api_core.c **** 	case VL53L1_TUNINGPARM_INITIAL_PHASE_RTN_LITE_LONG_RANGE:
3388:D:/Git/VL53L1/lib/core/src\vl53l1_api_core.c **** 		pdev->tuning_parms.tp_init_phase_rtn_lite_long =
 5755              		.loc 1 3388 3 is_stmt 1 view .LVU2010
 5756              		.loc 1 3388 50 is_stmt 0 view .LVU2011
 5757 013c 80F8AA20 		strb	r2, [r0, #170]
3389:D:/Git/VL53L1/lib/core/src\vl53l1_api_core.c **** 				(uint8_t)tuning_parm_value;
3390:D:/Git/VL53L1/lib/core/src\vl53l1_api_core.c **** 	break;
ARM GAS  C:\Users\Berbardo\AppData\Local\Temp\ccBMvrJ9.s 			page 172


 5758              		.loc 1 3390 2 is_stmt 1 view .LVU2012
3278:D:/Git/VL53L1/lib/core/src\vl53l1_api_core.c **** 
 5759              		.loc 1 3278 16 is_stmt 0 view .LVU2013
 5760 0140 0020     		movs	r0, #0
 5761              	.LVL580:
 5762              		.loc 1 3390 2 view .LVU2014
 5763 0142 7047     		bx	lr
 5764              	.LVL581:
 5765              	.L345:
3391:D:/Git/VL53L1/lib/core/src\vl53l1_api_core.c **** 	case VL53L1_TUNINGPARM_INITIAL_PHASE_RTN_LITE_MED_RANGE:
3392:D:/Git/VL53L1/lib/core/src\vl53l1_api_core.c **** 		pdev->tuning_parms.tp_init_phase_rtn_lite_med =
 5766              		.loc 1 3392 3 is_stmt 1 view .LVU2015
 5767              		.loc 1 3392 49 is_stmt 0 view .LVU2016
 5768 0144 80F8AB20 		strb	r2, [r0, #171]
3393:D:/Git/VL53L1/lib/core/src\vl53l1_api_core.c **** 				(uint8_t)tuning_parm_value;
3394:D:/Git/VL53L1/lib/core/src\vl53l1_api_core.c **** 	break;
 5769              		.loc 1 3394 2 is_stmt 1 view .LVU2017
3278:D:/Git/VL53L1/lib/core/src\vl53l1_api_core.c **** 
 5770              		.loc 1 3278 16 is_stmt 0 view .LVU2018
 5771 0148 0020     		movs	r0, #0
 5772              	.LVL582:
 5773              		.loc 1 3394 2 view .LVU2019
 5774 014a 7047     		bx	lr
 5775              	.LVL583:
 5776              	.L344:
3395:D:/Git/VL53L1/lib/core/src\vl53l1_api_core.c **** 	case VL53L1_TUNINGPARM_INITIAL_PHASE_RTN_LITE_SHORT_RANGE:
3396:D:/Git/VL53L1/lib/core/src\vl53l1_api_core.c **** 		pdev->tuning_parms.tp_init_phase_rtn_lite_short =
 5777              		.loc 1 3396 3 is_stmt 1 view .LVU2020
 5778              		.loc 1 3396 51 is_stmt 0 view .LVU2021
 5779 014c 80F8AC20 		strb	r2, [r0, #172]
3397:D:/Git/VL53L1/lib/core/src\vl53l1_api_core.c **** 				(uint8_t)tuning_parm_value;
3398:D:/Git/VL53L1/lib/core/src\vl53l1_api_core.c **** 	break;
 5780              		.loc 1 3398 2 is_stmt 1 view .LVU2022
3278:D:/Git/VL53L1/lib/core/src\vl53l1_api_core.c **** 
 5781              		.loc 1 3278 16 is_stmt 0 view .LVU2023
 5782 0150 0020     		movs	r0, #0
 5783              	.LVL584:
 5784              		.loc 1 3398 2 view .LVU2024
 5785 0152 7047     		bx	lr
 5786              	.LVL585:
 5787              	.L343:
3399:D:/Git/VL53L1/lib/core/src\vl53l1_api_core.c **** 	case VL53L1_TUNINGPARM_INITIAL_PHASE_REF_LITE_LONG_RANGE:
3400:D:/Git/VL53L1/lib/core/src\vl53l1_api_core.c **** 		pdev->tuning_parms.tp_init_phase_ref_lite_long =
 5788              		.loc 1 3400 3 is_stmt 1 view .LVU2025
 5789              		.loc 1 3400 50 is_stmt 0 view .LVU2026
 5790 0154 80F8AD20 		strb	r2, [r0, #173]
3401:D:/Git/VL53L1/lib/core/src\vl53l1_api_core.c **** 				(uint8_t)tuning_parm_value;
3402:D:/Git/VL53L1/lib/core/src\vl53l1_api_core.c **** 	break;
 5791              		.loc 1 3402 2 is_stmt 1 view .LVU2027
3278:D:/Git/VL53L1/lib/core/src\vl53l1_api_core.c **** 
 5792              		.loc 1 3278 16 is_stmt 0 view .LVU2028
 5793 0158 0020     		movs	r0, #0
 5794              	.LVL586:
 5795              		.loc 1 3402 2 view .LVU2029
 5796 015a 7047     		bx	lr
 5797              	.LVL587:
 5798              	.L342:
ARM GAS  C:\Users\Berbardo\AppData\Local\Temp\ccBMvrJ9.s 			page 173


3403:D:/Git/VL53L1/lib/core/src\vl53l1_api_core.c **** 	case VL53L1_TUNINGPARM_INITIAL_PHASE_REF_LITE_MED_RANGE:
3404:D:/Git/VL53L1/lib/core/src\vl53l1_api_core.c **** 		pdev->tuning_parms.tp_init_phase_ref_lite_med =
 5799              		.loc 1 3404 3 is_stmt 1 view .LVU2030
 5800              		.loc 1 3404 49 is_stmt 0 view .LVU2031
 5801 015c 80F8AE20 		strb	r2, [r0, #174]
3405:D:/Git/VL53L1/lib/core/src\vl53l1_api_core.c **** 				(uint8_t)tuning_parm_value;
3406:D:/Git/VL53L1/lib/core/src\vl53l1_api_core.c **** 	break;
 5802              		.loc 1 3406 2 is_stmt 1 view .LVU2032
3278:D:/Git/VL53L1/lib/core/src\vl53l1_api_core.c **** 
 5803              		.loc 1 3278 16 is_stmt 0 view .LVU2033
 5804 0160 0020     		movs	r0, #0
 5805              	.LVL588:
 5806              		.loc 1 3406 2 view .LVU2034
 5807 0162 7047     		bx	lr
 5808              	.LVL589:
 5809              	.L341:
3407:D:/Git/VL53L1/lib/core/src\vl53l1_api_core.c **** 	case VL53L1_TUNINGPARM_INITIAL_PHASE_REF_LITE_SHORT_RANGE:
3408:D:/Git/VL53L1/lib/core/src\vl53l1_api_core.c **** 		pdev->tuning_parms.tp_init_phase_ref_lite_short =
 5810              		.loc 1 3408 3 is_stmt 1 view .LVU2035
 5811              		.loc 1 3408 51 is_stmt 0 view .LVU2036
 5812 0164 80F8AF20 		strb	r2, [r0, #175]
3409:D:/Git/VL53L1/lib/core/src\vl53l1_api_core.c **** 				(uint8_t)tuning_parm_value;
3410:D:/Git/VL53L1/lib/core/src\vl53l1_api_core.c **** 	break;
 5813              		.loc 1 3410 2 is_stmt 1 view .LVU2037
3278:D:/Git/VL53L1/lib/core/src\vl53l1_api_core.c **** 
 5814              		.loc 1 3278 16 is_stmt 0 view .LVU2038
 5815 0168 0020     		movs	r0, #0
 5816              	.LVL590:
 5817              		.loc 1 3410 2 view .LVU2039
 5818 016a 7047     		bx	lr
 5819              	.LVL591:
 5820              	.L340:
3411:D:/Git/VL53L1/lib/core/src\vl53l1_api_core.c **** 	case VL53L1_TUNINGPARM_TIMED_SEED_CONFIG:
3412:D:/Git/VL53L1/lib/core/src\vl53l1_api_core.c **** 		pdev->tuning_parms.tp_timed_seed_cfg =
 5821              		.loc 1 3412 3 is_stmt 1 view .LVU2040
 5822              		.loc 1 3412 40 is_stmt 0 view .LVU2041
 5823 016c 80F8C620 		strb	r2, [r0, #198]
3413:D:/Git/VL53L1/lib/core/src\vl53l1_api_core.c **** 				(uint8_t)tuning_parm_value;
3414:D:/Git/VL53L1/lib/core/src\vl53l1_api_core.c **** 	break;
 5824              		.loc 1 3414 2 is_stmt 1 view .LVU2042
3278:D:/Git/VL53L1/lib/core/src\vl53l1_api_core.c **** 
 5825              		.loc 1 3278 16 is_stmt 0 view .LVU2043
 5826 0170 0020     		movs	r0, #0
 5827              	.LVL592:
 5828              		.loc 1 3414 2 view .LVU2044
 5829 0172 7047     		bx	lr
 5830              	.LVL593:
 5831              	.L339:
3415:D:/Git/VL53L1/lib/core/src\vl53l1_api_core.c **** 	case VL53L1_TUNINGPARM_VHV_LOOPBOUND:
3416:D:/Git/VL53L1/lib/core/src\vl53l1_api_core.c **** 		pdev->stat_nvm.vhv_config__timeout_macrop_loop_bound =
 5832              		.loc 1 3416 3 is_stmt 1 view .LVU2045
 5833              		.loc 1 3416 56 is_stmt 0 view .LVU2046
 5834 0174 80F86021 		strb	r2, [r0, #352]
3417:D:/Git/VL53L1/lib/core/src\vl53l1_api_core.c **** 				(uint8_t)tuning_parm_value;
3418:D:/Git/VL53L1/lib/core/src\vl53l1_api_core.c **** 	break;
 5835              		.loc 1 3418 2 is_stmt 1 view .LVU2047
3278:D:/Git/VL53L1/lib/core/src\vl53l1_api_core.c **** 
ARM GAS  C:\Users\Berbardo\AppData\Local\Temp\ccBMvrJ9.s 			page 174


 5836              		.loc 1 3278 16 is_stmt 0 view .LVU2048
 5837 0178 0020     		movs	r0, #0
 5838              	.LVL594:
 5839              		.loc 1 3418 2 view .LVU2049
 5840 017a 7047     		bx	lr
 5841              	.LVL595:
 5842              	.L338:
3419:D:/Git/VL53L1/lib/core/src\vl53l1_api_core.c **** 	case VL53L1_TUNINGPARM_REFSPADCHAR_DEVICE_TEST_MODE:
3420:D:/Git/VL53L1/lib/core/src\vl53l1_api_core.c **** 		pdev->refspadchar.device_test_mode =
 5843              		.loc 1 3420 3 is_stmt 1 view .LVU2050
 5844              		.loc 1 3420 38 is_stmt 0 view .LVU2051
 5845 017c 80F81021 		strb	r2, [r0, #272]
3421:D:/Git/VL53L1/lib/core/src\vl53l1_api_core.c **** 				(uint8_t)tuning_parm_value;
3422:D:/Git/VL53L1/lib/core/src\vl53l1_api_core.c **** 	break;
 5846              		.loc 1 3422 2 is_stmt 1 view .LVU2052
3278:D:/Git/VL53L1/lib/core/src\vl53l1_api_core.c **** 
 5847              		.loc 1 3278 16 is_stmt 0 view .LVU2053
 5848 0180 0020     		movs	r0, #0
 5849              	.LVL596:
 5850              		.loc 1 3422 2 view .LVU2054
 5851 0182 7047     		bx	lr
 5852              	.LVL597:
 5853              	.L337:
3423:D:/Git/VL53L1/lib/core/src\vl53l1_api_core.c **** 	case VL53L1_TUNINGPARM_REFSPADCHAR_VCSEL_PERIOD:
3424:D:/Git/VL53L1/lib/core/src\vl53l1_api_core.c **** 		pdev->refspadchar.vcsel_period =
 5854              		.loc 1 3424 3 is_stmt 1 view .LVU2055
 5855              		.loc 1 3424 34 is_stmt 0 view .LVU2056
 5856 0184 80F81121 		strb	r2, [r0, #273]
3425:D:/Git/VL53L1/lib/core/src\vl53l1_api_core.c **** 				(uint8_t)tuning_parm_value;
3426:D:/Git/VL53L1/lib/core/src\vl53l1_api_core.c **** 	break;
 5857              		.loc 1 3426 2 is_stmt 1 view .LVU2057
3278:D:/Git/VL53L1/lib/core/src\vl53l1_api_core.c **** 
 5858              		.loc 1 3278 16 is_stmt 0 view .LVU2058
 5859 0188 0020     		movs	r0, #0
 5860              	.LVL598:
 5861              		.loc 1 3426 2 view .LVU2059
 5862 018a 7047     		bx	lr
 5863              	.LVL599:
 5864              	.L336:
3427:D:/Git/VL53L1/lib/core/src\vl53l1_api_core.c **** 	case VL53L1_TUNINGPARM_REFSPADCHAR_PHASECAL_TIMEOUT_US:
3428:D:/Git/VL53L1/lib/core/src\vl53l1_api_core.c **** 		pdev->refspadchar.timeout_us =
 5865              		.loc 1 3428 3 is_stmt 1 view .LVU2060
 5866              		.loc 1 3428 32 is_stmt 0 view .LVU2061
 5867 018c C0F81421 		str	r2, [r0, #276]
3429:D:/Git/VL53L1/lib/core/src\vl53l1_api_core.c **** 				(uint32_t)tuning_parm_value;
3430:D:/Git/VL53L1/lib/core/src\vl53l1_api_core.c **** 	break;
 5868              		.loc 1 3430 2 is_stmt 1 view .LVU2062
3278:D:/Git/VL53L1/lib/core/src\vl53l1_api_core.c **** 
 5869              		.loc 1 3278 16 is_stmt 0 view .LVU2063
 5870 0190 0020     		movs	r0, #0
 5871              	.LVL600:
 5872              		.loc 1 3430 2 view .LVU2064
 5873 0192 7047     		bx	lr
 5874              	.LVL601:
 5875              	.L335:
3431:D:/Git/VL53L1/lib/core/src\vl53l1_api_core.c **** 	case VL53L1_TUNINGPARM_REFSPADCHAR_TARGET_COUNT_RATE_MCPS:
3432:D:/Git/VL53L1/lib/core/src\vl53l1_api_core.c **** 		pdev->refspadchar.target_count_rate_mcps =
ARM GAS  C:\Users\Berbardo\AppData\Local\Temp\ccBMvrJ9.s 			page 175


 5876              		.loc 1 3432 3 is_stmt 1 view .LVU2065
 5877              		.loc 1 3432 44 is_stmt 0 view .LVU2066
 5878 0194 A0F81821 		strh	r2, [r0, #280]	@ movhi
3433:D:/Git/VL53L1/lib/core/src\vl53l1_api_core.c **** 				(uint16_t)tuning_parm_value;
3434:D:/Git/VL53L1/lib/core/src\vl53l1_api_core.c **** 	break;
 5879              		.loc 1 3434 2 is_stmt 1 view .LVU2067
3278:D:/Git/VL53L1/lib/core/src\vl53l1_api_core.c **** 
 5880              		.loc 1 3278 16 is_stmt 0 view .LVU2068
 5881 0198 0020     		movs	r0, #0
 5882              	.LVL602:
 5883              		.loc 1 3434 2 view .LVU2069
 5884 019a 7047     		bx	lr
 5885              	.LVL603:
 5886              	.L334:
3435:D:/Git/VL53L1/lib/core/src\vl53l1_api_core.c **** 	case VL53L1_TUNINGPARM_REFSPADCHAR_MIN_COUNTRATE_LIMIT_MCPS:
3436:D:/Git/VL53L1/lib/core/src\vl53l1_api_core.c **** 		pdev->refspadchar.min_count_rate_limit_mcps =
 5887              		.loc 1 3436 3 is_stmt 1 view .LVU2070
 5888              		.loc 1 3436 47 is_stmt 0 view .LVU2071
 5889 019c A0F81A21 		strh	r2, [r0, #282]	@ movhi
3437:D:/Git/VL53L1/lib/core/src\vl53l1_api_core.c **** 				(uint16_t)tuning_parm_value;
3438:D:/Git/VL53L1/lib/core/src\vl53l1_api_core.c **** 	break;
 5890              		.loc 1 3438 2 is_stmt 1 view .LVU2072
3278:D:/Git/VL53L1/lib/core/src\vl53l1_api_core.c **** 
 5891              		.loc 1 3278 16 is_stmt 0 view .LVU2073
 5892 01a0 0020     		movs	r0, #0
 5893              	.LVL604:
 5894              		.loc 1 3438 2 view .LVU2074
 5895 01a2 7047     		bx	lr
 5896              	.LVL605:
 5897              	.L333:
3439:D:/Git/VL53L1/lib/core/src\vl53l1_api_core.c **** 	case VL53L1_TUNINGPARM_REFSPADCHAR_MAX_COUNTRATE_LIMIT_MCPS:
3440:D:/Git/VL53L1/lib/core/src\vl53l1_api_core.c **** 		pdev->refspadchar.max_count_rate_limit_mcps =
 5898              		.loc 1 3440 3 is_stmt 1 view .LVU2075
 5899              		.loc 1 3440 47 is_stmt 0 view .LVU2076
 5900 01a4 A0F81C21 		strh	r2, [r0, #284]	@ movhi
3441:D:/Git/VL53L1/lib/core/src\vl53l1_api_core.c **** 				(uint16_t)tuning_parm_value;
3442:D:/Git/VL53L1/lib/core/src\vl53l1_api_core.c **** 	break;
 5901              		.loc 1 3442 2 is_stmt 1 view .LVU2077
3278:D:/Git/VL53L1/lib/core/src\vl53l1_api_core.c **** 
 5902              		.loc 1 3278 16 is_stmt 0 view .LVU2078
 5903 01a8 0020     		movs	r0, #0
 5904              	.LVL606:
 5905              		.loc 1 3442 2 view .LVU2079
 5906 01aa 7047     		bx	lr
 5907              	.LVL607:
 5908              	.L332:
3443:D:/Git/VL53L1/lib/core/src\vl53l1_api_core.c **** 	case VL53L1_TUNINGPARM_OFFSET_CAL_DSS_RATE_MCPS:
3444:D:/Git/VL53L1/lib/core/src\vl53l1_api_core.c **** 		pdev->offsetcal_cfg.dss_config__target_total_rate_mcps =
 5909              		.loc 1 3444 3 is_stmt 1 view .LVU2080
 5910              		.loc 1 3444 58 is_stmt 0 view .LVU2081
 5911 01ac A0F84421 		strh	r2, [r0, #324]	@ movhi
3445:D:/Git/VL53L1/lib/core/src\vl53l1_api_core.c **** 				(uint16_t)tuning_parm_value;
3446:D:/Git/VL53L1/lib/core/src\vl53l1_api_core.c **** 	break;
 5912              		.loc 1 3446 2 is_stmt 1 view .LVU2082
3278:D:/Git/VL53L1/lib/core/src\vl53l1_api_core.c **** 
 5913              		.loc 1 3278 16 is_stmt 0 view .LVU2083
 5914 01b0 0020     		movs	r0, #0
ARM GAS  C:\Users\Berbardo\AppData\Local\Temp\ccBMvrJ9.s 			page 176


 5915              	.LVL608:
 5916              		.loc 1 3446 2 view .LVU2084
 5917 01b2 7047     		bx	lr
 5918              	.LVL609:
 5919              	.L331:
3447:D:/Git/VL53L1/lib/core/src\vl53l1_api_core.c **** 	case VL53L1_TUNINGPARM_OFFSET_CAL_PHASECAL_TIMEOUT_US:
3448:D:/Git/VL53L1/lib/core/src\vl53l1_api_core.c **** 		pdev->offsetcal_cfg.phasecal_config_timeout_us =
 5920              		.loc 1 3448 3 is_stmt 1 view .LVU2085
 5921              		.loc 1 3448 50 is_stmt 0 view .LVU2086
 5922 01b4 C0F84821 		str	r2, [r0, #328]
3449:D:/Git/VL53L1/lib/core/src\vl53l1_api_core.c **** 				(uint32_t)tuning_parm_value;
3450:D:/Git/VL53L1/lib/core/src\vl53l1_api_core.c **** 	break;
 5923              		.loc 1 3450 2 is_stmt 1 view .LVU2087
3278:D:/Git/VL53L1/lib/core/src\vl53l1_api_core.c **** 
 5924              		.loc 1 3278 16 is_stmt 0 view .LVU2088
 5925 01b8 0020     		movs	r0, #0
 5926              	.LVL610:
 5927              		.loc 1 3450 2 view .LVU2089
 5928 01ba 7047     		bx	lr
 5929              	.LVL611:
 5930              	.L330:
3451:D:/Git/VL53L1/lib/core/src\vl53l1_api_core.c **** 	case VL53L1_TUNINGPARM_OFFSET_CAL_MM_TIMEOUT_US:
3452:D:/Git/VL53L1/lib/core/src\vl53l1_api_core.c **** 		pdev->offsetcal_cfg.mm_config_timeout_us =
 5931              		.loc 1 3452 3 is_stmt 1 view .LVU2090
 5932              		.loc 1 3452 44 is_stmt 0 view .LVU2091
 5933 01bc C0F85021 		str	r2, [r0, #336]
3453:D:/Git/VL53L1/lib/core/src\vl53l1_api_core.c **** 				(uint32_t)tuning_parm_value;
3454:D:/Git/VL53L1/lib/core/src\vl53l1_api_core.c **** 	break;
 5934              		.loc 1 3454 2 is_stmt 1 view .LVU2092
3278:D:/Git/VL53L1/lib/core/src\vl53l1_api_core.c **** 
 5935              		.loc 1 3278 16 is_stmt 0 view .LVU2093
 5936 01c0 0020     		movs	r0, #0
 5937              	.LVL612:
 5938              		.loc 1 3454 2 view .LVU2094
 5939 01c2 7047     		bx	lr
 5940              	.LVL613:
 5941              	.L329:
3455:D:/Git/VL53L1/lib/core/src\vl53l1_api_core.c **** 	case VL53L1_TUNINGPARM_OFFSET_CAL_RANGE_TIMEOUT_US:
3456:D:/Git/VL53L1/lib/core/src\vl53l1_api_core.c **** 		pdev->offsetcal_cfg.range_config_timeout_us =
 5942              		.loc 1 3456 3 is_stmt 1 view .LVU2095
 5943              		.loc 1 3456 47 is_stmt 0 view .LVU2096
 5944 01c4 C0F84C21 		str	r2, [r0, #332]
3457:D:/Git/VL53L1/lib/core/src\vl53l1_api_core.c **** 				(uint32_t)tuning_parm_value;
3458:D:/Git/VL53L1/lib/core/src\vl53l1_api_core.c **** 	break;
 5945              		.loc 1 3458 2 is_stmt 1 view .LVU2097
3278:D:/Git/VL53L1/lib/core/src\vl53l1_api_core.c **** 
 5946              		.loc 1 3278 16 is_stmt 0 view .LVU2098
 5947 01c8 0020     		movs	r0, #0
 5948              	.LVL614:
 5949              		.loc 1 3458 2 view .LVU2099
 5950 01ca 7047     		bx	lr
 5951              	.LVL615:
 5952              	.L328:
3459:D:/Git/VL53L1/lib/core/src\vl53l1_api_core.c **** 	case VL53L1_TUNINGPARM_OFFSET_CAL_PRE_SAMPLES:
3460:D:/Git/VL53L1/lib/core/src\vl53l1_api_core.c **** 		pdev->offsetcal_cfg.pre_num_of_samples =
 5953              		.loc 1 3460 3 is_stmt 1 view .LVU2100
 5954              		.loc 1 3460 42 is_stmt 0 view .LVU2101
ARM GAS  C:\Users\Berbardo\AppData\Local\Temp\ccBMvrJ9.s 			page 177


 5955 01cc 80F85421 		strb	r2, [r0, #340]
3461:D:/Git/VL53L1/lib/core/src\vl53l1_api_core.c **** 				(uint8_t)tuning_parm_value;
3462:D:/Git/VL53L1/lib/core/src\vl53l1_api_core.c **** 	break;
 5956              		.loc 1 3462 2 is_stmt 1 view .LVU2102
3278:D:/Git/VL53L1/lib/core/src\vl53l1_api_core.c **** 
 5957              		.loc 1 3278 16 is_stmt 0 view .LVU2103
 5958 01d0 0020     		movs	r0, #0
 5959              	.LVL616:
 5960              		.loc 1 3462 2 view .LVU2104
 5961 01d2 7047     		bx	lr
 5962              	.LVL617:
 5963              	.L327:
3463:D:/Git/VL53L1/lib/core/src\vl53l1_api_core.c **** 	case VL53L1_TUNINGPARM_OFFSET_CAL_MM1_SAMPLES:
3464:D:/Git/VL53L1/lib/core/src\vl53l1_api_core.c **** 		pdev->offsetcal_cfg.mm1_num_of_samples =
 5964              		.loc 1 3464 3 is_stmt 1 view .LVU2105
 5965              		.loc 1 3464 42 is_stmt 0 view .LVU2106
 5966 01d4 80F85521 		strb	r2, [r0, #341]
3465:D:/Git/VL53L1/lib/core/src\vl53l1_api_core.c **** 				(uint8_t)tuning_parm_value;
3466:D:/Git/VL53L1/lib/core/src\vl53l1_api_core.c **** 	break;
 5967              		.loc 1 3466 2 is_stmt 1 view .LVU2107
3278:D:/Git/VL53L1/lib/core/src\vl53l1_api_core.c **** 
 5968              		.loc 1 3278 16 is_stmt 0 view .LVU2108
 5969 01d8 0020     		movs	r0, #0
 5970              	.LVL618:
 5971              		.loc 1 3466 2 view .LVU2109
 5972 01da 7047     		bx	lr
 5973              	.LVL619:
 5974              	.L326:
3467:D:/Git/VL53L1/lib/core/src\vl53l1_api_core.c **** 	case VL53L1_TUNINGPARM_OFFSET_CAL_MM2_SAMPLES:
3468:D:/Git/VL53L1/lib/core/src\vl53l1_api_core.c **** 		pdev->offsetcal_cfg.mm2_num_of_samples =
 5975              		.loc 1 3468 3 is_stmt 1 view .LVU2110
 5976              		.loc 1 3468 42 is_stmt 0 view .LVU2111
 5977 01dc 80F85621 		strb	r2, [r0, #342]
3469:D:/Git/VL53L1/lib/core/src\vl53l1_api_core.c **** 				(uint8_t)tuning_parm_value;
3470:D:/Git/VL53L1/lib/core/src\vl53l1_api_core.c **** 	break;
 5978              		.loc 1 3470 2 is_stmt 1 view .LVU2112
3278:D:/Git/VL53L1/lib/core/src\vl53l1_api_core.c **** 
 5979              		.loc 1 3278 16 is_stmt 0 view .LVU2113
 5980 01e0 0020     		movs	r0, #0
 5981              	.LVL620:
 5982              		.loc 1 3470 2 view .LVU2114
 5983 01e2 7047     		bx	lr
 5984              	.LVL621:
 5985              	.L325:
3471:D:/Git/VL53L1/lib/core/src\vl53l1_api_core.c **** 	case VL53L1_TUNINGPARM_SPADMAP_VCSEL_PERIOD:
3472:D:/Git/VL53L1/lib/core/src\vl53l1_api_core.c **** 		pdev->ssc_cfg.vcsel_period =
 5986              		.loc 1 3472 3 is_stmt 1 view .LVU2115
 5987              		.loc 1 3472 30 is_stmt 0 view .LVU2116
 5988 01e4 80F82121 		strb	r2, [r0, #289]
3473:D:/Git/VL53L1/lib/core/src\vl53l1_api_core.c **** 				(uint8_t)tuning_parm_value;
3474:D:/Git/VL53L1/lib/core/src\vl53l1_api_core.c **** 	break;
 5989              		.loc 1 3474 2 is_stmt 1 view .LVU2117
3278:D:/Git/VL53L1/lib/core/src\vl53l1_api_core.c **** 
 5990              		.loc 1 3278 16 is_stmt 0 view .LVU2118
 5991 01e8 0020     		movs	r0, #0
 5992              	.LVL622:
 5993              		.loc 1 3474 2 view .LVU2119
ARM GAS  C:\Users\Berbardo\AppData\Local\Temp\ccBMvrJ9.s 			page 178


 5994 01ea 7047     		bx	lr
 5995              	.LVL623:
 5996              	.L324:
3475:D:/Git/VL53L1/lib/core/src\vl53l1_api_core.c **** 	case VL53L1_TUNINGPARM_SPADMAP_VCSEL_START:
3476:D:/Git/VL53L1/lib/core/src\vl53l1_api_core.c **** 		pdev->ssc_cfg.vcsel_start =
 5997              		.loc 1 3476 3 is_stmt 1 view .LVU2120
 5998              		.loc 1 3476 29 is_stmt 0 view .LVU2121
 5999 01ec 80F82221 		strb	r2, [r0, #290]
3477:D:/Git/VL53L1/lib/core/src\vl53l1_api_core.c **** 				(uint8_t)tuning_parm_value;
3478:D:/Git/VL53L1/lib/core/src\vl53l1_api_core.c **** 	break;
 6000              		.loc 1 3478 2 is_stmt 1 view .LVU2122
3278:D:/Git/VL53L1/lib/core/src\vl53l1_api_core.c **** 
 6001              		.loc 1 3278 16 is_stmt 0 view .LVU2123
 6002 01f0 0020     		movs	r0, #0
 6003              	.LVL624:
 6004              		.loc 1 3478 2 view .LVU2124
 6005 01f2 7047     		bx	lr
 6006              	.LVL625:
 6007              	.L323:
3479:D:/Git/VL53L1/lib/core/src\vl53l1_api_core.c **** 	case VL53L1_TUNINGPARM_SPADMAP_RATE_LIMIT_MCPS:
3480:D:/Git/VL53L1/lib/core/src\vl53l1_api_core.c **** 		pdev->ssc_cfg.rate_limit_mcps =
 6008              		.loc 1 3480 3 is_stmt 1 view .LVU2125
 6009              		.loc 1 3480 33 is_stmt 0 view .LVU2126
 6010 01f4 A0F82821 		strh	r2, [r0, #296]	@ movhi
3481:D:/Git/VL53L1/lib/core/src\vl53l1_api_core.c **** 				(uint16_t)tuning_parm_value;
3482:D:/Git/VL53L1/lib/core/src\vl53l1_api_core.c **** 	break;
 6011              		.loc 1 3482 2 is_stmt 1 view .LVU2127
3278:D:/Git/VL53L1/lib/core/src\vl53l1_api_core.c **** 
 6012              		.loc 1 3278 16 is_stmt 0 view .LVU2128
 6013 01f8 0020     		movs	r0, #0
 6014              	.LVL626:
 6015              		.loc 1 3482 2 view .LVU2129
 6016 01fa 7047     		bx	lr
 6017              	.LVL627:
 6018              	.L322:
3483:D:/Git/VL53L1/lib/core/src\vl53l1_api_core.c **** 	case VL53L1_TUNINGPARM_LITE_DSS_CONFIG_TARGET_TOTAL_RATE_MCPS:
3484:D:/Git/VL53L1/lib/core/src\vl53l1_api_core.c **** 		pdev->tuning_parms.tp_dss_target_lite_mcps =
 6019              		.loc 1 3484 3 is_stmt 1 view .LVU2130
 6020              		.loc 1 3484 46 is_stmt 0 view .LVU2131
 6021 01fc A0F8CA20 		strh	r2, [r0, #202]	@ movhi
3485:D:/Git/VL53L1/lib/core/src\vl53l1_api_core.c **** 			(uint16_t)tuning_parm_value;
3486:D:/Git/VL53L1/lib/core/src\vl53l1_api_core.c **** 	break;
 6022              		.loc 1 3486 2 is_stmt 1 view .LVU2132
3278:D:/Git/VL53L1/lib/core/src\vl53l1_api_core.c **** 
 6023              		.loc 1 3278 16 is_stmt 0 view .LVU2133
 6024 0200 0020     		movs	r0, #0
 6025              	.LVL628:
 6026              		.loc 1 3486 2 view .LVU2134
 6027 0202 7047     		bx	lr
 6028              	.LVL629:
 6029              	.L321:
3487:D:/Git/VL53L1/lib/core/src\vl53l1_api_core.c **** 	case VL53L1_TUNINGPARM_TIMED_DSS_CONFIG_TARGET_TOTAL_RATE_MCPS:
3488:D:/Git/VL53L1/lib/core/src\vl53l1_api_core.c **** 		pdev->tuning_parms.tp_dss_target_timed_mcps =
 6030              		.loc 1 3488 3 is_stmt 1 view .LVU2135
 6031              		.loc 1 3488 47 is_stmt 0 view .LVU2136
 6032 0204 A0F8CC20 		strh	r2, [r0, #204]	@ movhi
3489:D:/Git/VL53L1/lib/core/src\vl53l1_api_core.c **** 			(uint16_t)tuning_parm_value;
ARM GAS  C:\Users\Berbardo\AppData\Local\Temp\ccBMvrJ9.s 			page 179


3490:D:/Git/VL53L1/lib/core/src\vl53l1_api_core.c **** 	break;
 6033              		.loc 1 3490 2 is_stmt 1 view .LVU2137
3278:D:/Git/VL53L1/lib/core/src\vl53l1_api_core.c **** 
 6034              		.loc 1 3278 16 is_stmt 0 view .LVU2138
 6035 0208 0020     		movs	r0, #0
 6036              	.LVL630:
 6037              		.loc 1 3490 2 view .LVU2139
 6038 020a 7047     		bx	lr
 6039              	.LVL631:
 6040              	.L320:
3491:D:/Git/VL53L1/lib/core/src\vl53l1_api_core.c **** 	case VL53L1_TUNINGPARM_LITE_PHASECAL_CONFIG_TIMEOUT_US:
3492:D:/Git/VL53L1/lib/core/src\vl53l1_api_core.c **** 		pdev->tuning_parms.tp_phasecal_timeout_lite_us =
 6041              		.loc 1 3492 3 is_stmt 1 view .LVU2140
 6042              		.loc 1 3492 50 is_stmt 0 view .LVU2141
 6043 020c C0F8D020 		str	r2, [r0, #208]
3493:D:/Git/VL53L1/lib/core/src\vl53l1_api_core.c **** 			(uint32_t)tuning_parm_value;
3494:D:/Git/VL53L1/lib/core/src\vl53l1_api_core.c **** 	break;
 6044              		.loc 1 3494 2 is_stmt 1 view .LVU2142
3278:D:/Git/VL53L1/lib/core/src\vl53l1_api_core.c **** 
 6045              		.loc 1 3278 16 is_stmt 0 view .LVU2143
 6046 0210 0020     		movs	r0, #0
 6047              	.LVL632:
 6048              		.loc 1 3494 2 view .LVU2144
 6049 0212 7047     		bx	lr
 6050              	.LVL633:
 6051              	.L319:
3495:D:/Git/VL53L1/lib/core/src\vl53l1_api_core.c **** 	case VL53L1_TUNINGPARM_TIMED_PHASECAL_CONFIG_TIMEOUT_US:
3496:D:/Git/VL53L1/lib/core/src\vl53l1_api_core.c **** 		pdev->tuning_parms.tp_phasecal_timeout_timed_us =
 6052              		.loc 1 3496 3 is_stmt 1 view .LVU2145
 6053              		.loc 1 3496 51 is_stmt 0 view .LVU2146
 6054 0214 C0F8D420 		str	r2, [r0, #212]
3497:D:/Git/VL53L1/lib/core/src\vl53l1_api_core.c **** 			(uint32_t)tuning_parm_value;
3498:D:/Git/VL53L1/lib/core/src\vl53l1_api_core.c **** 	break;
 6055              		.loc 1 3498 2 is_stmt 1 view .LVU2147
3278:D:/Git/VL53L1/lib/core/src\vl53l1_api_core.c **** 
 6056              		.loc 1 3278 16 is_stmt 0 view .LVU2148
 6057 0218 0020     		movs	r0, #0
 6058              	.LVL634:
 6059              		.loc 1 3498 2 view .LVU2149
 6060 021a 7047     		bx	lr
 6061              	.LVL635:
 6062              	.L318:
3499:D:/Git/VL53L1/lib/core/src\vl53l1_api_core.c **** 	case VL53L1_TUNINGPARM_LITE_MM_CONFIG_TIMEOUT_US:
3500:D:/Git/VL53L1/lib/core/src\vl53l1_api_core.c **** 		pdev->tuning_parms.tp_mm_timeout_lite_us =
 6063              		.loc 1 3500 3 is_stmt 1 view .LVU2150
 6064              		.loc 1 3500 44 is_stmt 0 view .LVU2151
 6065 021c C0F8D820 		str	r2, [r0, #216]
3501:D:/Git/VL53L1/lib/core/src\vl53l1_api_core.c **** 			(uint32_t)tuning_parm_value;
3502:D:/Git/VL53L1/lib/core/src\vl53l1_api_core.c **** 	break;
 6066              		.loc 1 3502 2 is_stmt 1 view .LVU2152
3278:D:/Git/VL53L1/lib/core/src\vl53l1_api_core.c **** 
 6067              		.loc 1 3278 16 is_stmt 0 view .LVU2153
 6068 0220 0020     		movs	r0, #0
 6069              	.LVL636:
 6070              		.loc 1 3502 2 view .LVU2154
 6071 0222 7047     		bx	lr
 6072              	.LVL637:
ARM GAS  C:\Users\Berbardo\AppData\Local\Temp\ccBMvrJ9.s 			page 180


 6073              	.L317:
3503:D:/Git/VL53L1/lib/core/src\vl53l1_api_core.c **** 	case VL53L1_TUNINGPARM_TIMED_MM_CONFIG_TIMEOUT_US:
3504:D:/Git/VL53L1/lib/core/src\vl53l1_api_core.c **** 		pdev->tuning_parms.tp_mm_timeout_timed_us =
 6074              		.loc 1 3504 3 is_stmt 1 view .LVU2155
 6075              		.loc 1 3504 45 is_stmt 0 view .LVU2156
 6076 0224 C0F8DC20 		str	r2, [r0, #220]
3505:D:/Git/VL53L1/lib/core/src\vl53l1_api_core.c **** 			(uint32_t)tuning_parm_value;
3506:D:/Git/VL53L1/lib/core/src\vl53l1_api_core.c **** 	break;
 6077              		.loc 1 3506 2 is_stmt 1 view .LVU2157
3278:D:/Git/VL53L1/lib/core/src\vl53l1_api_core.c **** 
 6078              		.loc 1 3278 16 is_stmt 0 view .LVU2158
 6079 0228 0020     		movs	r0, #0
 6080              	.LVL638:
 6081              		.loc 1 3506 2 view .LVU2159
 6082 022a 7047     		bx	lr
 6083              	.LVL639:
 6084              	.L316:
3507:D:/Git/VL53L1/lib/core/src\vl53l1_api_core.c **** 	case VL53L1_TUNINGPARM_LITE_RANGE_CONFIG_TIMEOUT_US:
3508:D:/Git/VL53L1/lib/core/src\vl53l1_api_core.c **** 		pdev->tuning_parms.tp_range_timeout_lite_us =
 6085              		.loc 1 3508 3 is_stmt 1 view .LVU2160
 6086              		.loc 1 3508 47 is_stmt 0 view .LVU2161
 6087 022c C0F8E420 		str	r2, [r0, #228]
3509:D:/Git/VL53L1/lib/core/src\vl53l1_api_core.c **** 			(uint32_t)tuning_parm_value;
3510:D:/Git/VL53L1/lib/core/src\vl53l1_api_core.c **** 	break;
 6088              		.loc 1 3510 2 is_stmt 1 view .LVU2162
3278:D:/Git/VL53L1/lib/core/src\vl53l1_api_core.c **** 
 6089              		.loc 1 3278 16 is_stmt 0 view .LVU2163
 6090 0230 0020     		movs	r0, #0
 6091              	.LVL640:
 6092              		.loc 1 3510 2 view .LVU2164
 6093 0232 7047     		bx	lr
 6094              	.LVL641:
 6095              	.L315:
3511:D:/Git/VL53L1/lib/core/src\vl53l1_api_core.c **** 	case VL53L1_TUNINGPARM_TIMED_RANGE_CONFIG_TIMEOUT_US:
3512:D:/Git/VL53L1/lib/core/src\vl53l1_api_core.c **** 		pdev->tuning_parms.tp_range_timeout_timed_us =
 6096              		.loc 1 3512 3 is_stmt 1 view .LVU2165
 6097              		.loc 1 3512 48 is_stmt 0 view .LVU2166
 6098 0234 C0F8E820 		str	r2, [r0, #232]
3513:D:/Git/VL53L1/lib/core/src\vl53l1_api_core.c **** 			(uint32_t)tuning_parm_value;
3514:D:/Git/VL53L1/lib/core/src\vl53l1_api_core.c **** 	break;
 6099              		.loc 1 3514 2 is_stmt 1 view .LVU2167
3278:D:/Git/VL53L1/lib/core/src\vl53l1_api_core.c **** 
 6100              		.loc 1 3278 16 is_stmt 0 view .LVU2168
 6101 0238 0020     		movs	r0, #0
 6102              	.LVL642:
 6103              		.loc 1 3514 2 view .LVU2169
 6104 023a 7047     		bx	lr
 6105              	.LVL643:
 6106              	.L314:
3515:D:/Git/VL53L1/lib/core/src\vl53l1_api_core.c **** 	case VL53L1_TUNINGPARM_LOWPOWERAUTO_VHV_LOOP_BOUND:
3516:D:/Git/VL53L1/lib/core/src\vl53l1_api_core.c **** 		pdev->low_power_auto_data.vhv_loop_bound =
 6107              		.loc 1 3516 3 is_stmt 1 view .LVU2170
 6108              		.loc 1 3516 44 is_stmt 0 view .LVU2171
 6109 023c 80F8E422 		strb	r2, [r0, #740]
3517:D:/Git/VL53L1/lib/core/src\vl53l1_api_core.c **** 			(uint8_t)tuning_parm_value;
3518:D:/Git/VL53L1/lib/core/src\vl53l1_api_core.c **** 	break;
 6110              		.loc 1 3518 2 is_stmt 1 view .LVU2172
ARM GAS  C:\Users\Berbardo\AppData\Local\Temp\ccBMvrJ9.s 			page 181


3278:D:/Git/VL53L1/lib/core/src\vl53l1_api_core.c **** 
 6111              		.loc 1 3278 16 is_stmt 0 view .LVU2173
 6112 0240 0020     		movs	r0, #0
 6113              	.LVL644:
 6114              		.loc 1 3518 2 view .LVU2174
 6115 0242 7047     		bx	lr
 6116              	.LVL645:
 6117              	.L313:
3519:D:/Git/VL53L1/lib/core/src\vl53l1_api_core.c **** 	case VL53L1_TUNINGPARM_LOWPOWERAUTO_MM_CONFIG_TIMEOUT_US:
3520:D:/Git/VL53L1/lib/core/src\vl53l1_api_core.c **** 		pdev->tuning_parms.tp_mm_timeout_lpa_us =
 6118              		.loc 1 3520 3 is_stmt 1 view .LVU2175
 6119              		.loc 1 3520 43 is_stmt 0 view .LVU2176
 6120 0244 C0F8E020 		str	r2, [r0, #224]
3521:D:/Git/VL53L1/lib/core/src\vl53l1_api_core.c **** 			(uint32_t)tuning_parm_value;
3522:D:/Git/VL53L1/lib/core/src\vl53l1_api_core.c **** 	break;
 6121              		.loc 1 3522 2 is_stmt 1 view .LVU2177
3278:D:/Git/VL53L1/lib/core/src\vl53l1_api_core.c **** 
 6122              		.loc 1 3278 16 is_stmt 0 view .LVU2178
 6123 0248 0020     		movs	r0, #0
 6124              	.LVL646:
 6125              		.loc 1 3522 2 view .LVU2179
 6126 024a 7047     		bx	lr
 6127              	.LVL647:
 6128              	.L311:
3523:D:/Git/VL53L1/lib/core/src\vl53l1_api_core.c **** 	case VL53L1_TUNINGPARM_LOWPOWERAUTO_RANGE_CONFIG_TIMEOUT_US:
3524:D:/Git/VL53L1/lib/core/src\vl53l1_api_core.c **** 		pdev->tuning_parms.tp_range_timeout_lpa_us =
 6129              		.loc 1 3524 3 is_stmt 1 view .LVU2180
 6130              		.loc 1 3524 46 is_stmt 0 view .LVU2181
 6131 024c C0F8EC20 		str	r2, [r0, #236]
3525:D:/Git/VL53L1/lib/core/src\vl53l1_api_core.c **** 			(uint32_t)tuning_parm_value;
3526:D:/Git/VL53L1/lib/core/src\vl53l1_api_core.c **** 	break;
 6132              		.loc 1 3526 2 is_stmt 1 view .LVU2182
3278:D:/Git/VL53L1/lib/core/src\vl53l1_api_core.c **** 
 6133              		.loc 1 3278 16 is_stmt 0 view .LVU2183
 6134 0250 0020     		movs	r0, #0
 6135              	.LVL648:
 6136              		.loc 1 3526 2 view .LVU2184
 6137 0252 7047     		bx	lr
 6138              	.LVL649:
 6139              	.L369:
3527:D:/Git/VL53L1/lib/core/src\vl53l1_api_core.c **** 
3528:D:/Git/VL53L1/lib/core/src\vl53l1_api_core.c **** 
3529:D:/Git/VL53L1/lib/core/src\vl53l1_api_core.c **** 	default:
3530:D:/Git/VL53L1/lib/core/src\vl53l1_api_core.c **** 		status = VL53L1_ERROR_INVALID_PARAMS;
 6140              		.loc 1 3530 10 view .LVU2185
 6141 0254 6FF00300 		mvn	r0, #3
 6142              	.LVL650:
 6143              		.loc 1 3530 10 view .LVU2186
 6144 0258 7047     		bx	lr
 6145              	.LVL651:
 6146              	.L370:
3304:D:/Git/VL53L1/lib/core/src\vl53l1_api_core.c **** 		}
 6147              		.loc 1 3304 11 view .LVU2187
 6148 025a 6FF01A00 		mvn	r0, #26
 6149              	.LVL652:
3531:D:/Git/VL53L1/lib/core/src\vl53l1_api_core.c **** 	break;
3532:D:/Git/VL53L1/lib/core/src\vl53l1_api_core.c **** 
ARM GAS  C:\Users\Berbardo\AppData\Local\Temp\ccBMvrJ9.s 			page 182


3533:D:/Git/VL53L1/lib/core/src\vl53l1_api_core.c **** 	}
3534:D:/Git/VL53L1/lib/core/src\vl53l1_api_core.c **** 
3535:D:/Git/VL53L1/lib/core/src\vl53l1_api_core.c **** 	LOG_FUNCTION_END(status);
 6150              		.loc 1 3535 26 is_stmt 1 view .LVU2188
3536:D:/Git/VL53L1/lib/core/src\vl53l1_api_core.c **** 
3537:D:/Git/VL53L1/lib/core/src\vl53l1_api_core.c **** 	return status;
 6151              		.loc 1 3537 2 view .LVU2189
3538:D:/Git/VL53L1/lib/core/src\vl53l1_api_core.c **** }
 6152              		.loc 1 3538 1 is_stmt 0 view .LVU2190
 6153 025e 7047     		bx	lr
 6154              		.cfi_endproc
 6155              	.LFE178:
 6157              		.text
 6158              	.Letext0:
 6159              		.file 2 "c:\\program files (x86)\\gnu tools arm embedded\\8 2019-q3-update\\arm-none-eabi\\include
 6160              		.file 3 "c:\\program files (x86)\\gnu tools arm embedded\\8 2019-q3-update\\arm-none-eabi\\include
 6161              		.file 4 "c:\\program files (x86)\\gnu tools arm embedded\\8 2019-q3-update\\lib\\gcc\\arm-none-eab
 6162              		.file 5 "c:\\program files (x86)\\gnu tools arm embedded\\8 2019-q3-update\\arm-none-eabi\\include
 6163              		.file 6 "c:\\program files (x86)\\gnu tools arm embedded\\8 2019-q3-update\\arm-none-eabi\\include
 6164              		.file 7 "c:\\program files (x86)\\gnu tools arm embedded\\8 2019-q3-update\\arm-none-eabi\\include
 6165              		.file 8 "D:/Git/VL53L1/lib/platform/inc/vl53l1_types.h"
 6166              		.file 9 "D:/Git/VL53L1/lib/core/inc/vl53l1_ll_device.h"
 6167              		.file 10 "D:/Git/VL53L1/lib/core/inc/vl53l1_error_codes.h"
 6168              		.file 11 "D:/Git/VL53L1/lib/core/inc/vl53l1_register_structs.h"
 6169              		.file 12 "D:/Git/VL53L1/lib/core/inc/vl53l1_ll_def.h"
 6170              		.file 13 "cube/Drivers/CMSIS/Include/core_cm4.h"
 6171              		.file 14 "cube/Drivers/CMSIS/Device/ST/STM32F3xx/Include/system_stm32f3xx.h"
 6172              		.file 15 "cube/Drivers/CMSIS/Device/ST/STM32F3xx/Include/stm32f303xe.h"
 6173              		.file 16 "cube/Drivers/STM32F3xx_HAL_Driver/Inc/stm32f3xx_hal_def.h"
 6174              		.file 17 "cube/Drivers/STM32F3xx_HAL_Driver/Inc/stm32f3xx_hal_dma.h"
 6175              		.file 18 "cube/Drivers/STM32F3xx_HAL_Driver/Inc/stm32f3xx_hal_i2c.h"
 6176              		.file 19 "cube/Drivers/STM32F3xx_HAL_Driver/Inc/stm32f3xx_hal.h"
 6177              		.file 20 "D:/Git/VL53L1/lib/core/inc/vl53l1_def.h"
 6178              		.file 21 "D:/Git/VL53L1/lib/platform/inc/vl53l1_platform_user_data.h"
 6179              		.file 22 "D:/Git/VL53L1/lib/core/inc/vl53l1_core.h"
 6180              		.file 23 "D:/Git/VL53L1/lib/platform/inc/vl53l1_platform.h"
 6181              		.file 24 "D:/Git/VL53L1/lib/core/inc/vl53l1_register_funcs.h"
 6182              		.file 25 "D:/Git/VL53L1/lib/core/inc/vl53l1_api_preset_modes.h"
 6183              		.file 26 "D:/Git/VL53L1/lib/core/inc/vl53l1_core_support.h"
 6184              		.file 27 "D:/Git/VL53L1/lib/core/inc/vl53l1_wait.h"
 6185              		.file 28 "<built-in>"
ARM GAS  C:\Users\Berbardo\AppData\Local\Temp\ccBMvrJ9.s 			page 183


DEFINED SYMBOLS
                            *ABS*:00000000 vl53l1_api_core.c
C:\Users\Berbardo\AppData\Local\Temp\ccBMvrJ9.s:18     .text.VL53L1_software_reset:00000000 $t
C:\Users\Berbardo\AppData\Local\Temp\ccBMvrJ9.s:26     .text.VL53L1_software_reset:00000000 VL53L1_software_reset
C:\Users\Berbardo\AppData\Local\Temp\ccBMvrJ9.s:111    .text.VL53L1_set_part_to_part_data:00000000 $t
C:\Users\Berbardo\AppData\Local\Temp\ccBMvrJ9.s:118    .text.VL53L1_set_part_to_part_data:00000000 VL53L1_set_part_to_part_data
C:\Users\Berbardo\AppData\Local\Temp\ccBMvrJ9.s:279    .text.VL53L1_set_part_to_part_data:000000cc $d
C:\Users\Berbardo\AppData\Local\Temp\ccBMvrJ9.s:284    .text.VL53L1_get_part_to_part_data:00000000 $t
C:\Users\Berbardo\AppData\Local\Temp\ccBMvrJ9.s:291    .text.VL53L1_get_part_to_part_data:00000000 VL53L1_get_part_to_part_data
C:\Users\Berbardo\AppData\Local\Temp\ccBMvrJ9.s:419    .text.VL53L1_get_part_to_part_data:00000090 $d
C:\Users\Berbardo\AppData\Local\Temp\ccBMvrJ9.s:424    .text.VL53L1_set_inter_measurement_period_ms:00000000 $t
C:\Users\Berbardo\AppData\Local\Temp\ccBMvrJ9.s:431    .text.VL53L1_set_inter_measurement_period_ms:00000000 VL53L1_set_inter_measurement_period_ms
C:\Users\Berbardo\AppData\Local\Temp\ccBMvrJ9.s:475    .text.VL53L1_get_inter_measurement_period_ms:00000000 $t
C:\Users\Berbardo\AppData\Local\Temp\ccBMvrJ9.s:482    .text.VL53L1_get_inter_measurement_period_ms:00000000 VL53L1_get_inter_measurement_period_ms
C:\Users\Berbardo\AppData\Local\Temp\ccBMvrJ9.s:524    .text.VL53L1_set_timeouts_us:00000000 $t
C:\Users\Berbardo\AppData\Local\Temp\ccBMvrJ9.s:531    .text.VL53L1_set_timeouts_us:00000000 VL53L1_set_timeouts_us
C:\Users\Berbardo\AppData\Local\Temp\ccBMvrJ9.s:605    .text.VL53L1_get_timeouts_us:00000000 $t
C:\Users\Berbardo\AppData\Local\Temp\ccBMvrJ9.s:612    .text.VL53L1_get_timeouts_us:00000000 VL53L1_get_timeouts_us
C:\Users\Berbardo\AppData\Local\Temp\ccBMvrJ9.s:735    .text.VL53L1_set_calibration_repeat_period:00000000 $t
C:\Users\Berbardo\AppData\Local\Temp\ccBMvrJ9.s:742    .text.VL53L1_set_calibration_repeat_period:00000000 VL53L1_set_calibration_repeat_period
C:\Users\Berbardo\AppData\Local\Temp\ccBMvrJ9.s:765    .text.VL53L1_get_calibration_repeat_period:00000000 $t
C:\Users\Berbardo\AppData\Local\Temp\ccBMvrJ9.s:772    .text.VL53L1_get_calibration_repeat_period:00000000 VL53L1_get_calibration_repeat_period
C:\Users\Berbardo\AppData\Local\Temp\ccBMvrJ9.s:797    .text.VL53L1_set_sequence_config_bit:00000000 $t
C:\Users\Berbardo\AppData\Local\Temp\ccBMvrJ9.s:804    .text.VL53L1_set_sequence_config_bit:00000000 VL53L1_set_sequence_config_bit
C:\Users\Berbardo\AppData\Local\Temp\ccBMvrJ9.s:882    .text.VL53L1_get_sequence_config_bit:00000000 $t
C:\Users\Berbardo\AppData\Local\Temp\ccBMvrJ9.s:889    .text.VL53L1_get_sequence_config_bit:00000000 VL53L1_get_sequence_config_bit
C:\Users\Berbardo\AppData\Local\Temp\ccBMvrJ9.s:974    .text.VL53L1_set_interrupt_polarity:00000000 $t
C:\Users\Berbardo\AppData\Local\Temp\ccBMvrJ9.s:981    .text.VL53L1_set_interrupt_polarity:00000000 VL53L1_set_interrupt_polarity
C:\Users\Berbardo\AppData\Local\Temp\ccBMvrJ9.s:1013   .text.VL53L1_set_refspadchar_config_struct:00000000 $t
C:\Users\Berbardo\AppData\Local\Temp\ccBMvrJ9.s:1020   .text.VL53L1_set_refspadchar_config_struct:00000000 VL53L1_set_refspadchar_config_struct
C:\Users\Berbardo\AppData\Local\Temp\ccBMvrJ9.s:1072   .text.VL53L1_get_refspadchar_config_struct:00000000 $t
C:\Users\Berbardo\AppData\Local\Temp\ccBMvrJ9.s:1079   .text.VL53L1_get_refspadchar_config_struct:00000000 VL53L1_get_refspadchar_config_struct
C:\Users\Berbardo\AppData\Local\Temp\ccBMvrJ9.s:1131   .text.VL53L1_set_range_ignore_threshold:00000000 $t
C:\Users\Berbardo\AppData\Local\Temp\ccBMvrJ9.s:1138   .text.VL53L1_set_range_ignore_threshold:00000000 VL53L1_set_range_ignore_threshold
C:\Users\Berbardo\AppData\Local\Temp\ccBMvrJ9.s:1164   .text.VL53L1_get_range_ignore_threshold:00000000 $t
C:\Users\Berbardo\AppData\Local\Temp\ccBMvrJ9.s:1171   .text.VL53L1_get_range_ignore_threshold:00000000 VL53L1_get_range_ignore_threshold
C:\Users\Berbardo\AppData\Local\Temp\ccBMvrJ9.s:1216   .text.VL53L1_get_interrupt_polarity:00000000 $t
C:\Users\Berbardo\AppData\Local\Temp\ccBMvrJ9.s:1223   .text.VL53L1_get_interrupt_polarity:00000000 VL53L1_get_interrupt_polarity
C:\Users\Berbardo\AppData\Local\Temp\ccBMvrJ9.s:1250   .text.VL53L1_set_user_zone:00000000 $t
C:\Users\Berbardo\AppData\Local\Temp\ccBMvrJ9.s:1257   .text.VL53L1_set_user_zone:00000000 VL53L1_set_user_zone
C:\Users\Berbardo\AppData\Local\Temp\ccBMvrJ9.s:1303   .text.VL53L1_get_user_zone:00000000 $t
C:\Users\Berbardo\AppData\Local\Temp\ccBMvrJ9.s:1310   .text.VL53L1_get_user_zone:00000000 VL53L1_get_user_zone
C:\Users\Berbardo\AppData\Local\Temp\ccBMvrJ9.s:1356   .text.VL53L1_get_mode_mitigation_roi:00000000 $t
C:\Users\Berbardo\AppData\Local\Temp\ccBMvrJ9.s:1363   .text.VL53L1_get_mode_mitigation_roi:00000000 VL53L1_get_mode_mitigation_roi
C:\Users\Berbardo\AppData\Local\Temp\ccBMvrJ9.s:1439   .text.VL53L1_read_p2p_data:00000000 $t
C:\Users\Berbardo\AppData\Local\Temp\ccBMvrJ9.s:1446   .text.VL53L1_read_p2p_data:00000000 VL53L1_read_p2p_data
C:\Users\Berbardo\AppData\Local\Temp\ccBMvrJ9.s:1590   .text.VL53L1_get_preset_mode_timing_cfg:00000000 $t
C:\Users\Berbardo\AppData\Local\Temp\ccBMvrJ9.s:1597   .text.VL53L1_get_preset_mode_timing_cfg:00000000 VL53L1_get_preset_mode_timing_cfg
C:\Users\Berbardo\AppData\Local\Temp\ccBMvrJ9.s:1616   .text.VL53L1_get_preset_mode_timing_cfg:0000000a $d
C:\Users\Berbardo\AppData\Local\Temp\ccBMvrJ9.s:1654   .text.VL53L1_get_preset_mode_timing_cfg:00000030 $t
C:\Users\Berbardo\AppData\Local\Temp\ccBMvrJ9.s:1763   .text.VL53L1_set_preset_mode:00000000 $t
C:\Users\Berbardo\AppData\Local\Temp\ccBMvrJ9.s:1770   .text.VL53L1_set_preset_mode:00000000 VL53L1_set_preset_mode
C:\Users\Berbardo\AppData\Local\Temp\ccBMvrJ9.s:1859   .text.VL53L1_set_preset_mode:0000004c $d
C:\Users\Berbardo\AppData\Local\Temp\ccBMvrJ9.s:1897   .text.VL53L1_set_preset_mode:00000072 $t
C:\Users\Berbardo\AppData\Local\Temp\ccBMvrJ9.s:2146   .text.VL53L1_enable_xtalk_compensation:00000000 $t
C:\Users\Berbardo\AppData\Local\Temp\ccBMvrJ9.s:2153   .text.VL53L1_enable_xtalk_compensation:00000000 VL53L1_enable_xtalk_compensation
C:\Users\Berbardo\AppData\Local\Temp\ccBMvrJ9.s:2231   .text.VL53L1_get_xtalk_compensation_enable:00000000 $t
ARM GAS  C:\Users\Berbardo\AppData\Local\Temp\ccBMvrJ9.s 			page 184


C:\Users\Berbardo\AppData\Local\Temp\ccBMvrJ9.s:2238   .text.VL53L1_get_xtalk_compensation_enable:00000000 VL53L1_get_xtalk_compensation_enable
C:\Users\Berbardo\AppData\Local\Temp\ccBMvrJ9.s:2259   .text.VL53L1_get_lite_xtalk_margin_kcps:00000000 $t
C:\Users\Berbardo\AppData\Local\Temp\ccBMvrJ9.s:2266   .text.VL53L1_get_lite_xtalk_margin_kcps:00000000 VL53L1_get_lite_xtalk_margin_kcps
C:\Users\Berbardo\AppData\Local\Temp\ccBMvrJ9.s:2293   .text.VL53L1_set_lite_xtalk_margin_kcps:00000000 $t
C:\Users\Berbardo\AppData\Local\Temp\ccBMvrJ9.s:2300   .text.VL53L1_set_lite_xtalk_margin_kcps:00000000 VL53L1_set_lite_xtalk_margin_kcps
C:\Users\Berbardo\AppData\Local\Temp\ccBMvrJ9.s:2325   .text.VL53L1_restore_xtalk_nvm_default:00000000 $t
C:\Users\Berbardo\AppData\Local\Temp\ccBMvrJ9.s:2332   .text.VL53L1_restore_xtalk_nvm_default:00000000 VL53L1_restore_xtalk_nvm_default
C:\Users\Berbardo\AppData\Local\Temp\ccBMvrJ9.s:2369   .text.VL53L1_disable_xtalk_compensation:00000000 $t
C:\Users\Berbardo\AppData\Local\Temp\ccBMvrJ9.s:2376   .text.VL53L1_disable_xtalk_compensation:00000000 VL53L1_disable_xtalk_compensation
C:\Users\Berbardo\AppData\Local\Temp\ccBMvrJ9.s:2424   .text.VL53L1_get_lite_sigma_threshold:00000000 $t
C:\Users\Berbardo\AppData\Local\Temp\ccBMvrJ9.s:2431   .text.VL53L1_get_lite_sigma_threshold:00000000 VL53L1_get_lite_sigma_threshold
C:\Users\Berbardo\AppData\Local\Temp\ccBMvrJ9.s:2458   .text.VL53L1_set_lite_sigma_threshold:00000000 $t
C:\Users\Berbardo\AppData\Local\Temp\ccBMvrJ9.s:2465   .text.VL53L1_set_lite_sigma_threshold:00000000 VL53L1_set_lite_sigma_threshold
C:\Users\Berbardo\AppData\Local\Temp\ccBMvrJ9.s:2490   .text.VL53L1_get_lite_min_count_rate:00000000 $t
C:\Users\Berbardo\AppData\Local\Temp\ccBMvrJ9.s:2497   .text.VL53L1_get_lite_min_count_rate:00000000 VL53L1_get_lite_min_count_rate
C:\Users\Berbardo\AppData\Local\Temp\ccBMvrJ9.s:2524   .text.VL53L1_set_lite_min_count_rate:00000000 $t
C:\Users\Berbardo\AppData\Local\Temp\ccBMvrJ9.s:2531   .text.VL53L1_set_lite_min_count_rate:00000000 VL53L1_set_lite_min_count_rate
C:\Users\Berbardo\AppData\Local\Temp\ccBMvrJ9.s:2556   .text.VL53L1_get_vhv_loopbound:00000000 $t
C:\Users\Berbardo\AppData\Local\Temp\ccBMvrJ9.s:2563   .text.VL53L1_get_vhv_loopbound:00000000 VL53L1_get_vhv_loopbound
C:\Users\Berbardo\AppData\Local\Temp\ccBMvrJ9.s:2591   .text.VL53L1_set_vhv_loopbound:00000000 $t
C:\Users\Berbardo\AppData\Local\Temp\ccBMvrJ9.s:2598   .text.VL53L1_set_vhv_loopbound:00000000 VL53L1_set_vhv_loopbound
C:\Users\Berbardo\AppData\Local\Temp\ccBMvrJ9.s:2630   .text.VL53L1_data_init:00000000 $t
C:\Users\Berbardo\AppData\Local\Temp\ccBMvrJ9.s:2637   .text.VL53L1_data_init:00000000 VL53L1_data_init
C:\Users\Berbardo\AppData\Local\Temp\ccBMvrJ9.s:2803   .text.VL53L1_get_vhv_config:00000000 $t
C:\Users\Berbardo\AppData\Local\Temp\ccBMvrJ9.s:2810   .text.VL53L1_get_vhv_config:00000000 VL53L1_get_vhv_config
C:\Users\Berbardo\AppData\Local\Temp\ccBMvrJ9.s:2846   .text.VL53L1_set_vhv_config:00000000 $t
C:\Users\Berbardo\AppData\Local\Temp\ccBMvrJ9.s:2853   .text.VL53L1_set_vhv_config:00000000 VL53L1_set_vhv_config
C:\Users\Berbardo\AppData\Local\Temp\ccBMvrJ9.s:2883   .text.VL53L1_init_and_start_range:00000000 $t
C:\Users\Berbardo\AppData\Local\Temp\ccBMvrJ9.s:2890   .text.VL53L1_init_and_start_range:00000000 VL53L1_init_and_start_range
C:\Users\Berbardo\AppData\Local\Temp\ccBMvrJ9.s:3006   .text.VL53L1_init_and_start_range:00000078 $d
C:\Users\Berbardo\AppData\Local\Temp\ccBMvrJ9.s:3013   .text.VL53L1_init_and_start_range:0000007e $t
C:\Users\Berbardo\AppData\Local\Temp\ccBMvrJ9.s:3399   .text.VL53L1_init_and_start_range:00000200 $d
C:\Users\Berbardo\AppData\Local\Temp\ccBMvrJ9.s:3404   .text.VL53L1_stop_range:00000000 $t
C:\Users\Berbardo\AppData\Local\Temp\ccBMvrJ9.s:3411   .text.VL53L1_stop_range:00000000 VL53L1_stop_range
C:\Users\Berbardo\AppData\Local\Temp\ccBMvrJ9.s:3480   .text.VL53L1_get_measurement_results:00000000 $t
C:\Users\Berbardo\AppData\Local\Temp\ccBMvrJ9.s:3487   .text.VL53L1_get_measurement_results:00000000 VL53L1_get_measurement_results
C:\Users\Berbardo\AppData\Local\Temp\ccBMvrJ9.s:3625   .text.VL53L1_clear_interrupt_and_enable_next_range:00000000 $t
C:\Users\Berbardo\AppData\Local\Temp\ccBMvrJ9.s:3632   .text.VL53L1_clear_interrupt_and_enable_next_range:00000000 VL53L1_clear_interrupt_and_enable_next_range
C:\Users\Berbardo\AppData\Local\Temp\ccBMvrJ9.s:3661   .text.VL53L1_copy_sys_and_core_results_to_range_results:00000000 $t
C:\Users\Berbardo\AppData\Local\Temp\ccBMvrJ9.s:3668   .text.VL53L1_copy_sys_and_core_results_to_range_results:00000000 VL53L1_copy_sys_and_core_results_to_range_results
C:\Users\Berbardo\AppData\Local\Temp\ccBMvrJ9.s:3981   .text.VL53L1_copy_sys_and_core_results_to_range_results:0000010c $d
C:\Users\Berbardo\AppData\Local\Temp\ccBMvrJ9.s:4023   .text.VL53L1_get_device_results:00000000 $t
C:\Users\Berbardo\AppData\Local\Temp\ccBMvrJ9.s:4030   .text.VL53L1_get_device_results:00000000 VL53L1_get_device_results
C:\Users\Berbardo\AppData\Local\Temp\ccBMvrJ9.s:4186   .text.VL53L1_set_GPIO_interrupt_config:00000000 $t
C:\Users\Berbardo\AppData\Local\Temp\ccBMvrJ9.s:4193   .text.VL53L1_set_GPIO_interrupt_config:00000000 VL53L1_set_GPIO_interrupt_config
C:\Users\Berbardo\AppData\Local\Temp\ccBMvrJ9.s:4275   .text.VL53L1_set_GPIO_interrupt_config_struct:00000000 $t
C:\Users\Berbardo\AppData\Local\Temp\ccBMvrJ9.s:4282   .text.VL53L1_set_GPIO_interrupt_config_struct:00000000 VL53L1_set_GPIO_interrupt_config_struct
C:\Users\Berbardo\AppData\Local\Temp\ccBMvrJ9.s:4351   .text.VL53L1_get_GPIO_interrupt_config:00000000 $t
C:\Users\Berbardo\AppData\Local\Temp\ccBMvrJ9.s:4358   .text.VL53L1_get_GPIO_interrupt_config:00000000 VL53L1_get_GPIO_interrupt_config
C:\Users\Berbardo\AppData\Local\Temp\ccBMvrJ9.s:4444   .text.VL53L1_set_offset_calibration_mode:00000000 $t
C:\Users\Berbardo\AppData\Local\Temp\ccBMvrJ9.s:4451   .text.VL53L1_set_offset_calibration_mode:00000000 VL53L1_set_offset_calibration_mode
C:\Users\Berbardo\AppData\Local\Temp\ccBMvrJ9.s:4476   .text.VL53L1_get_offset_calibration_mode:00000000 $t
C:\Users\Berbardo\AppData\Local\Temp\ccBMvrJ9.s:4483   .text.VL53L1_get_offset_calibration_mode:00000000 VL53L1_get_offset_calibration_mode
C:\Users\Berbardo\AppData\Local\Temp\ccBMvrJ9.s:4510   .text.VL53L1_set_offset_correction_mode:00000000 $t
C:\Users\Berbardo\AppData\Local\Temp\ccBMvrJ9.s:4517   .text.VL53L1_set_offset_correction_mode:00000000 VL53L1_set_offset_correction_mode
C:\Users\Berbardo\AppData\Local\Temp\ccBMvrJ9.s:4542   .text.VL53L1_get_offset_correction_mode:00000000 $t
C:\Users\Berbardo\AppData\Local\Temp\ccBMvrJ9.s:4549   .text.VL53L1_get_offset_correction_mode:00000000 VL53L1_get_offset_correction_mode
ARM GAS  C:\Users\Berbardo\AppData\Local\Temp\ccBMvrJ9.s 			page 185


C:\Users\Berbardo\AppData\Local\Temp\ccBMvrJ9.s:4576   .text.VL53L1_get_tuning_parm:00000000 $t
C:\Users\Berbardo\AppData\Local\Temp\ccBMvrJ9.s:4583   .text.VL53L1_get_tuning_parm:00000000 VL53L1_get_tuning_parm
C:\Users\Berbardo\AppData\Local\Temp\ccBMvrJ9.s:4602   .text.VL53L1_get_tuning_parm:0000000e $d
C:\Users\Berbardo\AppData\Local\Temp\ccBMvrJ9.s:4659   .text.VL53L1_get_tuning_parm:00000080 $t
C:\Users\Berbardo\AppData\Local\Temp\ccBMvrJ9.s:5421   .text.VL53L1_set_tuning_parm:00000000 $t
C:\Users\Berbardo\AppData\Local\Temp\ccBMvrJ9.s:5428   .text.VL53L1_set_tuning_parm:00000000 VL53L1_set_tuning_parm
C:\Users\Berbardo\AppData\Local\Temp\ccBMvrJ9.s:5447   .text.VL53L1_set_tuning_parm:0000000e $d
C:\Users\Berbardo\AppData\Local\Temp\ccBMvrJ9.s:5504   .text.VL53L1_set_tuning_parm:00000080 $t
C:\Users\Berbardo\AppData\Local\Temp\ccBMvrJ9.s:3998   .text.VL53L1_copy_sys_and_core_results_to_range_results:0000011d $d
C:\Users\Berbardo\AppData\Local\Temp\ccBMvrJ9.s:3998   .text.VL53L1_copy_sys_and_core_results_to_range_results:0000011e $t
                           .group:00000000 wm4.0.cbadcd7125b439f63d13d43ae17ce4cb
                           .group:00000000 wm4.target_vl53l1_1.h.12.551c1b90918b951c5224feb9b75565bd
                           .group:00000000 wm4._newlib_version.h.4.9ba035841e762c3308916a0ce96032e7
                           .group:00000000 wm4.features.h.33.d0b7f3cd6ee95f610104014bb3ed522a
                           .group:00000000 wm4._default_types.h.15.247e5cd201eca3442cbf5404108c4935
                           .group:00000000 wm4._intsup.h.10.48bafbb683905c4daa4565a85aeeb264
                           .group:00000000 wm4._stdint.h.10.c24fa3af3bc1706662bb5593a907e841
                           .group:00000000 wm4.stdint.h.23.d53047a68f4a85177f80b422d52785ed
                           .group:00000000 wm4.stddef.h.39.a38874c8f8a57e66301090908ec2a69f
                           .group:00000000 wm4.newlib.h.8.f6e543eac3f2f65163ba2ffe3b04987b
                           .group:00000000 wm4.ieeefp.h.77.5499ed899a78229fbaf6d102924f4714
                           .group:00000000 wm4.config.h.224.c701144a7b0518c6ee9b9b5465b79f81
                           .group:00000000 wm4._ansi.h.31.de524f58584151836e90d8620a16f8e8
                           .group:00000000 wm4._types.h.20.dd0d04dca3800a0d2a6129b87f3adbb2
                           .group:00000000 wm4.stddef.h.161.5349cb105733e8777bfb0cf53c4e3f34
                           .group:00000000 wm4._types.h.127.34941de1b2539d59d5cac00e0dd27a45
                           .group:00000000 wm4.reent.h.17.e292bf8b0bec6c96e131a54347145a30
                           .group:00000000 wm4.lock.h.2.1461d1fff82dffe8bfddc23307f6484f
                           .group:00000000 wm4.reent.h.77.dcd6129ff07fe81bd5636db29abe53b2
                           .group:00000000 wm4.cdefs.h.49.6260d97adb8d27534cbdc0f868b8ea87
                           .group:00000000 wm4.string.h.15.dab3980bf35408a4c507182805e2de3a
                           .group:00000000 wm4.stddef.h.161.19e15733342b50ead2919490b095303e
                           .group:00000000 wm4.stdio.h.27.3fc80220048df77954e38daec3bb9670
                           .group:00000000 wm4.stdarg.h.34.3a23a216c0c293b3d2ea2e89281481e6
                           .group:00000000 wm4.types.h.40.c2dcbbb5c1f4f0e5cb716ebf7776da48
                           .group:00000000 wm4.stdio.h.2.4aa87247282eca6c8f36f9de33d8df1a
                           .group:00000000 wm4.stdio.h.81.2a55589bfa3ee24eeb84e3c79458e4a9
                           .group:00000000 wm4.stdlib.h.13.4ed386f5c1a80d71e72172885d946ef2
                           .group:00000000 wm4.stdlib.h.56.b4ddaf162082f284ba35b4444af99a9a
                           .group:00000000 wm4.vl53l1_platform_user_config.h.71.4bbd3f655147d64657bb9c77e14249c2
                           .group:00000000 wm4.vl53l1_ll_device.h.76.61a5c622dad24a36ae0651848b8ac7cb
                           .group:00000000 wm4.vl53l1_error_codes.h.71.b6e90121c4542ed0428e2f06155d8266
                           .group:00000000 wm4.vl53l1_register_map.h.69.ec259f417eacfeb4a1fe3b1107810d95
                           .group:00000000 wm4.vl53l1_register_structs.h.74.11a89e7b4ec79fa5f24a8809948e429f
                           .group:00000000 wm4.vl53l1_platform_user_defines.h.65.ba5bf58a2b92eb98a59c4d4834576b4d
                           .group:00000000 wm4.vl53l1_error_exceptions.h.70.5b53c89ff28584d05d224dd03776b32e
                           .group:00000000 wm4.vl53l1_ll_def.h.91.518239c514b35c896619678d2b7b75c9
                           .group:00000000 wm4.vl53l1_platform_log.h.71.79ea17a42b4255ee5461fb53cd7aea3c
                           .group:00000000 wm4.stm32f3xx_hal_conf.h.37.cb1c9cb802da867d86527a1477311c20
                           .group:00000000 wm4.stm32f3xx.h.55.fe34e0340b06ab20c90f3cf1d792e0eb
                           .group:00000000 wm4.stm32f303xe.h.51.65501469ddbb8a3dac94b2f9d61c4e79
                           .group:00000000 wm4.core_cm4.h.42.42f38327ee0970d80f60117e6a3ba2b0
                           .group:00000000 wm4.cmsis_gcc.h.36.39970cb43ce4b53c82644a1f9bc2eab9
                           .group:00000000 wm4.core_cm4.h.223.390ff9b0e06949b13520d8b6746f63e8
                           .group:00000000 wm4.stm32f303xe.h.787.6957ba193b5d3b55f4f9c444bc42cb63
                           .group:00000000 wm4.stm32f3xx.h.191.245d83eb21a6c69e2950c577a7134277
                           .group:00000000 wm4.stm32f3xx_hal_def.h.76.500c7c9bfcb8d4adebf82d1af27ff044
ARM GAS  C:\Users\Berbardo\AppData\Local\Temp\ccBMvrJ9.s 			page 186


                           .group:00000000 wm4.stm32f3xx_hal_rcc.h.64.06cc24fd94394ddd03725d84823331b1
                           .group:00000000 wm4.stm32f3xx_hal_rcc_ex.h.38.96615d6f3e5897bb79454968f7fc6c86
                           .group:00000000 wm4.stm32f3xx_hal_gpio.h.38.11db931fcbf37182e25c3927ddf6e8ba
                           .group:00000000 wm4.stm32f3xx_hal_gpio_ex.h.38.46a6c05d651e2a032ac66cebe63916b8
                           .group:00000000 wm4.stm32f3xx_hal_dma.h.38.61966c780efd486aa451ae49ca247997
                           .group:00000000 wm4.stm32f3xx_hal_dma_ex.h.38.195e7d437d9280b9f4e6bae0fa00db04
                           .group:00000000 wm4.stm32f3xx_hal_dma.h.423.83da80eb3e6ae96f050d0c5e4b55e4b9
                           .group:00000000 wm4.stm32f3xx_hal_cortex.h.38.c5c1d06be9dad8e7837dbe16f3535233
                           .group:00000000 wm4.stm32f3xx_hal_flash.h.38.2b4c202390dfbe69a578ce118ab4d799
                           .group:00000000 wm4.stm32f3xx_hal_flash_ex.h.38.65931ad4b848f69ba672eb38b2753615
                           .group:00000000 wm4.stm32f3xx_hal_i2c.h.38.e3750f5f029ebf729a7cf07e85cad615
                           .group:00000000 wm4.stm32f3xx_hal_i2c_ex.h.38.bdd47c8bc2d21749d9fd72e6b8484890
                           .group:00000000 wm4.stm32f3xx_hal_i2c.h.626.05cba3c85b66bb4631bfd2ebbfab1b06
                           .group:00000000 wm4.stm32f3xx_hal_pwr.h.38.efb6ce75a5c12d6b2c7c914e7a94ec2b
                           .group:00000000 wm4.stm32f3xx_hal_pwr_ex.h.38.d228edc56905d96af2d831d3c8e0487a
                           .group:00000000 wm4.stm32f3xx_hal.h.60.11e72be277d7cf245b56360bacde3327
                           .group:00000000 wm4.vl53l1_def.h.87.ea1a10eae4f02dade0991856ca744364
                           .group:00000000 wm4.vl53l1_platform_user_data.h.94.31d6fd49a37f98d182bed50c298f83ae
                           .group:00000000 wm4.vl53l1_register_settings.h.70.da71b77dffc0f7f66182e53d9524ce59
                           .group:00000000 wm4.vl53l1_nvm_map.h.75.2c498fd8baf194ae0c22be2be05eb1d1
                           .group:00000000 wm4.vl53l1_tuning_parm_defaults.h.76.2d2eb635734436f3866c099db1082065

UNDEFINED SYMBOLS
VL53L1_WrByte
VL53L1_WaitUs
VL53L1_wait_for_boot_completion
VL53L1_calc_crosstalk_plane_offset_with_margin
VL53L1_calc_timeout_register_values
VL53L1_calc_macro_period_us
VL53L1_calc_timeout_us
VL53L1_calc_decoded_timeout_us
VL53L1_encode_row_col
VL53L1_encode_zone_size
VL53L1_decode_row_col
VL53L1_decode_zone_size
VL53L1_get_static_nvm_managed
VL53L1_get_customer_nvm_managed
VL53L1_get_nvm_copy_data
VL53L1_copy_rtn_good_spads_to_buffer
VL53L1_RdWord
VL53L1_init_ll_driver_state
VL53L1_preset_mode_standard_ranging
VL53L1_preset_mode_standard_ranging_short_range
VL53L1_preset_mode_standard_ranging_long_range
VL53L1_preset_mode_standard_ranging_mm1_cal
VL53L1_preset_mode_standard_ranging_mm2_cal
VL53L1_preset_mode_timed_ranging
VL53L1_preset_mode_timed_ranging_short_range
VL53L1_preset_mode_timed_ranging_long_range
VL53L1_preset_mode_olt
VL53L1_preset_mode_singleshot_ranging
VL53L1_preset_mode_low_power_auto_short_ranging
VL53L1_preset_mode_low_power_auto_ranging
VL53L1_preset_mode_low_power_auto_long_ranging
VL53L1_calc_range_ignore_threshold
VL53L1_set_customer_nvm_managed
VL53L1_init_version
ARM GAS  C:\Users\Berbardo\AppData\Local\Temp\ccBMvrJ9.s 			page 187


VL53L1_init_refspadchar_config_struct
VL53L1_init_ssc_config_struct
VL53L1_init_xtalk_config_struct
VL53L1_init_offset_cal_config_struct
VL53L1_init_tuning_parm_storage_struct
VL53L1_low_power_auto_data_init
VL53L1_i2c_encode_dynamic_config
VL53L1_i2c_encode_static_nvm_managed
VL53L1_i2c_encode_customer_nvm_managed
VL53L1_i2c_encode_static_config
VL53L1_i2c_encode_general_config
VL53L1_i2c_encode_timing_config
VL53L1_i2c_encode_system_control
VL53L1_WriteMulti
VL53L1_update_ll_driver_rd_state
VL53L1_update_ll_driver_cfg_state
VL53L1_set_system_control
VL53L1_low_power_auto_data_stop_range
VL53L1_ReadMulti
VL53L1_i2c_decode_debug_results
VL53L1_i2c_decode_core_results
VL53L1_i2c_decode_system_results
memcpy
VL53L1_low_power_auto_update_DSS
VL53L1_low_power_auto_setup_manual_calibration
VL53L1_check_ll_driver_rd_state
VL53L1_encode_GPIO_interrupt_config
VL53L1_set_GPIO_thresholds_from_struct
VL53L1_decode_GPIO_interrupt_config
